ARM GAS  C:\Users\strap\AppData\Local\Temp\ccTzHSZB.s 			page 1


   1              		.syntax unified
   2              		.cpu cortex-m3
   3              		.fpu softvfp
   4              		.eabi_attribute 20, 1
   5              		.eabi_attribute 21, 1
   6              		.eabi_attribute 23, 3
   7              		.eabi_attribute 24, 1
   8              		.eabi_attribute 25, 1
   9              		.eabi_attribute 26, 1
  10              		.eabi_attribute 30, 1
  11              		.eabi_attribute 34, 1
  12              		.eabi_attribute 18, 4
  13              		.thumb
  14              		.syntax unified
  15              		.file	"lv_tabview.c"
  16              		.text
  17              	.Ltext0:
  18              		.cfi_sections	.debug_frame
  19              		.section	.text.lv_tabview_get_style,"ax",%progbits
  20              		.align	2
  21              		.thumb
  22              		.thumb_func
  23              		.type	lv_tabview_get_style, %function
  24              	lv_tabview_get_style:
  25              	.LFB371:
  26              		.file 1 "lvgl\\src\\lv_widgets\\lv_tabview.c"
   1:lvgl\src\lv_widgets/lv_tabview.c **** /**
   2:lvgl\src\lv_widgets/lv_tabview.c ****  * @file lv_tab.c
   3:lvgl\src\lv_widgets/lv_tabview.c ****  *
   4:lvgl\src\lv_widgets/lv_tabview.c ****  */
   5:lvgl\src\lv_widgets/lv_tabview.c **** 
   6:lvgl\src\lv_widgets/lv_tabview.c **** /*********************
   7:lvgl\src\lv_widgets/lv_tabview.c ****  *      INCLUDES
   8:lvgl\src\lv_widgets/lv_tabview.c ****  *********************/
   9:lvgl\src\lv_widgets/lv_tabview.c **** #include "lv_tabview.h"
  10:lvgl\src\lv_widgets/lv_tabview.c **** #if LV_USE_TABVIEW != 0
  11:lvgl\src\lv_widgets/lv_tabview.c **** 
  12:lvgl\src\lv_widgets/lv_tabview.c **** #include "lv_btnmatrix.h"
  13:lvgl\src\lv_widgets/lv_tabview.c **** #include "../lv_misc/lv_debug.h"
  14:lvgl\src\lv_widgets/lv_tabview.c **** #include "../lv_themes/lv_theme.h"
  15:lvgl\src\lv_widgets/lv_tabview.c **** #include "../lv_misc/lv_anim.h"
  16:lvgl\src\lv_widgets/lv_tabview.c **** #include "../lv_core/lv_disp.h"
  17:lvgl\src\lv_widgets/lv_tabview.c **** 
  18:lvgl\src\lv_widgets/lv_tabview.c **** /*********************
  19:lvgl\src\lv_widgets/lv_tabview.c ****  *      DEFINES
  20:lvgl\src\lv_widgets/lv_tabview.c ****  *********************/
  21:lvgl\src\lv_widgets/lv_tabview.c **** #define LV_OBJX_NAME "lv_tabview"
  22:lvgl\src\lv_widgets/lv_tabview.c **** 
  23:lvgl\src\lv_widgets/lv_tabview.c **** #if LV_USE_ANIMATION
  24:lvgl\src\lv_widgets/lv_tabview.c ****     #ifndef LV_TABVIEW_DEF_ANIM_TIME
  25:lvgl\src\lv_widgets/lv_tabview.c ****         #define LV_TABVIEW_DEF_ANIM_TIME 300 /*Animation time of focusing to the a list element [ms
  26:lvgl\src\lv_widgets/lv_tabview.c ****     #endif
  27:lvgl\src\lv_widgets/lv_tabview.c **** #else
  28:lvgl\src\lv_widgets/lv_tabview.c ****     #undef LV_TABVIEW_DEF_ANIM_TIME
  29:lvgl\src\lv_widgets/lv_tabview.c ****     #define LV_TABVIEW_DEF_ANIM_TIME 0 /*No animations*/
  30:lvgl\src\lv_widgets/lv_tabview.c **** #endif
  31:lvgl\src\lv_widgets/lv_tabview.c **** 
ARM GAS  C:\Users\strap\AppData\Local\Temp\ccTzHSZB.s 			page 2


  32:lvgl\src\lv_widgets/lv_tabview.c **** /**********************
  33:lvgl\src\lv_widgets/lv_tabview.c ****  *      TYPEDEFS
  34:lvgl\src\lv_widgets/lv_tabview.c ****  **********************/
  35:lvgl\src\lv_widgets/lv_tabview.c **** 
  36:lvgl\src\lv_widgets/lv_tabview.c **** /**********************
  37:lvgl\src\lv_widgets/lv_tabview.c ****  *  STATIC PROTOTYPES
  38:lvgl\src\lv_widgets/lv_tabview.c ****  **********************/
  39:lvgl\src\lv_widgets/lv_tabview.c **** static lv_res_t lv_tabview_signal(lv_obj_t * tabview, lv_signal_t sign, void * param);
  40:lvgl\src\lv_widgets/lv_tabview.c **** static lv_res_t tabview_scrl_signal(lv_obj_t * tabview_scrl, lv_signal_t sign, void * param);
  41:lvgl\src\lv_widgets/lv_tabview.c **** static lv_style_list_t * lv_tabview_get_style(lv_obj_t * tabview, uint8_t part);
  42:lvgl\src\lv_widgets/lv_tabview.c **** 
  43:lvgl\src\lv_widgets/lv_tabview.c **** static void tab_btnm_event_cb(lv_obj_t * tab_btnm, lv_event_t event);
  44:lvgl\src\lv_widgets/lv_tabview.c **** static void tabview_realign(lv_obj_t * tabview);
  45:lvgl\src\lv_widgets/lv_tabview.c **** static void refr_indic_size(lv_obj_t * tabview);
  46:lvgl\src\lv_widgets/lv_tabview.c **** static void refr_btns_size(lv_obj_t * tabview);
  47:lvgl\src\lv_widgets/lv_tabview.c **** static void refr_content_size(lv_obj_t * tabview);
  48:lvgl\src\lv_widgets/lv_tabview.c **** static void refr_align(lv_obj_t * tabview);
  49:lvgl\src\lv_widgets/lv_tabview.c **** 
  50:lvgl\src\lv_widgets/lv_tabview.c **** /**********************
  51:lvgl\src\lv_widgets/lv_tabview.c ****  *  STATIC VARIABLES
  52:lvgl\src\lv_widgets/lv_tabview.c ****  **********************/
  53:lvgl\src\lv_widgets/lv_tabview.c **** static lv_signal_cb_t ancestor_signal;
  54:lvgl\src\lv_widgets/lv_tabview.c **** static lv_signal_cb_t ancestor_scrl_signal;
  55:lvgl\src\lv_widgets/lv_tabview.c **** static lv_signal_cb_t page_signal;
  56:lvgl\src\lv_widgets/lv_tabview.c **** static const char * tab_def[] = {""};
  57:lvgl\src\lv_widgets/lv_tabview.c **** 
  58:lvgl\src\lv_widgets/lv_tabview.c **** /**********************
  59:lvgl\src\lv_widgets/lv_tabview.c ****  *      MACROS
  60:lvgl\src\lv_widgets/lv_tabview.c ****  **********************/
  61:lvgl\src\lv_widgets/lv_tabview.c **** 
  62:lvgl\src\lv_widgets/lv_tabview.c **** /**********************
  63:lvgl\src\lv_widgets/lv_tabview.c ****  *   GLOBAL FUNCTIONS
  64:lvgl\src\lv_widgets/lv_tabview.c ****  **********************/
  65:lvgl\src\lv_widgets/lv_tabview.c **** 
  66:lvgl\src\lv_widgets/lv_tabview.c **** /**
  67:lvgl\src\lv_widgets/lv_tabview.c ****  * Create a Tab view object
  68:lvgl\src\lv_widgets/lv_tabview.c ****  * @param par pointer to an object, it will be the parent of the new tab
  69:lvgl\src\lv_widgets/lv_tabview.c ****  * @param copy pointer to a tab object, if not NULL then the new object will be copied from it
  70:lvgl\src\lv_widgets/lv_tabview.c ****  * @return pointer to the created tab
  71:lvgl\src\lv_widgets/lv_tabview.c ****  */
  72:lvgl\src\lv_widgets/lv_tabview.c **** lv_obj_t * lv_tabview_create(lv_obj_t * par, const lv_obj_t * copy)
  73:lvgl\src\lv_widgets/lv_tabview.c **** {
  74:lvgl\src\lv_widgets/lv_tabview.c ****     LV_LOG_TRACE("tab view create started");
  75:lvgl\src\lv_widgets/lv_tabview.c **** 
  76:lvgl\src\lv_widgets/lv_tabview.c ****     /*Create the ancestor of tab*/
  77:lvgl\src\lv_widgets/lv_tabview.c ****     lv_obj_t * tabview = lv_obj_create(par, copy);
  78:lvgl\src\lv_widgets/lv_tabview.c ****     LV_ASSERT_MEM(tabview);
  79:lvgl\src\lv_widgets/lv_tabview.c ****     if(tabview == NULL) return NULL;
  80:lvgl\src\lv_widgets/lv_tabview.c ****     if(ancestor_signal == NULL) ancestor_signal = lv_obj_get_signal_cb(tabview);
  81:lvgl\src\lv_widgets/lv_tabview.c **** 
  82:lvgl\src\lv_widgets/lv_tabview.c ****     /*Allocate the tab type specific extended data*/
  83:lvgl\src\lv_widgets/lv_tabview.c ****     lv_tabview_ext_t * ext = lv_obj_allocate_ext_attr(tabview, sizeof(lv_tabview_ext_t));
  84:lvgl\src\lv_widgets/lv_tabview.c ****     LV_ASSERT_MEM(ext);
  85:lvgl\src\lv_widgets/lv_tabview.c ****     if(ext == NULL) {
  86:lvgl\src\lv_widgets/lv_tabview.c ****         lv_obj_del(tabview);
  87:lvgl\src\lv_widgets/lv_tabview.c ****         return NULL;
  88:lvgl\src\lv_widgets/lv_tabview.c ****     }
ARM GAS  C:\Users\strap\AppData\Local\Temp\ccTzHSZB.s 			page 3


  89:lvgl\src\lv_widgets/lv_tabview.c **** 
  90:lvgl\src\lv_widgets/lv_tabview.c ****     /*Initialize the allocated 'ext' */
  91:lvgl\src\lv_widgets/lv_tabview.c ****     ext->tab_cur      = 0;
  92:lvgl\src\lv_widgets/lv_tabview.c ****     ext->tab_cnt      = 0;
  93:lvgl\src\lv_widgets/lv_tabview.c ****     ext->point_last.x = 0;
  94:lvgl\src\lv_widgets/lv_tabview.c ****     ext->point_last.y = 0;
  95:lvgl\src\lv_widgets/lv_tabview.c ****     ext->content      = NULL;
  96:lvgl\src\lv_widgets/lv_tabview.c ****     ext->indic        = NULL;
  97:lvgl\src\lv_widgets/lv_tabview.c ****     ext->btns         = NULL;
  98:lvgl\src\lv_widgets/lv_tabview.c ****     ext->btns_pos     = LV_TABVIEW_TAB_POS_TOP;
  99:lvgl\src\lv_widgets/lv_tabview.c **** #if LV_USE_ANIMATION
 100:lvgl\src\lv_widgets/lv_tabview.c ****     ext->anim_time = LV_TABVIEW_DEF_ANIM_TIME;
 101:lvgl\src\lv_widgets/lv_tabview.c **** #endif
 102:lvgl\src\lv_widgets/lv_tabview.c **** 
 103:lvgl\src\lv_widgets/lv_tabview.c ****     /*The signal and design functions are not copied so set them here*/
 104:lvgl\src\lv_widgets/lv_tabview.c ****     lv_obj_set_signal_cb(tabview, lv_tabview_signal);
 105:lvgl\src\lv_widgets/lv_tabview.c ****     /*Init the new tab tab*/
 106:lvgl\src\lv_widgets/lv_tabview.c ****     if(copy == NULL) {
 107:lvgl\src\lv_widgets/lv_tabview.c ****         ext->tab_name_ptr = lv_mem_alloc(sizeof(char *));
 108:lvgl\src\lv_widgets/lv_tabview.c ****         LV_ASSERT_MEM(ext->tab_name_ptr);
 109:lvgl\src\lv_widgets/lv_tabview.c ****         if(ext->tab_name_ptr == NULL) return NULL;
 110:lvgl\src\lv_widgets/lv_tabview.c ****         ext->tab_name_ptr[0] = "";
 111:lvgl\src\lv_widgets/lv_tabview.c **** 
 112:lvgl\src\lv_widgets/lv_tabview.c ****         /* Set a size which fits into the parent.
 113:lvgl\src\lv_widgets/lv_tabview.c ****          * Don't use `par` directly because if the tabview is created on a page it is moved to the
 114:lvgl\src\lv_widgets/lv_tabview.c ****          * scrollable so the parent has changed */
 115:lvgl\src\lv_widgets/lv_tabview.c ****         lv_coord_t w;
 116:lvgl\src\lv_widgets/lv_tabview.c ****         lv_coord_t h;
 117:lvgl\src\lv_widgets/lv_tabview.c ****         if(par) {
 118:lvgl\src\lv_widgets/lv_tabview.c ****             w = lv_obj_get_width_fit(lv_obj_get_parent(tabview));
 119:lvgl\src\lv_widgets/lv_tabview.c ****             h = lv_obj_get_height_fit(lv_obj_get_parent(tabview));
 120:lvgl\src\lv_widgets/lv_tabview.c ****         }
 121:lvgl\src\lv_widgets/lv_tabview.c ****         else {
 122:lvgl\src\lv_widgets/lv_tabview.c ****             w = lv_disp_get_hor_res(NULL);
 123:lvgl\src\lv_widgets/lv_tabview.c ****             h = lv_disp_get_ver_res(NULL);
 124:lvgl\src\lv_widgets/lv_tabview.c ****         }
 125:lvgl\src\lv_widgets/lv_tabview.c **** 
 126:lvgl\src\lv_widgets/lv_tabview.c ****         lv_obj_set_size(tabview, w, h);
 127:lvgl\src\lv_widgets/lv_tabview.c **** 
 128:lvgl\src\lv_widgets/lv_tabview.c ****         ext->content = lv_page_create(tabview, NULL);
 129:lvgl\src\lv_widgets/lv_tabview.c ****         ext->btns    = lv_btnmatrix_create(tabview, NULL);
 130:lvgl\src\lv_widgets/lv_tabview.c ****         ext->indic   = lv_obj_create(ext->btns, NULL);
 131:lvgl\src\lv_widgets/lv_tabview.c **** 
 132:lvgl\src\lv_widgets/lv_tabview.c ****         if(ancestor_scrl_signal == NULL) ancestor_scrl_signal = lv_obj_get_signal_cb(lv_page_get_sc
 133:lvgl\src\lv_widgets/lv_tabview.c ****         lv_obj_set_signal_cb(lv_page_get_scrollable(ext->content), tabview_scrl_signal);
 134:lvgl\src\lv_widgets/lv_tabview.c **** 
 135:lvgl\src\lv_widgets/lv_tabview.c ****         lv_btnmatrix_set_map(ext->btns, tab_def);
 136:lvgl\src\lv_widgets/lv_tabview.c ****         lv_obj_set_event_cb(ext->btns, tab_btnm_event_cb);
 137:lvgl\src\lv_widgets/lv_tabview.c **** 
 138:lvgl\src\lv_widgets/lv_tabview.c ****         lv_obj_set_click(ext->indic, false);
 139:lvgl\src\lv_widgets/lv_tabview.c ****         lv_obj_set_drag_dir(lv_page_get_scrollable(ext->content), LV_DRAG_DIR_ONE);
 140:lvgl\src\lv_widgets/lv_tabview.c **** 
 141:lvgl\src\lv_widgets/lv_tabview.c ****         lv_page_set_scrollable_fit2(ext->content, LV_FIT_TIGHT, LV_FIT_PARENT);
 142:lvgl\src\lv_widgets/lv_tabview.c ****         lv_page_set_scrl_layout(ext->content, LV_LAYOUT_ROW_TOP);
 143:lvgl\src\lv_widgets/lv_tabview.c ****         lv_page_set_scrollbar_mode(ext->content, LV_SCROLLBAR_MODE_OFF);
 144:lvgl\src\lv_widgets/lv_tabview.c **** 
 145:lvgl\src\lv_widgets/lv_tabview.c ****         lv_obj_clean_style_list(ext->content, LV_PAGE_PART_BG);
ARM GAS  C:\Users\strap\AppData\Local\Temp\ccTzHSZB.s 			page 4


 146:lvgl\src\lv_widgets/lv_tabview.c **** 
 147:lvgl\src\lv_widgets/lv_tabview.c ****         lv_theme_apply(tabview, LV_THEME_TABVIEW);
 148:lvgl\src\lv_widgets/lv_tabview.c **** 
 149:lvgl\src\lv_widgets/lv_tabview.c ****     }
 150:lvgl\src\lv_widgets/lv_tabview.c ****     /*Copy an existing tab view*/
 151:lvgl\src\lv_widgets/lv_tabview.c ****     else {
 152:lvgl\src\lv_widgets/lv_tabview.c ****         lv_tabview_ext_t * copy_ext = lv_obj_get_ext_attr(copy);
 153:lvgl\src\lv_widgets/lv_tabview.c ****         ext->point_last.x           = 0;
 154:lvgl\src\lv_widgets/lv_tabview.c ****         ext->point_last.y           = 0;
 155:lvgl\src\lv_widgets/lv_tabview.c ****         ext->btns                   = lv_btnmatrix_create(tabview, copy_ext->btns);
 156:lvgl\src\lv_widgets/lv_tabview.c ****         ext->indic                  = lv_obj_create(ext->btns, copy_ext->indic);
 157:lvgl\src\lv_widgets/lv_tabview.c ****         ext->content                = lv_page_create(tabview, copy_ext->content);
 158:lvgl\src\lv_widgets/lv_tabview.c **** #if LV_USE_ANIMATION
 159:lvgl\src\lv_widgets/lv_tabview.c ****         ext->anim_time = copy_ext->anim_time;
 160:lvgl\src\lv_widgets/lv_tabview.c **** #endif
 161:lvgl\src\lv_widgets/lv_tabview.c **** 
 162:lvgl\src\lv_widgets/lv_tabview.c ****         ext->tab_name_ptr = lv_mem_alloc(sizeof(char *));
 163:lvgl\src\lv_widgets/lv_tabview.c ****         LV_ASSERT_MEM(ext->tab_name_ptr);
 164:lvgl\src\lv_widgets/lv_tabview.c ****         if(ext->tab_name_ptr == NULL) return NULL;
 165:lvgl\src\lv_widgets/lv_tabview.c ****         ext->tab_name_ptr[0] = "";
 166:lvgl\src\lv_widgets/lv_tabview.c ****         lv_btnmatrix_set_map(ext->btns, ext->tab_name_ptr);
 167:lvgl\src\lv_widgets/lv_tabview.c **** 
 168:lvgl\src\lv_widgets/lv_tabview.c ****         lv_style_list_copy(lv_obj_get_style_list(tabview, LV_TABVIEW_PART_BG_SCRLLABLE), lv_obj_get
 169:lvgl\src\lv_widgets/lv_tabview.c ****                                                                                                    
 170:lvgl\src\lv_widgets/lv_tabview.c ****         lv_style_list_copy(lv_obj_get_style_list(tabview, LV_TABVIEW_PART_TAB_BG), lv_obj_get_style
 171:lvgl\src\lv_widgets/lv_tabview.c ****                                                                                                    
 172:lvgl\src\lv_widgets/lv_tabview.c ****         lv_style_list_copy(lv_obj_get_style_list(tabview, LV_TABVIEW_PART_TAB_BTN), lv_obj_get_styl
 173:lvgl\src\lv_widgets/lv_tabview.c ****                                                                                                    
 174:lvgl\src\lv_widgets/lv_tabview.c **** 
 175:lvgl\src\lv_widgets/lv_tabview.c ****         uint16_t i;
 176:lvgl\src\lv_widgets/lv_tabview.c ****         for(i = 0; i < copy_ext->tab_cnt; i++) {
 177:lvgl\src\lv_widgets/lv_tabview.c ****             lv_obj_t * new_tab = lv_tabview_add_tab(tabview, copy_ext->tab_name_ptr[i]);
 178:lvgl\src\lv_widgets/lv_tabview.c ****             lv_obj_t * copy_tab = lv_tabview_get_tab(copy, i);
 179:lvgl\src\lv_widgets/lv_tabview.c ****             lv_style_list_copy(lv_obj_get_style_list(new_tab, LV_PAGE_PART_SCROLLABLE), lv_obj_get_
 180:lvgl\src\lv_widgets/lv_tabview.c ****                                                                                                    
 181:lvgl\src\lv_widgets/lv_tabview.c ****             lv_style_list_copy(lv_obj_get_style_list(new_tab, LV_PAGE_PART_SCROLLBAR), lv_obj_get_s
 182:lvgl\src\lv_widgets/lv_tabview.c ****                                                                                                    
 183:lvgl\src\lv_widgets/lv_tabview.c ****             lv_obj_refresh_style(new_tab, LV_OBJ_PART_ALL, LV_STYLE_PROP_ALL);
 184:lvgl\src\lv_widgets/lv_tabview.c ****         }
 185:lvgl\src\lv_widgets/lv_tabview.c **** 
 186:lvgl\src\lv_widgets/lv_tabview.c ****         /*Refresh the style with new signal function*/
 187:lvgl\src\lv_widgets/lv_tabview.c ****         lv_obj_refresh_style(tabview, LV_OBJ_PART_ALL, LV_STYLE_PROP_ALL);
 188:lvgl\src\lv_widgets/lv_tabview.c ****     }
 189:lvgl\src\lv_widgets/lv_tabview.c **** 
 190:lvgl\src\lv_widgets/lv_tabview.c ****     tabview_realign(tabview);
 191:lvgl\src\lv_widgets/lv_tabview.c **** 
 192:lvgl\src\lv_widgets/lv_tabview.c ****     LV_LOG_INFO("tab view created");
 193:lvgl\src\lv_widgets/lv_tabview.c **** 
 194:lvgl\src\lv_widgets/lv_tabview.c ****     return tabview;
 195:lvgl\src\lv_widgets/lv_tabview.c **** }
 196:lvgl\src\lv_widgets/lv_tabview.c **** 
 197:lvgl\src\lv_widgets/lv_tabview.c **** /*======================
 198:lvgl\src\lv_widgets/lv_tabview.c ****  * Add/remove functions
 199:lvgl\src\lv_widgets/lv_tabview.c ****  *=====================*/
 200:lvgl\src\lv_widgets/lv_tabview.c **** 
 201:lvgl\src\lv_widgets/lv_tabview.c **** /**
 202:lvgl\src\lv_widgets/lv_tabview.c ****  * Add a new tab with the given name
ARM GAS  C:\Users\strap\AppData\Local\Temp\ccTzHSZB.s 			page 5


 203:lvgl\src\lv_widgets/lv_tabview.c ****  * @param tabview pointer to Tab view object where to ass the new tab
 204:lvgl\src\lv_widgets/lv_tabview.c ****  * @param name the text on the tab button
 205:lvgl\src\lv_widgets/lv_tabview.c ****  * @return pointer to the created page object (lv_page). You can create your content here
 206:lvgl\src\lv_widgets/lv_tabview.c ****  */
 207:lvgl\src\lv_widgets/lv_tabview.c **** lv_obj_t * lv_tabview_add_tab(lv_obj_t * tabview, const char * name)
 208:lvgl\src\lv_widgets/lv_tabview.c **** {
 209:lvgl\src\lv_widgets/lv_tabview.c ****     LV_ASSERT_OBJ(tabview, LV_OBJX_NAME);
 210:lvgl\src\lv_widgets/lv_tabview.c ****     LV_ASSERT_STR(name);
 211:lvgl\src\lv_widgets/lv_tabview.c **** 
 212:lvgl\src\lv_widgets/lv_tabview.c ****     lv_tabview_ext_t * ext = lv_obj_get_ext_attr(tabview);
 213:lvgl\src\lv_widgets/lv_tabview.c **** 
 214:lvgl\src\lv_widgets/lv_tabview.c ****     /*Create the container page*/
 215:lvgl\src\lv_widgets/lv_tabview.c ****     lv_obj_t * h = lv_page_create(ext->content, NULL);
 216:lvgl\src\lv_widgets/lv_tabview.c ****     lv_obj_set_size(h, lv_obj_get_width(tabview), lv_obj_get_height(ext->content));
 217:lvgl\src\lv_widgets/lv_tabview.c ****     lv_page_set_scrollbar_mode(h, LV_SCROLLBAR_MODE_AUTO);
 218:lvgl\src\lv_widgets/lv_tabview.c ****     lv_page_set_scroll_propagation(h, true);
 219:lvgl\src\lv_widgets/lv_tabview.c ****     lv_page_set_scrollable_fit4(h, LV_FIT_NONE, LV_FIT_MAX, LV_FIT_NONE, LV_FIT_MAX);
 220:lvgl\src\lv_widgets/lv_tabview.c ****     lv_theme_apply(h, LV_THEME_TABVIEW_PAGE);
 221:lvgl\src\lv_widgets/lv_tabview.c **** 
 222:lvgl\src\lv_widgets/lv_tabview.c ****     if(page_signal == NULL) page_signal = lv_obj_get_signal_cb(h);
 223:lvgl\src\lv_widgets/lv_tabview.c **** 
 224:lvgl\src\lv_widgets/lv_tabview.c ****     /*Extend the button matrix map with the new name*/
 225:lvgl\src\lv_widgets/lv_tabview.c ****     char * name_dm;
 226:lvgl\src\lv_widgets/lv_tabview.c ****     name_dm = lv_mem_alloc(strlen(name) + 1); /*+1 for the the closing '\0' */
 227:lvgl\src\lv_widgets/lv_tabview.c ****     LV_ASSERT_MEM(name_dm);
 228:lvgl\src\lv_widgets/lv_tabview.c ****     if(name_dm == NULL) return NULL;
 229:lvgl\src\lv_widgets/lv_tabview.c ****     strcpy(name_dm, name);
 230:lvgl\src\lv_widgets/lv_tabview.c **** 
 231:lvgl\src\lv_widgets/lv_tabview.c ****     ext->tab_cnt++;
 232:lvgl\src\lv_widgets/lv_tabview.c **** 
 233:lvgl\src\lv_widgets/lv_tabview.c ****     /* FIXME: It is not possible yet to switch tab button position from/to top/bottom from/to left/
 234:lvgl\src\lv_widgets/lv_tabview.c ****      * Method: clean extra \n when switch from LV_TABVIEW_BTNS_POS_LEFT or LV_TABVIEW_BTNS_POS_RIGH
 235:lvgl\src\lv_widgets/lv_tabview.c ****      * to LV_TABVIEW_BTNS_POS_TOP or LV_TABVIEW_BTNS_POS_BOTTOM.
 236:lvgl\src\lv_widgets/lv_tabview.c ****      */
 237:lvgl\src\lv_widgets/lv_tabview.c ****     switch(ext->btns_pos) {
 238:lvgl\src\lv_widgets/lv_tabview.c ****         default: /*default case is prevented in lv_tabview_set_btns_pos(), but here for safety*/
 239:lvgl\src\lv_widgets/lv_tabview.c ****         case LV_TABVIEW_TAB_POS_NONE:
 240:lvgl\src\lv_widgets/lv_tabview.c ****         case LV_TABVIEW_TAB_POS_TOP:
 241:lvgl\src\lv_widgets/lv_tabview.c ****         case LV_TABVIEW_TAB_POS_BOTTOM:
 242:lvgl\src\lv_widgets/lv_tabview.c ****             ext->tab_name_ptr = lv_mem_realloc(ext->tab_name_ptr, sizeof(char *) * (ext->tab_cnt + 
 243:lvgl\src\lv_widgets/lv_tabview.c **** 
 244:lvgl\src\lv_widgets/lv_tabview.c ****             LV_ASSERT_MEM(ext->tab_name_ptr);
 245:lvgl\src\lv_widgets/lv_tabview.c ****             if(ext->tab_name_ptr == NULL) return NULL;
 246:lvgl\src\lv_widgets/lv_tabview.c **** 
 247:lvgl\src\lv_widgets/lv_tabview.c ****             ext->tab_name_ptr[ext->tab_cnt - 1] = name_dm;
 248:lvgl\src\lv_widgets/lv_tabview.c ****             ext->tab_name_ptr[ext->tab_cnt]     = "";
 249:lvgl\src\lv_widgets/lv_tabview.c **** 
 250:lvgl\src\lv_widgets/lv_tabview.c ****             break;
 251:lvgl\src\lv_widgets/lv_tabview.c ****         case LV_TABVIEW_TAB_POS_LEFT:
 252:lvgl\src\lv_widgets/lv_tabview.c ****         case LV_TABVIEW_TAB_POS_RIGHT:
 253:lvgl\src\lv_widgets/lv_tabview.c ****             ext->tab_name_ptr = lv_mem_realloc(ext->tab_name_ptr, sizeof(char *) * (ext->tab_cnt * 
 254:lvgl\src\lv_widgets/lv_tabview.c **** 
 255:lvgl\src\lv_widgets/lv_tabview.c ****             LV_ASSERT_MEM(ext->tab_name_ptr);
 256:lvgl\src\lv_widgets/lv_tabview.c ****             if(ext->tab_name_ptr == NULL) return NULL;
 257:lvgl\src\lv_widgets/lv_tabview.c **** 
 258:lvgl\src\lv_widgets/lv_tabview.c ****             if(ext->tab_cnt == 1) {
 259:lvgl\src\lv_widgets/lv_tabview.c ****                 ext->tab_name_ptr[0] = name_dm;
ARM GAS  C:\Users\strap\AppData\Local\Temp\ccTzHSZB.s 			page 6


 260:lvgl\src\lv_widgets/lv_tabview.c ****                 ext->tab_name_ptr[1] = "";
 261:lvgl\src\lv_widgets/lv_tabview.c ****             }
 262:lvgl\src\lv_widgets/lv_tabview.c ****             else {
 263:lvgl\src\lv_widgets/lv_tabview.c ****                 ext->tab_name_ptr[ext->tab_cnt * 2 - 3] = "\n";
 264:lvgl\src\lv_widgets/lv_tabview.c ****                 ext->tab_name_ptr[ext->tab_cnt * 2 - 2] = name_dm;
 265:lvgl\src\lv_widgets/lv_tabview.c ****                 ext->tab_name_ptr[ext->tab_cnt * 2 - 1] = "";
 266:lvgl\src\lv_widgets/lv_tabview.c ****             }
 267:lvgl\src\lv_widgets/lv_tabview.c ****             break;
 268:lvgl\src\lv_widgets/lv_tabview.c ****     }
 269:lvgl\src\lv_widgets/lv_tabview.c **** 
 270:lvgl\src\lv_widgets/lv_tabview.c ****     /* The button matrix's map still points to the old `tab_name_ptr` which might be freed by
 271:lvgl\src\lv_widgets/lv_tabview.c ****      * `lv_mem_realloc`. So make its current map invalid*/
 272:lvgl\src\lv_widgets/lv_tabview.c ****     lv_btnmatrix_ext_t * btnm_ext = lv_obj_get_ext_attr(ext->btns);
 273:lvgl\src\lv_widgets/lv_tabview.c ****     btnm_ext->map_p          = NULL;
 274:lvgl\src\lv_widgets/lv_tabview.c **** 
 275:lvgl\src\lv_widgets/lv_tabview.c ****     lv_btnmatrix_set_map(ext->btns, ext->tab_name_ptr);
 276:lvgl\src\lv_widgets/lv_tabview.c ****     lv_btnmatrix_set_btn_ctrl(ext->btns, ext->tab_cur, LV_BTNMATRIX_CTRL_NO_REPEAT);
 277:lvgl\src\lv_widgets/lv_tabview.c **** 
 278:lvgl\src\lv_widgets/lv_tabview.c ****     /*Set the first btn as active*/
 279:lvgl\src\lv_widgets/lv_tabview.c ****     if(ext->tab_cnt == 1)  ext->tab_cur = 0;
 280:lvgl\src\lv_widgets/lv_tabview.c **** 
 281:lvgl\src\lv_widgets/lv_tabview.c ****     tabview_realign(tabview); /*Set the size of the pages, tab buttons and indicator*/
 282:lvgl\src\lv_widgets/lv_tabview.c **** 
 283:lvgl\src\lv_widgets/lv_tabview.c ****     lv_tabview_set_tab_act(tabview, ext->tab_cur, false);
 284:lvgl\src\lv_widgets/lv_tabview.c **** 
 285:lvgl\src\lv_widgets/lv_tabview.c ****     return h;
 286:lvgl\src\lv_widgets/lv_tabview.c **** }
 287:lvgl\src\lv_widgets/lv_tabview.c **** 
 288:lvgl\src\lv_widgets/lv_tabview.c **** /**
 289:lvgl\src\lv_widgets/lv_tabview.c ****  * Delete all children of a tab created by `lv_tabview_add_tab`.
 290:lvgl\src\lv_widgets/lv_tabview.c ****  * @param tab pointer to a tab
 291:lvgl\src\lv_widgets/lv_tabview.c ****  */
 292:lvgl\src\lv_widgets/lv_tabview.c **** void lv_tabview_clean_tab(lv_obj_t * tab)
 293:lvgl\src\lv_widgets/lv_tabview.c **** {
 294:lvgl\src\lv_widgets/lv_tabview.c ****     LV_ASSERT_OBJ(tab, "lv_page");
 295:lvgl\src\lv_widgets/lv_tabview.c **** 
 296:lvgl\src\lv_widgets/lv_tabview.c ****     lv_obj_t * scrl = lv_page_get_scrollable(tab);
 297:lvgl\src\lv_widgets/lv_tabview.c ****     lv_obj_clean(scrl);
 298:lvgl\src\lv_widgets/lv_tabview.c **** }
 299:lvgl\src\lv_widgets/lv_tabview.c **** 
 300:lvgl\src\lv_widgets/lv_tabview.c **** /*=====================
 301:lvgl\src\lv_widgets/lv_tabview.c ****  * Setter functions
 302:lvgl\src\lv_widgets/lv_tabview.c ****  *====================*/
 303:lvgl\src\lv_widgets/lv_tabview.c **** 
 304:lvgl\src\lv_widgets/lv_tabview.c **** /**
 305:lvgl\src\lv_widgets/lv_tabview.c ****  * Set a new tab
 306:lvgl\src\lv_widgets/lv_tabview.c ****  * @param tabview pointer to Tab view object
 307:lvgl\src\lv_widgets/lv_tabview.c ****  * @param id index of a tab to load
 308:lvgl\src\lv_widgets/lv_tabview.c ****  * @param anim LV_ANIM_ON: set the value with an animation; LV_ANIM_OFF: change the value immediate
 309:lvgl\src\lv_widgets/lv_tabview.c ****  */
 310:lvgl\src\lv_widgets/lv_tabview.c **** void lv_tabview_set_tab_act(lv_obj_t * tabview, uint16_t id, lv_anim_enable_t anim)
 311:lvgl\src\lv_widgets/lv_tabview.c **** {
 312:lvgl\src\lv_widgets/lv_tabview.c ****     LV_ASSERT_OBJ(tabview, LV_OBJX_NAME);
 313:lvgl\src\lv_widgets/lv_tabview.c **** 
 314:lvgl\src\lv_widgets/lv_tabview.c **** #if LV_USE_ANIMATION == 0
 315:lvgl\src\lv_widgets/lv_tabview.c ****     anim = LV_ANIM_OFF;
 316:lvgl\src\lv_widgets/lv_tabview.c **** #endif
ARM GAS  C:\Users\strap\AppData\Local\Temp\ccTzHSZB.s 			page 7


 317:lvgl\src\lv_widgets/lv_tabview.c ****     lv_tabview_ext_t * ext = lv_obj_get_ext_attr(tabview);
 318:lvgl\src\lv_widgets/lv_tabview.c **** 
 319:lvgl\src\lv_widgets/lv_tabview.c ****     if(id >= ext->tab_cnt) id = ext->tab_cnt - 1;
 320:lvgl\src\lv_widgets/lv_tabview.c **** 
 321:lvgl\src\lv_widgets/lv_tabview.c ****     lv_btnmatrix_clear_btn_ctrl(ext->btns, ext->tab_cur, LV_BTNMATRIX_CTRL_CHECK_STATE);
 322:lvgl\src\lv_widgets/lv_tabview.c **** 
 323:lvgl\src\lv_widgets/lv_tabview.c ****     ext->tab_cur = id;
 324:lvgl\src\lv_widgets/lv_tabview.c **** 
 325:lvgl\src\lv_widgets/lv_tabview.c ****     if(lv_obj_get_base_dir(tabview) == LV_BIDI_DIR_RTL) {
 326:lvgl\src\lv_widgets/lv_tabview.c ****         id = (ext->tab_cnt - (id + 1));
 327:lvgl\src\lv_widgets/lv_tabview.c ****     }
 328:lvgl\src\lv_widgets/lv_tabview.c **** 
 329:lvgl\src\lv_widgets/lv_tabview.c ****     lv_coord_t cont_x;
 330:lvgl\src\lv_widgets/lv_tabview.c ****     lv_style_int_t scrl_inner = lv_obj_get_style_pad_inner(ext->content, LV_PAGE_PART_SCROLLABLE);
 331:lvgl\src\lv_widgets/lv_tabview.c ****     lv_style_int_t scrl_left = lv_obj_get_style_pad_left(ext->content, LV_PAGE_PART_SCROLLABLE);
 332:lvgl\src\lv_widgets/lv_tabview.c **** 
 333:lvgl\src\lv_widgets/lv_tabview.c ****     switch(ext->btns_pos) {
 334:lvgl\src\lv_widgets/lv_tabview.c ****         default: /*default case is prevented in lv_tabview_set_btns_pos(), but here for safety*/
 335:lvgl\src\lv_widgets/lv_tabview.c ****         case LV_TABVIEW_TAB_POS_NONE:
 336:lvgl\src\lv_widgets/lv_tabview.c ****         case LV_TABVIEW_TAB_POS_TOP:
 337:lvgl\src\lv_widgets/lv_tabview.c ****         case LV_TABVIEW_TAB_POS_BOTTOM:
 338:lvgl\src\lv_widgets/lv_tabview.c ****             cont_x = -(lv_obj_get_width(tabview) * id + scrl_inner * id + scrl_left);
 339:lvgl\src\lv_widgets/lv_tabview.c ****             break;
 340:lvgl\src\lv_widgets/lv_tabview.c ****         case LV_TABVIEW_TAB_POS_LEFT:
 341:lvgl\src\lv_widgets/lv_tabview.c ****         case LV_TABVIEW_TAB_POS_RIGHT:
 342:lvgl\src\lv_widgets/lv_tabview.c ****             cont_x = -((lv_obj_get_width(tabview) - lv_obj_get_width(ext->btns)) * id + scrl_inner 
 343:lvgl\src\lv_widgets/lv_tabview.c ****             break;
 344:lvgl\src\lv_widgets/lv_tabview.c ****     }
 345:lvgl\src\lv_widgets/lv_tabview.c **** 
 346:lvgl\src\lv_widgets/lv_tabview.c ****     if(anim == LV_ANIM_OFF || lv_tabview_get_anim_time(tabview) == 0) {
 347:lvgl\src\lv_widgets/lv_tabview.c ****         lv_obj_set_x(lv_page_get_scrollable(ext->content), cont_x);
 348:lvgl\src\lv_widgets/lv_tabview.c ****     }
 349:lvgl\src\lv_widgets/lv_tabview.c **** #if LV_USE_ANIMATION
 350:lvgl\src\lv_widgets/lv_tabview.c ****     else {
 351:lvgl\src\lv_widgets/lv_tabview.c ****         lv_anim_t a;
 352:lvgl\src\lv_widgets/lv_tabview.c ****         lv_anim_init(&a);
 353:lvgl\src\lv_widgets/lv_tabview.c ****         lv_anim_set_var(&a, lv_page_get_scrollable(ext->content));
 354:lvgl\src\lv_widgets/lv_tabview.c ****         lv_anim_set_exec_cb(&a, (lv_anim_exec_xcb_t)lv_obj_set_x);
 355:lvgl\src\lv_widgets/lv_tabview.c ****         lv_anim_set_values(&a, lv_obj_get_x(lv_page_get_scrollable(ext->content)), cont_x);
 356:lvgl\src\lv_widgets/lv_tabview.c ****         lv_anim_set_time(&a, ext->anim_time);
 357:lvgl\src\lv_widgets/lv_tabview.c ****         lv_anim_start(&a);
 358:lvgl\src\lv_widgets/lv_tabview.c ****     }
 359:lvgl\src\lv_widgets/lv_tabview.c **** #endif
 360:lvgl\src\lv_widgets/lv_tabview.c **** 
 361:lvgl\src\lv_widgets/lv_tabview.c ****     /*Move the indicator*/
 362:lvgl\src\lv_widgets/lv_tabview.c ****     lv_coord_t indic_size;
 363:lvgl\src\lv_widgets/lv_tabview.c ****     lv_coord_t indic_pos = 0; /*silence uninitialized variable warning*/;
 364:lvgl\src\lv_widgets/lv_tabview.c **** 
 365:lvgl\src\lv_widgets/lv_tabview.c ****     lv_style_int_t btns_bg_inner = 0;
 366:lvgl\src\lv_widgets/lv_tabview.c ****     lv_style_int_t btns_bg_left = 0;
 367:lvgl\src\lv_widgets/lv_tabview.c ****     lv_style_int_t btns_bg_top = 0;
 368:lvgl\src\lv_widgets/lv_tabview.c **** 
 369:lvgl\src\lv_widgets/lv_tabview.c ****     switch(ext->btns_pos) {
 370:lvgl\src\lv_widgets/lv_tabview.c ****         default: /*default case is prevented in lv_tabview_set_btns_pos(), but here for safety*/
 371:lvgl\src\lv_widgets/lv_tabview.c ****         case LV_TABVIEW_TAB_POS_NONE:
 372:lvgl\src\lv_widgets/lv_tabview.c ****             break;
 373:lvgl\src\lv_widgets/lv_tabview.c ****         case LV_TABVIEW_TAB_POS_TOP:
ARM GAS  C:\Users\strap\AppData\Local\Temp\ccTzHSZB.s 			page 8


 374:lvgl\src\lv_widgets/lv_tabview.c ****         case LV_TABVIEW_TAB_POS_BOTTOM:
 375:lvgl\src\lv_widgets/lv_tabview.c ****             btns_bg_inner = lv_obj_get_style_pad_inner(tabview, LV_TABVIEW_PART_TAB_BG);
 376:lvgl\src\lv_widgets/lv_tabview.c ****             btns_bg_left = lv_obj_get_style_pad_left(tabview, LV_TABVIEW_PART_TAB_BG);
 377:lvgl\src\lv_widgets/lv_tabview.c ****             indic_size = lv_obj_get_width(ext->indic);
 378:lvgl\src\lv_widgets/lv_tabview.c ****             indic_pos  = indic_size * id + btns_bg_inner * id + btns_bg_left;
 379:lvgl\src\lv_widgets/lv_tabview.c ****             break;
 380:lvgl\src\lv_widgets/lv_tabview.c ****         case LV_TABVIEW_TAB_POS_LEFT:
 381:lvgl\src\lv_widgets/lv_tabview.c ****         case LV_TABVIEW_TAB_POS_RIGHT:
 382:lvgl\src\lv_widgets/lv_tabview.c ****             btns_bg_inner = lv_obj_get_style_pad_inner(tabview, LV_TABVIEW_PART_TAB_BG);
 383:lvgl\src\lv_widgets/lv_tabview.c ****             btns_bg_top = lv_obj_get_style_pad_top(tabview, LV_TABVIEW_PART_TAB_BG);
 384:lvgl\src\lv_widgets/lv_tabview.c ****             indic_size = lv_obj_get_height(ext->indic);
 385:lvgl\src\lv_widgets/lv_tabview.c ****             indic_pos  = btns_bg_top + id * (indic_size + btns_bg_inner);
 386:lvgl\src\lv_widgets/lv_tabview.c ****             break;
 387:lvgl\src\lv_widgets/lv_tabview.c ****     }
 388:lvgl\src\lv_widgets/lv_tabview.c **** 
 389:lvgl\src\lv_widgets/lv_tabview.c **** #if LV_USE_ANIMATION
 390:lvgl\src\lv_widgets/lv_tabview.c ****     if(anim == LV_ANIM_OFF || ext->anim_time == 0)
 391:lvgl\src\lv_widgets/lv_tabview.c **** #endif
 392:lvgl\src\lv_widgets/lv_tabview.c ****     {
 393:lvgl\src\lv_widgets/lv_tabview.c ****         switch(ext->btns_pos) {
 394:lvgl\src\lv_widgets/lv_tabview.c ****             default: /*default case is prevented in lv_tabview_set_btns_pos(), but here for safety*
 395:lvgl\src\lv_widgets/lv_tabview.c ****             case LV_TABVIEW_TAB_POS_NONE:
 396:lvgl\src\lv_widgets/lv_tabview.c ****                 break;
 397:lvgl\src\lv_widgets/lv_tabview.c ****             case LV_TABVIEW_TAB_POS_TOP:
 398:lvgl\src\lv_widgets/lv_tabview.c ****             case LV_TABVIEW_TAB_POS_BOTTOM:
 399:lvgl\src\lv_widgets/lv_tabview.c ****                 lv_obj_set_x(ext->indic, indic_pos);
 400:lvgl\src\lv_widgets/lv_tabview.c ****                 break;
 401:lvgl\src\lv_widgets/lv_tabview.c ****             case LV_TABVIEW_TAB_POS_LEFT:
 402:lvgl\src\lv_widgets/lv_tabview.c ****             case LV_TABVIEW_TAB_POS_RIGHT:
 403:lvgl\src\lv_widgets/lv_tabview.c ****                 lv_obj_set_y(ext->indic, indic_pos);
 404:lvgl\src\lv_widgets/lv_tabview.c ****                 break;
 405:lvgl\src\lv_widgets/lv_tabview.c ****         }
 406:lvgl\src\lv_widgets/lv_tabview.c ****     }
 407:lvgl\src\lv_widgets/lv_tabview.c **** #if LV_USE_ANIMATION
 408:lvgl\src\lv_widgets/lv_tabview.c ****     else {
 409:lvgl\src\lv_widgets/lv_tabview.c ****         lv_anim_t a;
 410:lvgl\src\lv_widgets/lv_tabview.c ****         lv_anim_init(&a);
 411:lvgl\src\lv_widgets/lv_tabview.c ****         lv_anim_set_var(&a, ext->indic);
 412:lvgl\src\lv_widgets/lv_tabview.c ****         lv_anim_set_time(&a, ext->anim_time);
 413:lvgl\src\lv_widgets/lv_tabview.c **** 
 414:lvgl\src\lv_widgets/lv_tabview.c ****         switch(ext->btns_pos) {
 415:lvgl\src\lv_widgets/lv_tabview.c ****             default: /*default case is prevented in lv_tabview_set_btns_pos(), but here for safety*
 416:lvgl\src\lv_widgets/lv_tabview.c ****             case LV_TABVIEW_TAB_POS_NONE:
 417:lvgl\src\lv_widgets/lv_tabview.c ****                 break;
 418:lvgl\src\lv_widgets/lv_tabview.c ****             case LV_TABVIEW_TAB_POS_TOP:
 419:lvgl\src\lv_widgets/lv_tabview.c ****             case LV_TABVIEW_TAB_POS_BOTTOM:
 420:lvgl\src\lv_widgets/lv_tabview.c ****                 lv_anim_set_exec_cb(&a, (lv_anim_exec_xcb_t)lv_obj_set_x);
 421:lvgl\src\lv_widgets/lv_tabview.c ****                 lv_anim_set_values(&a, lv_obj_get_x(ext->indic), indic_pos);
 422:lvgl\src\lv_widgets/lv_tabview.c ****                 break;
 423:lvgl\src\lv_widgets/lv_tabview.c ****             case LV_TABVIEW_TAB_POS_LEFT:
 424:lvgl\src\lv_widgets/lv_tabview.c ****             case LV_TABVIEW_TAB_POS_RIGHT:
 425:lvgl\src\lv_widgets/lv_tabview.c ****                 lv_anim_set_exec_cb(&a, (lv_anim_exec_xcb_t)lv_obj_set_y);
 426:lvgl\src\lv_widgets/lv_tabview.c ****                 lv_anim_set_values(&a, lv_obj_get_y(ext->indic), indic_pos);
 427:lvgl\src\lv_widgets/lv_tabview.c ****                 break;
 428:lvgl\src\lv_widgets/lv_tabview.c ****         }
 429:lvgl\src\lv_widgets/lv_tabview.c **** 
 430:lvgl\src\lv_widgets/lv_tabview.c ****         lv_anim_start(&a);
ARM GAS  C:\Users\strap\AppData\Local\Temp\ccTzHSZB.s 			page 9


 431:lvgl\src\lv_widgets/lv_tabview.c ****     }
 432:lvgl\src\lv_widgets/lv_tabview.c **** #endif
 433:lvgl\src\lv_widgets/lv_tabview.c **** 
 434:lvgl\src\lv_widgets/lv_tabview.c ****     lv_btnmatrix_set_btn_ctrl(ext->btns, ext->tab_cur, LV_BTNMATRIX_CTRL_CHECK_STATE);
 435:lvgl\src\lv_widgets/lv_tabview.c **** }
 436:lvgl\src\lv_widgets/lv_tabview.c **** 
 437:lvgl\src\lv_widgets/lv_tabview.c **** /**
 438:lvgl\src\lv_widgets/lv_tabview.c ****  * Set the name of a tab.
 439:lvgl\src\lv_widgets/lv_tabview.c ****  * @param tabview pointer to Tab view object
 440:lvgl\src\lv_widgets/lv_tabview.c ****  * @param id index of the tab the name should be set
 441:lvgl\src\lv_widgets/lv_tabview.c ****  * @param name new tab name
 442:lvgl\src\lv_widgets/lv_tabview.c ****  */
 443:lvgl\src\lv_widgets/lv_tabview.c **** void lv_tabview_set_tab_name(lv_obj_t * tabview, uint16_t id, char * name)
 444:lvgl\src\lv_widgets/lv_tabview.c **** {
 445:lvgl\src\lv_widgets/lv_tabview.c ****     LV_ASSERT_OBJ(tabview, LV_OBJX_NAME);
 446:lvgl\src\lv_widgets/lv_tabview.c **** 
 447:lvgl\src\lv_widgets/lv_tabview.c ****     /* get tabview's ext pointer which contains the tab name pointer list */
 448:lvgl\src\lv_widgets/lv_tabview.c ****     lv_tabview_ext_t * ext = lv_obj_get_ext_attr(tabview);
 449:lvgl\src\lv_widgets/lv_tabview.c **** 
 450:lvgl\src\lv_widgets/lv_tabview.c ****     /* check for valid tab index */
 451:lvgl\src\lv_widgets/lv_tabview.c ****     if(ext->tab_cnt > id) {
 452:lvgl\src\lv_widgets/lv_tabview.c ****         /* reallocate memory for new tab name (use reallocate due to mostly the size didn't change 
 453:lvgl\src\lv_widgets/lv_tabview.c ****         char * str = lv_mem_realloc((void *)ext->tab_name_ptr[id], strlen(name) + 1);
 454:lvgl\src\lv_widgets/lv_tabview.c ****         LV_ASSERT_MEM(str);
 455:lvgl\src\lv_widgets/lv_tabview.c **** 
 456:lvgl\src\lv_widgets/lv_tabview.c ****         /* store new tab name at allocated memory */
 457:lvgl\src\lv_widgets/lv_tabview.c ****         strcpy(str, name);
 458:lvgl\src\lv_widgets/lv_tabview.c ****         /* update pointer  */
 459:lvgl\src\lv_widgets/lv_tabview.c ****         ext->tab_name_ptr[id] = str;
 460:lvgl\src\lv_widgets/lv_tabview.c **** 
 461:lvgl\src\lv_widgets/lv_tabview.c ****         /* force redrawing of the tab headers */
 462:lvgl\src\lv_widgets/lv_tabview.c ****         lv_obj_invalidate(ext->btns);
 463:lvgl\src\lv_widgets/lv_tabview.c ****     }
 464:lvgl\src\lv_widgets/lv_tabview.c **** }
 465:lvgl\src\lv_widgets/lv_tabview.c **** 
 466:lvgl\src\lv_widgets/lv_tabview.c **** /**
 467:lvgl\src\lv_widgets/lv_tabview.c ****  * Set the animation time of tab view when a new tab is loaded
 468:lvgl\src\lv_widgets/lv_tabview.c ****  * @param tabview pointer to Tab view object
 469:lvgl\src\lv_widgets/lv_tabview.c ****  * @param anim_time_ms time of animation in milliseconds
 470:lvgl\src\lv_widgets/lv_tabview.c ****  */
 471:lvgl\src\lv_widgets/lv_tabview.c **** void lv_tabview_set_anim_time(lv_obj_t * tabview, uint16_t anim_time)
 472:lvgl\src\lv_widgets/lv_tabview.c **** {
 473:lvgl\src\lv_widgets/lv_tabview.c ****     LV_ASSERT_OBJ(tabview, LV_OBJX_NAME);
 474:lvgl\src\lv_widgets/lv_tabview.c **** 
 475:lvgl\src\lv_widgets/lv_tabview.c **** #if LV_USE_ANIMATION
 476:lvgl\src\lv_widgets/lv_tabview.c ****     lv_tabview_ext_t * ext = lv_obj_get_ext_attr(tabview);
 477:lvgl\src\lv_widgets/lv_tabview.c ****     ext->anim_time         = anim_time;
 478:lvgl\src\lv_widgets/lv_tabview.c **** #else
 479:lvgl\src\lv_widgets/lv_tabview.c ****     (void)tabview;
 480:lvgl\src\lv_widgets/lv_tabview.c ****     (void)anim_time;
 481:lvgl\src\lv_widgets/lv_tabview.c **** #endif
 482:lvgl\src\lv_widgets/lv_tabview.c **** }
 483:lvgl\src\lv_widgets/lv_tabview.c **** 
 484:lvgl\src\lv_widgets/lv_tabview.c **** /**
 485:lvgl\src\lv_widgets/lv_tabview.c ****  * Set the position of tab select buttons
 486:lvgl\src\lv_widgets/lv_tabview.c ****  * @param tabview pointer to a tan view object
 487:lvgl\src\lv_widgets/lv_tabview.c ****  * @param btns_pos which button position
ARM GAS  C:\Users\strap\AppData\Local\Temp\ccTzHSZB.s 			page 10


 488:lvgl\src\lv_widgets/lv_tabview.c ****  */
 489:lvgl\src\lv_widgets/lv_tabview.c **** void lv_tabview_set_btns_pos(lv_obj_t * tabview, lv_tabview_btns_pos_t btns_pos)
 490:lvgl\src\lv_widgets/lv_tabview.c **** {
 491:lvgl\src\lv_widgets/lv_tabview.c ****     if(btns_pos != LV_TABVIEW_TAB_POS_NONE &&
 492:lvgl\src\lv_widgets/lv_tabview.c ****        btns_pos != LV_TABVIEW_TAB_POS_TOP &&
 493:lvgl\src\lv_widgets/lv_tabview.c ****        btns_pos != LV_TABVIEW_TAB_POS_BOTTOM &&
 494:lvgl\src\lv_widgets/lv_tabview.c ****        btns_pos != LV_TABVIEW_TAB_POS_LEFT &&
 495:lvgl\src\lv_widgets/lv_tabview.c ****        btns_pos != LV_TABVIEW_TAB_POS_RIGHT) {
 496:lvgl\src\lv_widgets/lv_tabview.c ****         LV_LOG_WARN("lv_tabview_set_btns_pos: unexpected button position");
 497:lvgl\src\lv_widgets/lv_tabview.c ****         return;
 498:lvgl\src\lv_widgets/lv_tabview.c ****     }
 499:lvgl\src\lv_widgets/lv_tabview.c ****     LV_ASSERT_OBJ(tabview, LV_OBJX_NAME);
 500:lvgl\src\lv_widgets/lv_tabview.c **** 
 501:lvgl\src\lv_widgets/lv_tabview.c ****     lv_tabview_ext_t * ext = lv_obj_get_ext_attr(tabview);
 502:lvgl\src\lv_widgets/lv_tabview.c **** 
 503:lvgl\src\lv_widgets/lv_tabview.c ****     ext->btns_pos = btns_pos;
 504:lvgl\src\lv_widgets/lv_tabview.c ****     tabview_realign(tabview);
 505:lvgl\src\lv_widgets/lv_tabview.c **** }
 506:lvgl\src\lv_widgets/lv_tabview.c **** 
 507:lvgl\src\lv_widgets/lv_tabview.c **** /*=====================
 508:lvgl\src\lv_widgets/lv_tabview.c ****  * Getter functions
 509:lvgl\src\lv_widgets/lv_tabview.c ****  *====================*/
 510:lvgl\src\lv_widgets/lv_tabview.c **** 
 511:lvgl\src\lv_widgets/lv_tabview.c **** /**
 512:lvgl\src\lv_widgets/lv_tabview.c ****  * Get the index of the currently active tab
 513:lvgl\src\lv_widgets/lv_tabview.c ****  * @param tabview pointer to Tab view object
 514:lvgl\src\lv_widgets/lv_tabview.c ****  * @return the active btn index
 515:lvgl\src\lv_widgets/lv_tabview.c ****  */
 516:lvgl\src\lv_widgets/lv_tabview.c **** uint16_t lv_tabview_get_tab_act(const lv_obj_t * tabview)
 517:lvgl\src\lv_widgets/lv_tabview.c **** {
 518:lvgl\src\lv_widgets/lv_tabview.c ****     LV_ASSERT_OBJ(tabview, LV_OBJX_NAME);
 519:lvgl\src\lv_widgets/lv_tabview.c **** 
 520:lvgl\src\lv_widgets/lv_tabview.c ****     lv_tabview_ext_t * ext = lv_obj_get_ext_attr(tabview);
 521:lvgl\src\lv_widgets/lv_tabview.c ****     return ext->tab_cur;
 522:lvgl\src\lv_widgets/lv_tabview.c **** }
 523:lvgl\src\lv_widgets/lv_tabview.c **** 
 524:lvgl\src\lv_widgets/lv_tabview.c **** /**
 525:lvgl\src\lv_widgets/lv_tabview.c ****  * Get the number of tabs
 526:lvgl\src\lv_widgets/lv_tabview.c ****  * @param tabview pointer to Tab view object
 527:lvgl\src\lv_widgets/lv_tabview.c ****  * @return btn count
 528:lvgl\src\lv_widgets/lv_tabview.c ****  */
 529:lvgl\src\lv_widgets/lv_tabview.c **** uint16_t lv_tabview_get_tab_count(const lv_obj_t * tabview)
 530:lvgl\src\lv_widgets/lv_tabview.c **** {
 531:lvgl\src\lv_widgets/lv_tabview.c ****     LV_ASSERT_OBJ(tabview, LV_OBJX_NAME);
 532:lvgl\src\lv_widgets/lv_tabview.c **** 
 533:lvgl\src\lv_widgets/lv_tabview.c ****     lv_tabview_ext_t * ext = lv_obj_get_ext_attr(tabview);
 534:lvgl\src\lv_widgets/lv_tabview.c ****     return ext->tab_cnt;
 535:lvgl\src\lv_widgets/lv_tabview.c **** }
 536:lvgl\src\lv_widgets/lv_tabview.c **** 
 537:lvgl\src\lv_widgets/lv_tabview.c **** /**
 538:lvgl\src\lv_widgets/lv_tabview.c ****  * Get the page (content area) of a tab
 539:lvgl\src\lv_widgets/lv_tabview.c ****  * @param tabview pointer to Tab view object
 540:lvgl\src\lv_widgets/lv_tabview.c ****  * @param id index of the btn (>= 0)
 541:lvgl\src\lv_widgets/lv_tabview.c ****  * @return pointer to page (lv_page) object
 542:lvgl\src\lv_widgets/lv_tabview.c ****  */
 543:lvgl\src\lv_widgets/lv_tabview.c **** lv_obj_t * lv_tabview_get_tab(const lv_obj_t * tabview, uint16_t id)
 544:lvgl\src\lv_widgets/lv_tabview.c **** {
ARM GAS  C:\Users\strap\AppData\Local\Temp\ccTzHSZB.s 			page 11


 545:lvgl\src\lv_widgets/lv_tabview.c ****     LV_ASSERT_OBJ(tabview, LV_OBJX_NAME);
 546:lvgl\src\lv_widgets/lv_tabview.c **** 
 547:lvgl\src\lv_widgets/lv_tabview.c ****     lv_tabview_ext_t * ext = lv_obj_get_ext_attr(tabview);
 548:lvgl\src\lv_widgets/lv_tabview.c ****     lv_obj_t * content_scrl = lv_page_get_scrollable(ext->content);
 549:lvgl\src\lv_widgets/lv_tabview.c ****     uint16_t i             = 0;
 550:lvgl\src\lv_widgets/lv_tabview.c ****     lv_obj_t * page        = lv_obj_get_child_back(content_scrl, NULL);
 551:lvgl\src\lv_widgets/lv_tabview.c **** 
 552:lvgl\src\lv_widgets/lv_tabview.c ****     while(page != NULL && i != id) {
 553:lvgl\src\lv_widgets/lv_tabview.c ****         if(lv_obj_get_signal_cb(page) == page_signal) i++;
 554:lvgl\src\lv_widgets/lv_tabview.c ****         page = lv_obj_get_child_back(content_scrl, page);
 555:lvgl\src\lv_widgets/lv_tabview.c ****     }
 556:lvgl\src\lv_widgets/lv_tabview.c **** 
 557:lvgl\src\lv_widgets/lv_tabview.c ****     if(i == id) return page;
 558:lvgl\src\lv_widgets/lv_tabview.c **** 
 559:lvgl\src\lv_widgets/lv_tabview.c ****     return NULL;
 560:lvgl\src\lv_widgets/lv_tabview.c **** }
 561:lvgl\src\lv_widgets/lv_tabview.c **** 
 562:lvgl\src\lv_widgets/lv_tabview.c **** /**
 563:lvgl\src\lv_widgets/lv_tabview.c ****  * Get the animation time of tab view when a new tab is loaded
 564:lvgl\src\lv_widgets/lv_tabview.c ****  * @param tabview pointer to Tab view object
 565:lvgl\src\lv_widgets/lv_tabview.c ****  * @return time of animation in milliseconds
 566:lvgl\src\lv_widgets/lv_tabview.c ****  */
 567:lvgl\src\lv_widgets/lv_tabview.c **** uint16_t lv_tabview_get_anim_time(const lv_obj_t * tabview)
 568:lvgl\src\lv_widgets/lv_tabview.c **** {
 569:lvgl\src\lv_widgets/lv_tabview.c ****     LV_ASSERT_OBJ(tabview, LV_OBJX_NAME);
 570:lvgl\src\lv_widgets/lv_tabview.c **** 
 571:lvgl\src\lv_widgets/lv_tabview.c **** #if LV_USE_ANIMATION
 572:lvgl\src\lv_widgets/lv_tabview.c ****     lv_tabview_ext_t * ext = lv_obj_get_ext_attr(tabview);
 573:lvgl\src\lv_widgets/lv_tabview.c ****     return ext->anim_time;
 574:lvgl\src\lv_widgets/lv_tabview.c **** #else
 575:lvgl\src\lv_widgets/lv_tabview.c ****     (void)tabview;
 576:lvgl\src\lv_widgets/lv_tabview.c ****     return 0;
 577:lvgl\src\lv_widgets/lv_tabview.c **** #endif
 578:lvgl\src\lv_widgets/lv_tabview.c **** }
 579:lvgl\src\lv_widgets/lv_tabview.c **** 
 580:lvgl\src\lv_widgets/lv_tabview.c **** /**
 581:lvgl\src\lv_widgets/lv_tabview.c ****  * Get position of tab select buttons
 582:lvgl\src\lv_widgets/lv_tabview.c ****  * @param tabview pointer to a ab view object
 583:lvgl\src\lv_widgets/lv_tabview.c ****  */
 584:lvgl\src\lv_widgets/lv_tabview.c **** lv_tabview_btns_pos_t lv_tabview_get_btns_pos(const lv_obj_t * tabview)
 585:lvgl\src\lv_widgets/lv_tabview.c **** {
 586:lvgl\src\lv_widgets/lv_tabview.c ****     LV_ASSERT_OBJ(tabview, LV_OBJX_NAME);
 587:lvgl\src\lv_widgets/lv_tabview.c **** 
 588:lvgl\src\lv_widgets/lv_tabview.c ****     lv_tabview_ext_t * ext = lv_obj_get_ext_attr(tabview);
 589:lvgl\src\lv_widgets/lv_tabview.c ****     return ext->btns_pos;
 590:lvgl\src\lv_widgets/lv_tabview.c **** }
 591:lvgl\src\lv_widgets/lv_tabview.c **** 
 592:lvgl\src\lv_widgets/lv_tabview.c **** /**********************
 593:lvgl\src\lv_widgets/lv_tabview.c ****  *   STATIC FUNCTIONS
 594:lvgl\src\lv_widgets/lv_tabview.c ****  **********************/
 595:lvgl\src\lv_widgets/lv_tabview.c **** 
 596:lvgl\src\lv_widgets/lv_tabview.c **** /**
 597:lvgl\src\lv_widgets/lv_tabview.c ****  * Signal function of the Tab view
 598:lvgl\src\lv_widgets/lv_tabview.c ****  * @param tabview pointer to a Tab view object
 599:lvgl\src\lv_widgets/lv_tabview.c ****  * @param sign a signal type from lv_signal_t enum
 600:lvgl\src\lv_widgets/lv_tabview.c ****  * @param param pointer to a signal specific variable
 601:lvgl\src\lv_widgets/lv_tabview.c ****  * @return LV_RES_OK: the object is not deleted in the function; LV_RES_INV: the object is deleted
ARM GAS  C:\Users\strap\AppData\Local\Temp\ccTzHSZB.s 			page 12


 602:lvgl\src\lv_widgets/lv_tabview.c ****  */
 603:lvgl\src\lv_widgets/lv_tabview.c **** static lv_res_t lv_tabview_signal(lv_obj_t * tabview, lv_signal_t sign, void * param)
 604:lvgl\src\lv_widgets/lv_tabview.c **** {
 605:lvgl\src\lv_widgets/lv_tabview.c ****     lv_res_t res;
 606:lvgl\src\lv_widgets/lv_tabview.c ****     if(sign == LV_SIGNAL_GET_STYLE) {
 607:lvgl\src\lv_widgets/lv_tabview.c ****         lv_get_style_info_t * info = param;
 608:lvgl\src\lv_widgets/lv_tabview.c ****         info->result = lv_tabview_get_style(tabview, info->part);
 609:lvgl\src\lv_widgets/lv_tabview.c ****         if(info->result != NULL) return LV_RES_OK;
 610:lvgl\src\lv_widgets/lv_tabview.c ****         else return ancestor_signal(tabview, sign, param);
 611:lvgl\src\lv_widgets/lv_tabview.c ****     }
 612:lvgl\src\lv_widgets/lv_tabview.c ****     else if(sign == LV_SIGNAL_GET_STATE_DSC) {
 613:lvgl\src\lv_widgets/lv_tabview.c ****         lv_tabview_ext_t * ext = lv_obj_get_ext_attr(tabview);
 614:lvgl\src\lv_widgets/lv_tabview.c ****         lv_get_state_info_t * info = param;
 615:lvgl\src\lv_widgets/lv_tabview.c ****         if(info->part == LV_TABVIEW_PART_TAB_BG) info->result = lv_obj_get_state(ext->btns, LV_BTNM
 616:lvgl\src\lv_widgets/lv_tabview.c ****         else if(info->part == LV_TABVIEW_PART_TAB_BTN) info->result = lv_obj_get_state(ext->btns, L
 617:lvgl\src\lv_widgets/lv_tabview.c ****         else if(info->part == LV_TABVIEW_PART_INDIC) info->result = lv_obj_get_state(ext->indic, LV
 618:lvgl\src\lv_widgets/lv_tabview.c ****         else if(info->part == LV_TABVIEW_PART_BG_SCRLLABLE) info->result = lv_obj_get_state(ext->co
 619:lvgl\src\lv_widgets/lv_tabview.c ****                                                                                                 LV_
 620:lvgl\src\lv_widgets/lv_tabview.c ****         return LV_RES_OK;
 621:lvgl\src\lv_widgets/lv_tabview.c ****     }
 622:lvgl\src\lv_widgets/lv_tabview.c **** 
 623:lvgl\src\lv_widgets/lv_tabview.c ****     /* Include the ancient signal function */
 624:lvgl\src\lv_widgets/lv_tabview.c ****     res = ancestor_signal(tabview, sign, param);
 625:lvgl\src\lv_widgets/lv_tabview.c ****     if(res != LV_RES_OK) return res;
 626:lvgl\src\lv_widgets/lv_tabview.c ****     if(sign == LV_SIGNAL_GET_TYPE) return lv_obj_handle_get_type_signal(param, LV_OBJX_NAME);
 627:lvgl\src\lv_widgets/lv_tabview.c **** 
 628:lvgl\src\lv_widgets/lv_tabview.c ****     lv_tabview_ext_t * ext = lv_obj_get_ext_attr(tabview);
 629:lvgl\src\lv_widgets/lv_tabview.c ****     if(sign == LV_SIGNAL_CLEANUP) {
 630:lvgl\src\lv_widgets/lv_tabview.c ****         uint8_t i;
 631:lvgl\src\lv_widgets/lv_tabview.c ****         for(i = 0; ext->tab_name_ptr[i][0] != '\0' && ext->tab_name_ptr[i][0] != '\n'; i++) lv_mem_
 632:lvgl\src\lv_widgets/lv_tabview.c **** 
 633:lvgl\src\lv_widgets/lv_tabview.c ****         lv_mem_free(ext->tab_name_ptr);
 634:lvgl\src\lv_widgets/lv_tabview.c ****         ext->tab_name_ptr = NULL;
 635:lvgl\src\lv_widgets/lv_tabview.c ****         ext->btns         = NULL; /*These objects were children so they are already invalid*/
 636:lvgl\src\lv_widgets/lv_tabview.c ****         ext->content      = NULL;
 637:lvgl\src\lv_widgets/lv_tabview.c ****     }
 638:lvgl\src\lv_widgets/lv_tabview.c ****     else if(sign == LV_SIGNAL_STYLE_CHG) {
 639:lvgl\src\lv_widgets/lv_tabview.c ****         /*Be sure the buttons are updated because correct button size is required in `tabview_reali
 640:lvgl\src\lv_widgets/lv_tabview.c ****         lv_signal_send(ext->btns, LV_SIGNAL_STYLE_CHG, NULL);
 641:lvgl\src\lv_widgets/lv_tabview.c **** 
 642:lvgl\src\lv_widgets/lv_tabview.c ****         tabview_realign(tabview);
 643:lvgl\src\lv_widgets/lv_tabview.c ****     }
 644:lvgl\src\lv_widgets/lv_tabview.c ****     else if(sign == LV_SIGNAL_COORD_CHG) {
 645:lvgl\src\lv_widgets/lv_tabview.c ****         if(ext->content != NULL && (lv_obj_get_width(tabview) != lv_area_get_width(param) ||
 646:lvgl\src\lv_widgets/lv_tabview.c ****                                     lv_obj_get_height(tabview) != lv_area_get_height(param))) {
 647:lvgl\src\lv_widgets/lv_tabview.c ****             tabview_realign(tabview);
 648:lvgl\src\lv_widgets/lv_tabview.c ****         }
 649:lvgl\src\lv_widgets/lv_tabview.c ****     }
 650:lvgl\src\lv_widgets/lv_tabview.c ****     else if(sign == LV_SIGNAL_RELEASED) {
 651:lvgl\src\lv_widgets/lv_tabview.c **** #if LV_USE_GROUP
 652:lvgl\src\lv_widgets/lv_tabview.c ****         /*If released by a KEYPAD or ENCODER then really the tab buttons should be released.
 653:lvgl\src\lv_widgets/lv_tabview.c ****          * So simulate a CLICK on the tab buttons*/
 654:lvgl\src\lv_widgets/lv_tabview.c ****         lv_indev_t * indev         = lv_indev_get_act();
 655:lvgl\src\lv_widgets/lv_tabview.c ****         lv_indev_type_t indev_type = lv_indev_get_type(indev);
 656:lvgl\src\lv_widgets/lv_tabview.c ****         if(indev_type == LV_INDEV_TYPE_KEYPAD ||
 657:lvgl\src\lv_widgets/lv_tabview.c ****            (indev_type == LV_INDEV_TYPE_ENCODER && lv_group_get_editing(lv_obj_get_group(tabview)))
 658:lvgl\src\lv_widgets/lv_tabview.c ****             lv_event_send(ext->btns, LV_EVENT_CLICKED, lv_event_get_data());
ARM GAS  C:\Users\strap\AppData\Local\Temp\ccTzHSZB.s 			page 13


 659:lvgl\src\lv_widgets/lv_tabview.c ****         }
 660:lvgl\src\lv_widgets/lv_tabview.c **** #endif
 661:lvgl\src\lv_widgets/lv_tabview.c ****     }
 662:lvgl\src\lv_widgets/lv_tabview.c ****     else if(sign == LV_SIGNAL_GET_EDITABLE) {
 663:lvgl\src\lv_widgets/lv_tabview.c **** #if LV_USE_GROUP
 664:lvgl\src\lv_widgets/lv_tabview.c ****         bool * editable = (bool *)param;
 665:lvgl\src\lv_widgets/lv_tabview.c ****         *editable       = true;
 666:lvgl\src\lv_widgets/lv_tabview.c **** #endif
 667:lvgl\src\lv_widgets/lv_tabview.c ****     }
 668:lvgl\src\lv_widgets/lv_tabview.c **** 
 669:lvgl\src\lv_widgets/lv_tabview.c ****     if(sign == LV_SIGNAL_FOCUS || sign == LV_SIGNAL_DEFOCUS ||
 670:lvgl\src\lv_widgets/lv_tabview.c **** #if LV_USE_GROUP
 671:lvgl\src\lv_widgets/lv_tabview.c ****        sign == LV_SIGNAL_CONTROL ||
 672:lvgl\src\lv_widgets/lv_tabview.c **** #endif
 673:lvgl\src\lv_widgets/lv_tabview.c ****        sign == LV_SIGNAL_PRESSED || sign == LV_SIGNAL_RELEASED) {
 674:lvgl\src\lv_widgets/lv_tabview.c **** 
 675:lvgl\src\lv_widgets/lv_tabview.c ****         /* The button matrix is not in a group (the tab view is in it) but it should handle the
 676:lvgl\src\lv_widgets/lv_tabview.c ****          * group signals. So propagate the related signals to the button matrix manually*/
 677:lvgl\src\lv_widgets/lv_tabview.c ****         ext->btns->signal_cb(ext->btns, sign, param);
 678:lvgl\src\lv_widgets/lv_tabview.c **** 
 679:lvgl\src\lv_widgets/lv_tabview.c ****         /*Make the active tab's button focused*/
 680:lvgl\src\lv_widgets/lv_tabview.c ****         if(sign == LV_SIGNAL_FOCUS) {
 681:lvgl\src\lv_widgets/lv_tabview.c ****             lv_btnmatrix_set_focused_btn(ext->btns, ext->tab_cur);
 682:lvgl\src\lv_widgets/lv_tabview.c ****         }
 683:lvgl\src\lv_widgets/lv_tabview.c **** 
 684:lvgl\src\lv_widgets/lv_tabview.c ****         if(sign == LV_SIGNAL_FOCUS || sign == LV_SIGNAL_DEFOCUS) {
 685:lvgl\src\lv_widgets/lv_tabview.c ****             lv_state_t state = lv_obj_get_state(tabview, LV_TABVIEW_PART_BG);
 686:lvgl\src\lv_widgets/lv_tabview.c ****             if(state & LV_STATE_FOCUSED) {
 687:lvgl\src\lv_widgets/lv_tabview.c ****                 lv_obj_set_state(ext->btns, LV_STATE_FOCUSED);
 688:lvgl\src\lv_widgets/lv_tabview.c ****                 lv_obj_set_state(ext->indic, LV_STATE_FOCUSED);
 689:lvgl\src\lv_widgets/lv_tabview.c ****             }
 690:lvgl\src\lv_widgets/lv_tabview.c ****             else {
 691:lvgl\src\lv_widgets/lv_tabview.c ****                 lv_obj_clear_state(ext->btns, LV_STATE_FOCUSED);
 692:lvgl\src\lv_widgets/lv_tabview.c ****                 lv_obj_clear_state(ext->indic, LV_STATE_FOCUSED);
 693:lvgl\src\lv_widgets/lv_tabview.c **** 
 694:lvgl\src\lv_widgets/lv_tabview.c ****             }
 695:lvgl\src\lv_widgets/lv_tabview.c ****             if(state & LV_STATE_EDITED) {
 696:lvgl\src\lv_widgets/lv_tabview.c ****                 lv_obj_set_state(ext->btns, LV_STATE_EDITED);
 697:lvgl\src\lv_widgets/lv_tabview.c ****                 lv_obj_set_state(ext->indic, LV_STATE_EDITED);
 698:lvgl\src\lv_widgets/lv_tabview.c ****             }
 699:lvgl\src\lv_widgets/lv_tabview.c ****             else {
 700:lvgl\src\lv_widgets/lv_tabview.c ****                 lv_obj_clear_state(ext->btns, LV_STATE_EDITED);
 701:lvgl\src\lv_widgets/lv_tabview.c ****                 lv_obj_clear_state(ext->indic, LV_STATE_EDITED);
 702:lvgl\src\lv_widgets/lv_tabview.c **** 
 703:lvgl\src\lv_widgets/lv_tabview.c ****             }
 704:lvgl\src\lv_widgets/lv_tabview.c ****         }
 705:lvgl\src\lv_widgets/lv_tabview.c ****     }
 706:lvgl\src\lv_widgets/lv_tabview.c **** 
 707:lvgl\src\lv_widgets/lv_tabview.c ****     return res;
 708:lvgl\src\lv_widgets/lv_tabview.c **** }
 709:lvgl\src\lv_widgets/lv_tabview.c **** 
 710:lvgl\src\lv_widgets/lv_tabview.c **** /**
 711:lvgl\src\lv_widgets/lv_tabview.c ****  * Signal function of a tab views main scrollable area
 712:lvgl\src\lv_widgets/lv_tabview.c ****  * @param tab pointer to a tab page object
 713:lvgl\src\lv_widgets/lv_tabview.c ****  * @param sign a signal type from lv_signal_t enum
 714:lvgl\src\lv_widgets/lv_tabview.c ****  * @param param pointer to a signal specific variable
 715:lvgl\src\lv_widgets/lv_tabview.c ****  * @return LV_RES_OK: the object is not deleted in the function; LV_RES_INV: the object is deleted
ARM GAS  C:\Users\strap\AppData\Local\Temp\ccTzHSZB.s 			page 14


 716:lvgl\src\lv_widgets/lv_tabview.c ****  */
 717:lvgl\src\lv_widgets/lv_tabview.c **** static lv_res_t tabview_scrl_signal(lv_obj_t * tabview_scrl, lv_signal_t sign, void * param)
 718:lvgl\src\lv_widgets/lv_tabview.c **** {
 719:lvgl\src\lv_widgets/lv_tabview.c ****     lv_res_t res;
 720:lvgl\src\lv_widgets/lv_tabview.c **** 
 721:lvgl\src\lv_widgets/lv_tabview.c ****     /* Include the ancient signal function */
 722:lvgl\src\lv_widgets/lv_tabview.c ****     res = ancestor_scrl_signal(tabview_scrl, sign, param);
 723:lvgl\src\lv_widgets/lv_tabview.c ****     if(res != LV_RES_OK) return res;
 724:lvgl\src\lv_widgets/lv_tabview.c ****     if(sign == LV_SIGNAL_GET_TYPE) return lv_obj_handle_get_type_signal(param, "");
 725:lvgl\src\lv_widgets/lv_tabview.c **** 
 726:lvgl\src\lv_widgets/lv_tabview.c ****     lv_obj_t * cont    = lv_obj_get_parent(tabview_scrl);
 727:lvgl\src\lv_widgets/lv_tabview.c ****     lv_obj_t * tabview = lv_obj_get_parent(cont);
 728:lvgl\src\lv_widgets/lv_tabview.c **** 
 729:lvgl\src\lv_widgets/lv_tabview.c ****     if(sign == LV_SIGNAL_DRAG_THROW_BEGIN) {
 730:lvgl\src\lv_widgets/lv_tabview.c ****         lv_tabview_ext_t * ext = lv_obj_get_ext_attr(tabview);
 731:lvgl\src\lv_widgets/lv_tabview.c **** 
 732:lvgl\src\lv_widgets/lv_tabview.c ****         lv_indev_t * indev = lv_indev_get_act();
 733:lvgl\src\lv_widgets/lv_tabview.c ****         lv_point_t point_act;
 734:lvgl\src\lv_widgets/lv_tabview.c ****         lv_indev_get_point(indev, &point_act);
 735:lvgl\src\lv_widgets/lv_tabview.c ****         lv_point_t vect;
 736:lvgl\src\lv_widgets/lv_tabview.c ****         lv_indev_get_vect(indev, &vect);
 737:lvgl\src\lv_widgets/lv_tabview.c ****         lv_coord_t x_predict = 0;
 738:lvgl\src\lv_widgets/lv_tabview.c **** 
 739:lvgl\src\lv_widgets/lv_tabview.c ****         while(vect.x != 0) {
 740:lvgl\src\lv_widgets/lv_tabview.c ****             x_predict += vect.x;
 741:lvgl\src\lv_widgets/lv_tabview.c ****             vect.x = vect.x * (100 - LV_INDEV_DEF_DRAG_THROW) / 100;
 742:lvgl\src\lv_widgets/lv_tabview.c ****         }
 743:lvgl\src\lv_widgets/lv_tabview.c **** 
 744:lvgl\src\lv_widgets/lv_tabview.c ****         res = lv_indev_finish_drag(indev);
 745:lvgl\src\lv_widgets/lv_tabview.c ****         if(res != LV_RES_OK) return res;
 746:lvgl\src\lv_widgets/lv_tabview.c ****         lv_obj_t * tab_page = lv_tabview_get_tab(tabview, ext->tab_cur);
 747:lvgl\src\lv_widgets/lv_tabview.c ****         if(tab_page == NULL) return LV_RES_OK;
 748:lvgl\src\lv_widgets/lv_tabview.c ****         lv_coord_t page_x1  = tab_page->coords.x1 - tabview->coords.x1 + x_predict;
 749:lvgl\src\lv_widgets/lv_tabview.c ****         lv_coord_t page_x2  = page_x1 + lv_obj_get_width(tabview);
 750:lvgl\src\lv_widgets/lv_tabview.c ****         lv_coord_t treshold = lv_obj_get_width(tabview) / 2;
 751:lvgl\src\lv_widgets/lv_tabview.c **** 
 752:lvgl\src\lv_widgets/lv_tabview.c ****         lv_bidi_dir_t base_dir = lv_obj_get_base_dir(tabview);
 753:lvgl\src\lv_widgets/lv_tabview.c ****         int16_t tab_cur = ext->tab_cur;
 754:lvgl\src\lv_widgets/lv_tabview.c ****         if(page_x1 > treshold) {
 755:lvgl\src\lv_widgets/lv_tabview.c ****             if(base_dir != LV_BIDI_DIR_RTL) tab_cur--;
 756:lvgl\src\lv_widgets/lv_tabview.c ****             else tab_cur ++;
 757:lvgl\src\lv_widgets/lv_tabview.c ****         }
 758:lvgl\src\lv_widgets/lv_tabview.c ****         else if(page_x2 < treshold) {
 759:lvgl\src\lv_widgets/lv_tabview.c ****             if(base_dir != LV_BIDI_DIR_RTL) tab_cur++;
 760:lvgl\src\lv_widgets/lv_tabview.c ****             else tab_cur --;
 761:lvgl\src\lv_widgets/lv_tabview.c ****         }
 762:lvgl\src\lv_widgets/lv_tabview.c **** 
 763:lvgl\src\lv_widgets/lv_tabview.c ****         if(tab_cur > ext->tab_cnt - 1) tab_cur = ext->tab_cnt - 1;
 764:lvgl\src\lv_widgets/lv_tabview.c ****         if(tab_cur < 0) tab_cur = 0;
 765:lvgl\src\lv_widgets/lv_tabview.c **** 
 766:lvgl\src\lv_widgets/lv_tabview.c ****         uint32_t id_prev = lv_tabview_get_tab_act(tabview);
 767:lvgl\src\lv_widgets/lv_tabview.c ****         lv_tabview_set_tab_act(tabview, tab_cur, LV_ANIM_ON);
 768:lvgl\src\lv_widgets/lv_tabview.c ****         uint32_t id_new = lv_tabview_get_tab_act(tabview);
 769:lvgl\src\lv_widgets/lv_tabview.c **** 
 770:lvgl\src\lv_widgets/lv_tabview.c ****         if(id_prev != id_new) res = lv_event_send(tabview, LV_EVENT_VALUE_CHANGED, &id_prev);
 771:lvgl\src\lv_widgets/lv_tabview.c ****         if(res != LV_RES_OK) return res;
 772:lvgl\src\lv_widgets/lv_tabview.c **** 
ARM GAS  C:\Users\strap\AppData\Local\Temp\ccTzHSZB.s 			page 15


 773:lvgl\src\lv_widgets/lv_tabview.c ****     }
 774:lvgl\src\lv_widgets/lv_tabview.c ****     return res;
 775:lvgl\src\lv_widgets/lv_tabview.c **** }
 776:lvgl\src\lv_widgets/lv_tabview.c **** 
 777:lvgl\src\lv_widgets/lv_tabview.c **** /**
 778:lvgl\src\lv_widgets/lv_tabview.c ****  * Get the style descriptor of a part of the object
 779:lvgl\src\lv_widgets/lv_tabview.c ****  * @param page pointer the object
 780:lvgl\src\lv_widgets/lv_tabview.c ****  * @param part the part from `lv_tabview_part_t`. (LV_TABVIEW_PART_...)
 781:lvgl\src\lv_widgets/lv_tabview.c ****  * @return pointer to the style descriptor of the specified part
 782:lvgl\src\lv_widgets/lv_tabview.c ****  */
 783:lvgl\src\lv_widgets/lv_tabview.c **** static lv_style_list_t * lv_tabview_get_style(lv_obj_t * tabview, uint8_t part)
 784:lvgl\src\lv_widgets/lv_tabview.c **** {
  27              		.loc 1 784 0
  28              		.cfi_startproc
  29              		@ args = 0, pretend = 0, frame = 0
  30              		@ frame_needed = 0, uses_anonymous_args = 0
  31              	.LVL0:
  32 0000 38B5     		push	{r3, r4, r5, lr}
  33              		.cfi_def_cfa_offset 16
  34              		.cfi_offset 3, -16
  35              		.cfi_offset 4, -12
  36              		.cfi_offset 5, -8
  37              		.cfi_offset 14, -4
  38 0002 0446     		mov	r4, r0
  39 0004 0D46     		mov	r5, r1
 785:lvgl\src\lv_widgets/lv_tabview.c ****     LV_ASSERT_OBJ(tabview, LV_OBJX_NAME);
  40              		.loc 1 785 0
  41 0006 FFF7FEFF 		bl	lv_debug_check_null
  42              	.LVL1:
  43 000a 28B9     		cbnz	r0, .L2
  44              		.loc 1 785 0 is_stmt 0 discriminator 1
  45 000c 2246     		mov	r2, r4
  46 000e 0023     		movs	r3, #0
  47 0010 1548     		ldr	r0, .L13
  48 0012 FFF7FEFF 		bl	lv_debug_log_error
  49              	.LVL2:
  50              	.L3:
  51 0016 FEE7     		b	.L3
  52              	.L2:
 786:lvgl\src\lv_widgets/lv_tabview.c **** 
 787:lvgl\src\lv_widgets/lv_tabview.c ****     lv_tabview_ext_t * ext = lv_obj_get_ext_attr(tabview);
  53              		.loc 1 787 0 is_stmt 1
  54 0018 2046     		mov	r0, r4
  55 001a FFF7FEFF 		bl	lv_obj_get_ext_attr
  56              	.LVL3:
 788:lvgl\src\lv_widgets/lv_tabview.c ****     lv_style_list_t * style_dsc_p;
 789:lvgl\src\lv_widgets/lv_tabview.c **** 
 790:lvgl\src\lv_widgets/lv_tabview.c ****     switch(part) {
  57              		.loc 1 790 0
  58 001e 412D     		cmp	r5, #65
  59 0020 11D0     		beq	.L5
  60 0022 03D8     		bhi	.L6
  61 0024 3DB1     		cbz	r5, .L7
  62 0026 402D     		cmp	r5, #64
  63 0028 08D0     		beq	.L8
  64 002a 1BE0     		b	.L11
  65              	.L6:
ARM GAS  C:\Users\strap\AppData\Local\Temp\ccTzHSZB.s 			page 16


  66 002c 422D     		cmp	r5, #66
  67 002e 0FD0     		beq	.L9
  68 0030 432D     		cmp	r5, #67
  69 0032 12D0     		beq	.L10
  70 0034 16E0     		b	.L11
  71              	.L7:
 791:lvgl\src\lv_widgets/lv_tabview.c ****         case LV_TABVIEW_PART_BG:
 792:lvgl\src\lv_widgets/lv_tabview.c ****             style_dsc_p = &tabview->style_list;
  72              		.loc 1 792 0
  73 0036 04F12800 		add	r0, r4, #40
  74              	.LVL4:
 793:lvgl\src\lv_widgets/lv_tabview.c ****             break;
  75              		.loc 1 793 0
  76 003a 38BD     		pop	{r3, r4, r5, pc}
  77              	.LVL5:
  78              	.L8:
 794:lvgl\src\lv_widgets/lv_tabview.c ****         case LV_TABVIEW_PART_BG_SCRLLABLE:
 795:lvgl\src\lv_widgets/lv_tabview.c ****             style_dsc_p = lv_obj_get_style_list(ext->content, LV_PAGE_PART_SCROLLABLE);
  79              		.loc 1 795 0
  80 003c 4021     		movs	r1, #64
  81 003e 8068     		ldr	r0, [r0, #8]
  82              	.LVL6:
  83 0040 FFF7FEFF 		bl	lv_obj_get_style_list
  84              	.LVL7:
 796:lvgl\src\lv_widgets/lv_tabview.c ****             break;
  85              		.loc 1 796 0
  86 0044 38BD     		pop	{r3, r4, r5, pc}
  87              	.LVL8:
  88              	.L5:
 797:lvgl\src\lv_widgets/lv_tabview.c ****         case LV_TABVIEW_PART_TAB_BG:
 798:lvgl\src\lv_widgets/lv_tabview.c ****             style_dsc_p = lv_obj_get_style_list(ext->btns, LV_BTNMATRIX_PART_BG);
  89              		.loc 1 798 0
  90 0046 0021     		movs	r1, #0
  91 0048 0068     		ldr	r0, [r0]
  92              	.LVL9:
  93 004a FFF7FEFF 		bl	lv_obj_get_style_list
  94              	.LVL10:
 799:lvgl\src\lv_widgets/lv_tabview.c ****             break;
  95              		.loc 1 799 0
  96 004e 38BD     		pop	{r3, r4, r5, pc}
  97              	.LVL11:
  98              	.L9:
 800:lvgl\src\lv_widgets/lv_tabview.c ****         case LV_TABVIEW_PART_TAB_BTN:
 801:lvgl\src\lv_widgets/lv_tabview.c ****             style_dsc_p = lv_obj_get_style_list(ext->btns, LV_BTNMATRIX_PART_BTN);
  99              		.loc 1 801 0
 100 0050 0121     		movs	r1, #1
 101 0052 0068     		ldr	r0, [r0]
 102              	.LVL12:
 103 0054 FFF7FEFF 		bl	lv_obj_get_style_list
 104              	.LVL13:
 802:lvgl\src\lv_widgets/lv_tabview.c ****             break;
 105              		.loc 1 802 0
 106 0058 38BD     		pop	{r3, r4, r5, pc}
 107              	.LVL14:
 108              	.L10:
 803:lvgl\src\lv_widgets/lv_tabview.c ****         case LV_TABVIEW_PART_INDIC:
 804:lvgl\src\lv_widgets/lv_tabview.c ****             style_dsc_p = lv_obj_get_style_list(ext->indic, LV_OBJ_PART_MAIN);
ARM GAS  C:\Users\strap\AppData\Local\Temp\ccTzHSZB.s 			page 17


 109              		.loc 1 804 0
 110 005a 0021     		movs	r1, #0
 111 005c 4068     		ldr	r0, [r0, #4]
 112              	.LVL15:
 113 005e FFF7FEFF 		bl	lv_obj_get_style_list
 114              	.LVL16:
 805:lvgl\src\lv_widgets/lv_tabview.c ****             break;
 115              		.loc 1 805 0
 116 0062 38BD     		pop	{r3, r4, r5, pc}
 117              	.LVL17:
 118              	.L11:
 806:lvgl\src\lv_widgets/lv_tabview.c ****         default:
 807:lvgl\src\lv_widgets/lv_tabview.c ****             style_dsc_p = NULL;
 119              		.loc 1 807 0
 120 0064 0020     		movs	r0, #0
 121              	.LVL18:
 808:lvgl\src\lv_widgets/lv_tabview.c ****     }
 809:lvgl\src\lv_widgets/lv_tabview.c **** 
 810:lvgl\src\lv_widgets/lv_tabview.c ****     return style_dsc_p;
 811:lvgl\src\lv_widgets/lv_tabview.c **** }
 122              		.loc 1 811 0
 123 0066 38BD     		pop	{r3, r4, r5, pc}
 124              	.LVL19:
 125              	.L14:
 126              		.align	2
 127              	.L13:
 128 0068 00000000 		.word	.LC0
 129              		.cfi_endproc
 130              	.LFE371:
 131              		.size	lv_tabview_get_style, .-lv_tabview_get_style
 132              		.section	.text.refr_btns_size,"ax",%progbits
 133              		.align	2
 134              		.thumb
 135              		.thumb_func
 136              		.type	refr_btns_size, %function
 137              	refr_btns_size:
 138              	.LFB375:
 812:lvgl\src\lv_widgets/lv_tabview.c **** 
 813:lvgl\src\lv_widgets/lv_tabview.c **** 
 814:lvgl\src\lv_widgets/lv_tabview.c **** /**
 815:lvgl\src\lv_widgets/lv_tabview.c ****  * Called when a tab button is clicked
 816:lvgl\src\lv_widgets/lv_tabview.c ****  * @param tab_btnm pointer to the tab's button matrix object
 817:lvgl\src\lv_widgets/lv_tabview.c ****  * @param event type of the event
 818:lvgl\src\lv_widgets/lv_tabview.c ****  */
 819:lvgl\src\lv_widgets/lv_tabview.c **** static void tab_btnm_event_cb(lv_obj_t * tab_btnm, lv_event_t event)
 820:lvgl\src\lv_widgets/lv_tabview.c **** {
 821:lvgl\src\lv_widgets/lv_tabview.c ****     if(event != LV_EVENT_CLICKED) return;
 822:lvgl\src\lv_widgets/lv_tabview.c **** 
 823:lvgl\src\lv_widgets/lv_tabview.c ****     uint16_t btn_id = lv_btnmatrix_get_active_btn(tab_btnm);
 824:lvgl\src\lv_widgets/lv_tabview.c ****     if(btn_id == LV_BTNMATRIX_BTN_NONE) return;
 825:lvgl\src\lv_widgets/lv_tabview.c **** 
 826:lvgl\src\lv_widgets/lv_tabview.c ****     if(lv_btnmatrix_get_btn_ctrl(tab_btnm, btn_id, LV_BTNMATRIX_CTRL_DISABLED)) return;
 827:lvgl\src\lv_widgets/lv_tabview.c **** 
 828:lvgl\src\lv_widgets/lv_tabview.c ****     lv_btnmatrix_clear_btn_ctrl_all(tab_btnm, LV_BTNMATRIX_CTRL_CHECK_STATE);
 829:lvgl\src\lv_widgets/lv_tabview.c ****     lv_btnmatrix_set_btn_ctrl(tab_btnm, btn_id, LV_BTNMATRIX_CTRL_CHECK_STATE);
 830:lvgl\src\lv_widgets/lv_tabview.c **** 
 831:lvgl\src\lv_widgets/lv_tabview.c ****     lv_obj_t * tabview = lv_obj_get_parent(tab_btnm);
ARM GAS  C:\Users\strap\AppData\Local\Temp\ccTzHSZB.s 			page 18


 832:lvgl\src\lv_widgets/lv_tabview.c **** 
 833:lvgl\src\lv_widgets/lv_tabview.c ****     uint32_t id_prev = lv_tabview_get_tab_act(tabview);
 834:lvgl\src\lv_widgets/lv_tabview.c ****     lv_tabview_set_tab_act(tabview, btn_id, LV_ANIM_ON);
 835:lvgl\src\lv_widgets/lv_tabview.c ****     uint32_t id_new = lv_tabview_get_tab_act(tabview);
 836:lvgl\src\lv_widgets/lv_tabview.c **** 
 837:lvgl\src\lv_widgets/lv_tabview.c ****     lv_res_t res = LV_RES_OK;
 838:lvgl\src\lv_widgets/lv_tabview.c ****     if(id_prev != id_new) res = lv_event_send(tabview, LV_EVENT_VALUE_CHANGED, &id_new);
 839:lvgl\src\lv_widgets/lv_tabview.c **** 
 840:lvgl\src\lv_widgets/lv_tabview.c **** #if LV_USE_GROUP
 841:lvgl\src\lv_widgets/lv_tabview.c ****     if(lv_indev_get_type(lv_indev_get_act()) == LV_INDEV_TYPE_ENCODER) {
 842:lvgl\src\lv_widgets/lv_tabview.c ****         lv_group_set_editing(lv_obj_get_group(tabview), false);
 843:lvgl\src\lv_widgets/lv_tabview.c ****     }
 844:lvgl\src\lv_widgets/lv_tabview.c **** #endif
 845:lvgl\src\lv_widgets/lv_tabview.c **** 
 846:lvgl\src\lv_widgets/lv_tabview.c ****     if(res != LV_RES_OK) return;
 847:lvgl\src\lv_widgets/lv_tabview.c **** }
 848:lvgl\src\lv_widgets/lv_tabview.c **** 
 849:lvgl\src\lv_widgets/lv_tabview.c **** /**
 850:lvgl\src\lv_widgets/lv_tabview.c ****  * Realign and resize the elements of Tab view
 851:lvgl\src\lv_widgets/lv_tabview.c ****  * @param tabview pointer to a Tab view object
 852:lvgl\src\lv_widgets/lv_tabview.c ****  */
 853:lvgl\src\lv_widgets/lv_tabview.c **** static void tabview_realign(lv_obj_t * tabview)
 854:lvgl\src\lv_widgets/lv_tabview.c **** {
 855:lvgl\src\lv_widgets/lv_tabview.c ****     lv_tabview_ext_t * ext = lv_obj_get_ext_attr(tabview);
 856:lvgl\src\lv_widgets/lv_tabview.c **** 
 857:lvgl\src\lv_widgets/lv_tabview.c ****     refr_btns_size(tabview);
 858:lvgl\src\lv_widgets/lv_tabview.c ****     refr_content_size(tabview);
 859:lvgl\src\lv_widgets/lv_tabview.c ****     refr_indic_size(tabview);
 860:lvgl\src\lv_widgets/lv_tabview.c **** 
 861:lvgl\src\lv_widgets/lv_tabview.c ****     refr_align(tabview);
 862:lvgl\src\lv_widgets/lv_tabview.c **** 
 863:lvgl\src\lv_widgets/lv_tabview.c ****     lv_tabview_set_tab_act(tabview, ext->tab_cur, LV_ANIM_OFF);
 864:lvgl\src\lv_widgets/lv_tabview.c **** }
 865:lvgl\src\lv_widgets/lv_tabview.c **** 
 866:lvgl\src\lv_widgets/lv_tabview.c **** static void refr_indic_size(lv_obj_t * tabview)
 867:lvgl\src\lv_widgets/lv_tabview.c **** {
 868:lvgl\src\lv_widgets/lv_tabview.c ****     lv_tabview_ext_t * ext = lv_obj_get_ext_attr(tabview);
 869:lvgl\src\lv_widgets/lv_tabview.c ****     lv_btnmatrix_ext_t * btnm_ext = lv_obj_get_ext_attr(ext->btns);
 870:lvgl\src\lv_widgets/lv_tabview.c **** 
 871:lvgl\src\lv_widgets/lv_tabview.c ****     lv_coord_t indic_size = lv_obj_get_style_size(tabview, LV_TABVIEW_PART_INDIC);
 872:lvgl\src\lv_widgets/lv_tabview.c **** 
 873:lvgl\src\lv_widgets/lv_tabview.c ****     /*Set the indicator width/height*/
 874:lvgl\src\lv_widgets/lv_tabview.c ****     lv_coord_t indic_w;
 875:lvgl\src\lv_widgets/lv_tabview.c ****     lv_coord_t indic_h;
 876:lvgl\src\lv_widgets/lv_tabview.c **** 
 877:lvgl\src\lv_widgets/lv_tabview.c ****     switch(ext->btns_pos) {
 878:lvgl\src\lv_widgets/lv_tabview.c ****         default: /*default case is prevented in lv_tabview_set_btns_pos(), but here for safety*/
 879:lvgl\src\lv_widgets/lv_tabview.c ****         case LV_TABVIEW_TAB_POS_NONE:
 880:lvgl\src\lv_widgets/lv_tabview.c ****             lv_obj_set_hidden(ext->indic, true);
 881:lvgl\src\lv_widgets/lv_tabview.c ****             indic_w = 0;
 882:lvgl\src\lv_widgets/lv_tabview.c ****             indic_h = 0;
 883:lvgl\src\lv_widgets/lv_tabview.c ****             break;
 884:lvgl\src\lv_widgets/lv_tabview.c ****         case LV_TABVIEW_TAB_POS_TOP:
 885:lvgl\src\lv_widgets/lv_tabview.c ****         case LV_TABVIEW_TAB_POS_BOTTOM:
 886:lvgl\src\lv_widgets/lv_tabview.c ****             lv_obj_set_hidden(ext->indic, false);
 887:lvgl\src\lv_widgets/lv_tabview.c ****             if(ext->tab_cnt) {
 888:lvgl\src\lv_widgets/lv_tabview.c ****                 indic_h = indic_size;
ARM GAS  C:\Users\strap\AppData\Local\Temp\ccTzHSZB.s 			page 19


 889:lvgl\src\lv_widgets/lv_tabview.c ****                 indic_w = lv_area_get_width(&btnm_ext->button_areas[0]);
 890:lvgl\src\lv_widgets/lv_tabview.c ****             }
 891:lvgl\src\lv_widgets/lv_tabview.c ****             else {
 892:lvgl\src\lv_widgets/lv_tabview.c ****                 indic_w = 0;
 893:lvgl\src\lv_widgets/lv_tabview.c ****                 indic_h = 0;
 894:lvgl\src\lv_widgets/lv_tabview.c ****             }
 895:lvgl\src\lv_widgets/lv_tabview.c ****             break;
 896:lvgl\src\lv_widgets/lv_tabview.c ****         case LV_TABVIEW_TAB_POS_LEFT:
 897:lvgl\src\lv_widgets/lv_tabview.c ****         case LV_TABVIEW_TAB_POS_RIGHT:
 898:lvgl\src\lv_widgets/lv_tabview.c ****             lv_obj_set_hidden(ext->indic, false);
 899:lvgl\src\lv_widgets/lv_tabview.c ****             if(ext->tab_cnt) {
 900:lvgl\src\lv_widgets/lv_tabview.c ****                 indic_w = indic_size;
 901:lvgl\src\lv_widgets/lv_tabview.c ****                 indic_h = lv_area_get_height(&btnm_ext->button_areas[0]);
 902:lvgl\src\lv_widgets/lv_tabview.c ****             }
 903:lvgl\src\lv_widgets/lv_tabview.c ****             else {
 904:lvgl\src\lv_widgets/lv_tabview.c ****                 indic_w = 0;
 905:lvgl\src\lv_widgets/lv_tabview.c ****                 indic_h = 0;
 906:lvgl\src\lv_widgets/lv_tabview.c ****             }
 907:lvgl\src\lv_widgets/lv_tabview.c ****             break;
 908:lvgl\src\lv_widgets/lv_tabview.c ****     }
 909:lvgl\src\lv_widgets/lv_tabview.c **** 
 910:lvgl\src\lv_widgets/lv_tabview.c ****     lv_obj_set_width(ext->indic, indic_w);
 911:lvgl\src\lv_widgets/lv_tabview.c ****     lv_obj_set_height(ext->indic, indic_h);
 912:lvgl\src\lv_widgets/lv_tabview.c **** }
 913:lvgl\src\lv_widgets/lv_tabview.c **** 
 914:lvgl\src\lv_widgets/lv_tabview.c **** 
 915:lvgl\src\lv_widgets/lv_tabview.c **** static void refr_btns_size(lv_obj_t * tabview)
 916:lvgl\src\lv_widgets/lv_tabview.c **** {
 139              		.loc 1 916 0
 140              		.cfi_startproc
 141              		@ args = 0, pretend = 0, frame = 16
 142              		@ frame_needed = 0, uses_anonymous_args = 0
 143              	.LVL20:
 144 0000 2DE9F04F 		push	{r4, r5, r6, r7, r8, r9, r10, fp, lr}
 145              		.cfi_def_cfa_offset 36
 146              		.cfi_offset 4, -36
 147              		.cfi_offset 5, -32
 148              		.cfi_offset 6, -28
 149              		.cfi_offset 7, -24
 150              		.cfi_offset 8, -20
 151              		.cfi_offset 9, -16
 152              		.cfi_offset 10, -12
 153              		.cfi_offset 11, -8
 154              		.cfi_offset 14, -4
 155 0004 85B0     		sub	sp, sp, #20
 156              		.cfi_def_cfa_offset 56
 157 0006 0446     		mov	r4, r0
 917:lvgl\src\lv_widgets/lv_tabview.c ****     lv_tabview_ext_t * ext = lv_obj_get_ext_attr(tabview);
 158              		.loc 1 917 0
 159 0008 FFF7FEFF 		bl	lv_obj_get_ext_attr
 160              	.LVL21:
 161 000c 0646     		mov	r6, r0
 162              	.LVL22:
 163              	.LBB85:
 164              	.LBB86:
 165              		.file 2 "lvgl\\src\\lv_widgets\\../lv_core/lv_obj_style_dec.h"
   1:lvgl\src\lv_widgets\../lv_core/lv_obj_style_dec.h **** 
ARM GAS  C:\Users\strap\AppData\Local\Temp\ccTzHSZB.s 			page 20


   2:lvgl\src\lv_widgets\../lv_core/lv_obj_style_dec.h **** /**
   3:lvgl\src\lv_widgets\../lv_core/lv_obj_style_dec.h ****  * @file lv_obj_style_dec.h
   4:lvgl\src\lv_widgets\../lv_core/lv_obj_style_dec.h ****  *
   5:lvgl\src\lv_widgets\../lv_core/lv_obj_style_dec.h ****  */
   6:lvgl\src\lv_widgets\../lv_core/lv_obj_style_dec.h **** 
   7:lvgl\src\lv_widgets\../lv_core/lv_obj_style_dec.h **** #ifndef LV_OBJ_STYLE_DEC_H
   8:lvgl\src\lv_widgets\../lv_core/lv_obj_style_dec.h **** #define LV_OBJ_STYLE_DEC_H
   9:lvgl\src\lv_widgets\../lv_core/lv_obj_style_dec.h **** 
  10:lvgl\src\lv_widgets\../lv_core/lv_obj_style_dec.h **** #ifdef __cplusplus
  11:lvgl\src\lv_widgets\../lv_core/lv_obj_style_dec.h **** extern "C" {
  12:lvgl\src\lv_widgets\../lv_core/lv_obj_style_dec.h **** #endif
  13:lvgl\src\lv_widgets\../lv_core/lv_obj_style_dec.h **** 
  14:lvgl\src\lv_widgets\../lv_core/lv_obj_style_dec.h **** /*********************
  15:lvgl\src\lv_widgets\../lv_core/lv_obj_style_dec.h ****  *      DEFINES
  16:lvgl\src\lv_widgets\../lv_core/lv_obj_style_dec.h ****  *********************/
  17:lvgl\src\lv_widgets\../lv_core/lv_obj_style_dec.h **** 
  18:lvgl\src\lv_widgets\../lv_core/lv_obj_style_dec.h **** /**
  19:lvgl\src\lv_widgets\../lv_core/lv_obj_style_dec.h ****  * Macro to declare the most important style set/get API functions.
  20:lvgl\src\lv_widgets\../lv_core/lv_obj_style_dec.h ****  *
  21:lvgl\src\lv_widgets\../lv_core/lv_obj_style_dec.h ****  * Get the value of a style property from an object in the object's current state
  22:lvgl\src\lv_widgets\../lv_core/lv_obj_style_dec.h ****  * -----------------------------------------------------------------------------
  23:lvgl\src\lv_widgets\../lv_core/lv_obj_style_dec.h ****  *  - Get the value of a style property from an object in the object's current state.
  24:lvgl\src\lv_widgets\../lv_core/lv_obj_style_dec.h ****  *  - Transition animation is taken into account.
  25:lvgl\src\lv_widgets\../lv_core/lv_obj_style_dec.h ****  *  - If the property is not set in the object's styles check the parent(s) if the property can be 
  26:lvgl\src\lv_widgets\../lv_core/lv_obj_style_dec.h ****  *  - If still not found return a default value.
  27:lvgl\src\lv_widgets\../lv_core/lv_obj_style_dec.h ****  *  - For example:
  28:lvgl\src\lv_widgets\../lv_core/lv_obj_style_dec.h ****  *      `lv_style_int_t w = lv_obj_get_style_border_width(btn1, LV_BTN_PART_MAIN);`
  29:lvgl\src\lv_widgets\../lv_core/lv_obj_style_dec.h ****  *
  30:lvgl\src\lv_widgets\../lv_core/lv_obj_style_dec.h ****  * Set a local style property for an object in a given state
  31:lvgl\src\lv_widgets\../lv_core/lv_obj_style_dec.h ****  * ---------------------------------------------------------
  32:lvgl\src\lv_widgets\../lv_core/lv_obj_style_dec.h ****  *  - For example:
  33:lvgl\src\lv_widgets\../lv_core/lv_obj_style_dec.h ****  *      `lv_obj_set_style_local_border_width(btn1, LV_BTN_PART_MAIN, LV_STATE_PRESSED, 2);`
  34:lvgl\src\lv_widgets\../lv_core/lv_obj_style_dec.h ****  *
  35:lvgl\src\lv_widgets\../lv_core/lv_obj_style_dec.h ****  * Get a local style property's value of an object in a given state
  36:lvgl\src\lv_widgets\../lv_core/lv_obj_style_dec.h ****  * ----------------------------------------------------------------
  37:lvgl\src\lv_widgets\../lv_core/lv_obj_style_dec.h ****  *  - Return the best matching property in the given state.
  38:lvgl\src\lv_widgets\../lv_core/lv_obj_style_dec.h ****  *  - E.g. if `state` parameter is LV_STATE_PRESSED | LV_STATE_CHECKED` but the property defined on
  39:lvgl\src\lv_widgets\../lv_core/lv_obj_style_dec.h ****  *    `LV_STATE_PRESSED` and `LV_STATE_DEFAULT` the best matching state is `LV_STATE_PRESSED`
  40:lvgl\src\lv_widgets\../lv_core/lv_obj_style_dec.h ****  *    (because it has higher precedence) and it will be returned.
  41:lvgl\src\lv_widgets\../lv_core/lv_obj_style_dec.h ****  *  - If the property is not found even in `LV_STATE_DEFAULT` `-1` is returned.
  42:lvgl\src\lv_widgets\../lv_core/lv_obj_style_dec.h ****  *  - For example:
  43:lvgl\src\lv_widgets\../lv_core/lv_obj_style_dec.h ****  *      `//Type of result should be lv_style_int_t/lv_opa_t/lv_color_t/const void * according to th
  44:lvgl\src\lv_widgets\../lv_core/lv_obj_style_dec.h ****  *      `lv_style_int_t result;`
  45:lvgl\src\lv_widgets\../lv_core/lv_obj_style_dec.h ****  *      `lv_obj_get_style_local_border_width(btn1, LV_BTN_PART_MAIN, LV_STATE_PRESSED, &result);`
  46:lvgl\src\lv_widgets\../lv_core/lv_obj_style_dec.h ****  *      `if(weight > 0) ...the property is found and loaded into result...`
  47:lvgl\src\lv_widgets\../lv_core/lv_obj_style_dec.h ****  *
  48:lvgl\src\lv_widgets\../lv_core/lv_obj_style_dec.h ****  * Get the value from a style in a given state
  49:lvgl\src\lv_widgets\../lv_core/lv_obj_style_dec.h ****  * -------------------------------------------
  50:lvgl\src\lv_widgets\../lv_core/lv_obj_style_dec.h ****  * - The same rules applies to the return value then for "lv_obj_get_style_local_...()" above
  51:lvgl\src\lv_widgets\../lv_core/lv_obj_style_dec.h ****  * - For example
  52:lvgl\src\lv_widgets\../lv_core/lv_obj_style_dec.h ****  *      `int16_t weight = lv_style_get_border_width(&style1, LV_STATE_PRESSED, &result);`
  53:lvgl\src\lv_widgets\../lv_core/lv_obj_style_dec.h ****  *      `if(weight > 0) ...the property is found and loaded into result...`
  54:lvgl\src\lv_widgets\../lv_core/lv_obj_style_dec.h **** 
  55:lvgl\src\lv_widgets\../lv_core/lv_obj_style_dec.h ****  * Set a value in a style in a given state
  56:lvgl\src\lv_widgets\../lv_core/lv_obj_style_dec.h ****  * ---------------------------------------
  57:lvgl\src\lv_widgets\../lv_core/lv_obj_style_dec.h ****  * - For example
  58:lvgl\src\lv_widgets\../lv_core/lv_obj_style_dec.h ****  *      `lv_style_set_border_width(&style1, LV_STATE_PRESSED, 2);`
ARM GAS  C:\Users\strap\AppData\Local\Temp\ccTzHSZB.s 			page 21


  59:lvgl\src\lv_widgets\../lv_core/lv_obj_style_dec.h ****  */
  60:lvgl\src\lv_widgets\../lv_core/lv_obj_style_dec.h **** 
  61:lvgl\src\lv_widgets\../lv_core/lv_obj_style_dec.h **** #define _OBJ_GET_STYLE_scalar(prop_name, func_name, value_type, style_type)                        
  62:lvgl\src\lv_widgets\../lv_core/lv_obj_style_dec.h ****     static inline value_type lv_obj_get_style_##func_name (const lv_obj_t * obj, uint8_t part)     
  63:lvgl\src\lv_widgets\../lv_core/lv_obj_style_dec.h ****     {                                                                                              
  64:lvgl\src\lv_widgets\../lv_core/lv_obj_style_dec.h ****         return (value_type) _lv_obj_get_style##style_type (obj, part, LV_STYLE_##prop_name);       
  65:lvgl\src\lv_widgets\../lv_core/lv_obj_style_dec.h ****     }
  66:lvgl\src\lv_widgets\../lv_core/lv_obj_style_dec.h **** 
  67:lvgl\src\lv_widgets\../lv_core/lv_obj_style_dec.h **** #define _OBJ_GET_STYLE_nonscalar(prop_name, func_name, value_type, style_type)                     
  68:lvgl\src\lv_widgets\../lv_core/lv_obj_style_dec.h ****     static inline value_type lv_obj_get_style_##func_name (const lv_obj_t * obj, uint8_t part)     
  69:lvgl\src\lv_widgets\../lv_core/lv_obj_style_dec.h ****     {                                                                                              
  70:lvgl\src\lv_widgets\../lv_core/lv_obj_style_dec.h ****         return _lv_obj_get_style##style_type (obj, part, LV_STYLE_##prop_name);                    
  71:lvgl\src\lv_widgets\../lv_core/lv_obj_style_dec.h ****     }
  72:lvgl\src\lv_widgets\../lv_core/lv_obj_style_dec.h **** 
  73:lvgl\src\lv_widgets\../lv_core/lv_obj_style_dec.h **** #define _OBJ_SET_STYLE_LOCAL_scalar(prop_name, func_name, value_type, style_type)                  
  74:lvgl\src\lv_widgets\../lv_core/lv_obj_style_dec.h ****     static inline void lv_obj_set_style_local_##func_name (lv_obj_t * obj, uint8_t part, lv_state_t
  75:lvgl\src\lv_widgets\../lv_core/lv_obj_style_dec.h ****     {                                                                                              
  76:lvgl\src\lv_widgets\../lv_core/lv_obj_style_dec.h ****         _lv_obj_set_style_local##style_type (obj, part, LV_STYLE_##prop_name | (state << LV_STYLE_S
  77:lvgl\src\lv_widgets\../lv_core/lv_obj_style_dec.h ****     }
  78:lvgl\src\lv_widgets\../lv_core/lv_obj_style_dec.h **** 
  79:lvgl\src\lv_widgets\../lv_core/lv_obj_style_dec.h **** #define _OBJ_SET_STYLE_LOCAL_nonscalar(prop_name, func_name, value_type, style_type)               
  80:lvgl\src\lv_widgets\../lv_core/lv_obj_style_dec.h ****     static inline void lv_obj_set_style_local_##func_name (lv_obj_t * obj, uint8_t part, lv_state_t
  81:lvgl\src\lv_widgets\../lv_core/lv_obj_style_dec.h ****     {                                                                                              
  82:lvgl\src\lv_widgets\../lv_core/lv_obj_style_dec.h ****         _lv_obj_set_style_local##style_type (obj, part, LV_STYLE_##prop_name | (state << LV_STYLE_S
  83:lvgl\src\lv_widgets\../lv_core/lv_obj_style_dec.h ****     }
  84:lvgl\src\lv_widgets\../lv_core/lv_obj_style_dec.h **** 
  85:lvgl\src\lv_widgets\../lv_core/lv_obj_style_dec.h **** #define _OBJ_SET_STYLE_scalar(prop_name, func_name, value_type, style_type)                        
  86:lvgl\src\lv_widgets\../lv_core/lv_obj_style_dec.h ****     static inline void lv_style_set_##func_name (lv_style_t * style, lv_state_t state, value_type v
  87:lvgl\src\lv_widgets\../lv_core/lv_obj_style_dec.h ****     {                                                                                              
  88:lvgl\src\lv_widgets\../lv_core/lv_obj_style_dec.h ****         _lv_style_set##style_type (style, LV_STYLE_##prop_name | (state << LV_STYLE_STATE_POS), val
  89:lvgl\src\lv_widgets\../lv_core/lv_obj_style_dec.h ****     }
  90:lvgl\src\lv_widgets\../lv_core/lv_obj_style_dec.h **** 
  91:lvgl\src\lv_widgets\../lv_core/lv_obj_style_dec.h **** #define _OBJ_SET_STYLE_nonscalar(prop_name, func_name, value_type, style_type)                     
  92:lvgl\src\lv_widgets\../lv_core/lv_obj_style_dec.h ****     static inline void lv_style_set_##func_name (lv_style_t * style, lv_state_t state, value_type v
  93:lvgl\src\lv_widgets\../lv_core/lv_obj_style_dec.h ****     {                                                                                              
  94:lvgl\src\lv_widgets\../lv_core/lv_obj_style_dec.h ****         _lv_style_set##style_type (style, LV_STYLE_##prop_name | (state << LV_STYLE_STATE_POS), val
  95:lvgl\src\lv_widgets\../lv_core/lv_obj_style_dec.h ****     }
  96:lvgl\src\lv_widgets\../lv_core/lv_obj_style_dec.h **** 
  97:lvgl\src\lv_widgets\../lv_core/lv_obj_style_dec.h **** #define _LV_OBJ_STYLE_SET_GET_DECLARE(prop_name, func_name, value_type, style_type, scalar)        
  98:lvgl\src\lv_widgets\../lv_core/lv_obj_style_dec.h ****     _OBJ_GET_STYLE_##scalar(prop_name, func_name, value_type, style_type)                          
  99:lvgl\src\lv_widgets\../lv_core/lv_obj_style_dec.h ****     _OBJ_SET_STYLE_LOCAL_##scalar(prop_name, func_name, value_type, style_type)                    
 100:lvgl\src\lv_widgets\../lv_core/lv_obj_style_dec.h ****     _OBJ_SET_STYLE_##scalar(prop_name, func_name, value_type, style_type)
 101:lvgl\src\lv_widgets\../lv_core/lv_obj_style_dec.h **** 
 102:lvgl\src\lv_widgets\../lv_core/lv_obj_style_dec.h **** _LV_OBJ_STYLE_SET_GET_DECLARE(RADIUS, radius, lv_style_int_t, _int, scalar)
 103:lvgl\src\lv_widgets\../lv_core/lv_obj_style_dec.h **** _LV_OBJ_STYLE_SET_GET_DECLARE(CLIP_CORNER, clip_corner, bool, _int, scalar)
 104:lvgl\src\lv_widgets\../lv_core/lv_obj_style_dec.h **** _LV_OBJ_STYLE_SET_GET_DECLARE(SIZE, size, lv_style_int_t, _int, scalar)
 105:lvgl\src\lv_widgets\../lv_core/lv_obj_style_dec.h **** _LV_OBJ_STYLE_SET_GET_DECLARE(TRANSFORM_WIDTH, transform_width, lv_style_int_t, _int, scalar)
 106:lvgl\src\lv_widgets\../lv_core/lv_obj_style_dec.h **** _LV_OBJ_STYLE_SET_GET_DECLARE(TRANSFORM_HEIGHT, transform_height, lv_style_int_t, _int, scalar)
 107:lvgl\src\lv_widgets\../lv_core/lv_obj_style_dec.h **** _LV_OBJ_STYLE_SET_GET_DECLARE(TRANSFORM_ANGLE, transform_angle, lv_style_int_t, _int, scalar)
 108:lvgl\src\lv_widgets\../lv_core/lv_obj_style_dec.h **** _LV_OBJ_STYLE_SET_GET_DECLARE(TRANSFORM_ZOOM, transform_zoom, lv_style_int_t, _int, scalar)
 109:lvgl\src\lv_widgets\../lv_core/lv_obj_style_dec.h **** _LV_OBJ_STYLE_SET_GET_DECLARE(OPA_SCALE, opa_scale, lv_opa_t, _opa, scalar)
 110:lvgl\src\lv_widgets\../lv_core/lv_obj_style_dec.h **** _LV_OBJ_STYLE_SET_GET_DECLARE(PAD_TOP, pad_top, lv_style_int_t, _int, scalar)
 111:lvgl\src\lv_widgets\../lv_core/lv_obj_style_dec.h **** _LV_OBJ_STYLE_SET_GET_DECLARE(PAD_BOTTOM, pad_bottom, lv_style_int_t, _int, scalar)
 112:lvgl\src\lv_widgets\../lv_core/lv_obj_style_dec.h **** _LV_OBJ_STYLE_SET_GET_DECLARE(PAD_LEFT, pad_left, lv_style_int_t, _int, scalar)
 166              		.loc 2 112 0
 167 000e 1222     		movs	r2, #18
 168 0010 4121     		movs	r1, #65
ARM GAS  C:\Users\strap\AppData\Local\Temp\ccTzHSZB.s 			page 22


 169 0012 2046     		mov	r0, r4
 170              	.LVL23:
 171 0014 FFF7FEFF 		bl	_lv_obj_get_style_int
 172              	.LVL24:
 173 0018 0190     		str	r0, [sp, #4]
 174              	.LVL25:
 175              	.LBE86:
 176              	.LBE85:
 177              	.LBB87:
 178              	.LBB88:
 113:lvgl\src\lv_widgets\../lv_core/lv_obj_style_dec.h **** _LV_OBJ_STYLE_SET_GET_DECLARE(PAD_RIGHT, pad_right, lv_style_int_t, _int, scalar)
 179              		.loc 2 113 0
 180 001a 1322     		movs	r2, #19
 181 001c 4121     		movs	r1, #65
 182 001e 2046     		mov	r0, r4
 183 0020 FFF7FEFF 		bl	_lv_obj_get_style_int
 184              	.LVL26:
 185 0024 0290     		str	r0, [sp, #8]
 186              	.LVL27:
 187              	.LBE88:
 188              	.LBE87:
 189              	.LBB89:
 190              	.LBB90:
 110:lvgl\src\lv_widgets\../lv_core/lv_obj_style_dec.h **** _LV_OBJ_STYLE_SET_GET_DECLARE(PAD_BOTTOM, pad_bottom, lv_style_int_t, _int, scalar)
 191              		.loc 2 110 0
 192 0026 1022     		movs	r2, #16
 193 0028 4121     		movs	r1, #65
 194 002a 2046     		mov	r0, r4
 195 002c FFF7FEFF 		bl	_lv_obj_get_style_int
 196              	.LVL28:
 197 0030 8046     		mov	r8, r0
 198              	.LVL29:
 199              	.LBE90:
 200              	.LBE89:
 201              	.LBB91:
 202              	.LBB92:
 111:lvgl\src\lv_widgets\../lv_core/lv_obj_style_dec.h **** _LV_OBJ_STYLE_SET_GET_DECLARE(PAD_LEFT, pad_left, lv_style_int_t, _int, scalar)
 203              		.loc 2 111 0
 204 0032 1122     		movs	r2, #17
 205 0034 4121     		movs	r1, #65
 206 0036 2046     		mov	r0, r4
 207 0038 FFF7FEFF 		bl	_lv_obj_get_style_int
 208              	.LVL30:
 209 003c 0546     		mov	r5, r0
 210              	.LVL31:
 211              	.LBE92:
 212              	.LBE91:
 213              	.LBB93:
 214              	.LBB94:
 112:lvgl\src\lv_widgets\../lv_core/lv_obj_style_dec.h **** _LV_OBJ_STYLE_SET_GET_DECLARE(PAD_RIGHT, pad_right, lv_style_int_t, _int, scalar)
 215              		.loc 2 112 0
 216 003e 1222     		movs	r2, #18
 217 0040 4221     		movs	r1, #66
 218 0042 2046     		mov	r0, r4
 219 0044 FFF7FEFF 		bl	_lv_obj_get_style_int
 220              	.LVL32:
 221 0048 0746     		mov	r7, r0
ARM GAS  C:\Users\strap\AppData\Local\Temp\ccTzHSZB.s 			page 23


 222              	.LVL33:
 223              	.LBE94:
 224              	.LBE93:
 225              	.LBB95:
 226              	.LBB96:
 227              		.loc 2 113 0
 228 004a 1322     		movs	r2, #19
 229 004c 4221     		movs	r1, #66
 230 004e 2046     		mov	r0, r4
 231 0050 FFF7FEFF 		bl	_lv_obj_get_style_int
 232              	.LVL34:
 233 0054 0390     		str	r0, [sp, #12]
 234              	.LVL35:
 235              	.LBE96:
 236              	.LBE95:
 237              	.LBB97:
 238              	.LBB98:
 110:lvgl\src\lv_widgets\../lv_core/lv_obj_style_dec.h **** _LV_OBJ_STYLE_SET_GET_DECLARE(PAD_BOTTOM, pad_bottom, lv_style_int_t, _int, scalar)
 239              		.loc 2 110 0
 240 0056 1022     		movs	r2, #16
 241 0058 4221     		movs	r1, #66
 242 005a 2046     		mov	r0, r4
 243 005c FFF7FEFF 		bl	_lv_obj_get_style_int
 244              	.LVL36:
 245 0060 8246     		mov	r10, r0
 246              	.LVL37:
 247              	.LBE98:
 248              	.LBE97:
 249              	.LBB99:
 250              	.LBB100:
 111:lvgl\src\lv_widgets\../lv_core/lv_obj_style_dec.h **** _LV_OBJ_STYLE_SET_GET_DECLARE(PAD_LEFT, pad_left, lv_style_int_t, _int, scalar)
 251              		.loc 2 111 0
 252 0062 1122     		movs	r2, #17
 253 0064 4221     		movs	r1, #66
 254 0066 2046     		mov	r0, r4
 255 0068 FFF7FEFF 		bl	_lv_obj_get_style_int
 256              	.LVL38:
 257 006c 8146     		mov	r9, r0
 258              	.LVL39:
 259              	.LBE100:
 260              	.LBE99:
 261              	.LBB101:
 262              	.LBB102:
 114:lvgl\src\lv_widgets\../lv_core/lv_obj_style_dec.h **** _LV_OBJ_STYLE_SET_GET_DECLARE(PAD_INNER, pad_inner, lv_style_int_t, _int, scalar)
 115:lvgl\src\lv_widgets\../lv_core/lv_obj_style_dec.h **** _LV_OBJ_STYLE_SET_GET_DECLARE(MARGIN_TOP, margin_top, lv_style_int_t, _int, scalar)
 116:lvgl\src\lv_widgets\../lv_core/lv_obj_style_dec.h **** _LV_OBJ_STYLE_SET_GET_DECLARE(MARGIN_BOTTOM, margin_bottom, lv_style_int_t, _int, scalar)
 117:lvgl\src\lv_widgets\../lv_core/lv_obj_style_dec.h **** _LV_OBJ_STYLE_SET_GET_DECLARE(MARGIN_LEFT, margin_left, lv_style_int_t, _int, scalar)
 118:lvgl\src\lv_widgets\../lv_core/lv_obj_style_dec.h **** _LV_OBJ_STYLE_SET_GET_DECLARE(MARGIN_RIGHT, margin_right, lv_style_int_t, _int, scalar)
 119:lvgl\src\lv_widgets\../lv_core/lv_obj_style_dec.h **** _LV_OBJ_STYLE_SET_GET_DECLARE(BG_BLEND_MODE, bg_blend_mode, lv_blend_mode_t, _int, scalar)
 120:lvgl\src\lv_widgets\../lv_core/lv_obj_style_dec.h **** _LV_OBJ_STYLE_SET_GET_DECLARE(BG_MAIN_STOP, bg_main_stop, lv_style_int_t, _int, scalar)
 121:lvgl\src\lv_widgets\../lv_core/lv_obj_style_dec.h **** _LV_OBJ_STYLE_SET_GET_DECLARE(BG_GRAD_STOP, bg_grad_stop, lv_style_int_t, _int, scalar)
 122:lvgl\src\lv_widgets\../lv_core/lv_obj_style_dec.h **** _LV_OBJ_STYLE_SET_GET_DECLARE(BG_GRAD_DIR, bg_grad_dir, lv_grad_dir_t, _int, scalar)
 123:lvgl\src\lv_widgets\../lv_core/lv_obj_style_dec.h **** _LV_OBJ_STYLE_SET_GET_DECLARE(BG_COLOR, bg_color, lv_color_t, _color, nonscalar)
 124:lvgl\src\lv_widgets\../lv_core/lv_obj_style_dec.h **** _LV_OBJ_STYLE_SET_GET_DECLARE(BG_GRAD_COLOR, bg_grad_color, lv_color_t, _color, nonscalar)
 125:lvgl\src\lv_widgets\../lv_core/lv_obj_style_dec.h **** _LV_OBJ_STYLE_SET_GET_DECLARE(BG_OPA, bg_opa, lv_opa_t, _opa, scalar)
 126:lvgl\src\lv_widgets\../lv_core/lv_obj_style_dec.h **** _LV_OBJ_STYLE_SET_GET_DECLARE(BORDER_WIDTH, border_width, lv_style_int_t, _int, scalar)
 127:lvgl\src\lv_widgets\../lv_core/lv_obj_style_dec.h **** _LV_OBJ_STYLE_SET_GET_DECLARE(BORDER_SIDE, border_side, lv_border_side_t, _int, scalar)
ARM GAS  C:\Users\strap\AppData\Local\Temp\ccTzHSZB.s 			page 24


 128:lvgl\src\lv_widgets\../lv_core/lv_obj_style_dec.h **** _LV_OBJ_STYLE_SET_GET_DECLARE(BORDER_BLEND_MODE, border_blend_mode, lv_blend_mode_t, _int, scalar)
 129:lvgl\src\lv_widgets\../lv_core/lv_obj_style_dec.h **** _LV_OBJ_STYLE_SET_GET_DECLARE(BORDER_POST, border_post, bool, _int, scalar)
 130:lvgl\src\lv_widgets\../lv_core/lv_obj_style_dec.h **** _LV_OBJ_STYLE_SET_GET_DECLARE(BORDER_COLOR, border_color, lv_color_t, _color, nonscalar)
 131:lvgl\src\lv_widgets\../lv_core/lv_obj_style_dec.h **** _LV_OBJ_STYLE_SET_GET_DECLARE(BORDER_OPA, border_opa, lv_opa_t, _opa, scalar)
 132:lvgl\src\lv_widgets\../lv_core/lv_obj_style_dec.h **** _LV_OBJ_STYLE_SET_GET_DECLARE(OUTLINE_WIDTH, outline_width, lv_style_int_t, _int, scalar)
 133:lvgl\src\lv_widgets\../lv_core/lv_obj_style_dec.h **** _LV_OBJ_STYLE_SET_GET_DECLARE(OUTLINE_PAD, outline_pad, lv_style_int_t, _int, scalar)
 134:lvgl\src\lv_widgets\../lv_core/lv_obj_style_dec.h **** _LV_OBJ_STYLE_SET_GET_DECLARE(OUTLINE_BLEND_MODE, outline_blend_mode, lv_blend_mode_t, _int, scalar
 135:lvgl\src\lv_widgets\../lv_core/lv_obj_style_dec.h **** _LV_OBJ_STYLE_SET_GET_DECLARE(OUTLINE_COLOR, outline_color, lv_color_t, _color, nonscalar)
 136:lvgl\src\lv_widgets\../lv_core/lv_obj_style_dec.h **** _LV_OBJ_STYLE_SET_GET_DECLARE(OUTLINE_OPA, outline_opa, lv_opa_t, _opa, scalar)
 137:lvgl\src\lv_widgets\../lv_core/lv_obj_style_dec.h **** _LV_OBJ_STYLE_SET_GET_DECLARE(SHADOW_WIDTH, shadow_width, lv_style_int_t, _int, scalar)
 138:lvgl\src\lv_widgets\../lv_core/lv_obj_style_dec.h **** _LV_OBJ_STYLE_SET_GET_DECLARE(SHADOW_OFS_X, shadow_ofs_x, lv_style_int_t, _int, scalar)
 139:lvgl\src\lv_widgets\../lv_core/lv_obj_style_dec.h **** _LV_OBJ_STYLE_SET_GET_DECLARE(SHADOW_OFS_Y, shadow_ofs_y, lv_style_int_t, _int, scalar)
 140:lvgl\src\lv_widgets\../lv_core/lv_obj_style_dec.h **** _LV_OBJ_STYLE_SET_GET_DECLARE(SHADOW_SPREAD, shadow_spread, lv_style_int_t, _int, scalar)
 141:lvgl\src\lv_widgets\../lv_core/lv_obj_style_dec.h **** _LV_OBJ_STYLE_SET_GET_DECLARE(SHADOW_BLEND_MODE, shadow_blend_mode, lv_blend_mode_t, _int, scalar)
 142:lvgl\src\lv_widgets\../lv_core/lv_obj_style_dec.h **** _LV_OBJ_STYLE_SET_GET_DECLARE(SHADOW_COLOR, shadow_color, lv_color_t, _color, nonscalar)
 143:lvgl\src\lv_widgets\../lv_core/lv_obj_style_dec.h **** _LV_OBJ_STYLE_SET_GET_DECLARE(SHADOW_OPA, shadow_opa, lv_opa_t, _opa, scalar)
 144:lvgl\src\lv_widgets\../lv_core/lv_obj_style_dec.h **** _LV_OBJ_STYLE_SET_GET_DECLARE(PATTERN_REPEAT, pattern_repeat, bool, _int, scalar)
 145:lvgl\src\lv_widgets\../lv_core/lv_obj_style_dec.h **** _LV_OBJ_STYLE_SET_GET_DECLARE(PATTERN_BLEND_MODE, pattern_blend_mode, lv_blend_mode_t, _int, scalar
 146:lvgl\src\lv_widgets\../lv_core/lv_obj_style_dec.h **** _LV_OBJ_STYLE_SET_GET_DECLARE(PATTERN_RECOLOR, pattern_recolor, lv_color_t, _color, nonscalar)
 147:lvgl\src\lv_widgets\../lv_core/lv_obj_style_dec.h **** _LV_OBJ_STYLE_SET_GET_DECLARE(PATTERN_OPA, pattern_opa, lv_opa_t, _opa, scalar)
 148:lvgl\src\lv_widgets\../lv_core/lv_obj_style_dec.h **** _LV_OBJ_STYLE_SET_GET_DECLARE(PATTERN_RECOLOR_OPA, pattern_recolor_opa, lv_opa_t, _opa, scalar)
 149:lvgl\src\lv_widgets\../lv_core/lv_obj_style_dec.h **** _LV_OBJ_STYLE_SET_GET_DECLARE(PATTERN_IMAGE, pattern_image, const void *, _ptr, scalar)
 150:lvgl\src\lv_widgets\../lv_core/lv_obj_style_dec.h **** _LV_OBJ_STYLE_SET_GET_DECLARE(VALUE_LETTER_SPACE, value_letter_space, lv_style_int_t, _int, scalar)
 151:lvgl\src\lv_widgets\../lv_core/lv_obj_style_dec.h **** _LV_OBJ_STYLE_SET_GET_DECLARE(VALUE_LINE_SPACE, value_line_space, lv_style_int_t, _int, scalar)
 152:lvgl\src\lv_widgets\../lv_core/lv_obj_style_dec.h **** _LV_OBJ_STYLE_SET_GET_DECLARE(VALUE_BLEND_MODE, value_blend_mode, lv_blend_mode_t, _int, scalar)
 153:lvgl\src\lv_widgets\../lv_core/lv_obj_style_dec.h **** _LV_OBJ_STYLE_SET_GET_DECLARE(VALUE_OFS_X, value_ofs_x, lv_style_int_t, _int, scalar)
 154:lvgl\src\lv_widgets\../lv_core/lv_obj_style_dec.h **** _LV_OBJ_STYLE_SET_GET_DECLARE(VALUE_OFS_Y, value_ofs_y, lv_style_int_t, _int, scalar)
 155:lvgl\src\lv_widgets\../lv_core/lv_obj_style_dec.h **** _LV_OBJ_STYLE_SET_GET_DECLARE(VALUE_ALIGN, value_align, lv_align_t, _int, scalar)
 156:lvgl\src\lv_widgets\../lv_core/lv_obj_style_dec.h **** _LV_OBJ_STYLE_SET_GET_DECLARE(VALUE_COLOR, value_color, lv_color_t, _color, nonscalar)
 157:lvgl\src\lv_widgets\../lv_core/lv_obj_style_dec.h **** _LV_OBJ_STYLE_SET_GET_DECLARE(VALUE_OPA, value_opa, lv_opa_t, _opa, scalar)
 158:lvgl\src\lv_widgets\../lv_core/lv_obj_style_dec.h **** _LV_OBJ_STYLE_SET_GET_DECLARE(VALUE_FONT, value_font, const lv_font_t *, _ptr, scalar)
 159:lvgl\src\lv_widgets\../lv_core/lv_obj_style_dec.h **** _LV_OBJ_STYLE_SET_GET_DECLARE(VALUE_STR, value_str, const char *, _ptr, scalar)
 160:lvgl\src\lv_widgets\../lv_core/lv_obj_style_dec.h **** _LV_OBJ_STYLE_SET_GET_DECLARE(TEXT_LETTER_SPACE, text_letter_space, lv_style_int_t, _int, scalar)
 161:lvgl\src\lv_widgets\../lv_core/lv_obj_style_dec.h **** _LV_OBJ_STYLE_SET_GET_DECLARE(TEXT_LINE_SPACE, text_line_space, lv_style_int_t, _int, scalar)
 162:lvgl\src\lv_widgets\../lv_core/lv_obj_style_dec.h **** _LV_OBJ_STYLE_SET_GET_DECLARE(TEXT_DECOR, text_decor, lv_text_decor_t, _int, scalar)
 163:lvgl\src\lv_widgets\../lv_core/lv_obj_style_dec.h **** _LV_OBJ_STYLE_SET_GET_DECLARE(TEXT_BLEND_MODE, text_blend_mode, lv_blend_mode_t, _int, scalar)
 164:lvgl\src\lv_widgets\../lv_core/lv_obj_style_dec.h **** _LV_OBJ_STYLE_SET_GET_DECLARE(TEXT_COLOR, text_color, lv_color_t, _color, nonscalar)
 165:lvgl\src\lv_widgets\../lv_core/lv_obj_style_dec.h **** _LV_OBJ_STYLE_SET_GET_DECLARE(TEXT_SEL_COLOR, text_sel_color, lv_color_t, _color, nonscalar)
 166:lvgl\src\lv_widgets\../lv_core/lv_obj_style_dec.h **** _LV_OBJ_STYLE_SET_GET_DECLARE(TEXT_SEL_BG_COLOR, text_sel_bg_color, lv_color_t, _color, nonscalar)
 167:lvgl\src\lv_widgets\../lv_core/lv_obj_style_dec.h **** _LV_OBJ_STYLE_SET_GET_DECLARE(TEXT_OPA, text_opa, lv_opa_t, _opa, scalar)
 168:lvgl\src\lv_widgets\../lv_core/lv_obj_style_dec.h **** _LV_OBJ_STYLE_SET_GET_DECLARE(TEXT_FONT, text_font, const lv_font_t *, _ptr, scalar)
 263              		.loc 2 168 0
 264 006e 48F28E02 		movw	r2, #32910
 265 0072 4221     		movs	r1, #66
 266 0074 2046     		mov	r0, r4
 267 0076 FFF7FEFF 		bl	_lv_obj_get_style_ptr
 268              	.LVL40:
 269 007a 8346     		mov	fp, r0
 270              	.LVL41:
 271              	.LBE102:
 272              	.LBE101:
 918:lvgl\src\lv_widgets/lv_tabview.c **** 
 919:lvgl\src\lv_widgets/lv_tabview.c ****     lv_style_int_t tab_bg_left = lv_obj_get_style_pad_left(tabview, LV_TABVIEW_PART_TAB_BG);
 920:lvgl\src\lv_widgets/lv_tabview.c ****     lv_style_int_t tab_bg_right = lv_obj_get_style_pad_right(tabview, LV_TABVIEW_PART_TAB_BG);
 921:lvgl\src\lv_widgets/lv_tabview.c ****     lv_style_int_t tab_bg_top = lv_obj_get_style_pad_top(tabview, LV_TABVIEW_PART_TAB_BG);
 922:lvgl\src\lv_widgets/lv_tabview.c ****     lv_style_int_t tab_bg_bottom = lv_obj_get_style_pad_bottom(tabview, LV_TABVIEW_PART_TAB_BG);
 923:lvgl\src\lv_widgets/lv_tabview.c **** 
ARM GAS  C:\Users\strap\AppData\Local\Temp\ccTzHSZB.s 			page 25


 924:lvgl\src\lv_widgets/lv_tabview.c ****     lv_style_int_t tab_left = lv_obj_get_style_pad_left(tabview, LV_TABVIEW_PART_TAB_BTN);
 925:lvgl\src\lv_widgets/lv_tabview.c ****     lv_style_int_t tab_right = lv_obj_get_style_pad_right(tabview, LV_TABVIEW_PART_TAB_BTN);
 926:lvgl\src\lv_widgets/lv_tabview.c ****     lv_style_int_t tab_top = lv_obj_get_style_pad_top(tabview, LV_TABVIEW_PART_TAB_BTN);
 927:lvgl\src\lv_widgets/lv_tabview.c ****     lv_style_int_t tab_bottom = lv_obj_get_style_pad_bottom(tabview, LV_TABVIEW_PART_TAB_BTN);
 928:lvgl\src\lv_widgets/lv_tabview.c **** 
 929:lvgl\src\lv_widgets/lv_tabview.c ****     const lv_font_t * font = lv_obj_get_style_text_font(tabview, LV_TABVIEW_PART_TAB_BTN);
 930:lvgl\src\lv_widgets/lv_tabview.c **** 
 931:lvgl\src\lv_widgets/lv_tabview.c ****     /*Set the tabs height/width*/
 932:lvgl\src\lv_widgets/lv_tabview.c ****     lv_coord_t btns_w;
 933:lvgl\src\lv_widgets/lv_tabview.c ****     lv_coord_t btns_h;
 934:lvgl\src\lv_widgets/lv_tabview.c **** 
 935:lvgl\src\lv_widgets/lv_tabview.c ****     switch(ext->btns_pos) {
 273              		.loc 1 935 0
 274 007c B37E     		ldrb	r3, [r6, #26]	@ zero_extendqisi2
 275 007e 03F00703 		and	r3, r3, #7
 276 0082 013B     		subs	r3, r3, #1
 277 0084 032B     		cmp	r3, #3
 278 0086 03D8     		bhi	.L16
 279 0088 DFE803F0 		tbb	[pc, r3]
 280              	.L18:
 281 008c 09       		.byte	(.L17-.L18)/2
 282 008d 09       		.byte	(.L17-.L18)/2
 283 008e 19       		.byte	(.L19-.L18)/2
 284 008f 19       		.byte	(.L19-.L18)/2
 285              		.p2align 1
 286              	.L16:
 287              	.LVL42:
 936:lvgl\src\lv_widgets/lv_tabview.c ****         default: /*default case is prevented in lv_tabview_set_btns_pos(), but here for safety*/
 937:lvgl\src\lv_widgets/lv_tabview.c ****         case LV_TABVIEW_TAB_POS_NONE:
 938:lvgl\src\lv_widgets/lv_tabview.c ****             btns_w = 0;
 939:lvgl\src\lv_widgets/lv_tabview.c ****             btns_h = 0;
 940:lvgl\src\lv_widgets/lv_tabview.c ****             lv_obj_set_hidden(ext->btns, true);
 288              		.loc 1 940 0
 289 0090 0121     		movs	r1, #1
 290 0092 3068     		ldr	r0, [r6]
 291 0094 FFF7FEFF 		bl	lv_obj_set_hidden
 292              	.LVL43:
 939:lvgl\src\lv_widgets/lv_tabview.c ****             lv_obj_set_hidden(ext->btns, true);
 293              		.loc 1 939 0
 294 0098 0025     		movs	r5, #0
 938:lvgl\src\lv_widgets/lv_tabview.c ****             btns_h = 0;
 295              		.loc 1 938 0
 296 009a 2F46     		mov	r7, r5
 941:lvgl\src\lv_widgets/lv_tabview.c ****             break;
 297              		.loc 1 941 0
 298 009c 25E0     		b	.L20
 299              	.LVL44:
 300              	.L17:
 942:lvgl\src\lv_widgets/lv_tabview.c ****         case LV_TABVIEW_TAB_POS_TOP:
 943:lvgl\src\lv_widgets/lv_tabview.c ****         case LV_TABVIEW_TAB_POS_BOTTOM:
 944:lvgl\src\lv_widgets/lv_tabview.c ****             lv_obj_set_hidden(ext->btns, false);
 301              		.loc 1 944 0
 302 009e 0021     		movs	r1, #0
 303 00a0 3068     		ldr	r0, [r6]
 304 00a2 FFF7FEFF 		bl	lv_obj_set_hidden
 305              	.LVL45:
 306              	.LBB103:
ARM GAS  C:\Users\strap\AppData\Local\Temp\ccTzHSZB.s 			page 26


 307              	.LBB104:
 308              		.file 3 "lvgl\\src\\lv_widgets\\../lv_core/../lv_font/lv_font.h"
   1:lvgl\src\lv_widgets\../lv_core/../lv_font/lv_font.h **** /**
   2:lvgl\src\lv_widgets\../lv_core/../lv_font/lv_font.h ****  * @file lv_font.h
   3:lvgl\src\lv_widgets\../lv_core/../lv_font/lv_font.h ****  *
   4:lvgl\src\lv_widgets\../lv_core/../lv_font/lv_font.h ****  */
   5:lvgl\src\lv_widgets\../lv_core/../lv_font/lv_font.h **** 
   6:lvgl\src\lv_widgets\../lv_core/../lv_font/lv_font.h **** #ifndef LV_FONT_H
   7:lvgl\src\lv_widgets\../lv_core/../lv_font/lv_font.h **** #define LV_FONT_H
   8:lvgl\src\lv_widgets\../lv_core/../lv_font/lv_font.h **** 
   9:lvgl\src\lv_widgets\../lv_core/../lv_font/lv_font.h **** #ifdef __cplusplus
  10:lvgl\src\lv_widgets\../lv_core/../lv_font/lv_font.h **** extern "C" {
  11:lvgl\src\lv_widgets\../lv_core/../lv_font/lv_font.h **** #endif
  12:lvgl\src\lv_widgets\../lv_core/../lv_font/lv_font.h **** 
  13:lvgl\src\lv_widgets\../lv_core/../lv_font/lv_font.h **** /*********************
  14:lvgl\src\lv_widgets\../lv_core/../lv_font/lv_font.h ****  *      INCLUDES
  15:lvgl\src\lv_widgets\../lv_core/../lv_font/lv_font.h ****  *********************/
  16:lvgl\src\lv_widgets\../lv_core/../lv_font/lv_font.h **** #include "../lv_conf_internal.h"
  17:lvgl\src\lv_widgets\../lv_core/../lv_font/lv_font.h **** #include <stdint.h>
  18:lvgl\src\lv_widgets\../lv_core/../lv_font/lv_font.h **** #include <stddef.h>
  19:lvgl\src\lv_widgets\../lv_core/../lv_font/lv_font.h **** #include <stdbool.h>
  20:lvgl\src\lv_widgets\../lv_core/../lv_font/lv_font.h **** 
  21:lvgl\src\lv_widgets\../lv_core/../lv_font/lv_font.h **** #include "lv_symbol_def.h"
  22:lvgl\src\lv_widgets\../lv_core/../lv_font/lv_font.h **** #include "../lv_misc/lv_area.h"
  23:lvgl\src\lv_widgets\../lv_core/../lv_font/lv_font.h **** 
  24:lvgl\src\lv_widgets\../lv_core/../lv_font/lv_font.h **** /*********************
  25:lvgl\src\lv_widgets\../lv_core/../lv_font/lv_font.h ****  *      DEFINES
  26:lvgl\src\lv_widgets\../lv_core/../lv_font/lv_font.h ****  *********************/
  27:lvgl\src\lv_widgets\../lv_core/../lv_font/lv_font.h **** /*Number of fractional digits in the advanced width (`adv_w`) field of `lv_font_glyph_dsc_t`*/
  28:lvgl\src\lv_widgets\../lv_core/../lv_font/lv_font.h **** #define LV_FONT_WIDTH_FRACT_DIGIT       4
  29:lvgl\src\lv_widgets\../lv_core/../lv_font/lv_font.h **** 
  30:lvgl\src\lv_widgets\../lv_core/../lv_font/lv_font.h **** #define LV_FONT_KERN_POSITIVE        0
  31:lvgl\src\lv_widgets\../lv_core/../lv_font/lv_font.h **** #define LV_FONT_KERN_NEGATIVE        1
  32:lvgl\src\lv_widgets\../lv_core/../lv_font/lv_font.h **** 
  33:lvgl\src\lv_widgets\../lv_core/../lv_font/lv_font.h **** /**********************
  34:lvgl\src\lv_widgets\../lv_core/../lv_font/lv_font.h ****  *      TYPEDEFS
  35:lvgl\src\lv_widgets\../lv_core/../lv_font/lv_font.h ****  **********************/
  36:lvgl\src\lv_widgets\../lv_core/../lv_font/lv_font.h **** 
  37:lvgl\src\lv_widgets\../lv_core/../lv_font/lv_font.h **** /*------------------
  38:lvgl\src\lv_widgets\../lv_core/../lv_font/lv_font.h ****  * General types
  39:lvgl\src\lv_widgets\../lv_core/../lv_font/lv_font.h ****  *-----------------*/
  40:lvgl\src\lv_widgets\../lv_core/../lv_font/lv_font.h **** 
  41:lvgl\src\lv_widgets\../lv_core/../lv_font/lv_font.h **** /** Describes the properties of a glyph. */
  42:lvgl\src\lv_widgets\../lv_core/../lv_font/lv_font.h **** typedef struct {
  43:lvgl\src\lv_widgets\../lv_core/../lv_font/lv_font.h ****     uint16_t adv_w; /**< The glyph needs this space. Draw the next glyph after this width. 8 bit in
  44:lvgl\src\lv_widgets\../lv_core/../lv_font/lv_font.h ****     uint16_t box_w;  /**< Width of the glyph's bounding box*/
  45:lvgl\src\lv_widgets\../lv_core/../lv_font/lv_font.h ****     uint16_t box_h;  /**< Height of the glyph's bounding box*/
  46:lvgl\src\lv_widgets\../lv_core/../lv_font/lv_font.h ****     int16_t ofs_x;   /**< x offset of the bounding box*/
  47:lvgl\src\lv_widgets\../lv_core/../lv_font/lv_font.h ****     int16_t ofs_y;  /**< y offset of the bounding box*/
  48:lvgl\src\lv_widgets\../lv_core/../lv_font/lv_font.h ****     uint8_t bpp;   /**< Bit-per-pixel: 1, 2, 4, 8*/
  49:lvgl\src\lv_widgets\../lv_core/../lv_font/lv_font.h **** } lv_font_glyph_dsc_t;
  50:lvgl\src\lv_widgets\../lv_core/../lv_font/lv_font.h **** 
  51:lvgl\src\lv_widgets\../lv_core/../lv_font/lv_font.h **** 
  52:lvgl\src\lv_widgets\../lv_core/../lv_font/lv_font.h **** /** The bitmaps might be upscaled by 3 to achieve subpixel rendering. */
  53:lvgl\src\lv_widgets\../lv_core/../lv_font/lv_font.h **** enum {
  54:lvgl\src\lv_widgets\../lv_core/../lv_font/lv_font.h ****     LV_FONT_SUBPX_NONE,
  55:lvgl\src\lv_widgets\../lv_core/../lv_font/lv_font.h ****     LV_FONT_SUBPX_HOR,
ARM GAS  C:\Users\strap\AppData\Local\Temp\ccTzHSZB.s 			page 27


  56:lvgl\src\lv_widgets\../lv_core/../lv_font/lv_font.h ****     LV_FONT_SUBPX_VER,
  57:lvgl\src\lv_widgets\../lv_core/../lv_font/lv_font.h ****     LV_FONT_SUBPX_BOTH,
  58:lvgl\src\lv_widgets\../lv_core/../lv_font/lv_font.h **** };
  59:lvgl\src\lv_widgets\../lv_core/../lv_font/lv_font.h **** 
  60:lvgl\src\lv_widgets\../lv_core/../lv_font/lv_font.h **** typedef uint8_t lv_font_subpx_t;
  61:lvgl\src\lv_widgets\../lv_core/../lv_font/lv_font.h **** 
  62:lvgl\src\lv_widgets\../lv_core/../lv_font/lv_font.h **** /** Describe the properties of a font*/
  63:lvgl\src\lv_widgets\../lv_core/../lv_font/lv_font.h **** typedef struct _lv_font_struct {
  64:lvgl\src\lv_widgets\../lv_core/../lv_font/lv_font.h ****     /** Get a glyph's  descriptor from a font*/
  65:lvgl\src\lv_widgets\../lv_core/../lv_font/lv_font.h ****     bool (*get_glyph_dsc)(const struct _lv_font_struct *, lv_font_glyph_dsc_t *, uint32_t letter, u
  66:lvgl\src\lv_widgets\../lv_core/../lv_font/lv_font.h **** 
  67:lvgl\src\lv_widgets\../lv_core/../lv_font/lv_font.h ****     /** Get a glyph's bitmap from a font*/
  68:lvgl\src\lv_widgets\../lv_core/../lv_font/lv_font.h ****     const uint8_t * (*get_glyph_bitmap)(const struct _lv_font_struct *, uint32_t);
  69:lvgl\src\lv_widgets\../lv_core/../lv_font/lv_font.h **** 
  70:lvgl\src\lv_widgets\../lv_core/../lv_font/lv_font.h ****     /*Pointer to the font in a font pack (must have the same line height)*/
  71:lvgl\src\lv_widgets\../lv_core/../lv_font/lv_font.h ****     lv_coord_t line_height;         /**< The real line height where any text fits*/
  72:lvgl\src\lv_widgets\../lv_core/../lv_font/lv_font.h ****     lv_coord_t base_line;           /**< Base line measured from the top of the line_height*/
  73:lvgl\src\lv_widgets\../lv_core/../lv_font/lv_font.h ****     uint8_t subpx  : 2;             /**< An element of `lv_font_subpx_t`*/
  74:lvgl\src\lv_widgets\../lv_core/../lv_font/lv_font.h **** 
  75:lvgl\src\lv_widgets\../lv_core/../lv_font/lv_font.h ****     int8_t underline_position;      /**< Distance between the top of the underline and base line (<
  76:lvgl\src\lv_widgets\../lv_core/../lv_font/lv_font.h ****     int8_t  underline_thickness;     /**< Thickness of the underline*/
  77:lvgl\src\lv_widgets\../lv_core/../lv_font/lv_font.h **** 
  78:lvgl\src\lv_widgets\../lv_core/../lv_font/lv_font.h ****     void * dsc;                     /**< Store implementation specific or run_time data or caching 
  79:lvgl\src\lv_widgets\../lv_core/../lv_font/lv_font.h **** #if LV_USE_USER_DATA
  80:lvgl\src\lv_widgets\../lv_core/../lv_font/lv_font.h ****     lv_font_user_data_t user_data;  /**< Custom user data for font. */
  81:lvgl\src\lv_widgets\../lv_core/../lv_font/lv_font.h **** #endif
  82:lvgl\src\lv_widgets\../lv_core/../lv_font/lv_font.h **** 
  83:lvgl\src\lv_widgets\../lv_core/../lv_font/lv_font.h **** 
  84:lvgl\src\lv_widgets\../lv_core/../lv_font/lv_font.h **** } lv_font_t;
  85:lvgl\src\lv_widgets\../lv_core/../lv_font/lv_font.h **** 
  86:lvgl\src\lv_widgets\../lv_core/../lv_font/lv_font.h **** /**********************
  87:lvgl\src\lv_widgets\../lv_core/../lv_font/lv_font.h ****  * GLOBAL PROTOTYPES
  88:lvgl\src\lv_widgets\../lv_core/../lv_font/lv_font.h ****  **********************/
  89:lvgl\src\lv_widgets\../lv_core/../lv_font/lv_font.h **** 
  90:lvgl\src\lv_widgets\../lv_core/../lv_font/lv_font.h **** /**
  91:lvgl\src\lv_widgets\../lv_core/../lv_font/lv_font.h ****  * Return with the bitmap of a font.
  92:lvgl\src\lv_widgets\../lv_core/../lv_font/lv_font.h ****  * @param font_p pointer to a font
  93:lvgl\src\lv_widgets\../lv_core/../lv_font/lv_font.h ****  * @param letter an UNICODE character code
  94:lvgl\src\lv_widgets\../lv_core/../lv_font/lv_font.h ****  * @return  pointer to the bitmap of the letter
  95:lvgl\src\lv_widgets\../lv_core/../lv_font/lv_font.h ****  */
  96:lvgl\src\lv_widgets\../lv_core/../lv_font/lv_font.h **** const uint8_t * lv_font_get_glyph_bitmap(const lv_font_t * font_p, uint32_t letter);
  97:lvgl\src\lv_widgets\../lv_core/../lv_font/lv_font.h **** 
  98:lvgl\src\lv_widgets\../lv_core/../lv_font/lv_font.h **** /**
  99:lvgl\src\lv_widgets\../lv_core/../lv_font/lv_font.h ****  * Get the descriptor of a glyph
 100:lvgl\src\lv_widgets\../lv_core/../lv_font/lv_font.h ****  * @param font_p pointer to font
 101:lvgl\src\lv_widgets\../lv_core/../lv_font/lv_font.h ****  * @param dsc_out store the result descriptor here
 102:lvgl\src\lv_widgets\../lv_core/../lv_font/lv_font.h ****  * @param letter an UNICODE letter code
 103:lvgl\src\lv_widgets\../lv_core/../lv_font/lv_font.h ****  * @return true: descriptor is successfully loaded into `dsc_out`.
 104:lvgl\src\lv_widgets\../lv_core/../lv_font/lv_font.h ****  *         false: the letter was not found, no data is loaded to `dsc_out`
 105:lvgl\src\lv_widgets\../lv_core/../lv_font/lv_font.h ****  */
 106:lvgl\src\lv_widgets\../lv_core/../lv_font/lv_font.h **** bool lv_font_get_glyph_dsc(const lv_font_t * font_p, lv_font_glyph_dsc_t * dsc_out, uint32_t letter
 107:lvgl\src\lv_widgets\../lv_core/../lv_font/lv_font.h ****                            uint32_t letter_next);
 108:lvgl\src\lv_widgets\../lv_core/../lv_font/lv_font.h **** 
 109:lvgl\src\lv_widgets\../lv_core/../lv_font/lv_font.h **** /**
 110:lvgl\src\lv_widgets\../lv_core/../lv_font/lv_font.h ****  * Get the width of a glyph with kerning
 111:lvgl\src\lv_widgets\../lv_core/../lv_font/lv_font.h ****  * @param font pointer to a font
 112:lvgl\src\lv_widgets\../lv_core/../lv_font/lv_font.h ****  * @param letter an UNICODE letter
ARM GAS  C:\Users\strap\AppData\Local\Temp\ccTzHSZB.s 			page 28


 113:lvgl\src\lv_widgets\../lv_core/../lv_font/lv_font.h ****  * @param letter_next the next letter after `letter`. Used for kerning
 114:lvgl\src\lv_widgets\../lv_core/../lv_font/lv_font.h ****  * @return the width of the glyph
 115:lvgl\src\lv_widgets\../lv_core/../lv_font/lv_font.h ****  */
 116:lvgl\src\lv_widgets\../lv_core/../lv_font/lv_font.h **** uint16_t lv_font_get_glyph_width(const lv_font_t * font, uint32_t letter, uint32_t letter_next);
 117:lvgl\src\lv_widgets\../lv_core/../lv_font/lv_font.h **** 
 118:lvgl\src\lv_widgets\../lv_core/../lv_font/lv_font.h **** /**
 119:lvgl\src\lv_widgets\../lv_core/../lv_font/lv_font.h ****  * Get the line height of a font. All characters fit into this height
 120:lvgl\src\lv_widgets\../lv_core/../lv_font/lv_font.h ****  * @param font_p pointer to a font
 121:lvgl\src\lv_widgets\../lv_core/../lv_font/lv_font.h ****  * @return the height of a font
 122:lvgl\src\lv_widgets\../lv_core/../lv_font/lv_font.h ****  */
 123:lvgl\src\lv_widgets\../lv_core/../lv_font/lv_font.h **** static inline lv_coord_t lv_font_get_line_height(const lv_font_t * font_p)
 124:lvgl\src\lv_widgets\../lv_core/../lv_font/lv_font.h **** {
 125:lvgl\src\lv_widgets\../lv_core/../lv_font/lv_font.h ****     return font_p->line_height;
 309              		.loc 3 125 0
 310 00a6 BBF90830 		ldrsh	r3, [fp, #8]
 311              	.LVL46:
 312              	.LBE104:
 313              	.LBE103:
 945:lvgl\src\lv_widgets/lv_tabview.c ****             btns_h = lv_font_get_line_height(font) + tab_top + tab_bottom + tab_bg_top + tab_bg_bot
 314              		.loc 1 945 0
 315 00aa 9A44     		add	r10, r10, r3
 316 00ac D144     		add	r9, r9, r10
 317 00ae C844     		add	r8, r8, r9
 318 00b0 4544     		add	r5, r5, r8
 319 00b2 2DB2     		sxth	r5, r5
 320              	.LVL47:
 946:lvgl\src\lv_widgets/lv_tabview.c ****             btns_w = lv_obj_get_width(tabview);
 321              		.loc 1 946 0
 322 00b4 2046     		mov	r0, r4
 323 00b6 FFF7FEFF 		bl	lv_obj_get_width
 324              	.LVL48:
 325 00ba 0746     		mov	r7, r0
 326              	.LVL49:
 947:lvgl\src\lv_widgets/lv_tabview.c **** 
 948:lvgl\src\lv_widgets/lv_tabview.c ****             break;
 327              		.loc 1 948 0
 328 00bc 15E0     		b	.L20
 329              	.LVL50:
 330              	.L19:
 949:lvgl\src\lv_widgets/lv_tabview.c ****         case LV_TABVIEW_TAB_POS_LEFT:
 950:lvgl\src\lv_widgets/lv_tabview.c ****         case LV_TABVIEW_TAB_POS_RIGHT:
 951:lvgl\src\lv_widgets/lv_tabview.c ****             lv_obj_set_hidden(ext->btns, false);
 331              		.loc 1 951 0
 332 00be 0021     		movs	r1, #0
 333 00c0 3068     		ldr	r0, [r6]
 334 00c2 FFF7FEFF 		bl	lv_obj_set_hidden
 335              	.LVL51:
 952:lvgl\src\lv_widgets/lv_tabview.c ****             btns_w = lv_font_get_glyph_width(font, 'A', '\0') +
 336              		.loc 1 952 0
 337 00c6 0022     		movs	r2, #0
 338 00c8 4121     		movs	r1, #65
 339 00ca 5846     		mov	r0, fp
 340 00cc FFF7FEFF 		bl	lv_font_get_glyph_width
 341              	.LVL52:
 342 00d0 3844     		add	r0, r0, r7
 343 00d2 039B     		ldr	r3, [sp, #12]
 344 00d4 0344     		add	r3, r3, r0
ARM GAS  C:\Users\strap\AppData\Local\Temp\ccTzHSZB.s 			page 29


 345 00d6 1F46     		mov	r7, r3
 346 00d8 019B     		ldr	r3, [sp, #4]
 347 00da 1F44     		add	r7, r7, r3
 348 00dc 029B     		ldr	r3, [sp, #8]
 349 00de 1F44     		add	r7, r7, r3
 350 00e0 3FB2     		sxth	r7, r7
 351              	.LVL53:
 953:lvgl\src\lv_widgets/lv_tabview.c ****                      tab_left + tab_right + tab_bg_left + tab_bg_right;
 954:lvgl\src\lv_widgets/lv_tabview.c ****             btns_h = lv_obj_get_height(tabview);
 352              		.loc 1 954 0
 353 00e2 2046     		mov	r0, r4
 354 00e4 FFF7FEFF 		bl	lv_obj_get_height
 355              	.LVL54:
 356 00e8 0546     		mov	r5, r0
 357              	.LVL55:
 358              	.L20:
 955:lvgl\src\lv_widgets/lv_tabview.c ****             break;
 956:lvgl\src\lv_widgets/lv_tabview.c ****     }
 957:lvgl\src\lv_widgets/lv_tabview.c **** 
 958:lvgl\src\lv_widgets/lv_tabview.c ****     lv_obj_set_size(ext->btns, btns_w, btns_h);
 359              		.loc 1 958 0
 360 00ea 2A46     		mov	r2, r5
 361 00ec 3946     		mov	r1, r7
 362 00ee 3068     		ldr	r0, [r6]
 363 00f0 FFF7FEFF 		bl	lv_obj_set_size
 364              	.LVL56:
 959:lvgl\src\lv_widgets/lv_tabview.c **** }
 365              		.loc 1 959 0
 366 00f4 05B0     		add	sp, sp, #20
 367              		.cfi_def_cfa_offset 36
 368              		@ sp needed
 369 00f6 BDE8F08F 		pop	{r4, r5, r6, r7, r8, r9, r10, fp, pc}
 370              		.cfi_endproc
 371              	.LFE375:
 372              		.size	refr_btns_size, .-refr_btns_size
 373 00fa 00BF     		.section	.text.refr_content_size,"ax",%progbits
 374              		.align	2
 375              		.thumb
 376              		.thumb_func
 377              		.type	refr_content_size, %function
 378              	refr_content_size:
 379              	.LFB376:
 960:lvgl\src\lv_widgets/lv_tabview.c **** 
 961:lvgl\src\lv_widgets/lv_tabview.c **** static void refr_content_size(lv_obj_t * tabview)
 962:lvgl\src\lv_widgets/lv_tabview.c **** {
 380              		.loc 1 962 0
 381              		.cfi_startproc
 382              		@ args = 0, pretend = 0, frame = 0
 383              		@ frame_needed = 0, uses_anonymous_args = 0
 384              	.LVL57:
 385 0000 2DE9F041 		push	{r4, r5, r6, r7, r8, lr}
 386              		.cfi_def_cfa_offset 24
 387              		.cfi_offset 4, -24
 388              		.cfi_offset 5, -20
 389              		.cfi_offset 6, -16
 390              		.cfi_offset 7, -12
 391              		.cfi_offset 8, -8
ARM GAS  C:\Users\strap\AppData\Local\Temp\ccTzHSZB.s 			page 30


 392              		.cfi_offset 14, -4
 393 0004 0646     		mov	r6, r0
 963:lvgl\src\lv_widgets/lv_tabview.c ****     lv_tabview_ext_t * ext = lv_obj_get_ext_attr(tabview);
 394              		.loc 1 963 0
 395 0006 FFF7FEFF 		bl	lv_obj_get_ext_attr
 396              	.LVL58:
 397 000a 0546     		mov	r5, r0
 398              	.LVL59:
 964:lvgl\src\lv_widgets/lv_tabview.c ****     lv_coord_t cont_w;
 965:lvgl\src\lv_widgets/lv_tabview.c ****     lv_coord_t cont_h;
 966:lvgl\src\lv_widgets/lv_tabview.c **** 
 967:lvgl\src\lv_widgets/lv_tabview.c ****     switch(ext->btns_pos) {
 399              		.loc 1 967 0
 400 000c 837E     		ldrb	r3, [r0, #26]	@ zero_extendqisi2
 401 000e 03F00703 		and	r3, r3, #7
 402 0012 013B     		subs	r3, r3, #1
 403 0014 032B     		cmp	r3, #3
 404 0016 03D8     		bhi	.L23
 405 0018 DFE803F0 		tbb	[pc, r3]
 406              	.L25:
 407 001c 0B       		.byte	(.L24-.L25)/2
 408 001d 0B       		.byte	(.L24-.L25)/2
 409 001e 19       		.byte	(.L26-.L25)/2
 410 001f 19       		.byte	(.L26-.L25)/2
 411              		.p2align 1
 412              	.L23:
 968:lvgl\src\lv_widgets/lv_tabview.c ****         default: /*default case is prevented in lv_tabview_set_btns_pos(), but here for safety*/
 969:lvgl\src\lv_widgets/lv_tabview.c ****         case LV_TABVIEW_TAB_POS_NONE:
 970:lvgl\src\lv_widgets/lv_tabview.c ****             cont_w = lv_obj_get_width(tabview);
 413              		.loc 1 970 0
 414 0020 3046     		mov	r0, r6
 415              	.LVL60:
 416 0022 FFF7FEFF 		bl	lv_obj_get_width
 417              	.LVL61:
 418 0026 0746     		mov	r7, r0
 419              	.LVL62:
 971:lvgl\src\lv_widgets/lv_tabview.c ****             cont_h = lv_obj_get_height(tabview);
 420              		.loc 1 971 0
 421 0028 3046     		mov	r0, r6
 422 002a FFF7FEFF 		bl	lv_obj_get_height
 423              	.LVL63:
 424 002e 0446     		mov	r4, r0
 425              	.LVL64:
 972:lvgl\src\lv_widgets/lv_tabview.c ****             break;
 426              		.loc 1 972 0
 427 0030 1AE0     		b	.L27
 428              	.LVL65:
 429              	.L24:
 973:lvgl\src\lv_widgets/lv_tabview.c ****         case LV_TABVIEW_TAB_POS_TOP:
 974:lvgl\src\lv_widgets/lv_tabview.c ****         case LV_TABVIEW_TAB_POS_BOTTOM:
 975:lvgl\src\lv_widgets/lv_tabview.c ****             cont_w = lv_obj_get_width(tabview);
 430              		.loc 1 975 0
 431 0032 3046     		mov	r0, r6
 432              	.LVL66:
 433 0034 FFF7FEFF 		bl	lv_obj_get_width
 434              	.LVL67:
 435 0038 0746     		mov	r7, r0
ARM GAS  C:\Users\strap\AppData\Local\Temp\ccTzHSZB.s 			page 31


 436              	.LVL68:
 976:lvgl\src\lv_widgets/lv_tabview.c ****             cont_h = lv_obj_get_height(tabview) - lv_obj_get_height(ext->btns);
 437              		.loc 1 976 0
 438 003a 3046     		mov	r0, r6
 439 003c FFF7FEFF 		bl	lv_obj_get_height
 440              	.LVL69:
 441 0040 0446     		mov	r4, r0
 442 0042 2868     		ldr	r0, [r5]
 443 0044 FFF7FEFF 		bl	lv_obj_get_height
 444              	.LVL70:
 445 0048 201A     		subs	r0, r4, r0
 446 004a 04B2     		sxth	r4, r0
 447              	.LVL71:
 977:lvgl\src\lv_widgets/lv_tabview.c ****             break;
 448              		.loc 1 977 0
 449 004c 0CE0     		b	.L27
 450              	.LVL72:
 451              	.L26:
 978:lvgl\src\lv_widgets/lv_tabview.c ****         case LV_TABVIEW_TAB_POS_LEFT:
 979:lvgl\src\lv_widgets/lv_tabview.c ****         case LV_TABVIEW_TAB_POS_RIGHT:
 980:lvgl\src\lv_widgets/lv_tabview.c ****             cont_w = lv_obj_get_width(tabview) - lv_obj_get_width(ext->btns);
 452              		.loc 1 980 0
 453 004e 3046     		mov	r0, r6
 454              	.LVL73:
 455 0050 FFF7FEFF 		bl	lv_obj_get_width
 456              	.LVL74:
 457 0054 0746     		mov	r7, r0
 458 0056 2868     		ldr	r0, [r5]
 459 0058 FFF7FEFF 		bl	lv_obj_get_width
 460              	.LVL75:
 461 005c 381A     		subs	r0, r7, r0
 462 005e 07B2     		sxth	r7, r0
 463              	.LVL76:
 981:lvgl\src\lv_widgets/lv_tabview.c ****             cont_h = lv_obj_get_height(tabview);
 464              		.loc 1 981 0
 465 0060 3046     		mov	r0, r6
 466 0062 FFF7FEFF 		bl	lv_obj_get_height
 467              	.LVL77:
 468 0066 0446     		mov	r4, r0
 469              	.LVL78:
 470              	.L27:
 982:lvgl\src\lv_widgets/lv_tabview.c ****             break;
 983:lvgl\src\lv_widgets/lv_tabview.c ****     }
 984:lvgl\src\lv_widgets/lv_tabview.c **** 
 985:lvgl\src\lv_widgets/lv_tabview.c ****     lv_obj_set_size(ext->content, cont_w, cont_h);
 471              		.loc 1 985 0
 472 0068 2246     		mov	r2, r4
 473 006a 3946     		mov	r1, r7
 474 006c A868     		ldr	r0, [r5, #8]
 475 006e FFF7FEFF 		bl	lv_obj_set_size
 476              	.LVL79:
 477              	.LBB105:
 478              	.LBB106:
 110:lvgl\src\lv_widgets\../lv_core/lv_obj_style_dec.h **** _LV_OBJ_STYLE_SET_GET_DECLARE(PAD_BOTTOM, pad_bottom, lv_style_int_t, _int, scalar)
 479              		.loc 2 110 0
 480 0072 1022     		movs	r2, #16
 481 0074 4021     		movs	r1, #64
ARM GAS  C:\Users\strap\AppData\Local\Temp\ccTzHSZB.s 			page 32


 482 0076 3046     		mov	r0, r6
 483 0078 FFF7FEFF 		bl	_lv_obj_get_style_int
 484              	.LVL80:
 485 007c 8046     		mov	r8, r0
 486              	.LVL81:
 487              	.LBE106:
 488              	.LBE105:
 489              	.LBB107:
 490              	.LBB108:
 111:lvgl\src\lv_widgets\../lv_core/lv_obj_style_dec.h **** _LV_OBJ_STYLE_SET_GET_DECLARE(PAD_LEFT, pad_left, lv_style_int_t, _int, scalar)
 491              		.loc 2 111 0
 492 007e 1122     		movs	r2, #17
 493 0080 4021     		movs	r1, #64
 494 0082 3046     		mov	r0, r6
 495 0084 FFF7FEFF 		bl	_lv_obj_get_style_int
 496              	.LVL82:
 497              	.LBE108:
 498              	.LBE107:
 986:lvgl\src\lv_widgets/lv_tabview.c **** 
 987:lvgl\src\lv_widgets/lv_tabview.c ****     /*Refresh the size of the tab pages too. `ext->content` has a layout to align the pages*/
 988:lvgl\src\lv_widgets/lv_tabview.c ****     lv_style_int_t bg_top = lv_obj_get_style_pad_top(tabview, LV_TABVIEW_PART_BG_SCRLLABLE);
 989:lvgl\src\lv_widgets/lv_tabview.c ****     lv_style_int_t bg_bottom = lv_obj_get_style_pad_bottom(tabview, LV_TABVIEW_PART_BG_SCRLLABLE);
 990:lvgl\src\lv_widgets/lv_tabview.c ****     cont_h -= bg_top + bg_bottom;
 499              		.loc 1 990 0
 500 0088 4044     		add	r0, r0, r8
 501 008a 241A     		subs	r4, r4, r0
 502              	.LVL83:
 503 008c 26B2     		sxth	r6, r4
 504              	.LVL84:
 991:lvgl\src\lv_widgets/lv_tabview.c ****     lv_obj_t * content_scrl = lv_page_get_scrollable(ext->content);
 505              		.loc 1 991 0
 506 008e A868     		ldr	r0, [r5, #8]
 507 0090 FFF7FEFF 		bl	lv_page_get_scrollable
 508              	.LVL85:
 509 0094 0546     		mov	r5, r0
 510              	.LVL86:
 992:lvgl\src\lv_widgets/lv_tabview.c ****     lv_obj_t * pages = lv_obj_get_child(content_scrl, NULL);
 511              		.loc 1 992 0
 512 0096 0021     		movs	r1, #0
 513 0098 FFF7FEFF 		bl	lv_obj_get_child
 514              	.LVL87:
 515 009c 0446     		mov	r4, r0
 516              	.LVL88:
 993:lvgl\src\lv_widgets/lv_tabview.c ****     while(pages != NULL) {
 517              		.loc 1 993 0
 518 009e 10E0     		b	.L28
 519              	.L30:
 994:lvgl\src\lv_widgets/lv_tabview.c ****         /*Be sure adjust only the pages (user can other things)*/
 995:lvgl\src\lv_widgets/lv_tabview.c ****         if(lv_obj_get_signal_cb(pages) == page_signal) {
 520              		.loc 1 995 0
 521 00a0 2046     		mov	r0, r4
 522              	.LVL89:
 523 00a2 FFF7FEFF 		bl	lv_obj_get_signal_cb
 524              	.LVL90:
 525 00a6 094B     		ldr	r3, .L32
 526 00a8 1B68     		ldr	r3, [r3]
 527 00aa 8342     		cmp	r3, r0
ARM GAS  C:\Users\strap\AppData\Local\Temp\ccTzHSZB.s 			page 33


 528 00ac 04D1     		bne	.L29
 996:lvgl\src\lv_widgets/lv_tabview.c ****             lv_obj_set_size(pages, cont_w, cont_h);
 529              		.loc 1 996 0
 530 00ae 3246     		mov	r2, r6
 531 00b0 3946     		mov	r1, r7
 532 00b2 2046     		mov	r0, r4
 533 00b4 FFF7FEFF 		bl	lv_obj_set_size
 534              	.LVL91:
 535              	.L29:
 997:lvgl\src\lv_widgets/lv_tabview.c ****         }
 998:lvgl\src\lv_widgets/lv_tabview.c ****         pages = lv_obj_get_child(content_scrl, pages);
 536              		.loc 1 998 0
 537 00b8 2146     		mov	r1, r4
 538 00ba 2846     		mov	r0, r5
 539 00bc FFF7FEFF 		bl	lv_obj_get_child
 540              	.LVL92:
 541 00c0 0446     		mov	r4, r0
 542              	.LVL93:
 543              	.L28:
 993:lvgl\src\lv_widgets/lv_tabview.c ****         /*Be sure adjust only the pages (user can other things)*/
 544              		.loc 1 993 0
 545 00c2 002C     		cmp	r4, #0
 546 00c4 ECD1     		bne	.L30
 999:lvgl\src\lv_widgets/lv_tabview.c ****     }
1000:lvgl\src\lv_widgets/lv_tabview.c **** }
 547              		.loc 1 1000 0
 548 00c6 BDE8F081 		pop	{r4, r5, r6, r7, r8, pc}
 549              	.LVL94:
 550              	.L33:
 551 00ca 00BF     		.align	2
 552              	.L32:
 553 00cc 00000000 		.word	.LANCHOR0
 554              		.cfi_endproc
 555              	.LFE376:
 556              		.size	refr_content_size, .-refr_content_size
 557              		.section	.text.refr_indic_size,"ax",%progbits
 558              		.align	2
 559              		.thumb
 560              		.thumb_func
 561              		.type	refr_indic_size, %function
 562              	refr_indic_size:
 563              	.LFB374:
 867:lvgl\src\lv_widgets/lv_tabview.c ****     lv_tabview_ext_t * ext = lv_obj_get_ext_attr(tabview);
 564              		.loc 1 867 0
 565              		.cfi_startproc
 566              		@ args = 0, pretend = 0, frame = 0
 567              		@ frame_needed = 0, uses_anonymous_args = 0
 568              	.LVL95:
 569 0000 F8B5     		push	{r3, r4, r5, r6, r7, lr}
 570              		.cfi_def_cfa_offset 24
 571              		.cfi_offset 3, -24
 572              		.cfi_offset 4, -20
 573              		.cfi_offset 5, -16
 574              		.cfi_offset 6, -12
 575              		.cfi_offset 7, -8
 576              		.cfi_offset 14, -4
 577 0002 0546     		mov	r5, r0
ARM GAS  C:\Users\strap\AppData\Local\Temp\ccTzHSZB.s 			page 34


 868:lvgl\src\lv_widgets/lv_tabview.c ****     lv_btnmatrix_ext_t * btnm_ext = lv_obj_get_ext_attr(ext->btns);
 578              		.loc 1 868 0
 579 0004 FFF7FEFF 		bl	lv_obj_get_ext_attr
 580              	.LVL96:
 581 0008 0446     		mov	r4, r0
 582              	.LVL97:
 869:lvgl\src\lv_widgets/lv_tabview.c **** 
 583              		.loc 1 869 0
 584 000a 0068     		ldr	r0, [r0]
 585              	.LVL98:
 586 000c FFF7FEFF 		bl	lv_obj_get_ext_attr
 587              	.LVL99:
 588 0010 0746     		mov	r7, r0
 589              	.LVL100:
 590              	.LBB109:
 591              	.LBB110:
 104:lvgl\src\lv_widgets\../lv_core/lv_obj_style_dec.h **** _LV_OBJ_STYLE_SET_GET_DECLARE(TRANSFORM_WIDTH, transform_width, lv_style_int_t, _int, scalar)
 592              		.loc 2 104 0
 593 0012 0322     		movs	r2, #3
 594 0014 4321     		movs	r1, #67
 595 0016 2846     		mov	r0, r5
 596              	.LVL101:
 597 0018 FFF7FEFF 		bl	_lv_obj_get_style_int
 598              	.LVL102:
 599 001c 0646     		mov	r6, r0
 600              	.LVL103:
 601              	.LBE110:
 602              	.LBE109:
 877:lvgl\src\lv_widgets/lv_tabview.c ****         default: /*default case is prevented in lv_tabview_set_btns_pos(), but here for safety*/
 603              		.loc 1 877 0
 604 001e A37E     		ldrb	r3, [r4, #26]	@ zero_extendqisi2
 605 0020 03F00703 		and	r3, r3, #7
 606 0024 013B     		subs	r3, r3, #1
 607 0026 032B     		cmp	r3, #3
 608 0028 03D8     		bhi	.L35
 609 002a DFE803F0 		tbb	[pc, r3]
 610              	.L37:
 611 002e 09       		.byte	(.L36-.L37)/2
 612 002f 09       		.byte	(.L36-.L37)/2
 613 0030 19       		.byte	(.L38-.L37)/2
 614 0031 19       		.byte	(.L38-.L37)/2
 615              		.p2align 1
 616              	.L35:
 880:lvgl\src\lv_widgets/lv_tabview.c ****             indic_w = 0;
 617              		.loc 1 880 0
 618 0032 0121     		movs	r1, #1
 619 0034 6068     		ldr	r0, [r4, #4]
 620 0036 FFF7FEFF 		bl	lv_obj_set_hidden
 621              	.LVL104:
 882:lvgl\src\lv_widgets/lv_tabview.c ****             break;
 622              		.loc 1 882 0
 623 003a 0025     		movs	r5, #0
 624              	.LVL105:
 881:lvgl\src\lv_widgets/lv_tabview.c ****             indic_h = 0;
 625              		.loc 1 881 0
 626 003c 2E46     		mov	r6, r5
 883:lvgl\src\lv_widgets/lv_tabview.c ****         case LV_TABVIEW_TAB_POS_TOP:
ARM GAS  C:\Users\strap\AppData\Local\Temp\ccTzHSZB.s 			page 35


 627              		.loc 1 883 0
 628 003e 23E0     		b	.L39
 629              	.LVL106:
 630              	.L36:
 886:lvgl\src\lv_widgets/lv_tabview.c ****             if(ext->tab_cnt) {
 631              		.loc 1 886 0
 632 0040 0021     		movs	r1, #0
 633 0042 6068     		ldr	r0, [r4, #4]
 634 0044 FFF7FEFF 		bl	lv_obj_set_hidden
 635              	.LVL107:
 887:lvgl\src\lv_widgets/lv_tabview.c ****                 indic_h = indic_size;
 636              		.loc 1 887 0
 637 0048 E38A     		ldrh	r3, [r4, #22]
 638 004a C3B1     		cbz	r3, .L40
 639              	.LVL108:
 889:lvgl\src\lv_widgets/lv_tabview.c ****             }
 640              		.loc 1 889 0
 641 004c 7A68     		ldr	r2, [r7, #4]
 642              	.LVL109:
 643              	.LBB111:
 644              	.LBB112:
 645              		.file 4 "lvgl\\src\\lv_widgets\\../lv_core/../lv_font/../lv_misc/lv_area.h"
   1:lvgl\src\lv_widgets\../lv_core/../lv_font/../lv_misc/lv_area.h **** /**
   2:lvgl\src\lv_widgets\../lv_core/../lv_font/../lv_misc/lv_area.h ****  * @file lv_area.h
   3:lvgl\src\lv_widgets\../lv_core/../lv_font/../lv_misc/lv_area.h ****  *
   4:lvgl\src\lv_widgets\../lv_core/../lv_font/../lv_misc/lv_area.h ****  */
   5:lvgl\src\lv_widgets\../lv_core/../lv_font/../lv_misc/lv_area.h **** 
   6:lvgl\src\lv_widgets\../lv_core/../lv_font/../lv_misc/lv_area.h **** #ifndef LV_AREA_H
   7:lvgl\src\lv_widgets\../lv_core/../lv_font/../lv_misc/lv_area.h **** #define LV_AREA_H
   8:lvgl\src\lv_widgets\../lv_core/../lv_font/../lv_misc/lv_area.h **** 
   9:lvgl\src\lv_widgets\../lv_core/../lv_font/../lv_misc/lv_area.h **** #ifdef __cplusplus
  10:lvgl\src\lv_widgets\../lv_core/../lv_font/../lv_misc/lv_area.h **** extern "C" {
  11:lvgl\src\lv_widgets\../lv_core/../lv_font/../lv_misc/lv_area.h **** #endif
  12:lvgl\src\lv_widgets\../lv_core/../lv_font/../lv_misc/lv_area.h **** 
  13:lvgl\src\lv_widgets\../lv_core/../lv_font/../lv_misc/lv_area.h **** /*********************
  14:lvgl\src\lv_widgets\../lv_core/../lv_font/../lv_misc/lv_area.h ****  *      INCLUDES
  15:lvgl\src\lv_widgets\../lv_core/../lv_font/../lv_misc/lv_area.h ****  *********************/
  16:lvgl\src\lv_widgets\../lv_core/../lv_font/../lv_misc/lv_area.h **** #include "../lv_conf_internal.h"
  17:lvgl\src\lv_widgets\../lv_core/../lv_font/../lv_misc/lv_area.h **** #include <string.h>
  18:lvgl\src\lv_widgets\../lv_core/../lv_font/../lv_misc/lv_area.h **** #include <stdbool.h>
  19:lvgl\src\lv_widgets\../lv_core/../lv_font/../lv_misc/lv_area.h **** #include <stdint.h>
  20:lvgl\src\lv_widgets\../lv_core/../lv_font/../lv_misc/lv_area.h **** #include "lv_mem.h"
  21:lvgl\src\lv_widgets\../lv_core/../lv_font/../lv_misc/lv_area.h **** 
  22:lvgl\src\lv_widgets\../lv_core/../lv_font/../lv_misc/lv_area.h **** /*********************
  23:lvgl\src\lv_widgets\../lv_core/../lv_font/../lv_misc/lv_area.h ****  *      DEFINES
  24:lvgl\src\lv_widgets\../lv_core/../lv_font/../lv_misc/lv_area.h ****  *********************/
  25:lvgl\src\lv_widgets\../lv_core/../lv_font/../lv_misc/lv_area.h **** /*To avoid overflow don't let the max ranges (reduce with 1000) */
  26:lvgl\src\lv_widgets\../lv_core/../lv_font/../lv_misc/lv_area.h **** #define LV_COORD_MAX ((lv_coord_t)((uint32_t)((uint32_t)1 << (8 * sizeof(lv_coord_t) - 1)) - 1000))
  27:lvgl\src\lv_widgets\../lv_core/../lv_font/../lv_misc/lv_area.h **** #define LV_COORD_MIN (-LV_COORD_MAX)
  28:lvgl\src\lv_widgets\../lv_core/../lv_font/../lv_misc/lv_area.h **** 
  29:lvgl\src\lv_widgets\../lv_core/../lv_font/../lv_misc/lv_area.h **** LV_EXPORT_CONST_INT(LV_COORD_MAX);
  30:lvgl\src\lv_widgets\../lv_core/../lv_font/../lv_misc/lv_area.h **** LV_EXPORT_CONST_INT(LV_COORD_MIN);
  31:lvgl\src\lv_widgets\../lv_core/../lv_font/../lv_misc/lv_area.h **** 
  32:lvgl\src\lv_widgets\../lv_core/../lv_font/../lv_misc/lv_area.h **** /**********************
  33:lvgl\src\lv_widgets\../lv_core/../lv_font/../lv_misc/lv_area.h ****  *      TYPEDEFS
  34:lvgl\src\lv_widgets\../lv_core/../lv_font/../lv_misc/lv_area.h ****  **********************/
  35:lvgl\src\lv_widgets\../lv_core/../lv_font/../lv_misc/lv_area.h **** 
ARM GAS  C:\Users\strap\AppData\Local\Temp\ccTzHSZB.s 			page 36


  36:lvgl\src\lv_widgets\../lv_core/../lv_font/../lv_misc/lv_area.h **** /**
  37:lvgl\src\lv_widgets\../lv_core/../lv_font/../lv_misc/lv_area.h ****  * Represents a point on the screen.
  38:lvgl\src\lv_widgets\../lv_core/../lv_font/../lv_misc/lv_area.h ****  */
  39:lvgl\src\lv_widgets\../lv_core/../lv_font/../lv_misc/lv_area.h **** typedef struct {
  40:lvgl\src\lv_widgets\../lv_core/../lv_font/../lv_misc/lv_area.h ****     lv_coord_t x;
  41:lvgl\src\lv_widgets\../lv_core/../lv_font/../lv_misc/lv_area.h ****     lv_coord_t y;
  42:lvgl\src\lv_widgets\../lv_core/../lv_font/../lv_misc/lv_area.h **** } lv_point_t;
  43:lvgl\src\lv_widgets\../lv_core/../lv_font/../lv_misc/lv_area.h **** 
  44:lvgl\src\lv_widgets\../lv_core/../lv_font/../lv_misc/lv_area.h **** /** Represents an area of the screen. */
  45:lvgl\src\lv_widgets\../lv_core/../lv_font/../lv_misc/lv_area.h **** typedef struct {
  46:lvgl\src\lv_widgets\../lv_core/../lv_font/../lv_misc/lv_area.h ****     lv_coord_t x1;
  47:lvgl\src\lv_widgets\../lv_core/../lv_font/../lv_misc/lv_area.h ****     lv_coord_t y1;
  48:lvgl\src\lv_widgets\../lv_core/../lv_font/../lv_misc/lv_area.h ****     lv_coord_t x2;
  49:lvgl\src\lv_widgets\../lv_core/../lv_font/../lv_misc/lv_area.h ****     lv_coord_t y2;
  50:lvgl\src\lv_widgets\../lv_core/../lv_font/../lv_misc/lv_area.h **** } lv_area_t;
  51:lvgl\src\lv_widgets\../lv_core/../lv_font/../lv_misc/lv_area.h **** 
  52:lvgl\src\lv_widgets\../lv_core/../lv_font/../lv_misc/lv_area.h **** 
  53:lvgl\src\lv_widgets\../lv_core/../lv_font/../lv_misc/lv_area.h **** 
  54:lvgl\src\lv_widgets\../lv_core/../lv_font/../lv_misc/lv_area.h **** /** Alignments */
  55:lvgl\src\lv_widgets\../lv_core/../lv_font/../lv_misc/lv_area.h **** enum {
  56:lvgl\src\lv_widgets\../lv_core/../lv_font/../lv_misc/lv_area.h ****     LV_ALIGN_CENTER = 0,
  57:lvgl\src\lv_widgets\../lv_core/../lv_font/../lv_misc/lv_area.h ****     LV_ALIGN_IN_TOP_LEFT,
  58:lvgl\src\lv_widgets\../lv_core/../lv_font/../lv_misc/lv_area.h ****     LV_ALIGN_IN_TOP_MID,
  59:lvgl\src\lv_widgets\../lv_core/../lv_font/../lv_misc/lv_area.h ****     LV_ALIGN_IN_TOP_RIGHT,
  60:lvgl\src\lv_widgets\../lv_core/../lv_font/../lv_misc/lv_area.h ****     LV_ALIGN_IN_BOTTOM_LEFT,
  61:lvgl\src\lv_widgets\../lv_core/../lv_font/../lv_misc/lv_area.h ****     LV_ALIGN_IN_BOTTOM_MID,
  62:lvgl\src\lv_widgets\../lv_core/../lv_font/../lv_misc/lv_area.h ****     LV_ALIGN_IN_BOTTOM_RIGHT,
  63:lvgl\src\lv_widgets\../lv_core/../lv_font/../lv_misc/lv_area.h ****     LV_ALIGN_IN_LEFT_MID,
  64:lvgl\src\lv_widgets\../lv_core/../lv_font/../lv_misc/lv_area.h ****     LV_ALIGN_IN_RIGHT_MID,
  65:lvgl\src\lv_widgets\../lv_core/../lv_font/../lv_misc/lv_area.h ****     LV_ALIGN_OUT_TOP_LEFT,
  66:lvgl\src\lv_widgets\../lv_core/../lv_font/../lv_misc/lv_area.h ****     LV_ALIGN_OUT_TOP_MID,
  67:lvgl\src\lv_widgets\../lv_core/../lv_font/../lv_misc/lv_area.h ****     LV_ALIGN_OUT_TOP_RIGHT,
  68:lvgl\src\lv_widgets\../lv_core/../lv_font/../lv_misc/lv_area.h ****     LV_ALIGN_OUT_BOTTOM_LEFT,
  69:lvgl\src\lv_widgets\../lv_core/../lv_font/../lv_misc/lv_area.h ****     LV_ALIGN_OUT_BOTTOM_MID,
  70:lvgl\src\lv_widgets\../lv_core/../lv_font/../lv_misc/lv_area.h ****     LV_ALIGN_OUT_BOTTOM_RIGHT,
  71:lvgl\src\lv_widgets\../lv_core/../lv_font/../lv_misc/lv_area.h ****     LV_ALIGN_OUT_LEFT_TOP,
  72:lvgl\src\lv_widgets\../lv_core/../lv_font/../lv_misc/lv_area.h ****     LV_ALIGN_OUT_LEFT_MID,
  73:lvgl\src\lv_widgets\../lv_core/../lv_font/../lv_misc/lv_area.h ****     LV_ALIGN_OUT_LEFT_BOTTOM,
  74:lvgl\src\lv_widgets\../lv_core/../lv_font/../lv_misc/lv_area.h ****     LV_ALIGN_OUT_RIGHT_TOP,
  75:lvgl\src\lv_widgets\../lv_core/../lv_font/../lv_misc/lv_area.h ****     LV_ALIGN_OUT_RIGHT_MID,
  76:lvgl\src\lv_widgets\../lv_core/../lv_font/../lv_misc/lv_area.h ****     LV_ALIGN_OUT_RIGHT_BOTTOM,
  77:lvgl\src\lv_widgets\../lv_core/../lv_font/../lv_misc/lv_area.h **** };
  78:lvgl\src\lv_widgets\../lv_core/../lv_font/../lv_misc/lv_area.h **** typedef uint8_t lv_align_t;
  79:lvgl\src\lv_widgets\../lv_core/../lv_font/../lv_misc/lv_area.h **** 
  80:lvgl\src\lv_widgets\../lv_core/../lv_font/../lv_misc/lv_area.h **** 
  81:lvgl\src\lv_widgets\../lv_core/../lv_font/../lv_misc/lv_area.h **** /**********************
  82:lvgl\src\lv_widgets\../lv_core/../lv_font/../lv_misc/lv_area.h ****  * GLOBAL PROTOTYPES
  83:lvgl\src\lv_widgets\../lv_core/../lv_font/../lv_misc/lv_area.h ****  **********************/
  84:lvgl\src\lv_widgets\../lv_core/../lv_font/../lv_misc/lv_area.h **** 
  85:lvgl\src\lv_widgets\../lv_core/../lv_font/../lv_misc/lv_area.h **** /**
  86:lvgl\src\lv_widgets\../lv_core/../lv_font/../lv_misc/lv_area.h ****  * Initialize an area
  87:lvgl\src\lv_widgets\../lv_core/../lv_font/../lv_misc/lv_area.h ****  * @param area_p pointer to an area
  88:lvgl\src\lv_widgets\../lv_core/../lv_font/../lv_misc/lv_area.h ****  * @param x1 left coordinate of the area
  89:lvgl\src\lv_widgets\../lv_core/../lv_font/../lv_misc/lv_area.h ****  * @param y1 top coordinate of the area
  90:lvgl\src\lv_widgets\../lv_core/../lv_font/../lv_misc/lv_area.h ****  * @param x2 right coordinate of the area
  91:lvgl\src\lv_widgets\../lv_core/../lv_font/../lv_misc/lv_area.h ****  * @param y2 bottom coordinate of the area
  92:lvgl\src\lv_widgets\../lv_core/../lv_font/../lv_misc/lv_area.h ****  */
ARM GAS  C:\Users\strap\AppData\Local\Temp\ccTzHSZB.s 			page 37


  93:lvgl\src\lv_widgets\../lv_core/../lv_font/../lv_misc/lv_area.h **** void lv_area_set(lv_area_t * area_p, lv_coord_t x1, lv_coord_t y1, lv_coord_t x2, lv_coord_t y2);
  94:lvgl\src\lv_widgets\../lv_core/../lv_font/../lv_misc/lv_area.h **** 
  95:lvgl\src\lv_widgets\../lv_core/../lv_font/../lv_misc/lv_area.h **** /**
  96:lvgl\src\lv_widgets\../lv_core/../lv_font/../lv_misc/lv_area.h ****  * Copy an area
  97:lvgl\src\lv_widgets\../lv_core/../lv_font/../lv_misc/lv_area.h ****  * @param dest pointer to the destination area
  98:lvgl\src\lv_widgets\../lv_core/../lv_font/../lv_misc/lv_area.h ****  * @param src pointer to the source area
  99:lvgl\src\lv_widgets\../lv_core/../lv_font/../lv_misc/lv_area.h ****  */
 100:lvgl\src\lv_widgets\../lv_core/../lv_font/../lv_misc/lv_area.h **** inline static void lv_area_copy(lv_area_t * dest, const lv_area_t * src)
 101:lvgl\src\lv_widgets\../lv_core/../lv_font/../lv_misc/lv_area.h **** {
 102:lvgl\src\lv_widgets\../lv_core/../lv_font/../lv_misc/lv_area.h ****     _lv_memcpy_small(dest, src, sizeof(lv_area_t));
 103:lvgl\src\lv_widgets\../lv_core/../lv_font/../lv_misc/lv_area.h **** }
 104:lvgl\src\lv_widgets\../lv_core/../lv_font/../lv_misc/lv_area.h **** 
 105:lvgl\src\lv_widgets\../lv_core/../lv_font/../lv_misc/lv_area.h **** /**
 106:lvgl\src\lv_widgets\../lv_core/../lv_font/../lv_misc/lv_area.h ****  * Get the width of an area
 107:lvgl\src\lv_widgets\../lv_core/../lv_font/../lv_misc/lv_area.h ****  * @param area_p pointer to an area
 108:lvgl\src\lv_widgets\../lv_core/../lv_font/../lv_misc/lv_area.h ****  * @return the width of the area (if x1 == x2 -> width = 1)
 109:lvgl\src\lv_widgets\../lv_core/../lv_font/../lv_misc/lv_area.h ****  */
 110:lvgl\src\lv_widgets\../lv_core/../lv_font/../lv_misc/lv_area.h **** static inline lv_coord_t lv_area_get_width(const lv_area_t * area_p)
 111:lvgl\src\lv_widgets\../lv_core/../lv_font/../lv_misc/lv_area.h **** {
 112:lvgl\src\lv_widgets\../lv_core/../lv_font/../lv_misc/lv_area.h ****     return (lv_coord_t)(area_p->x2 - area_p->x1 + 1);
 646              		.loc 4 112 0
 647 004e B2F90430 		ldrsh	r3, [r2, #4]
 648 0052 B2F90020 		ldrsh	r2, [r2]
 649              	.LVL110:
 650 0056 9B1A     		subs	r3, r3, r2
 651 0058 0133     		adds	r3, r3, #1
 652              	.LVL111:
 653              	.LBE112:
 654              	.LBE111:
 888:lvgl\src\lv_widgets/lv_tabview.c ****                 indic_w = lv_area_get_width(&btnm_ext->button_areas[0]);
 655              		.loc 1 888 0
 656 005a 3546     		mov	r5, r6
 657              	.LVL112:
 889:lvgl\src\lv_widgets/lv_tabview.c ****             }
 658              		.loc 1 889 0
 659 005c 1EB2     		sxth	r6, r3
 660              	.LVL113:
 661 005e 13E0     		b	.L39
 662              	.LVL114:
 663              	.L38:
 898:lvgl\src\lv_widgets/lv_tabview.c ****             if(ext->tab_cnt) {
 664              		.loc 1 898 0
 665 0060 0021     		movs	r1, #0
 666 0062 6068     		ldr	r0, [r4, #4]
 667 0064 FFF7FEFF 		bl	lv_obj_set_hidden
 668              	.LVL115:
 899:lvgl\src\lv_widgets/lv_tabview.c ****                 indic_w = indic_size;
 669              		.loc 1 899 0
 670 0068 E38A     		ldrh	r3, [r4, #22]
 671 006a 5BB1     		cbz	r3, .L41
 672              	.LVL116:
 901:lvgl\src\lv_widgets/lv_tabview.c ****             }
 673              		.loc 1 901 0
 674 006c 7A68     		ldr	r2, [r7, #4]
 675              	.LVL117:
 676              	.LBB113:
 677              	.LBB114:
ARM GAS  C:\Users\strap\AppData\Local\Temp\ccTzHSZB.s 			page 38


 113:lvgl\src\lv_widgets\../lv_core/../lv_font/../lv_misc/lv_area.h **** }
 114:lvgl\src\lv_widgets\../lv_core/../lv_font/../lv_misc/lv_area.h **** 
 115:lvgl\src\lv_widgets\../lv_core/../lv_font/../lv_misc/lv_area.h **** /**
 116:lvgl\src\lv_widgets\../lv_core/../lv_font/../lv_misc/lv_area.h ****  * Get the height of an area
 117:lvgl\src\lv_widgets\../lv_core/../lv_font/../lv_misc/lv_area.h ****  * @param area_p pointer to an area
 118:lvgl\src\lv_widgets\../lv_core/../lv_font/../lv_misc/lv_area.h ****  * @return the height of the area (if y1 == y2 -> height = 1)
 119:lvgl\src\lv_widgets\../lv_core/../lv_font/../lv_misc/lv_area.h ****  */
 120:lvgl\src\lv_widgets\../lv_core/../lv_font/../lv_misc/lv_area.h **** static inline lv_coord_t lv_area_get_height(const lv_area_t * area_p)
 121:lvgl\src\lv_widgets\../lv_core/../lv_font/../lv_misc/lv_area.h **** {
 122:lvgl\src\lv_widgets\../lv_core/../lv_font/../lv_misc/lv_area.h ****     return (lv_coord_t)(area_p->y2 - area_p->y1 + 1);
 678              		.loc 4 122 0
 679 006e B2F90630 		ldrsh	r3, [r2, #6]
 680 0072 B2F90250 		ldrsh	r5, [r2, #2]
 681              	.LVL118:
 682 0076 5D1B     		subs	r5, r3, r5
 683 0078 0135     		adds	r5, r5, #1
 684 007a 2DB2     		sxth	r5, r5
 685              	.LVL119:
 686              	.LBE114:
 687              	.LBE113:
 688 007c 04E0     		b	.L39
 689              	.LVL120:
 690              	.L40:
 893:lvgl\src\lv_widgets/lv_tabview.c ****             }
 691              		.loc 1 893 0
 692 007e 0025     		movs	r5, #0
 693              	.LVL121:
 892:lvgl\src\lv_widgets/lv_tabview.c ****                 indic_h = 0;
 694              		.loc 1 892 0
 695 0080 2E46     		mov	r6, r5
 696 0082 01E0     		b	.L39
 697              	.LVL122:
 698              	.L41:
 905:lvgl\src\lv_widgets/lv_tabview.c ****             }
 699              		.loc 1 905 0
 700 0084 0025     		movs	r5, #0
 701              	.LVL123:
 904:lvgl\src\lv_widgets/lv_tabview.c ****                 indic_h = 0;
 702              		.loc 1 904 0
 703 0086 2E46     		mov	r6, r5
 704              	.L39:
 705              	.LVL124:
 910:lvgl\src\lv_widgets/lv_tabview.c ****     lv_obj_set_height(ext->indic, indic_h);
 706              		.loc 1 910 0
 707 0088 3146     		mov	r1, r6
 708 008a 6068     		ldr	r0, [r4, #4]
 709 008c FFF7FEFF 		bl	lv_obj_set_width
 710              	.LVL125:
 911:lvgl\src\lv_widgets/lv_tabview.c **** }
 711              		.loc 1 911 0
 712 0090 2946     		mov	r1, r5
 713 0092 6068     		ldr	r0, [r4, #4]
 714 0094 FFF7FEFF 		bl	lv_obj_set_height
 715              	.LVL126:
 716 0098 F8BD     		pop	{r3, r4, r5, r6, r7, pc}
 717              		.cfi_endproc
 718              	.LFE374:
ARM GAS  C:\Users\strap\AppData\Local\Temp\ccTzHSZB.s 			page 39


 719              		.size	refr_indic_size, .-refr_indic_size
 720 009a 00BF     		.section	.text.refr_align,"ax",%progbits
 721              		.align	2
 722              		.thumb
 723              		.thumb_func
 724              		.type	refr_align, %function
 725              	refr_align:
 726              	.LFB377:
1001:lvgl\src\lv_widgets/lv_tabview.c **** 
1002:lvgl\src\lv_widgets/lv_tabview.c **** static void refr_align(lv_obj_t * tabview)
1003:lvgl\src\lv_widgets/lv_tabview.c **** {
 727              		.loc 1 1003 0
 728              		.cfi_startproc
 729              		@ args = 0, pretend = 0, frame = 0
 730              		@ frame_needed = 0, uses_anonymous_args = 0
 731              	.LVL127:
 732 0000 F0B5     		push	{r4, r5, r6, r7, lr}
 733              		.cfi_def_cfa_offset 20
 734              		.cfi_offset 4, -20
 735              		.cfi_offset 5, -16
 736              		.cfi_offset 6, -12
 737              		.cfi_offset 7, -8
 738              		.cfi_offset 14, -4
 739 0002 83B0     		sub	sp, sp, #12
 740              		.cfi_def_cfa_offset 32
 741 0004 0646     		mov	r6, r0
1004:lvgl\src\lv_widgets/lv_tabview.c ****     lv_tabview_ext_t * ext = lv_obj_get_ext_attr(tabview);
 742              		.loc 1 1004 0
 743 0006 FFF7FEFF 		bl	lv_obj_get_ext_attr
 744              	.LVL128:
 745 000a 0446     		mov	r4, r0
 746              	.LVL129:
1005:lvgl\src\lv_widgets/lv_tabview.c **** 
1006:lvgl\src\lv_widgets/lv_tabview.c ****     switch(ext->btns_pos) {
 747              		.loc 1 1006 0
 748 000c 837E     		ldrb	r3, [r0, #26]	@ zero_extendqisi2
 749 000e 03F00703 		and	r3, r3, #7
 750 0012 013B     		subs	r3, r3, #1
 751 0014 032B     		cmp	r3, #3
 752 0016 03D8     		bhi	.L44
 753 0018 DFE803F0 		tbb	[pc, r3]
 754              	.L46:
 755 001c 0A       		.byte	(.L45-.L46)/2
 756 001d 21       		.byte	(.L47-.L46)/2
 757 001e 38       		.byte	(.L48-.L46)/2
 758 001f 53       		.byte	(.L49-.L46)/2
 759              		.p2align 1
 760              	.L44:
1007:lvgl\src\lv_widgets/lv_tabview.c ****         default: /*default case is prevented in lv_tabview_set_btns_pos(), but here for safety*/
1008:lvgl\src\lv_widgets/lv_tabview.c ****         case LV_TABVIEW_TAB_POS_NONE:
1009:lvgl\src\lv_widgets/lv_tabview.c ****             lv_obj_align(ext->content, NULL, LV_ALIGN_IN_TOP_LEFT, 0, 0);
 761              		.loc 1 1009 0
 762 0020 8068     		ldr	r0, [r0, #8]
 763              	.LVL130:
 764 0022 0021     		movs	r1, #0
 765 0024 0091     		str	r1, [sp]
 766 0026 0B46     		mov	r3, r1
ARM GAS  C:\Users\strap\AppData\Local\Temp\ccTzHSZB.s 			page 40


 767 0028 0122     		movs	r2, #1
 768 002a FFF7FEFF 		bl	lv_obj_align
 769              	.LVL131:
1010:lvgl\src\lv_widgets/lv_tabview.c ****             break;
 770              		.loc 1 1010 0
 771 002e 5EE0     		b	.L43
 772              	.LVL132:
 773              	.L45:
1011:lvgl\src\lv_widgets/lv_tabview.c ****         case LV_TABVIEW_TAB_POS_TOP:
1012:lvgl\src\lv_widgets/lv_tabview.c ****             lv_obj_align(ext->btns, NULL, LV_ALIGN_IN_TOP_LEFT, 0, 0);
 774              		.loc 1 1012 0
 775 0030 0068     		ldr	r0, [r0]
 776              	.LVL133:
 777 0032 0025     		movs	r5, #0
 778 0034 0095     		str	r5, [sp]
 779 0036 2B46     		mov	r3, r5
 780 0038 0122     		movs	r2, #1
 781 003a 2946     		mov	r1, r5
 782 003c FFF7FEFF 		bl	lv_obj_align
 783              	.LVL134:
1013:lvgl\src\lv_widgets/lv_tabview.c ****             lv_obj_align(ext->content, ext->btns, LV_ALIGN_OUT_BOTTOM_LEFT, 0, 0);
 784              		.loc 1 1013 0
 785 0040 2168     		ldr	r1, [r4]
 786 0042 A068     		ldr	r0, [r4, #8]
 787 0044 0095     		str	r5, [sp]
 788 0046 2B46     		mov	r3, r5
 789 0048 0C22     		movs	r2, #12
 790 004a FFF7FEFF 		bl	lv_obj_align
 791              	.LVL135:
1014:lvgl\src\lv_widgets/lv_tabview.c ****             lv_obj_align(ext->indic, ext->btns, LV_ALIGN_IN_BOTTOM_LEFT, 0, 0);
 792              		.loc 1 1014 0
 793 004e 2168     		ldr	r1, [r4]
 794 0050 6068     		ldr	r0, [r4, #4]
 795 0052 0095     		str	r5, [sp]
 796 0054 2B46     		mov	r3, r5
 797 0056 0422     		movs	r2, #4
 798 0058 FFF7FEFF 		bl	lv_obj_align
 799              	.LVL136:
1015:lvgl\src\lv_widgets/lv_tabview.c ****             break;
 800              		.loc 1 1015 0
 801 005c 47E0     		b	.L43
 802              	.LVL137:
 803              	.L47:
1016:lvgl\src\lv_widgets/lv_tabview.c ****         case LV_TABVIEW_TAB_POS_BOTTOM:
1017:lvgl\src\lv_widgets/lv_tabview.c ****             lv_obj_align(ext->content, NULL, LV_ALIGN_IN_TOP_LEFT, 0, 0);
 804              		.loc 1 1017 0
 805 005e 8068     		ldr	r0, [r0, #8]
 806              	.LVL138:
 807 0060 0025     		movs	r5, #0
 808 0062 0095     		str	r5, [sp]
 809 0064 2B46     		mov	r3, r5
 810 0066 0122     		movs	r2, #1
 811 0068 2946     		mov	r1, r5
 812 006a FFF7FEFF 		bl	lv_obj_align
 813              	.LVL139:
1018:lvgl\src\lv_widgets/lv_tabview.c ****             lv_obj_align(ext->btns, ext->content, LV_ALIGN_OUT_BOTTOM_LEFT, 0, 0);
 814              		.loc 1 1018 0
ARM GAS  C:\Users\strap\AppData\Local\Temp\ccTzHSZB.s 			page 41


 815 006e A168     		ldr	r1, [r4, #8]
 816 0070 2068     		ldr	r0, [r4]
 817 0072 0095     		str	r5, [sp]
 818 0074 2B46     		mov	r3, r5
 819 0076 0C22     		movs	r2, #12
 820 0078 FFF7FEFF 		bl	lv_obj_align
 821              	.LVL140:
1019:lvgl\src\lv_widgets/lv_tabview.c ****             lv_obj_align(ext->indic, ext->btns, LV_ALIGN_IN_TOP_LEFT, 0, 0);
 822              		.loc 1 1019 0
 823 007c 2168     		ldr	r1, [r4]
 824 007e 6068     		ldr	r0, [r4, #4]
 825 0080 0095     		str	r5, [sp]
 826 0082 2B46     		mov	r3, r5
 827 0084 0122     		movs	r2, #1
 828 0086 FFF7FEFF 		bl	lv_obj_align
 829              	.LVL141:
1020:lvgl\src\lv_widgets/lv_tabview.c ****             break;
 830              		.loc 1 1020 0
 831 008a 30E0     		b	.L43
 832              	.LVL142:
 833              	.L48:
1021:lvgl\src\lv_widgets/lv_tabview.c ****         case LV_TABVIEW_TAB_POS_LEFT:
1022:lvgl\src\lv_widgets/lv_tabview.c ****             lv_obj_align(ext->btns, NULL, LV_ALIGN_IN_TOP_LEFT, 0, 0);
 834              		.loc 1 1022 0
 835 008c 0068     		ldr	r0, [r0]
 836              	.LVL143:
 837 008e 0025     		movs	r5, #0
 838 0090 0095     		str	r5, [sp]
 839 0092 2B46     		mov	r3, r5
 840 0094 0122     		movs	r2, #1
 841 0096 2946     		mov	r1, r5
 842 0098 FFF7FEFF 		bl	lv_obj_align
 843              	.LVL144:
1023:lvgl\src\lv_widgets/lv_tabview.c ****             lv_obj_align(ext->content, tabview, LV_ALIGN_IN_TOP_LEFT, lv_obj_get_width(ext->btns), 
 844              		.loc 1 1023 0
 845 009c A768     		ldr	r7, [r4, #8]
 846 009e 2068     		ldr	r0, [r4]
 847 00a0 FFF7FEFF 		bl	lv_obj_get_width
 848              	.LVL145:
 849 00a4 0095     		str	r5, [sp]
 850 00a6 0346     		mov	r3, r0
 851 00a8 0122     		movs	r2, #1
 852 00aa 3146     		mov	r1, r6
 853 00ac 3846     		mov	r0, r7
 854 00ae FFF7FEFF 		bl	lv_obj_align
 855              	.LVL146:
1024:lvgl\src\lv_widgets/lv_tabview.c ****             lv_obj_align(ext->indic, ext->btns, LV_ALIGN_IN_TOP_RIGHT, 0, 0);
 856              		.loc 1 1024 0
 857 00b2 2168     		ldr	r1, [r4]
 858 00b4 6068     		ldr	r0, [r4, #4]
 859 00b6 0095     		str	r5, [sp]
 860 00b8 2B46     		mov	r3, r5
 861 00ba 0322     		movs	r2, #3
 862 00bc FFF7FEFF 		bl	lv_obj_align
 863              	.LVL147:
1025:lvgl\src\lv_widgets/lv_tabview.c ****             break;
 864              		.loc 1 1025 0
ARM GAS  C:\Users\strap\AppData\Local\Temp\ccTzHSZB.s 			page 42


 865 00c0 15E0     		b	.L43
 866              	.LVL148:
 867              	.L49:
1026:lvgl\src\lv_widgets/lv_tabview.c ****         case LV_TABVIEW_TAB_POS_RIGHT:
1027:lvgl\src\lv_widgets/lv_tabview.c ****             lv_obj_align(ext->btns, NULL, LV_ALIGN_IN_TOP_RIGHT, 0, 0);
 868              		.loc 1 1027 0
 869 00c2 0068     		ldr	r0, [r0]
 870              	.LVL149:
 871 00c4 0025     		movs	r5, #0
 872 00c6 0095     		str	r5, [sp]
 873 00c8 2B46     		mov	r3, r5
 874 00ca 0322     		movs	r2, #3
 875 00cc 2946     		mov	r1, r5
 876 00ce FFF7FEFF 		bl	lv_obj_align
 877              	.LVL150:
1028:lvgl\src\lv_widgets/lv_tabview.c ****             lv_obj_align(ext->content, tabview, LV_ALIGN_IN_TOP_LEFT, 0, 0);
 878              		.loc 1 1028 0
 879 00d2 A068     		ldr	r0, [r4, #8]
 880 00d4 0095     		str	r5, [sp]
 881 00d6 2B46     		mov	r3, r5
 882 00d8 0122     		movs	r2, #1
 883 00da 3146     		mov	r1, r6
 884 00dc FFF7FEFF 		bl	lv_obj_align
 885              	.LVL151:
1029:lvgl\src\lv_widgets/lv_tabview.c ****             lv_obj_align(ext->indic, ext->btns, LV_ALIGN_IN_TOP_LEFT, 0, 0);
 886              		.loc 1 1029 0
 887 00e0 2168     		ldr	r1, [r4]
 888 00e2 6068     		ldr	r0, [r4, #4]
 889 00e4 0095     		str	r5, [sp]
 890 00e6 2B46     		mov	r3, r5
 891 00e8 0122     		movs	r2, #1
 892 00ea FFF7FEFF 		bl	lv_obj_align
 893              	.LVL152:
 894              	.L43:
1030:lvgl\src\lv_widgets/lv_tabview.c ****             break;
1031:lvgl\src\lv_widgets/lv_tabview.c ****     }
1032:lvgl\src\lv_widgets/lv_tabview.c **** }
 895              		.loc 1 1032 0
 896 00ee 03B0     		add	sp, sp, #12
 897              		.cfi_def_cfa_offset 20
 898              		@ sp needed
 899 00f0 F0BD     		pop	{r4, r5, r6, r7, pc}
 900              		.cfi_endproc
 901              	.LFE377:
 902              		.size	refr_align, .-refr_align
 903 00f2 00BF     		.section	.text.lv_tabview_clean_tab,"ax",%progbits
 904              		.align	2
 905              		.global	lv_tabview_clean_tab
 906              		.thumb
 907              		.thumb_func
 908              		.type	lv_tabview_clean_tab, %function
 909              	lv_tabview_clean_tab:
 910              	.LFB359:
 293:lvgl\src\lv_widgets/lv_tabview.c ****     LV_ASSERT_OBJ(tab, "lv_page");
 911              		.loc 1 293 0
 912              		.cfi_startproc
 913              		@ args = 0, pretend = 0, frame = 0
ARM GAS  C:\Users\strap\AppData\Local\Temp\ccTzHSZB.s 			page 43


 914              		@ frame_needed = 0, uses_anonymous_args = 0
 915              	.LVL153:
 916 0000 10B5     		push	{r4, lr}
 917              		.cfi_def_cfa_offset 8
 918              		.cfi_offset 4, -8
 919              		.cfi_offset 14, -4
 920 0002 0446     		mov	r4, r0
 294:lvgl\src\lv_widgets/lv_tabview.c **** 
 921              		.loc 1 294 0
 922 0004 FFF7FEFF 		bl	lv_debug_check_null
 923              	.LVL154:
 924 0008 28B9     		cbnz	r0, .L53
 294:lvgl\src\lv_widgets/lv_tabview.c **** 
 925              		.loc 1 294 0 is_stmt 0 discriminator 1
 926 000a 2246     		mov	r2, r4
 927 000c 0023     		movs	r3, #0
 928 000e 0548     		ldr	r0, .L56
 929 0010 FFF7FEFF 		bl	lv_debug_log_error
 930              	.LVL155:
 931              	.L54:
 932 0014 FEE7     		b	.L54
 933              	.L53:
 296:lvgl\src\lv_widgets/lv_tabview.c ****     lv_obj_clean(scrl);
 934              		.loc 1 296 0 is_stmt 1
 935 0016 2046     		mov	r0, r4
 936 0018 FFF7FEFF 		bl	lv_page_get_scrollable
 937              	.LVL156:
 297:lvgl\src\lv_widgets/lv_tabview.c **** }
 938              		.loc 1 297 0
 939 001c FFF7FEFF 		bl	lv_obj_clean
 940              	.LVL157:
 941 0020 10BD     		pop	{r4, pc}
 942              	.LVL158:
 943              	.L57:
 944 0022 00BF     		.align	2
 945              	.L56:
 946 0024 00000000 		.word	.LC0
 947              		.cfi_endproc
 948              	.LFE359:
 949              		.size	lv_tabview_clean_tab, .-lv_tabview_clean_tab
 950              		.section	.text.lv_tabview_set_tab_name,"ax",%progbits
 951              		.align	2
 952              		.global	lv_tabview_set_tab_name
 953              		.thumb
 954              		.thumb_func
 955              		.type	lv_tabview_set_tab_name, %function
 956              	lv_tabview_set_tab_name:
 957              	.LFB361:
 444:lvgl\src\lv_widgets/lv_tabview.c ****     LV_ASSERT_OBJ(tabview, LV_OBJX_NAME);
 958              		.loc 1 444 0
 959              		.cfi_startproc
 960              		@ args = 0, pretend = 0, frame = 0
 961              		@ frame_needed = 0, uses_anonymous_args = 0
 962              	.LVL159:
 963 0000 F8B5     		push	{r3, r4, r5, r6, r7, lr}
 964              		.cfi_def_cfa_offset 24
 965              		.cfi_offset 3, -24
ARM GAS  C:\Users\strap\AppData\Local\Temp\ccTzHSZB.s 			page 44


 966              		.cfi_offset 4, -20
 967              		.cfi_offset 5, -16
 968              		.cfi_offset 6, -12
 969              		.cfi_offset 7, -8
 970              		.cfi_offset 14, -4
 971 0002 0446     		mov	r4, r0
 972 0004 0D46     		mov	r5, r1
 973 0006 1746     		mov	r7, r2
 445:lvgl\src\lv_widgets/lv_tabview.c **** 
 974              		.loc 1 445 0
 975 0008 FFF7FEFF 		bl	lv_debug_check_null
 976              	.LVL160:
 977 000c 28B9     		cbnz	r0, .L59
 445:lvgl\src\lv_widgets/lv_tabview.c **** 
 978              		.loc 1 445 0 is_stmt 0 discriminator 1
 979 000e 2246     		mov	r2, r4
 980 0010 0023     		movs	r3, #0
 981 0012 1548     		ldr	r0, .L65
 982 0014 FFF7FEFF 		bl	lv_debug_log_error
 983              	.LVL161:
 984              	.L60:
 985 0018 FEE7     		b	.L60
 986              	.L59:
 448:lvgl\src\lv_widgets/lv_tabview.c **** 
 987              		.loc 1 448 0 is_stmt 1
 988 001a 2046     		mov	r0, r4
 989 001c FFF7FEFF 		bl	lv_obj_get_ext_attr
 990              	.LVL162:
 991 0020 0446     		mov	r4, r0
 992              	.LVL163:
 451:lvgl\src\lv_widgets/lv_tabview.c ****         /* reallocate memory for new tab name (use reallocate due to mostly the size didn't change 
 993              		.loc 1 451 0
 994 0022 C38A     		ldrh	r3, [r0, #22]
 995 0024 AB42     		cmp	r3, r5
 996 0026 1DD9     		bls	.L58
 997              	.LBB115:
 453:lvgl\src\lv_widgets/lv_tabview.c ****         LV_ASSERT_MEM(str);
 998              		.loc 1 453 0
 999 0028 C368     		ldr	r3, [r0, #12]
 1000 002a 53F82560 		ldr	r6, [r3, r5, lsl #2]
 1001 002e 3846     		mov	r0, r7
 1002              	.LVL164:
 1003 0030 FFF7FEFF 		bl	strlen
 1004              	.LVL165:
 1005 0034 411C     		adds	r1, r0, #1
 1006 0036 3046     		mov	r0, r6
 1007 0038 FFF7FEFF 		bl	lv_mem_realloc
 1008              	.LVL166:
 1009 003c 0646     		mov	r6, r0
 1010              	.LVL167:
 454:lvgl\src\lv_widgets/lv_tabview.c **** 
 1011              		.loc 1 454 0
 1012 003e FFF7FEFF 		bl	lv_debug_check_null
 1013              	.LVL168:
 1014 0042 28B9     		cbnz	r0, .L62
 454:lvgl\src\lv_widgets/lv_tabview.c **** 
 1015              		.loc 1 454 0 is_stmt 0 discriminator 1
ARM GAS  C:\Users\strap\AppData\Local\Temp\ccTzHSZB.s 			page 45


 1016 0044 3246     		mov	r2, r6
 1017 0046 0023     		movs	r3, #0
 1018 0048 0848     		ldr	r0, .L65+4
 1019 004a FFF7FEFF 		bl	lv_debug_log_error
 1020              	.LVL169:
 1021              	.L63:
 1022 004e FEE7     		b	.L63
 1023              	.L62:
 457:lvgl\src\lv_widgets/lv_tabview.c ****         /* update pointer  */
 1024              		.loc 1 457 0 is_stmt 1
 1025 0050 3946     		mov	r1, r7
 1026 0052 3046     		mov	r0, r6
 1027 0054 FFF7FEFF 		bl	strcpy
 1028              	.LVL170:
 459:lvgl\src\lv_widgets/lv_tabview.c **** 
 1029              		.loc 1 459 0
 1030 0058 E368     		ldr	r3, [r4, #12]
 1031 005a 43F82560 		str	r6, [r3, r5, lsl #2]
 462:lvgl\src\lv_widgets/lv_tabview.c ****     }
 1032              		.loc 1 462 0
 1033 005e 2068     		ldr	r0, [r4]
 1034 0060 FFF7FEFF 		bl	lv_obj_invalidate
 1035              	.LVL171:
 1036              	.L58:
 1037 0064 F8BD     		pop	{r3, r4, r5, r6, r7, pc}
 1038              	.LVL172:
 1039              	.L66:
 1040 0066 00BF     		.align	2
 1041              	.L65:
 1042 0068 00000000 		.word	.LC0
 1043 006c 10000000 		.word	.LC1
 1044              	.LBE115:
 1045              		.cfi_endproc
 1046              	.LFE361:
 1047              		.size	lv_tabview_set_tab_name, .-lv_tabview_set_tab_name
 1048              		.section	.text.lv_tabview_set_anim_time,"ax",%progbits
 1049              		.align	2
 1050              		.global	lv_tabview_set_anim_time
 1051              		.thumb
 1052              		.thumb_func
 1053              		.type	lv_tabview_set_anim_time, %function
 1054              	lv_tabview_set_anim_time:
 1055              	.LFB362:
 472:lvgl\src\lv_widgets/lv_tabview.c ****     LV_ASSERT_OBJ(tabview, LV_OBJX_NAME);
 1056              		.loc 1 472 0
 1057              		.cfi_startproc
 1058              		@ args = 0, pretend = 0, frame = 0
 1059              		@ frame_needed = 0, uses_anonymous_args = 0
 1060              	.LVL173:
 1061 0000 38B5     		push	{r3, r4, r5, lr}
 1062              		.cfi_def_cfa_offset 16
 1063              		.cfi_offset 3, -16
 1064              		.cfi_offset 4, -12
 1065              		.cfi_offset 5, -8
 1066              		.cfi_offset 14, -4
 1067 0002 0446     		mov	r4, r0
 1068 0004 0D46     		mov	r5, r1
ARM GAS  C:\Users\strap\AppData\Local\Temp\ccTzHSZB.s 			page 46


 473:lvgl\src\lv_widgets/lv_tabview.c **** 
 1069              		.loc 1 473 0
 1070 0006 FFF7FEFF 		bl	lv_debug_check_null
 1071              	.LVL174:
 1072 000a 28B9     		cbnz	r0, .L68
 473:lvgl\src\lv_widgets/lv_tabview.c **** 
 1073              		.loc 1 473 0 is_stmt 0 discriminator 1
 1074 000c 2246     		mov	r2, r4
 1075 000e 0023     		movs	r3, #0
 1076 0010 0448     		ldr	r0, .L71
 1077 0012 FFF7FEFF 		bl	lv_debug_log_error
 1078              	.LVL175:
 1079              	.L69:
 1080 0016 FEE7     		b	.L69
 1081              	.L68:
 476:lvgl\src\lv_widgets/lv_tabview.c ****     ext->anim_time         = anim_time;
 1082              		.loc 1 476 0 is_stmt 1
 1083 0018 2046     		mov	r0, r4
 1084 001a FFF7FEFF 		bl	lv_obj_get_ext_attr
 1085              	.LVL176:
 477:lvgl\src\lv_widgets/lv_tabview.c **** #else
 1086              		.loc 1 477 0
 1087 001e 0583     		strh	r5, [r0, #24]	@ movhi
 1088 0020 38BD     		pop	{r3, r4, r5, pc}
 1089              	.LVL177:
 1090              	.L72:
 1091 0022 00BF     		.align	2
 1092              	.L71:
 1093 0024 00000000 		.word	.LC0
 1094              		.cfi_endproc
 1095              	.LFE362:
 1096              		.size	lv_tabview_set_anim_time, .-lv_tabview_set_anim_time
 1097              		.section	.text.lv_tabview_get_tab_act,"ax",%progbits
 1098              		.align	2
 1099              		.global	lv_tabview_get_tab_act
 1100              		.thumb
 1101              		.thumb_func
 1102              		.type	lv_tabview_get_tab_act, %function
 1103              	lv_tabview_get_tab_act:
 1104              	.LFB364:
 517:lvgl\src\lv_widgets/lv_tabview.c ****     LV_ASSERT_OBJ(tabview, LV_OBJX_NAME);
 1105              		.loc 1 517 0
 1106              		.cfi_startproc
 1107              		@ args = 0, pretend = 0, frame = 0
 1108              		@ frame_needed = 0, uses_anonymous_args = 0
 1109              	.LVL178:
 1110 0000 10B5     		push	{r4, lr}
 1111              		.cfi_def_cfa_offset 8
 1112              		.cfi_offset 4, -8
 1113              		.cfi_offset 14, -4
 1114 0002 0446     		mov	r4, r0
 518:lvgl\src\lv_widgets/lv_tabview.c **** 
 1115              		.loc 1 518 0
 1116 0004 FFF7FEFF 		bl	lv_debug_check_null
 1117              	.LVL179:
 1118 0008 28B9     		cbnz	r0, .L74
 518:lvgl\src\lv_widgets/lv_tabview.c **** 
ARM GAS  C:\Users\strap\AppData\Local\Temp\ccTzHSZB.s 			page 47


 1119              		.loc 1 518 0 is_stmt 0 discriminator 1
 1120 000a 2246     		mov	r2, r4
 1121 000c 0023     		movs	r3, #0
 1122 000e 0448     		ldr	r0, .L77
 1123 0010 FFF7FEFF 		bl	lv_debug_log_error
 1124              	.LVL180:
 1125              	.L75:
 1126 0014 FEE7     		b	.L75
 1127              	.L74:
 520:lvgl\src\lv_widgets/lv_tabview.c ****     return ext->tab_cur;
 1128              		.loc 1 520 0 is_stmt 1
 1129 0016 2046     		mov	r0, r4
 1130 0018 FFF7FEFF 		bl	lv_obj_get_ext_attr
 1131              	.LVL181:
 522:lvgl\src\lv_widgets/lv_tabview.c **** 
 1132              		.loc 1 522 0
 1133 001c 808A     		ldrh	r0, [r0, #20]
 1134              	.LVL182:
 1135 001e 10BD     		pop	{r4, pc}
 1136              	.LVL183:
 1137              	.L78:
 1138              		.align	2
 1139              	.L77:
 1140 0020 00000000 		.word	.LC0
 1141              		.cfi_endproc
 1142              	.LFE364:
 1143              		.size	lv_tabview_get_tab_act, .-lv_tabview_get_tab_act
 1144              		.section	.text.lv_tabview_get_tab_count,"ax",%progbits
 1145              		.align	2
 1146              		.global	lv_tabview_get_tab_count
 1147              		.thumb
 1148              		.thumb_func
 1149              		.type	lv_tabview_get_tab_count, %function
 1150              	lv_tabview_get_tab_count:
 1151              	.LFB365:
 530:lvgl\src\lv_widgets/lv_tabview.c ****     LV_ASSERT_OBJ(tabview, LV_OBJX_NAME);
 1152              		.loc 1 530 0
 1153              		.cfi_startproc
 1154              		@ args = 0, pretend = 0, frame = 0
 1155              		@ frame_needed = 0, uses_anonymous_args = 0
 1156              	.LVL184:
 1157 0000 10B5     		push	{r4, lr}
 1158              		.cfi_def_cfa_offset 8
 1159              		.cfi_offset 4, -8
 1160              		.cfi_offset 14, -4
 1161 0002 0446     		mov	r4, r0
 531:lvgl\src\lv_widgets/lv_tabview.c **** 
 1162              		.loc 1 531 0
 1163 0004 FFF7FEFF 		bl	lv_debug_check_null
 1164              	.LVL185:
 1165 0008 28B9     		cbnz	r0, .L80
 531:lvgl\src\lv_widgets/lv_tabview.c **** 
 1166              		.loc 1 531 0 is_stmt 0 discriminator 1
 1167 000a 2246     		mov	r2, r4
 1168 000c 0023     		movs	r3, #0
 1169 000e 0448     		ldr	r0, .L83
 1170 0010 FFF7FEFF 		bl	lv_debug_log_error
ARM GAS  C:\Users\strap\AppData\Local\Temp\ccTzHSZB.s 			page 48


 1171              	.LVL186:
 1172              	.L81:
 1173 0014 FEE7     		b	.L81
 1174              	.L80:
 533:lvgl\src\lv_widgets/lv_tabview.c ****     return ext->tab_cnt;
 1175              		.loc 1 533 0 is_stmt 1
 1176 0016 2046     		mov	r0, r4
 1177 0018 FFF7FEFF 		bl	lv_obj_get_ext_attr
 1178              	.LVL187:
 535:lvgl\src\lv_widgets/lv_tabview.c **** 
 1179              		.loc 1 535 0
 1180 001c C08A     		ldrh	r0, [r0, #22]
 1181              	.LVL188:
 1182 001e 10BD     		pop	{r4, pc}
 1183              	.LVL189:
 1184              	.L84:
 1185              		.align	2
 1186              	.L83:
 1187 0020 00000000 		.word	.LC0
 1188              		.cfi_endproc
 1189              	.LFE365:
 1190              		.size	lv_tabview_get_tab_count, .-lv_tabview_get_tab_count
 1191              		.section	.text.lv_tabview_get_tab,"ax",%progbits
 1192              		.align	2
 1193              		.global	lv_tabview_get_tab
 1194              		.thumb
 1195              		.thumb_func
 1196              		.type	lv_tabview_get_tab, %function
 1197              	lv_tabview_get_tab:
 1198              	.LFB366:
 544:lvgl\src\lv_widgets/lv_tabview.c ****     LV_ASSERT_OBJ(tabview, LV_OBJX_NAME);
 1199              		.loc 1 544 0
 1200              		.cfi_startproc
 1201              		@ args = 0, pretend = 0, frame = 0
 1202              		@ frame_needed = 0, uses_anonymous_args = 0
 1203              	.LVL190:
 1204 0000 F8B5     		push	{r3, r4, r5, r6, r7, lr}
 1205              		.cfi_def_cfa_offset 24
 1206              		.cfi_offset 3, -24
 1207              		.cfi_offset 4, -20
 1208              		.cfi_offset 5, -16
 1209              		.cfi_offset 6, -12
 1210              		.cfi_offset 7, -8
 1211              		.cfi_offset 14, -4
 1212 0002 0446     		mov	r4, r0
 1213 0004 0E46     		mov	r6, r1
 545:lvgl\src\lv_widgets/lv_tabview.c **** 
 1214              		.loc 1 545 0
 1215 0006 FFF7FEFF 		bl	lv_debug_check_null
 1216              	.LVL191:
 1217 000a 28B9     		cbnz	r0, .L86
 545:lvgl\src\lv_widgets/lv_tabview.c **** 
 1218              		.loc 1 545 0 is_stmt 0 discriminator 1
 1219 000c 2246     		mov	r2, r4
 1220 000e 0023     		movs	r3, #0
 1221 0010 1348     		ldr	r0, .L95
 1222 0012 FFF7FEFF 		bl	lv_debug_log_error
ARM GAS  C:\Users\strap\AppData\Local\Temp\ccTzHSZB.s 			page 49


 1223              	.LVL192:
 1224              	.L87:
 1225 0016 FEE7     		b	.L87
 1226              	.L86:
 547:lvgl\src\lv_widgets/lv_tabview.c ****     lv_obj_t * content_scrl = lv_page_get_scrollable(ext->content);
 1227              		.loc 1 547 0 is_stmt 1
 1228 0018 2046     		mov	r0, r4
 1229 001a FFF7FEFF 		bl	lv_obj_get_ext_attr
 1230              	.LVL193:
 548:lvgl\src\lv_widgets/lv_tabview.c ****     uint16_t i             = 0;
 1231              		.loc 1 548 0
 1232 001e 8068     		ldr	r0, [r0, #8]
 1233              	.LVL194:
 1234 0020 FFF7FEFF 		bl	lv_page_get_scrollable
 1235              	.LVL195:
 1236 0024 0746     		mov	r7, r0
 1237              	.LVL196:
 550:lvgl\src\lv_widgets/lv_tabview.c **** 
 1238              		.loc 1 550 0
 1239 0026 0021     		movs	r1, #0
 1240 0028 FFF7FEFF 		bl	lv_obj_get_child_back
 1241              	.LVL197:
 1242 002c 0446     		mov	r4, r0
 1243              	.LVL198:
 549:lvgl\src\lv_widgets/lv_tabview.c ****     lv_obj_t * page        = lv_obj_get_child_back(content_scrl, NULL);
 1244              		.loc 1 549 0
 1245 002e 0025     		movs	r5, #0
 552:lvgl\src\lv_widgets/lv_tabview.c ****         if(lv_obj_get_signal_cb(page) == page_signal) i++;
 1246              		.loc 1 552 0
 1247 0030 0DE0     		b	.L88
 1248              	.LVL199:
 1249              	.L91:
 553:lvgl\src\lv_widgets/lv_tabview.c ****         page = lv_obj_get_child_back(content_scrl, page);
 1250              		.loc 1 553 0
 1251 0032 2046     		mov	r0, r4
 1252              	.LVL200:
 1253 0034 FFF7FEFF 		bl	lv_obj_get_signal_cb
 1254              	.LVL201:
 1255 0038 0A4B     		ldr	r3, .L95+4
 1256 003a 1B68     		ldr	r3, [r3]
 1257 003c 8342     		cmp	r3, r0
 1258 003e 01D1     		bne	.L89
 553:lvgl\src\lv_widgets/lv_tabview.c ****         page = lv_obj_get_child_back(content_scrl, page);
 1259              		.loc 1 553 0 is_stmt 0 discriminator 1
 1260 0040 0135     		adds	r5, r5, #1
 1261              	.LVL202:
 1262 0042 ADB2     		uxth	r5, r5
 1263              	.LVL203:
 1264              	.L89:
 554:lvgl\src\lv_widgets/lv_tabview.c ****     }
 1265              		.loc 1 554 0 is_stmt 1
 1266 0044 2146     		mov	r1, r4
 1267 0046 3846     		mov	r0, r7
 1268 0048 FFF7FEFF 		bl	lv_obj_get_child_back
 1269              	.LVL204:
 1270 004c 0446     		mov	r4, r0
 1271              	.LVL205:
ARM GAS  C:\Users\strap\AppData\Local\Temp\ccTzHSZB.s 			page 50


 1272              	.L88:
 552:lvgl\src\lv_widgets/lv_tabview.c ****         if(lv_obj_get_signal_cb(page) == page_signal) i++;
 1273              		.loc 1 552 0
 1274 004e 0CB1     		cbz	r4, .L90
 552:lvgl\src\lv_widgets/lv_tabview.c ****         if(lv_obj_get_signal_cb(page) == page_signal) i++;
 1275              		.loc 1 552 0 is_stmt 0 discriminator 1
 1276 0050 B542     		cmp	r5, r6
 1277 0052 EED1     		bne	.L91
 1278              	.L90:
 557:lvgl\src\lv_widgets/lv_tabview.c **** 
 1279              		.loc 1 557 0 is_stmt 1
 1280 0054 B542     		cmp	r5, r6
 1281 0056 01D0     		beq	.L93
 559:lvgl\src\lv_widgets/lv_tabview.c **** }
 1282              		.loc 1 559 0
 1283 0058 0020     		movs	r0, #0
 1284              	.LVL206:
 1285 005a F8BD     		pop	{r3, r4, r5, r6, r7, pc}
 1286              	.LVL207:
 1287              	.L93:
 557:lvgl\src\lv_widgets/lv_tabview.c **** 
 1288              		.loc 1 557 0
 1289 005c 2046     		mov	r0, r4
 1290              	.LVL208:
 560:lvgl\src\lv_widgets/lv_tabview.c **** 
 1291              		.loc 1 560 0
 1292 005e F8BD     		pop	{r3, r4, r5, r6, r7, pc}
 1293              	.LVL209:
 1294              	.L96:
 1295              		.align	2
 1296              	.L95:
 1297 0060 00000000 		.word	.LC0
 1298 0064 00000000 		.word	.LANCHOR0
 1299              		.cfi_endproc
 1300              	.LFE366:
 1301              		.size	lv_tabview_get_tab, .-lv_tabview_get_tab
 1302              		.section	.text.lv_tabview_get_anim_time,"ax",%progbits
 1303              		.align	2
 1304              		.global	lv_tabview_get_anim_time
 1305              		.thumb
 1306              		.thumb_func
 1307              		.type	lv_tabview_get_anim_time, %function
 1308              	lv_tabview_get_anim_time:
 1309              	.LFB367:
 568:lvgl\src\lv_widgets/lv_tabview.c ****     LV_ASSERT_OBJ(tabview, LV_OBJX_NAME);
 1310              		.loc 1 568 0
 1311              		.cfi_startproc
 1312              		@ args = 0, pretend = 0, frame = 0
 1313              		@ frame_needed = 0, uses_anonymous_args = 0
 1314              	.LVL210:
 1315 0000 10B5     		push	{r4, lr}
 1316              		.cfi_def_cfa_offset 8
 1317              		.cfi_offset 4, -8
 1318              		.cfi_offset 14, -4
 1319 0002 0446     		mov	r4, r0
 569:lvgl\src\lv_widgets/lv_tabview.c **** 
 1320              		.loc 1 569 0
ARM GAS  C:\Users\strap\AppData\Local\Temp\ccTzHSZB.s 			page 51


 1321 0004 FFF7FEFF 		bl	lv_debug_check_null
 1322              	.LVL211:
 1323 0008 28B9     		cbnz	r0, .L98
 569:lvgl\src\lv_widgets/lv_tabview.c **** 
 1324              		.loc 1 569 0 is_stmt 0 discriminator 1
 1325 000a 2246     		mov	r2, r4
 1326 000c 0023     		movs	r3, #0
 1327 000e 0448     		ldr	r0, .L101
 1328 0010 FFF7FEFF 		bl	lv_debug_log_error
 1329              	.LVL212:
 1330              	.L99:
 1331 0014 FEE7     		b	.L99
 1332              	.L98:
 572:lvgl\src\lv_widgets/lv_tabview.c ****     return ext->anim_time;
 1333              		.loc 1 572 0 is_stmt 1
 1334 0016 2046     		mov	r0, r4
 1335 0018 FFF7FEFF 		bl	lv_obj_get_ext_attr
 1336              	.LVL213:
 578:lvgl\src\lv_widgets/lv_tabview.c **** 
 1337              		.loc 1 578 0
 1338 001c 008B     		ldrh	r0, [r0, #24]
 1339              	.LVL214:
 1340 001e 10BD     		pop	{r4, pc}
 1341              	.LVL215:
 1342              	.L102:
 1343              		.align	2
 1344              	.L101:
 1345 0020 00000000 		.word	.LC0
 1346              		.cfi_endproc
 1347              	.LFE367:
 1348              		.size	lv_tabview_get_anim_time, .-lv_tabview_get_anim_time
 1349              		.section	.text.lv_tabview_set_tab_act,"ax",%progbits
 1350              		.align	2
 1351              		.global	lv_tabview_set_tab_act
 1352              		.thumb
 1353              		.thumb_func
 1354              		.type	lv_tabview_set_tab_act, %function
 1355              	lv_tabview_set_tab_act:
 1356              	.LFB360:
 311:lvgl\src\lv_widgets/lv_tabview.c ****     LV_ASSERT_OBJ(tabview, LV_OBJX_NAME);
 1357              		.loc 1 311 0
 1358              		.cfi_startproc
 1359              		@ args = 0, pretend = 0, frame = 72
 1360              		@ frame_needed = 0, uses_anonymous_args = 0
 1361              	.LVL216:
 1362 0000 2DE9F047 		push	{r4, r5, r6, r7, r8, r9, r10, lr}
 1363              		.cfi_def_cfa_offset 32
 1364              		.cfi_offset 4, -32
 1365              		.cfi_offset 5, -28
 1366              		.cfi_offset 6, -24
 1367              		.cfi_offset 7, -20
 1368              		.cfi_offset 8, -16
 1369              		.cfi_offset 9, -12
 1370              		.cfi_offset 10, -8
 1371              		.cfi_offset 14, -4
 1372 0004 92B0     		sub	sp, sp, #72
 1373              		.cfi_def_cfa_offset 104
ARM GAS  C:\Users\strap\AppData\Local\Temp\ccTzHSZB.s 			page 52


 1374 0006 0746     		mov	r7, r0
 1375 0008 0E46     		mov	r6, r1
 1376 000a 9046     		mov	r8, r2
 312:lvgl\src\lv_widgets/lv_tabview.c **** 
 1377              		.loc 1 312 0
 1378 000c FFF7FEFF 		bl	lv_debug_check_null
 1379              	.LVL217:
 1380 0010 28B9     		cbnz	r0, .L104
 312:lvgl\src\lv_widgets/lv_tabview.c **** 
 1381              		.loc 1 312 0 is_stmt 0 discriminator 1
 1382 0012 3A46     		mov	r2, r7
 1383 0014 0023     		movs	r3, #0
 1384 0016 7148     		ldr	r0, .L131
 1385 0018 FFF7FEFF 		bl	lv_debug_log_error
 1386              	.LVL218:
 1387              	.L105:
 1388 001c FEE7     		b	.L105
 1389              	.L104:
 317:lvgl\src\lv_widgets/lv_tabview.c **** 
 1390              		.loc 1 317 0 is_stmt 1
 1391 001e 3846     		mov	r0, r7
 1392 0020 FFF7FEFF 		bl	lv_obj_get_ext_attr
 1393              	.LVL219:
 1394 0024 0446     		mov	r4, r0
 1395              	.LVL220:
 319:lvgl\src\lv_widgets/lv_tabview.c **** 
 1396              		.loc 1 319 0
 1397 0026 C38A     		ldrh	r3, [r0, #22]
 1398 0028 B342     		cmp	r3, r6
 1399 002a 01D8     		bhi	.L106
 319:lvgl\src\lv_widgets/lv_tabview.c **** 
 1400              		.loc 1 319 0 is_stmt 0 discriminator 1
 1401 002c 013B     		subs	r3, r3, #1
 1402 002e 9EB2     		uxth	r6, r3
 1403              	.LVL221:
 1404              	.L106:
 321:lvgl\src\lv_widgets/lv_tabview.c **** 
 1405              		.loc 1 321 0 is_stmt 1
 1406 0030 8022     		movs	r2, #128
 1407 0032 A18A     		ldrh	r1, [r4, #20]
 1408 0034 2068     		ldr	r0, [r4]
 1409              	.LVL222:
 1410 0036 FFF7FEFF 		bl	lv_btnmatrix_clear_btn_ctrl
 1411              	.LVL223:
 323:lvgl\src\lv_widgets/lv_tabview.c **** 
 1412              		.loc 1 323 0
 1413 003a A682     		strh	r6, [r4, #20]	@ movhi
 325:lvgl\src\lv_widgets/lv_tabview.c ****         id = (ext->tab_cnt - (id + 1));
 1414              		.loc 1 325 0
 1415 003c 3846     		mov	r0, r7
 1416 003e FFF7FEFF 		bl	lv_obj_get_base_dir
 1417              	.LVL224:
 1418 0042 0128     		cmp	r0, #1
 1419 0044 04D1     		bne	.L107
 326:lvgl\src\lv_widgets/lv_tabview.c ****     }
 1420              		.loc 1 326 0
 1421 0046 E38A     		ldrh	r3, [r4, #22]
ARM GAS  C:\Users\strap\AppData\Local\Temp\ccTzHSZB.s 			page 53


 1422 0048 9E1B     		subs	r6, r3, r6
 1423              	.LVL225:
 1424 004a B6B2     		uxth	r6, r6
 1425 004c 013E     		subs	r6, r6, #1
 1426 004e B6B2     		uxth	r6, r6
 1427              	.LVL226:
 1428              	.L107:
 1429              	.LBB116:
 1430              	.LBB117:
 114:lvgl\src\lv_widgets\../lv_core/lv_obj_style_dec.h **** _LV_OBJ_STYLE_SET_GET_DECLARE(MARGIN_TOP, margin_top, lv_style_int_t, _int, scalar)
 1431              		.loc 2 114 0
 1432 0050 1422     		movs	r2, #20
 1433 0052 4021     		movs	r1, #64
 1434 0054 A068     		ldr	r0, [r4, #8]
 1435 0056 FFF7FEFF 		bl	_lv_obj_get_style_int
 1436              	.LVL227:
 1437 005a 8246     		mov	r10, r0
 1438              	.LVL228:
 1439              	.LBE117:
 1440              	.LBE116:
 1441              	.LBB118:
 1442              	.LBB119:
 112:lvgl\src\lv_widgets\../lv_core/lv_obj_style_dec.h **** _LV_OBJ_STYLE_SET_GET_DECLARE(PAD_RIGHT, pad_right, lv_style_int_t, _int, scalar)
 1443              		.loc 2 112 0
 1444 005c 1222     		movs	r2, #18
 1445 005e 4021     		movs	r1, #64
 1446 0060 A068     		ldr	r0, [r4, #8]
 1447 0062 FFF7FEFF 		bl	_lv_obj_get_style_int
 1448              	.LVL229:
 1449 0066 8146     		mov	r9, r0
 1450              	.LVL230:
 1451              	.LBE119:
 1452              	.LBE118:
 333:lvgl\src\lv_widgets/lv_tabview.c ****         default: /*default case is prevented in lv_tabview_set_btns_pos(), but here for safety*/
 1453              		.loc 1 333 0
 1454 0068 A37E     		ldrb	r3, [r4, #26]	@ zero_extendqisi2
 1455 006a 03F00703 		and	r3, r3, #7
 1456 006e 033B     		subs	r3, r3, #3
 1457 0070 012B     		cmp	r3, #1
 1458 0072 08D9     		bls	.L129
 338:lvgl\src\lv_widgets/lv_tabview.c ****             break;
 1459              		.loc 1 338 0
 1460 0074 3846     		mov	r0, r7
 1461 0076 FFF7FEFF 		bl	lv_obj_get_width
 1462              	.LVL231:
 1463 007a 5044     		add	r0, r0, r10
 1464 007c 00FB0695 		mla	r5, r0, r6, r9
 1465 0080 6D42     		negs	r5, r5
 1466 0082 2DB2     		sxth	r5, r5
 1467              	.LVL232:
 339:lvgl\src\lv_widgets/lv_tabview.c ****         case LV_TABVIEW_TAB_POS_LEFT:
 1468              		.loc 1 339 0
 1469 0084 0DE0     		b	.L110
 1470              	.LVL233:
 1471              	.L129:
 342:lvgl\src\lv_widgets/lv_tabview.c ****             break;
 1472              		.loc 1 342 0
ARM GAS  C:\Users\strap\AppData\Local\Temp\ccTzHSZB.s 			page 54


 1473 0086 3846     		mov	r0, r7
 1474 0088 FFF7FEFF 		bl	lv_obj_get_width
 1475              	.LVL234:
 1476 008c 0546     		mov	r5, r0
 1477 008e 2068     		ldr	r0, [r4]
 1478 0090 FFF7FEFF 		bl	lv_obj_get_width
 1479              	.LVL235:
 1480 0094 281A     		subs	r0, r5, r0
 1481 0096 0AEB0003 		add	r3, r10, r0
 1482 009a 03FB0695 		mla	r5, r3, r6, r9
 1483 009e 6D42     		negs	r5, r5
 1484 00a0 2DB2     		sxth	r5, r5
 1485              	.LVL236:
 1486              	.L110:
 346:lvgl\src\lv_widgets/lv_tabview.c ****         lv_obj_set_x(lv_page_get_scrollable(ext->content), cont_x);
 1487              		.loc 1 346 0
 1488 00a2 B8F1000F 		cmp	r8, #0
 1489 00a6 03D0     		beq	.L111
 346:lvgl\src\lv_widgets/lv_tabview.c ****         lv_obj_set_x(lv_page_get_scrollable(ext->content), cont_x);
 1490              		.loc 1 346 0 is_stmt 0 discriminator 1
 1491 00a8 3846     		mov	r0, r7
 1492 00aa FFF7FEFF 		bl	lv_tabview_get_anim_time
 1493              	.LVL237:
 1494 00ae 30B9     		cbnz	r0, .L112
 1495              	.L111:
 347:lvgl\src\lv_widgets/lv_tabview.c ****     }
 1496              		.loc 1 347 0 is_stmt 1
 1497 00b0 A068     		ldr	r0, [r4, #8]
 1498 00b2 FFF7FEFF 		bl	lv_page_get_scrollable
 1499              	.LVL238:
 1500 00b6 2946     		mov	r1, r5
 1501 00b8 FFF7FEFF 		bl	lv_obj_set_x
 1502              	.LVL239:
 1503 00bc 15E0     		b	.L113
 1504              	.L112:
 1505              	.LBB120:
 352:lvgl\src\lv_widgets/lv_tabview.c ****         lv_anim_set_var(&a, lv_page_get_scrollable(ext->content));
 1506              		.loc 1 352 0
 1507 00be 6846     		mov	r0, sp
 1508 00c0 FFF7FEFF 		bl	lv_anim_init
 1509              	.LVL240:
 353:lvgl\src\lv_widgets/lv_tabview.c ****         lv_anim_set_exec_cb(&a, (lv_anim_exec_xcb_t)lv_obj_set_x);
 1510              		.loc 1 353 0
 1511 00c4 A068     		ldr	r0, [r4, #8]
 1512 00c6 FFF7FEFF 		bl	lv_page_get_scrollable
 1513              	.LVL241:
 1514              	.LBB121:
 1515              	.LBB122:
 1516              		.file 5 "lvgl\\src\\lv_widgets\\../lv_core/../lv_misc/lv_anim.h"
   1:lvgl\src\lv_widgets\../lv_core/../lv_misc/lv_anim.h **** /**
   2:lvgl\src\lv_widgets\../lv_core/../lv_misc/lv_anim.h ****  * @file anim.h
   3:lvgl\src\lv_widgets\../lv_core/../lv_misc/lv_anim.h ****  *
   4:lvgl\src\lv_widgets\../lv_core/../lv_misc/lv_anim.h ****  */
   5:lvgl\src\lv_widgets\../lv_core/../lv_misc/lv_anim.h **** 
   6:lvgl\src\lv_widgets\../lv_core/../lv_misc/lv_anim.h **** #ifndef ANIM_H
   7:lvgl\src\lv_widgets\../lv_core/../lv_misc/lv_anim.h **** #define ANIM_H
   8:lvgl\src\lv_widgets\../lv_core/../lv_misc/lv_anim.h **** 
ARM GAS  C:\Users\strap\AppData\Local\Temp\ccTzHSZB.s 			page 55


   9:lvgl\src\lv_widgets\../lv_core/../lv_misc/lv_anim.h **** #ifdef __cplusplus
  10:lvgl\src\lv_widgets\../lv_core/../lv_misc/lv_anim.h **** extern "C" {
  11:lvgl\src\lv_widgets\../lv_core/../lv_misc/lv_anim.h **** #endif
  12:lvgl\src\lv_widgets\../lv_core/../lv_misc/lv_anim.h **** 
  13:lvgl\src\lv_widgets\../lv_core/../lv_misc/lv_anim.h **** /*********************
  14:lvgl\src\lv_widgets\../lv_core/../lv_misc/lv_anim.h ****  *      INCLUDES
  15:lvgl\src\lv_widgets\../lv_core/../lv_misc/lv_anim.h ****  *********************/
  16:lvgl\src\lv_widgets\../lv_core/../lv_misc/lv_anim.h **** #include "../lv_conf_internal.h"
  17:lvgl\src\lv_widgets\../lv_core/../lv_misc/lv_anim.h **** 
  18:lvgl\src\lv_widgets\../lv_core/../lv_misc/lv_anim.h **** #include <stdint.h>
  19:lvgl\src\lv_widgets\../lv_core/../lv_misc/lv_anim.h **** #include <stdbool.h>
  20:lvgl\src\lv_widgets\../lv_core/../lv_misc/lv_anim.h **** #include <string.h>
  21:lvgl\src\lv_widgets\../lv_core/../lv_misc/lv_anim.h **** #include "lv_mem.h"
  22:lvgl\src\lv_widgets\../lv_core/../lv_misc/lv_anim.h **** 
  23:lvgl\src\lv_widgets\../lv_core/../lv_misc/lv_anim.h **** /*********************
  24:lvgl\src\lv_widgets\../lv_core/../lv_misc/lv_anim.h ****  *      DEFINES
  25:lvgl\src\lv_widgets\../lv_core/../lv_misc/lv_anim.h ****  *********************/
  26:lvgl\src\lv_widgets\../lv_core/../lv_misc/lv_anim.h **** 
  27:lvgl\src\lv_widgets\../lv_core/../lv_misc/lv_anim.h **** /**********************
  28:lvgl\src\lv_widgets\../lv_core/../lv_misc/lv_anim.h ****  *      TYPEDEFS
  29:lvgl\src\lv_widgets\../lv_core/../lv_misc/lv_anim.h ****  **********************/
  30:lvgl\src\lv_widgets\../lv_core/../lv_misc/lv_anim.h **** 
  31:lvgl\src\lv_widgets\../lv_core/../lv_misc/lv_anim.h **** /** Can be used to indicate if animations are enabled or disabled in a case*/
  32:lvgl\src\lv_widgets\../lv_core/../lv_misc/lv_anim.h **** enum {
  33:lvgl\src\lv_widgets\../lv_core/../lv_misc/lv_anim.h ****     LV_ANIM_OFF,
  34:lvgl\src\lv_widgets\../lv_core/../lv_misc/lv_anim.h ****     LV_ANIM_ON,
  35:lvgl\src\lv_widgets\../lv_core/../lv_misc/lv_anim.h **** };
  36:lvgl\src\lv_widgets\../lv_core/../lv_misc/lv_anim.h **** 
  37:lvgl\src\lv_widgets\../lv_core/../lv_misc/lv_anim.h **** typedef uint8_t lv_anim_enable_t;
  38:lvgl\src\lv_widgets\../lv_core/../lv_misc/lv_anim.h **** 
  39:lvgl\src\lv_widgets\../lv_core/../lv_misc/lv_anim.h **** /** Type of the animated value*/
  40:lvgl\src\lv_widgets\../lv_core/../lv_misc/lv_anim.h **** typedef lv_coord_t lv_anim_value_t;
  41:lvgl\src\lv_widgets\../lv_core/../lv_misc/lv_anim.h **** 
  42:lvgl\src\lv_widgets\../lv_core/../lv_misc/lv_anim.h **** #if LV_USE_ANIMATION
  43:lvgl\src\lv_widgets\../lv_core/../lv_misc/lv_anim.h **** 
  44:lvgl\src\lv_widgets\../lv_core/../lv_misc/lv_anim.h **** #define LV_ANIM_REPEAT_INFINITE      0xFFFF
  45:lvgl\src\lv_widgets\../lv_core/../lv_misc/lv_anim.h **** 
  46:lvgl\src\lv_widgets\../lv_core/../lv_misc/lv_anim.h **** 
  47:lvgl\src\lv_widgets\../lv_core/../lv_misc/lv_anim.h **** struct _lv_anim_t;
  48:lvgl\src\lv_widgets\../lv_core/../lv_misc/lv_anim.h **** struct _lv_anim_path_t;
  49:lvgl\src\lv_widgets\../lv_core/../lv_misc/lv_anim.h **** /** Get the current value during an animation*/
  50:lvgl\src\lv_widgets\../lv_core/../lv_misc/lv_anim.h **** typedef lv_anim_value_t (*lv_anim_path_cb_t)(const struct _lv_anim_path_t *, const struct _lv_anim_
  51:lvgl\src\lv_widgets\../lv_core/../lv_misc/lv_anim.h **** 
  52:lvgl\src\lv_widgets\../lv_core/../lv_misc/lv_anim.h **** typedef struct _lv_anim_path_t {
  53:lvgl\src\lv_widgets\../lv_core/../lv_misc/lv_anim.h ****     lv_anim_path_cb_t cb;
  54:lvgl\src\lv_widgets\../lv_core/../lv_misc/lv_anim.h ****     void * user_data;
  55:lvgl\src\lv_widgets\../lv_core/../lv_misc/lv_anim.h **** } lv_anim_path_t;
  56:lvgl\src\lv_widgets\../lv_core/../lv_misc/lv_anim.h **** 
  57:lvgl\src\lv_widgets\../lv_core/../lv_misc/lv_anim.h **** 
  58:lvgl\src\lv_widgets\../lv_core/../lv_misc/lv_anim.h **** 
  59:lvgl\src\lv_widgets\../lv_core/../lv_misc/lv_anim.h **** /** Generic prototype of "animator" functions.
  60:lvgl\src\lv_widgets\../lv_core/../lv_misc/lv_anim.h ****  * First parameter is the variable to animate.
  61:lvgl\src\lv_widgets\../lv_core/../lv_misc/lv_anim.h ****  * Second parameter is the value to set.
  62:lvgl\src\lv_widgets\../lv_core/../lv_misc/lv_anim.h ****  * Compatible with `lv_xxx_set_yyy(obj, value)` functions
  63:lvgl\src\lv_widgets\../lv_core/../lv_misc/lv_anim.h ****  * The `x` in `_xcb_t` means its not a fully generic prototype because
  64:lvgl\src\lv_widgets\../lv_core/../lv_misc/lv_anim.h ****  * it doesn't receive `lv_anim_t *` as its first argument*/
  65:lvgl\src\lv_widgets\../lv_core/../lv_misc/lv_anim.h **** typedef void (*lv_anim_exec_xcb_t)(void *, lv_anim_value_t);
ARM GAS  C:\Users\strap\AppData\Local\Temp\ccTzHSZB.s 			page 56


  66:lvgl\src\lv_widgets\../lv_core/../lv_misc/lv_anim.h **** 
  67:lvgl\src\lv_widgets\../lv_core/../lv_misc/lv_anim.h **** /** Same as `lv_anim_exec_xcb_t` but receives `lv_anim_t *` as the first parameter.
  68:lvgl\src\lv_widgets\../lv_core/../lv_misc/lv_anim.h ****  * It's more consistent but less convenient. Might be used by binding generator functions.*/
  69:lvgl\src\lv_widgets\../lv_core/../lv_misc/lv_anim.h **** typedef void (*lv_anim_custom_exec_cb_t)(struct _lv_anim_t *, lv_anim_value_t);
  70:lvgl\src\lv_widgets\../lv_core/../lv_misc/lv_anim.h **** 
  71:lvgl\src\lv_widgets\../lv_core/../lv_misc/lv_anim.h **** /** Callback to call when the animation is ready*/
  72:lvgl\src\lv_widgets\../lv_core/../lv_misc/lv_anim.h **** typedef void (*lv_anim_ready_cb_t)(struct _lv_anim_t *);
  73:lvgl\src\lv_widgets\../lv_core/../lv_misc/lv_anim.h **** 
  74:lvgl\src\lv_widgets\../lv_core/../lv_misc/lv_anim.h **** /** Callback to call when the animation really stars (considering `delay`)*/
  75:lvgl\src\lv_widgets\../lv_core/../lv_misc/lv_anim.h **** typedef void (*lv_anim_start_cb_t)(struct _lv_anim_t *);
  76:lvgl\src\lv_widgets\../lv_core/../lv_misc/lv_anim.h **** 
  77:lvgl\src\lv_widgets\../lv_core/../lv_misc/lv_anim.h **** /** Describes an animation*/
  78:lvgl\src\lv_widgets\../lv_core/../lv_misc/lv_anim.h **** typedef struct _lv_anim_t {
  79:lvgl\src\lv_widgets\../lv_core/../lv_misc/lv_anim.h ****     void * var;                  /**<Variable to animate*/
  80:lvgl\src\lv_widgets\../lv_core/../lv_misc/lv_anim.h ****     lv_anim_exec_xcb_t exec_cb;   /**< Function to execute to animate*/
  81:lvgl\src\lv_widgets\../lv_core/../lv_misc/lv_anim.h ****     lv_anim_start_cb_t start_cb; /**< Call it when the animation is starts (considering `delay`)*/
  82:lvgl\src\lv_widgets\../lv_core/../lv_misc/lv_anim.h ****     lv_anim_ready_cb_t ready_cb; /**< Call it when the animation is ready*/
  83:lvgl\src\lv_widgets\../lv_core/../lv_misc/lv_anim.h ****     lv_anim_path_t path;         /**< Describe the path (curve) of animations*/
  84:lvgl\src\lv_widgets\../lv_core/../lv_misc/lv_anim.h ****     int32_t start;               /**< Start value*/
  85:lvgl\src\lv_widgets\../lv_core/../lv_misc/lv_anim.h ****     int32_t current;             /**< Current value */
  86:lvgl\src\lv_widgets\../lv_core/../lv_misc/lv_anim.h ****     int32_t end;                 /**< End value*/
  87:lvgl\src\lv_widgets\../lv_core/../lv_misc/lv_anim.h ****     int32_t time;               /**< Animation time in ms*/
  88:lvgl\src\lv_widgets\../lv_core/../lv_misc/lv_anim.h ****     int32_t act_time;            /**< Current time in animation. Set to negative to make delay.*/
  89:lvgl\src\lv_widgets\../lv_core/../lv_misc/lv_anim.h ****     uint32_t playback_delay;     /**< Wait before play back*/
  90:lvgl\src\lv_widgets\../lv_core/../lv_misc/lv_anim.h ****     uint32_t playback_time;      /**< Duration of playback animation*/
  91:lvgl\src\lv_widgets\../lv_core/../lv_misc/lv_anim.h ****     uint32_t repeat_delay;       /**< Wait before repeat*/
  92:lvgl\src\lv_widgets\../lv_core/../lv_misc/lv_anim.h ****     uint16_t repeat_cnt;         /**< Repeat count for the animation*/
  93:lvgl\src\lv_widgets\../lv_core/../lv_misc/lv_anim.h ****     uint8_t early_apply  : 1;    /**< 1: Apply start value immediately even is there is `delay` */
  94:lvgl\src\lv_widgets\../lv_core/../lv_misc/lv_anim.h **** #if LV_USE_USER_DATA
  95:lvgl\src\lv_widgets\../lv_core/../lv_misc/lv_anim.h ****     lv_anim_user_data_t user_data; /**< Custom user data*/
  96:lvgl\src\lv_widgets\../lv_core/../lv_misc/lv_anim.h **** #endif
  97:lvgl\src\lv_widgets\../lv_core/../lv_misc/lv_anim.h **** 
  98:lvgl\src\lv_widgets\../lv_core/../lv_misc/lv_anim.h ****     /*Animation system use these - user shouldn't set*/
  99:lvgl\src\lv_widgets\../lv_core/../lv_misc/lv_anim.h ****     uint32_t time_orig;
 100:lvgl\src\lv_widgets\../lv_core/../lv_misc/lv_anim.h ****     uint8_t playback_now : 1; /**< Play back is in progress*/
 101:lvgl\src\lv_widgets\../lv_core/../lv_misc/lv_anim.h ****     uint32_t has_run : 1;     /**< Indicates the animation has run in this round*/
 102:lvgl\src\lv_widgets\../lv_core/../lv_misc/lv_anim.h **** } lv_anim_t;
 103:lvgl\src\lv_widgets\../lv_core/../lv_misc/lv_anim.h **** 
 104:lvgl\src\lv_widgets\../lv_core/../lv_misc/lv_anim.h **** 
 105:lvgl\src\lv_widgets\../lv_core/../lv_misc/lv_anim.h **** /**********************
 106:lvgl\src\lv_widgets\../lv_core/../lv_misc/lv_anim.h ****  * GLOBAL PROTOTYPES
 107:lvgl\src\lv_widgets\../lv_core/../lv_misc/lv_anim.h ****  **********************/
 108:lvgl\src\lv_widgets\../lv_core/../lv_misc/lv_anim.h **** 
 109:lvgl\src\lv_widgets\../lv_core/../lv_misc/lv_anim.h **** /**
 110:lvgl\src\lv_widgets\../lv_core/../lv_misc/lv_anim.h ****  * Init. the animation module
 111:lvgl\src\lv_widgets\../lv_core/../lv_misc/lv_anim.h ****  */
 112:lvgl\src\lv_widgets\../lv_core/../lv_misc/lv_anim.h **** void _lv_anim_core_init(void);
 113:lvgl\src\lv_widgets\../lv_core/../lv_misc/lv_anim.h **** 
 114:lvgl\src\lv_widgets\../lv_core/../lv_misc/lv_anim.h **** /**
 115:lvgl\src\lv_widgets\../lv_core/../lv_misc/lv_anim.h ****  * Initialize an animation variable.
 116:lvgl\src\lv_widgets\../lv_core/../lv_misc/lv_anim.h ****  * E.g.:
 117:lvgl\src\lv_widgets\../lv_core/../lv_misc/lv_anim.h ****  * lv_anim_t a;
 118:lvgl\src\lv_widgets\../lv_core/../lv_misc/lv_anim.h ****  * lv_anim_init(&a);
 119:lvgl\src\lv_widgets\../lv_core/../lv_misc/lv_anim.h ****  * lv_anim_set_...(&a);
 120:lvgl\src\lv_widgets\../lv_core/../lv_misc/lv_anim.h ****  * @param a pointer to an `lv_anim_t` variable to initialize
 121:lvgl\src\lv_widgets\../lv_core/../lv_misc/lv_anim.h ****  */
 122:lvgl\src\lv_widgets\../lv_core/../lv_misc/lv_anim.h **** void lv_anim_init(lv_anim_t * a);
ARM GAS  C:\Users\strap\AppData\Local\Temp\ccTzHSZB.s 			page 57


 123:lvgl\src\lv_widgets\../lv_core/../lv_misc/lv_anim.h **** 
 124:lvgl\src\lv_widgets\../lv_core/../lv_misc/lv_anim.h **** /**
 125:lvgl\src\lv_widgets\../lv_core/../lv_misc/lv_anim.h ****  * Set a variable to animate
 126:lvgl\src\lv_widgets\../lv_core/../lv_misc/lv_anim.h ****  * @param a pointer to an initialized `lv_anim_t` variable
 127:lvgl\src\lv_widgets\../lv_core/../lv_misc/lv_anim.h ****  * @param var pointer to a variable to animate
 128:lvgl\src\lv_widgets\../lv_core/../lv_misc/lv_anim.h ****  */
 129:lvgl\src\lv_widgets\../lv_core/../lv_misc/lv_anim.h **** static inline void lv_anim_set_var(lv_anim_t * a, void * var)
 130:lvgl\src\lv_widgets\../lv_core/../lv_misc/lv_anim.h **** {
 131:lvgl\src\lv_widgets\../lv_core/../lv_misc/lv_anim.h ****     a->var     = var;
 1517              		.loc 5 131 0
 1518 00ca 0090     		str	r0, [sp]
 1519              	.LVL242:
 1520              	.LBE122:
 1521              	.LBE121:
 1522              	.LBB123:
 1523              	.LBB124:
 132:lvgl\src\lv_widgets\../lv_core/../lv_misc/lv_anim.h **** }
 133:lvgl\src\lv_widgets\../lv_core/../lv_misc/lv_anim.h **** 
 134:lvgl\src\lv_widgets\../lv_core/../lv_misc/lv_anim.h **** /**
 135:lvgl\src\lv_widgets\../lv_core/../lv_misc/lv_anim.h ****  * Set a function to animate `var`
 136:lvgl\src\lv_widgets\../lv_core/../lv_misc/lv_anim.h ****  * @param a pointer to an initialized `lv_anim_t` variable
 137:lvgl\src\lv_widgets\../lv_core/../lv_misc/lv_anim.h ****  * @param exec_cb a function to execute during animation
 138:lvgl\src\lv_widgets\../lv_core/../lv_misc/lv_anim.h ****  *                LittelvGL's built-in functions can be used.
 139:lvgl\src\lv_widgets\../lv_core/../lv_misc/lv_anim.h ****  *                E.g. lv_obj_set_x
 140:lvgl\src\lv_widgets\../lv_core/../lv_misc/lv_anim.h ****  */
 141:lvgl\src\lv_widgets\../lv_core/../lv_misc/lv_anim.h **** static inline void lv_anim_set_exec_cb(lv_anim_t * a, lv_anim_exec_xcb_t exec_cb)
 142:lvgl\src\lv_widgets\../lv_core/../lv_misc/lv_anim.h **** {
 143:lvgl\src\lv_widgets\../lv_core/../lv_misc/lv_anim.h ****     a->exec_cb = exec_cb;
 1524              		.loc 5 143 0
 1525 00cc 444B     		ldr	r3, .L131+4
 1526 00ce 0193     		str	r3, [sp, #4]
 1527              	.LVL243:
 1528              	.LBE124:
 1529              	.LBE123:
 355:lvgl\src\lv_widgets/lv_tabview.c ****         lv_anim_set_time(&a, ext->anim_time);
 1530              		.loc 1 355 0
 1531 00d0 A068     		ldr	r0, [r4, #8]
 1532 00d2 FFF7FEFF 		bl	lv_page_get_scrollable
 1533              	.LVL244:
 1534 00d6 FFF7FEFF 		bl	lv_obj_get_x
 1535              	.LVL245:
 1536              	.LBB125:
 1537              	.LBB126:
 144:lvgl\src\lv_widgets\../lv_core/../lv_misc/lv_anim.h **** }
 145:lvgl\src\lv_widgets\../lv_core/../lv_misc/lv_anim.h **** 
 146:lvgl\src\lv_widgets\../lv_core/../lv_misc/lv_anim.h **** /**
 147:lvgl\src\lv_widgets\../lv_core/../lv_misc/lv_anim.h ****  * Set the duration of an animation
 148:lvgl\src\lv_widgets\../lv_core/../lv_misc/lv_anim.h ****  * @param a pointer to an initialized `lv_anim_t` variable
 149:lvgl\src\lv_widgets\../lv_core/../lv_misc/lv_anim.h ****  * @param duration duration of the animation in milliseconds
 150:lvgl\src\lv_widgets\../lv_core/../lv_misc/lv_anim.h ****  */
 151:lvgl\src\lv_widgets\../lv_core/../lv_misc/lv_anim.h **** static inline void lv_anim_set_time(lv_anim_t * a, uint32_t duration)
 152:lvgl\src\lv_widgets\../lv_core/../lv_misc/lv_anim.h **** {
 153:lvgl\src\lv_widgets\../lv_core/../lv_misc/lv_anim.h ****     a->time     = duration;
 154:lvgl\src\lv_widgets\../lv_core/../lv_misc/lv_anim.h **** }
 155:lvgl\src\lv_widgets\../lv_core/../lv_misc/lv_anim.h **** 
 156:lvgl\src\lv_widgets\../lv_core/../lv_misc/lv_anim.h **** /**
 157:lvgl\src\lv_widgets\../lv_core/../lv_misc/lv_anim.h ****  * Set a delay before starting the animation
ARM GAS  C:\Users\strap\AppData\Local\Temp\ccTzHSZB.s 			page 58


 158:lvgl\src\lv_widgets\../lv_core/../lv_misc/lv_anim.h ****  * @param a pointer to an initialized `lv_anim_t` variable
 159:lvgl\src\lv_widgets\../lv_core/../lv_misc/lv_anim.h ****  * @param delay delay before the animation in milliseconds
 160:lvgl\src\lv_widgets\../lv_core/../lv_misc/lv_anim.h ****  */
 161:lvgl\src\lv_widgets\../lv_core/../lv_misc/lv_anim.h **** static inline void lv_anim_set_delay(lv_anim_t * a, uint32_t delay)
 162:lvgl\src\lv_widgets\../lv_core/../lv_misc/lv_anim.h **** {
 163:lvgl\src\lv_widgets\../lv_core/../lv_misc/lv_anim.h ****     a->act_time = -(int32_t)(delay);
 164:lvgl\src\lv_widgets\../lv_core/../lv_misc/lv_anim.h **** }
 165:lvgl\src\lv_widgets\../lv_core/../lv_misc/lv_anim.h **** 
 166:lvgl\src\lv_widgets\../lv_core/../lv_misc/lv_anim.h **** /**
 167:lvgl\src\lv_widgets\../lv_core/../lv_misc/lv_anim.h ****  * Set the start and end values of an animation
 168:lvgl\src\lv_widgets\../lv_core/../lv_misc/lv_anim.h ****  * @param a pointer to an initialized `lv_anim_t` variable
 169:lvgl\src\lv_widgets\../lv_core/../lv_misc/lv_anim.h ****  * @param start the start value
 170:lvgl\src\lv_widgets\../lv_core/../lv_misc/lv_anim.h ****  * @param end the end value
 171:lvgl\src\lv_widgets\../lv_core/../lv_misc/lv_anim.h ****  */
 172:lvgl\src\lv_widgets\../lv_core/../lv_misc/lv_anim.h **** static inline void lv_anim_set_values(lv_anim_t * a, lv_anim_value_t start, lv_anim_value_t end)
 173:lvgl\src\lv_widgets\../lv_core/../lv_misc/lv_anim.h **** {
 174:lvgl\src\lv_widgets\../lv_core/../lv_misc/lv_anim.h ****     a->start = start;
 1538              		.loc 5 174 0
 1539 00da 0690     		str	r0, [sp, #24]
 175:lvgl\src\lv_widgets\../lv_core/../lv_misc/lv_anim.h ****     a->current = start;
 1540              		.loc 5 175 0
 1541 00dc 0790     		str	r0, [sp, #28]
 176:lvgl\src\lv_widgets\../lv_core/../lv_misc/lv_anim.h ****     a->end   = end;
 1542              		.loc 5 176 0
 1543 00de 0895     		str	r5, [sp, #32]
 1544              	.LVL246:
 1545              	.LBE126:
 1546              	.LBE125:
 356:lvgl\src\lv_widgets/lv_tabview.c ****         lv_anim_start(&a);
 1547              		.loc 1 356 0
 1548 00e0 238B     		ldrh	r3, [r4, #24]
 1549              	.LVL247:
 1550              	.LBB127:
 1551              	.LBB128:
 153:lvgl\src\lv_widgets\../lv_core/../lv_misc/lv_anim.h **** }
 1552              		.loc 5 153 0
 1553 00e2 0993     		str	r3, [sp, #36]
 1554              	.LVL248:
 1555              	.LBE128:
 1556              	.LBE127:
 357:lvgl\src\lv_widgets/lv_tabview.c ****     }
 1557              		.loc 1 357 0
 1558 00e4 6846     		mov	r0, sp
 1559 00e6 FFF7FEFF 		bl	lv_anim_start
 1560              	.LVL249:
 1561              	.L113:
 1562              	.LBE120:
 369:lvgl\src\lv_widgets/lv_tabview.c ****         default: /*default case is prevented in lv_tabview_set_btns_pos(), but here for safety*/
 1563              		.loc 1 369 0
 1564 00ea A37E     		ldrb	r3, [r4, #26]	@ zero_extendqisi2
 1565 00ec 03F00703 		and	r3, r3, #7
 1566 00f0 013B     		subs	r3, r3, #1
 1567 00f2 032B     		cmp	r3, #3
 1568 00f4 2BD8     		bhi	.L128
 1569 00f6 DFE803F0 		tbb	[pc, r3]
 1570              	.L116:
 1571 00fa 02       		.byte	(.L115-.L116)/2
ARM GAS  C:\Users\strap\AppData\Local\Temp\ccTzHSZB.s 			page 59


 1572 00fb 02       		.byte	(.L115-.L116)/2
 1573 00fc 16       		.byte	(.L117-.L116)/2
 1574 00fd 16       		.byte	(.L117-.L116)/2
 1575              		.p2align 1
 1576              	.L115:
 1577              	.LVL250:
 1578              	.LBB129:
 1579              	.LBB130:
 114:lvgl\src\lv_widgets\../lv_core/lv_obj_style_dec.h **** _LV_OBJ_STYLE_SET_GET_DECLARE(MARGIN_TOP, margin_top, lv_style_int_t, _int, scalar)
 1580              		.loc 2 114 0
 1581 00fe 1422     		movs	r2, #20
 1582 0100 4121     		movs	r1, #65
 1583 0102 3846     		mov	r0, r7
 1584 0104 FFF7FEFF 		bl	_lv_obj_get_style_int
 1585              	.LVL251:
 1586 0108 0546     		mov	r5, r0
 1587              	.LVL252:
 1588              	.LBE130:
 1589              	.LBE129:
 1590              	.LBB131:
 1591              	.LBB132:
 112:lvgl\src\lv_widgets\../lv_core/lv_obj_style_dec.h **** _LV_OBJ_STYLE_SET_GET_DECLARE(PAD_RIGHT, pad_right, lv_style_int_t, _int, scalar)
 1592              		.loc 2 112 0
 1593 010a 1222     		movs	r2, #18
 1594 010c 4121     		movs	r1, #65
 1595 010e 3846     		mov	r0, r7
 1596 0110 FFF7FEFF 		bl	_lv_obj_get_style_int
 1597              	.LVL253:
 1598 0114 0746     		mov	r7, r0
 1599              	.LVL254:
 1600              	.LBE132:
 1601              	.LBE131:
 377:lvgl\src\lv_widgets/lv_tabview.c ****             indic_pos  = indic_size * id + btns_bg_inner * id + btns_bg_left;
 1602              		.loc 1 377 0
 1603 0116 6068     		ldr	r0, [r4, #4]
 1604 0118 FFF7FEFF 		bl	lv_obj_get_width
 1605              	.LVL255:
 378:lvgl\src\lv_widgets/lv_tabview.c ****             break;
 1606              		.loc 1 378 0
 1607 011c 2844     		add	r0, r0, r5
 1608              	.LVL256:
 1609 011e 00FB0675 		mla	r5, r0, r6, r7
 1610 0122 2DB2     		sxth	r5, r5
 1611              	.LVL257:
 379:lvgl\src\lv_widgets/lv_tabview.c ****         case LV_TABVIEW_TAB_POS_LEFT:
 1612              		.loc 1 379 0
 1613 0124 14E0     		b	.L114
 1614              	.LVL258:
 1615              	.L117:
 1616              	.LBB133:
 1617              	.LBB134:
 114:lvgl\src\lv_widgets\../lv_core/lv_obj_style_dec.h **** _LV_OBJ_STYLE_SET_GET_DECLARE(MARGIN_TOP, margin_top, lv_style_int_t, _int, scalar)
 1618              		.loc 2 114 0
 1619 0126 1422     		movs	r2, #20
 1620 0128 4121     		movs	r1, #65
 1621 012a 3846     		mov	r0, r7
 1622 012c FFF7FEFF 		bl	_lv_obj_get_style_int
ARM GAS  C:\Users\strap\AppData\Local\Temp\ccTzHSZB.s 			page 60


 1623              	.LVL259:
 1624 0130 8146     		mov	r9, r0
 1625              	.LVL260:
 1626              	.LBE134:
 1627              	.LBE133:
 1628              	.LBB135:
 1629              	.LBB136:
 110:lvgl\src\lv_widgets\../lv_core/lv_obj_style_dec.h **** _LV_OBJ_STYLE_SET_GET_DECLARE(PAD_BOTTOM, pad_bottom, lv_style_int_t, _int, scalar)
 1630              		.loc 2 110 0
 1631 0132 1022     		movs	r2, #16
 1632 0134 4121     		movs	r1, #65
 1633 0136 3846     		mov	r0, r7
 1634 0138 FFF7FEFF 		bl	_lv_obj_get_style_int
 1635              	.LVL261:
 1636 013c 0546     		mov	r5, r0
 1637              	.LVL262:
 1638              	.LBE136:
 1639              	.LBE135:
 384:lvgl\src\lv_widgets/lv_tabview.c ****             indic_pos  = btns_bg_top + id * (indic_size + btns_bg_inner);
 1640              		.loc 1 384 0
 1641 013e 6068     		ldr	r0, [r4, #4]
 1642 0140 FFF7FEFF 		bl	lv_obj_get_height
 1643              	.LVL263:
 385:lvgl\src\lv_widgets/lv_tabview.c ****             break;
 1644              		.loc 1 385 0
 1645 0144 4844     		add	r0, r0, r9
 1646              	.LVL264:
 1647 0146 00FB0655 		mla	r5, r0, r6, r5
 1648 014a 2DB2     		sxth	r5, r5
 1649              	.LVL265:
 386:lvgl\src\lv_widgets/lv_tabview.c ****     }
 1650              		.loc 1 386 0
 1651 014c 00E0     		b	.L114
 1652              	.LVL266:
 1653              	.L128:
 363:lvgl\src\lv_widgets/lv_tabview.c **** 
 1654              		.loc 1 363 0
 1655 014e 0025     		movs	r5, #0
 1656              	.LVL267:
 1657              	.L114:
 390:lvgl\src\lv_widgets/lv_tabview.c **** #endif
 1658              		.loc 1 390 0
 1659 0150 B8F1000F 		cmp	r8, #0
 1660 0154 01D0     		beq	.L118
 390:lvgl\src\lv_widgets/lv_tabview.c **** #endif
 1661              		.loc 1 390 0 is_stmt 0 discriminator 1
 1662 0156 238B     		ldrh	r3, [r4, #24]
 1663 0158 9BB9     		cbnz	r3, .L119
 1664              	.L118:
 393:lvgl\src\lv_widgets/lv_tabview.c ****             default: /*default case is prevented in lv_tabview_set_btns_pos(), but here for safety*
 1665              		.loc 1 393 0 is_stmt 1
 1666 015a A37E     		ldrb	r3, [r4, #26]	@ zero_extendqisi2
 1667 015c 03F00703 		and	r3, r3, #7
 1668 0160 013B     		subs	r3, r3, #1
 1669 0162 032B     		cmp	r3, #3
 1670 0164 32D8     		bhi	.L120
 1671 0166 DFE803F0 		tbb	[pc, r3]
ARM GAS  C:\Users\strap\AppData\Local\Temp\ccTzHSZB.s 			page 61


 1672              	.L122:
 1673 016a 02       		.byte	(.L121-.L122)/2
 1674 016b 02       		.byte	(.L121-.L122)/2
 1675 016c 07       		.byte	(.L123-.L122)/2
 1676 016d 07       		.byte	(.L123-.L122)/2
 1677              		.p2align 1
 1678              	.L121:
 399:lvgl\src\lv_widgets/lv_tabview.c ****                 break;
 1679              		.loc 1 399 0
 1680 016e 2946     		mov	r1, r5
 1681 0170 6068     		ldr	r0, [r4, #4]
 1682 0172 FFF7FEFF 		bl	lv_obj_set_x
 1683              	.LVL268:
 400:lvgl\src\lv_widgets/lv_tabview.c ****             case LV_TABVIEW_TAB_POS_LEFT:
 1684              		.loc 1 400 0
 1685 0176 29E0     		b	.L120
 1686              	.L123:
 403:lvgl\src\lv_widgets/lv_tabview.c ****                 break;
 1687              		.loc 1 403 0
 1688 0178 2946     		mov	r1, r5
 1689 017a 6068     		ldr	r0, [r4, #4]
 1690 017c FFF7FEFF 		bl	lv_obj_set_y
 1691              	.LVL269:
 404:lvgl\src\lv_widgets/lv_tabview.c ****         }
 1692              		.loc 1 404 0
 1693 0180 24E0     		b	.L120
 1694              	.L119:
 1695              	.LBB137:
 410:lvgl\src\lv_widgets/lv_tabview.c ****         lv_anim_set_var(&a, ext->indic);
 1696              		.loc 1 410 0
 1697 0182 6846     		mov	r0, sp
 1698 0184 FFF7FEFF 		bl	lv_anim_init
 1699              	.LVL270:
 411:lvgl\src\lv_widgets/lv_tabview.c ****         lv_anim_set_time(&a, ext->anim_time);
 1700              		.loc 1 411 0
 1701 0188 6368     		ldr	r3, [r4, #4]
 1702              	.LVL271:
 1703              	.LBB138:
 1704              	.LBB139:
 131:lvgl\src\lv_widgets\../lv_core/../lv_misc/lv_anim.h **** }
 1705              		.loc 5 131 0
 1706 018a 0093     		str	r3, [sp]
 1707              	.LVL272:
 1708              	.LBE139:
 1709              	.LBE138:
 412:lvgl\src\lv_widgets/lv_tabview.c **** 
 1710              		.loc 1 412 0
 1711 018c 238B     		ldrh	r3, [r4, #24]
 1712              	.LVL273:
 1713              	.LBB140:
 1714              	.LBB141:
 153:lvgl\src\lv_widgets\../lv_core/../lv_misc/lv_anim.h **** }
 1715              		.loc 5 153 0
 1716 018e 0993     		str	r3, [sp, #36]
 1717              	.LVL274:
 1718              	.LBE141:
 1719              	.LBE140:
ARM GAS  C:\Users\strap\AppData\Local\Temp\ccTzHSZB.s 			page 62


 414:lvgl\src\lv_widgets/lv_tabview.c ****             default: /*default case is prevented in lv_tabview_set_btns_pos(), but here for safety*
 1720              		.loc 1 414 0
 1721 0190 A37E     		ldrb	r3, [r4, #26]	@ zero_extendqisi2
 1722 0192 03F00703 		and	r3, r3, #7
 1723 0196 013B     		subs	r3, r3, #1
 1724 0198 032B     		cmp	r3, #3
 1725 019a 14D8     		bhi	.L124
 1726 019c DFE803F0 		tbb	[pc, r3]
 1727              	.L126:
 1728 01a0 02       		.byte	(.L125-.L126)/2
 1729 01a1 02       		.byte	(.L125-.L126)/2
 1730 01a2 0B       		.byte	(.L127-.L126)/2
 1731 01a3 0B       		.byte	(.L127-.L126)/2
 1732              		.p2align 1
 1733              	.L125:
 1734              	.LVL275:
 1735              	.LBB142:
 1736              	.LBB143:
 143:lvgl\src\lv_widgets\../lv_core/../lv_misc/lv_anim.h **** }
 1737              		.loc 5 143 0
 1738 01a4 0E4B     		ldr	r3, .L131+4
 1739 01a6 0193     		str	r3, [sp, #4]
 1740              	.LVL276:
 1741              	.LBE143:
 1742              	.LBE142:
 421:lvgl\src\lv_widgets/lv_tabview.c ****                 break;
 1743              		.loc 1 421 0
 1744 01a8 6068     		ldr	r0, [r4, #4]
 1745 01aa FFF7FEFF 		bl	lv_obj_get_x
 1746              	.LVL277:
 1747              	.LBB144:
 1748              	.LBB145:
 174:lvgl\src\lv_widgets\../lv_core/../lv_misc/lv_anim.h ****     a->current = start;
 1749              		.loc 5 174 0
 1750 01ae 0690     		str	r0, [sp, #24]
 175:lvgl\src\lv_widgets\../lv_core/../lv_misc/lv_anim.h ****     a->end   = end;
 1751              		.loc 5 175 0
 1752 01b0 0790     		str	r0, [sp, #28]
 1753              		.loc 5 176 0
 1754 01b2 0895     		str	r5, [sp, #32]
 1755 01b4 07E0     		b	.L124
 1756              	.LVL278:
 1757              	.L127:
 1758              	.LBE145:
 1759              	.LBE144:
 1760              	.LBB146:
 1761              	.LBB147:
 143:lvgl\src\lv_widgets\../lv_core/../lv_misc/lv_anim.h **** }
 1762              		.loc 5 143 0
 1763 01b6 0B4B     		ldr	r3, .L131+8
 1764 01b8 0193     		str	r3, [sp, #4]
 1765              	.LVL279:
 1766              	.LBE147:
 1767              	.LBE146:
 426:lvgl\src\lv_widgets/lv_tabview.c ****                 break;
 1768              		.loc 1 426 0
 1769 01ba 6068     		ldr	r0, [r4, #4]
ARM GAS  C:\Users\strap\AppData\Local\Temp\ccTzHSZB.s 			page 63


 1770 01bc FFF7FEFF 		bl	lv_obj_get_y
 1771              	.LVL280:
 1772              	.LBB148:
 1773              	.LBB149:
 174:lvgl\src\lv_widgets\../lv_core/../lv_misc/lv_anim.h ****     a->current = start;
 1774              		.loc 5 174 0
 1775 01c0 0690     		str	r0, [sp, #24]
 175:lvgl\src\lv_widgets\../lv_core/../lv_misc/lv_anim.h ****     a->end   = end;
 1776              		.loc 5 175 0
 1777 01c2 0790     		str	r0, [sp, #28]
 1778              		.loc 5 176 0
 1779 01c4 0895     		str	r5, [sp, #32]
 1780              	.LVL281:
 1781              	.L124:
 1782              	.LBE149:
 1783              	.LBE148:
 430:lvgl\src\lv_widgets/lv_tabview.c ****     }
 1784              		.loc 1 430 0 discriminator 3
 1785 01c6 6846     		mov	r0, sp
 1786 01c8 FFF7FEFF 		bl	lv_anim_start
 1787              	.LVL282:
 1788              	.L120:
 1789              	.LBE137:
 434:lvgl\src\lv_widgets/lv_tabview.c **** }
 1790              		.loc 1 434 0
 1791 01cc 8022     		movs	r2, #128
 1792 01ce A18A     		ldrh	r1, [r4, #20]
 1793 01d0 2068     		ldr	r0, [r4]
 1794 01d2 FFF7FEFF 		bl	lv_btnmatrix_set_btn_ctrl
 1795              	.LVL283:
 435:lvgl\src\lv_widgets/lv_tabview.c **** 
 1796              		.loc 1 435 0
 1797 01d6 12B0     		add	sp, sp, #72
 1798              		.cfi_def_cfa_offset 32
 1799              		@ sp needed
 1800 01d8 BDE8F087 		pop	{r4, r5, r6, r7, r8, r9, r10, pc}
 1801              	.LVL284:
 1802              	.L132:
 1803              		.align	2
 1804              	.L131:
 1805 01dc 00000000 		.word	.LC0
 1806 01e0 00000000 		.word	lv_obj_set_x
 1807 01e4 00000000 		.word	lv_obj_set_y
 1808              		.cfi_endproc
 1809              	.LFE360:
 1810              		.size	lv_tabview_set_tab_act, .-lv_tabview_set_tab_act
 1811              		.section	.text.tab_btnm_event_cb,"ax",%progbits
 1812              		.align	2
 1813              		.thumb
 1814              		.thumb_func
 1815              		.type	tab_btnm_event_cb, %function
 1816              	tab_btnm_event_cb:
 1817              	.LFB372:
 820:lvgl\src\lv_widgets/lv_tabview.c ****     if(event != LV_EVENT_CLICKED) return;
 1818              		.loc 1 820 0
 1819              		.cfi_startproc
 1820              		@ args = 0, pretend = 0, frame = 8
ARM GAS  C:\Users\strap\AppData\Local\Temp\ccTzHSZB.s 			page 64


 1821              		@ frame_needed = 0, uses_anonymous_args = 0
 1822              	.LVL285:
 821:lvgl\src\lv_widgets/lv_tabview.c **** 
 1823              		.loc 1 821 0
 1824 0000 0629     		cmp	r1, #6
 1825 0002 3DD1     		bne	.L140
 820:lvgl\src\lv_widgets/lv_tabview.c ****     if(event != LV_EVENT_CLICKED) return;
 1826              		.loc 1 820 0
 1827 0004 70B5     		push	{r4, r5, r6, lr}
 1828              		.cfi_def_cfa_offset 16
 1829              		.cfi_offset 4, -16
 1830              		.cfi_offset 5, -12
 1831              		.cfi_offset 6, -8
 1832              		.cfi_offset 14, -4
 1833 0006 82B0     		sub	sp, sp, #8
 1834              		.cfi_def_cfa_offset 24
 1835 0008 0446     		mov	r4, r0
 823:lvgl\src\lv_widgets/lv_tabview.c ****     if(btn_id == LV_BTNMATRIX_BTN_NONE) return;
 1836              		.loc 1 823 0
 1837 000a FFF7FEFF 		bl	lv_btnmatrix_get_active_btn
 1838              	.LVL286:
 1839 000e 0546     		mov	r5, r0
 1840              	.LVL287:
 824:lvgl\src\lv_widgets/lv_tabview.c **** 
 1841              		.loc 1 824 0
 1842 0010 4FF6FF73 		movw	r3, #65535
 1843 0014 9842     		cmp	r0, r3
 1844 0016 31D0     		beq	.L133
 826:lvgl\src\lv_widgets/lv_tabview.c **** 
 1845              		.loc 1 826 0
 1846 0018 2022     		movs	r2, #32
 1847 001a 0146     		mov	r1, r0
 1848 001c 2046     		mov	r0, r4
 1849              	.LVL288:
 1850 001e FFF7FEFF 		bl	lv_btnmatrix_get_btn_ctrl
 1851              	.LVL289:
 1852 0022 58BB     		cbnz	r0, .L133
 828:lvgl\src\lv_widgets/lv_tabview.c ****     lv_btnmatrix_set_btn_ctrl(tab_btnm, btn_id, LV_BTNMATRIX_CTRL_CHECK_STATE);
 1853              		.loc 1 828 0
 1854 0024 8021     		movs	r1, #128
 1855 0026 2046     		mov	r0, r4
 1856 0028 FFF7FEFF 		bl	lv_btnmatrix_clear_btn_ctrl_all
 1857              	.LVL290:
 829:lvgl\src\lv_widgets/lv_tabview.c **** 
 1858              		.loc 1 829 0
 1859 002c 8022     		movs	r2, #128
 1860 002e 2946     		mov	r1, r5
 1861 0030 2046     		mov	r0, r4
 1862 0032 FFF7FEFF 		bl	lv_btnmatrix_set_btn_ctrl
 1863              	.LVL291:
 831:lvgl\src\lv_widgets/lv_tabview.c **** 
 1864              		.loc 1 831 0
 1865 0036 2046     		mov	r0, r4
 1866 0038 FFF7FEFF 		bl	lv_obj_get_parent
 1867              	.LVL292:
 1868 003c 0446     		mov	r4, r0
 1869              	.LVL293:
ARM GAS  C:\Users\strap\AppData\Local\Temp\ccTzHSZB.s 			page 65


 833:lvgl\src\lv_widgets/lv_tabview.c ****     lv_tabview_set_tab_act(tabview, btn_id, LV_ANIM_ON);
 1870              		.loc 1 833 0
 1871 003e FFF7FEFF 		bl	lv_tabview_get_tab_act
 1872              	.LVL294:
 1873 0042 0646     		mov	r6, r0
 1874              	.LVL295:
 834:lvgl\src\lv_widgets/lv_tabview.c ****     uint32_t id_new = lv_tabview_get_tab_act(tabview);
 1875              		.loc 1 834 0
 1876 0044 0122     		movs	r2, #1
 1877 0046 2946     		mov	r1, r5
 1878 0048 2046     		mov	r0, r4
 1879              	.LVL296:
 1880 004a FFF7FEFF 		bl	lv_tabview_set_tab_act
 1881              	.LVL297:
 835:lvgl\src\lv_widgets/lv_tabview.c **** 
 1882              		.loc 1 835 0
 1883 004e 2046     		mov	r0, r4
 1884 0050 FFF7FEFF 		bl	lv_tabview_get_tab_act
 1885              	.LVL298:
 1886 0054 0190     		str	r0, [sp, #4]
 1887              	.LVL299:
 838:lvgl\src\lv_widgets/lv_tabview.c **** 
 1888              		.loc 1 838 0
 1889 0056 8642     		cmp	r6, r0
 1890 0058 04D0     		beq	.L135
 838:lvgl\src\lv_widgets/lv_tabview.c **** 
 1891              		.loc 1 838 0 is_stmt 0 discriminator 1
 1892 005a 01AA     		add	r2, sp, #4
 1893 005c 1021     		movs	r1, #16
 1894 005e 2046     		mov	r0, r4
 1895 0060 FFF7FEFF 		bl	lv_event_send
 1896              	.LVL300:
 1897              	.L135:
 841:lvgl\src\lv_widgets/lv_tabview.c ****         lv_group_set_editing(lv_obj_get_group(tabview), false);
 1898              		.loc 1 841 0 is_stmt 1
 1899 0064 FFF7FEFF 		bl	lv_indev_get_act
 1900              	.LVL301:
 1901 0068 FFF7FEFF 		bl	lv_indev_get_type
 1902              	.LVL302:
 1903 006c 0428     		cmp	r0, #4
 1904 006e 05D1     		bne	.L133
 842:lvgl\src\lv_widgets/lv_tabview.c ****     }
 1905              		.loc 1 842 0
 1906 0070 2046     		mov	r0, r4
 1907 0072 FFF7FEFF 		bl	lv_obj_get_group
 1908              	.LVL303:
 1909 0076 0021     		movs	r1, #0
 1910 0078 FFF7FEFF 		bl	lv_group_set_editing
 1911              	.LVL304:
 1912              	.L133:
 847:lvgl\src\lv_widgets/lv_tabview.c **** 
 1913              		.loc 1 847 0
 1914 007c 02B0     		add	sp, sp, #8
 1915              		.cfi_def_cfa_offset 16
 1916              		@ sp needed
 1917 007e 70BD     		pop	{r4, r5, r6, pc}
 1918              	.LVL305:
ARM GAS  C:\Users\strap\AppData\Local\Temp\ccTzHSZB.s 			page 66


 1919              	.L140:
 1920              		.cfi_def_cfa_offset 0
 1921              		.cfi_restore 4
 1922              		.cfi_restore 5
 1923              		.cfi_restore 6
 1924              		.cfi_restore 14
 1925 0080 7047     		bx	lr
 1926              		.cfi_endproc
 1927              	.LFE372:
 1928              		.size	tab_btnm_event_cb, .-tab_btnm_event_cb
 1929 0082 00BF     		.section	.text.tabview_scrl_signal,"ax",%progbits
 1930              		.align	2
 1931              		.thumb
 1932              		.thumb_func
 1933              		.type	tabview_scrl_signal, %function
 1934              	tabview_scrl_signal:
 1935              	.LFB370:
 718:lvgl\src\lv_widgets/lv_tabview.c ****     lv_res_t res;
 1936              		.loc 1 718 0
 1937              		.cfi_startproc
 1938              		@ args = 0, pretend = 0, frame = 16
 1939              		@ frame_needed = 0, uses_anonymous_args = 0
 1940              	.LVL306:
 1941 0000 2DE9F047 		push	{r4, r5, r6, r7, r8, r9, r10, lr}
 1942              		.cfi_def_cfa_offset 32
 1943              		.cfi_offset 4, -32
 1944              		.cfi_offset 5, -28
 1945              		.cfi_offset 6, -24
 1946              		.cfi_offset 7, -20
 1947              		.cfi_offset 8, -16
 1948              		.cfi_offset 9, -12
 1949              		.cfi_offset 10, -8
 1950              		.cfi_offset 14, -4
 1951 0004 84B0     		sub	sp, sp, #16
 1952              		.cfi_def_cfa_offset 48
 1953 0006 0646     		mov	r6, r0
 1954 0008 0D46     		mov	r5, r1
 1955 000a 1746     		mov	r7, r2
 722:lvgl\src\lv_widgets/lv_tabview.c ****     if(res != LV_RES_OK) return res;
 1956              		.loc 1 722 0
 1957 000c 514B     		ldr	r3, .L161
 1958 000e 5B68     		ldr	r3, [r3, #4]
 1959 0010 9847     		blx	r3
 1960              	.LVL307:
 1961 0012 0446     		mov	r4, r0
 1962              	.LVL308:
 723:lvgl\src\lv_widgets/lv_tabview.c ****     if(sign == LV_SIGNAL_GET_TYPE) return lv_obj_handle_get_type_signal(param, "");
 1963              		.loc 1 723 0
 1964 0014 0128     		cmp	r0, #1
 1965 0016 40F09880 		bne	.L154
 724:lvgl\src\lv_widgets/lv_tabview.c **** 
 1966              		.loc 1 724 0
 1967 001a 072D     		cmp	r5, #7
 1968 001c 04D1     		bne	.L143
 724:lvgl\src\lv_widgets/lv_tabview.c **** 
 1969              		.loc 1 724 0 is_stmt 0 discriminator 1
 1970 001e 4E49     		ldr	r1, .L161+4
ARM GAS  C:\Users\strap\AppData\Local\Temp\ccTzHSZB.s 			page 67


 1971 0020 3846     		mov	r0, r7
 1972              	.LVL309:
 1973 0022 FFF7FEFF 		bl	lv_obj_handle_get_type_signal
 1974              	.LVL310:
 1975 0026 92E0     		b	.L142
 1976              	.LVL311:
 1977              	.L143:
 726:lvgl\src\lv_widgets/lv_tabview.c ****     lv_obj_t * tabview = lv_obj_get_parent(cont);
 1978              		.loc 1 726 0 is_stmt 1
 1979 0028 3046     		mov	r0, r6
 1980              	.LVL312:
 1981 002a FFF7FEFF 		bl	lv_obj_get_parent
 1982              	.LVL313:
 727:lvgl\src\lv_widgets/lv_tabview.c **** 
 1983              		.loc 1 727 0
 1984 002e FFF7FEFF 		bl	lv_obj_get_parent
 1985              	.LVL314:
 1986 0032 0646     		mov	r6, r0
 1987              	.LVL315:
 729:lvgl\src\lv_widgets/lv_tabview.c ****         lv_tabview_ext_t * ext = lv_obj_get_ext_attr(tabview);
 1988              		.loc 1 729 0
 1989 0034 122D     		cmp	r5, #18
 1990 0036 40F08980 		bne	.L155
 1991              	.LBB150:
 730:lvgl\src\lv_widgets/lv_tabview.c **** 
 1992              		.loc 1 730 0
 1993 003a FFF7FEFF 		bl	lv_obj_get_ext_attr
 1994              	.LVL316:
 1995 003e 0746     		mov	r7, r0
 1996              	.LVL317:
 732:lvgl\src\lv_widgets/lv_tabview.c ****         lv_point_t point_act;
 1997              		.loc 1 732 0
 1998 0040 FFF7FEFF 		bl	lv_indev_get_act
 1999              	.LVL318:
 2000 0044 0446     		mov	r4, r0
 2001              	.LVL319:
 734:lvgl\src\lv_widgets/lv_tabview.c ****         lv_point_t vect;
 2002              		.loc 1 734 0
 2003 0046 01A9     		add	r1, sp, #4
 2004 0048 FFF7FEFF 		bl	lv_indev_get_point
 2005              	.LVL320:
 736:lvgl\src\lv_widgets/lv_tabview.c ****         lv_coord_t x_predict = 0;
 2006              		.loc 1 736 0
 2007 004c 02A9     		add	r1, sp, #8
 2008 004e 2046     		mov	r0, r4
 2009 0050 FFF7FEFF 		bl	lv_indev_get_vect
 2010              	.LVL321:
 737:lvgl\src\lv_widgets/lv_tabview.c **** 
 2011              		.loc 1 737 0
 2012 0054 0025     		movs	r5, #0
 739:lvgl\src\lv_widgets/lv_tabview.c ****             x_predict += vect.x;
 2013              		.loc 1 739 0
 2014 0056 0CE0     		b	.L144
 2015              	.LVL322:
 2016              	.L145:
 740:lvgl\src\lv_widgets/lv_tabview.c ****             vect.x = vect.x * (100 - LV_INDEV_DEF_DRAG_THROW) / 100;
 2017              		.loc 1 740 0
ARM GAS  C:\Users\strap\AppData\Local\Temp\ccTzHSZB.s 			page 68


 2018 0058 1544     		add	r5, r5, r2
 2019              	.LVL323:
 2020 005a 2DB2     		sxth	r5, r5
 2021              	.LVL324:
 741:lvgl\src\lv_widgets/lv_tabview.c ****         }
 2022              		.loc 1 741 0
 2023 005c 5A23     		movs	r3, #90
 2024 005e 03FB02F3 		mul	r3, r3, r2
 2025 0062 3E4A     		ldr	r2, .L161+8
 2026 0064 82FB0312 		smull	r1, r2, r2, r3
 2027 0068 DB17     		asrs	r3, r3, #31
 2028 006a C3EB6213 		rsb	r3, r3, r2, asr #5
 2029 006e ADF80830 		strh	r3, [sp, #8]	@ movhi
 2030              	.LVL325:
 2031              	.L144:
 739:lvgl\src\lv_widgets/lv_tabview.c ****             x_predict += vect.x;
 2032              		.loc 1 739 0
 2033 0072 BDF90820 		ldrsh	r2, [sp, #8]
 2034 0076 002A     		cmp	r2, #0
 2035 0078 EED1     		bne	.L145
 744:lvgl\src\lv_widgets/lv_tabview.c ****         if(res != LV_RES_OK) return res;
 2036              		.loc 1 744 0
 2037 007a 2046     		mov	r0, r4
 2038 007c FFF7FEFF 		bl	lv_indev_finish_drag
 2039              	.LVL326:
 2040 0080 0446     		mov	r4, r0
 2041              	.LVL327:
 745:lvgl\src\lv_widgets/lv_tabview.c ****         lv_obj_t * tab_page = lv_tabview_get_tab(tabview, ext->tab_cur);
 2042              		.loc 1 745 0
 2043 0082 0128     		cmp	r0, #1
 2044 0084 5CD1     		bne	.L156
 746:lvgl\src\lv_widgets/lv_tabview.c ****         if(tab_page == NULL) return LV_RES_OK;
 2045              		.loc 1 746 0
 2046 0086 B98A     		ldrh	r1, [r7, #20]
 2047 0088 3046     		mov	r0, r6
 2048              	.LVL328:
 2049 008a FFF7FEFF 		bl	lv_tabview_get_tab
 2050              	.LVL329:
 747:lvgl\src\lv_widgets/lv_tabview.c ****         lv_coord_t page_x1  = tab_page->coords.x1 - tabview->coords.x1 + x_predict;
 2051              		.loc 1 747 0
 2052 008e 0028     		cmp	r0, #0
 2053 0090 57D0     		beq	.L157
 748:lvgl\src\lv_widgets/lv_tabview.c ****         lv_coord_t page_x2  = page_x1 + lv_obj_get_width(tabview);
 2054              		.loc 1 748 0
 2055 0092 B0F91030 		ldrsh	r3, [r0, #16]
 2056 0096 B6F91020 		ldrsh	r2, [r6, #16]
 2057 009a 9B1A     		subs	r3, r3, r2
 2058 009c 1D44     		add	r5, r5, r3
 2059              	.LVL330:
 2060 009e ADB2     		uxth	r5, r5
 2061 00a0 0FFA85F9 		sxth	r9, r5
 2062              	.LVL331:
 749:lvgl\src\lv_widgets/lv_tabview.c ****         lv_coord_t treshold = lv_obj_get_width(tabview) / 2;
 2063              		.loc 1 749 0
 2064 00a4 3046     		mov	r0, r6
 2065              	.LVL332:
 2066 00a6 FFF7FEFF 		bl	lv_obj_get_width
ARM GAS  C:\Users\strap\AppData\Local\Temp\ccTzHSZB.s 			page 69


 2067              	.LVL333:
 2068 00aa 2844     		add	r0, r0, r5
 2069 00ac 05B2     		sxth	r5, r0
 2070              	.LVL334:
 750:lvgl\src\lv_widgets/lv_tabview.c **** 
 2071              		.loc 1 750 0
 2072 00ae 3046     		mov	r0, r6
 2073 00b0 FFF7FEFF 		bl	lv_obj_get_width
 2074              	.LVL335:
 2075 00b4 00EBD070 		add	r0, r0, r0, lsr #31
 2076 00b8 40F34F0A 		sbfx	r10, r0, #1, #16
 2077              	.LVL336:
 752:lvgl\src\lv_widgets/lv_tabview.c ****         int16_t tab_cur = ext->tab_cur;
 2078              		.loc 1 752 0
 2079 00bc 3046     		mov	r0, r6
 2080 00be FFF7FEFF 		bl	lv_obj_get_base_dir
 2081              	.LVL337:
 753:lvgl\src\lv_widgets/lv_tabview.c ****         if(page_x1 > treshold) {
 2082              		.loc 1 753 0
 2083 00c2 BB8A     		ldrh	r3, [r7, #20]
 2084 00c4 0FFA83F8 		sxth	r8, r3
 2085              	.LVL338:
 754:lvgl\src\lv_widgets/lv_tabview.c ****             if(base_dir != LV_BIDI_DIR_RTL) tab_cur--;
 2086              		.loc 1 754 0
 2087 00c8 D145     		cmp	r9, r10
 2088 00ca 09DD     		ble	.L147
 755:lvgl\src\lv_widgets/lv_tabview.c ****             else tab_cur ++;
 2089              		.loc 1 755 0
 2090 00cc 0128     		cmp	r0, #1
 2091 00ce 03D0     		beq	.L148
 755:lvgl\src\lv_widgets/lv_tabview.c ****             else tab_cur ++;
 2092              		.loc 1 755 0 is_stmt 0 discriminator 1
 2093 00d0 013B     		subs	r3, r3, #1
 2094 00d2 0FFA83F8 		sxth	r8, r3
 2095              	.LVL339:
 2096 00d6 0EE0     		b	.L149
 2097              	.L148:
 756:lvgl\src\lv_widgets/lv_tabview.c ****         }
 2098              		.loc 1 756 0 is_stmt 1
 2099 00d8 0133     		adds	r3, r3, #1
 2100 00da 0FFA83F8 		sxth	r8, r3
 2101              	.LVL340:
 2102 00de 0AE0     		b	.L149
 2103              	.L147:
 758:lvgl\src\lv_widgets/lv_tabview.c ****             if(base_dir != LV_BIDI_DIR_RTL) tab_cur++;
 2104              		.loc 1 758 0
 2105 00e0 5545     		cmp	r5, r10
 2106 00e2 08DA     		bge	.L149
 759:lvgl\src\lv_widgets/lv_tabview.c ****             else tab_cur --;
 2107              		.loc 1 759 0
 2108 00e4 0128     		cmp	r0, #1
 2109 00e6 03D0     		beq	.L150
 759:lvgl\src\lv_widgets/lv_tabview.c ****             else tab_cur --;
 2110              		.loc 1 759 0 is_stmt 0 discriminator 1
 2111 00e8 0133     		adds	r3, r3, #1
 2112 00ea 0FFA83F8 		sxth	r8, r3
 2113              	.LVL341:
ARM GAS  C:\Users\strap\AppData\Local\Temp\ccTzHSZB.s 			page 70


 2114 00ee 02E0     		b	.L149
 2115              	.L150:
 760:lvgl\src\lv_widgets/lv_tabview.c ****         }
 2116              		.loc 1 760 0 is_stmt 1
 2117 00f0 013B     		subs	r3, r3, #1
 2118 00f2 0FFA83F8 		sxth	r8, r3
 2119              	.LVL342:
 2120              	.L149:
 763:lvgl\src\lv_widgets/lv_tabview.c ****         if(tab_cur < 0) tab_cur = 0;
 2121              		.loc 1 763 0
 2122 00f6 FB8A     		ldrh	r3, [r7, #22]
 2123 00f8 5A1E     		subs	r2, r3, #1
 2124 00fa 9045     		cmp	r8, r2
 2125 00fc 01DD     		ble	.L151
 763:lvgl\src\lv_widgets/lv_tabview.c ****         if(tab_cur < 0) tab_cur = 0;
 2126              		.loc 1 763 0 is_stmt 0 discriminator 1
 2127 00fe 0FFA82F8 		sxth	r8, r2
 2128              	.LVL343:
 2129              	.L151:
 764:lvgl\src\lv_widgets/lv_tabview.c **** 
 2130              		.loc 1 764 0 is_stmt 1
 2131 0102 B8F1000F 		cmp	r8, #0
 2132 0106 01DA     		bge	.L152
 2133 0108 4FF00008 		mov	r8, #0
 2134              	.LVL344:
 2135              	.L152:
 766:lvgl\src\lv_widgets/lv_tabview.c ****         lv_tabview_set_tab_act(tabview, tab_cur, LV_ANIM_ON);
 2136              		.loc 1 766 0
 2137 010c 3046     		mov	r0, r6
 2138              	.LVL345:
 2139 010e FFF7FEFF 		bl	lv_tabview_get_tab_act
 2140              	.LVL346:
 2141 0112 0390     		str	r0, [sp, #12]
 767:lvgl\src\lv_widgets/lv_tabview.c ****         uint32_t id_new = lv_tabview_get_tab_act(tabview);
 2142              		.loc 1 767 0
 2143 0114 0122     		movs	r2, #1
 2144 0116 1FFA88F1 		uxth	r1, r8
 2145 011a 3046     		mov	r0, r6
 2146 011c FFF7FEFF 		bl	lv_tabview_set_tab_act
 2147              	.LVL347:
 768:lvgl\src\lv_widgets/lv_tabview.c **** 
 2148              		.loc 1 768 0
 2149 0120 3046     		mov	r0, r6
 2150 0122 FFF7FEFF 		bl	lv_tabview_get_tab_act
 2151              	.LVL348:
 770:lvgl\src\lv_widgets/lv_tabview.c ****         if(res != LV_RES_OK) return res;
 2152              		.loc 1 770 0
 2153 0126 039B     		ldr	r3, [sp, #12]
 2154 0128 9842     		cmp	r0, r3
 2155 012a 05D0     		beq	.L153
 770:lvgl\src\lv_widgets/lv_tabview.c ****         if(res != LV_RES_OK) return res;
 2156              		.loc 1 770 0 is_stmt 0 discriminator 1
 2157 012c 03AA     		add	r2, sp, #12
 2158 012e 1021     		movs	r1, #16
 2159 0130 3046     		mov	r0, r6
 2160              	.LVL349:
 2161 0132 FFF7FEFF 		bl	lv_event_send
ARM GAS  C:\Users\strap\AppData\Local\Temp\ccTzHSZB.s 			page 71


 2162              	.LVL350:
 2163 0136 0446     		mov	r4, r0
 2164              	.LVL351:
 2165              	.L153:
 771:lvgl\src\lv_widgets/lv_tabview.c **** 
 2166              		.loc 1 771 0 is_stmt 1
 2167 0138 012C     		cmp	r4, #1
 2168 013a 04D1     		bne	.L159
 2169 013c 2046     		mov	r0, r4
 2170 013e 06E0     		b	.L142
 2171              	.LVL352:
 2172              	.L156:
 2173 0140 05E0     		b	.L142
 2174              	.LVL353:
 2175              	.L157:
 747:lvgl\src\lv_widgets/lv_tabview.c ****         lv_coord_t page_x1  = tab_page->coords.x1 - tabview->coords.x1 + x_predict;
 2176              		.loc 1 747 0
 2177 0142 0120     		movs	r0, #1
 2178              	.LVL354:
 2179 0144 03E0     		b	.L142
 2180              	.LVL355:
 2181              	.L159:
 771:lvgl\src\lv_widgets/lv_tabview.c **** 
 2182              		.loc 1 771 0
 2183 0146 2046     		mov	r0, r4
 2184 0148 01E0     		b	.L142
 2185              	.LVL356:
 2186              	.L154:
 2187 014a 00E0     		b	.L142
 2188              	.LVL357:
 2189              	.L155:
 2190              	.LBE150:
 722:lvgl\src\lv_widgets/lv_tabview.c ****     if(res != LV_RES_OK) return res;
 2191              		.loc 1 722 0
 2192 014c 2046     		mov	r0, r4
 2193              	.LVL358:
 2194              	.L142:
 775:lvgl\src\lv_widgets/lv_tabview.c **** 
 2195              		.loc 1 775 0
 2196 014e 04B0     		add	sp, sp, #16
 2197              		.cfi_def_cfa_offset 32
 2198              		@ sp needed
 2199 0150 BDE8F087 		pop	{r4, r5, r6, r7, r8, r9, r10, pc}
 2200              	.L162:
 2201              		.align	2
 2202              	.L161:
 2203 0154 00000000 		.word	.LANCHOR0
 2204 0158 20000000 		.word	.LC2
 2205 015c 1F85EB51 		.word	1374389535
 2206              		.cfi_endproc
 2207              	.LFE370:
 2208              		.size	tabview_scrl_signal, .-tabview_scrl_signal
 2209              		.section	.text.tabview_realign,"ax",%progbits
 2210              		.align	2
 2211              		.thumb
 2212              		.thumb_func
 2213              		.type	tabview_realign, %function
ARM GAS  C:\Users\strap\AppData\Local\Temp\ccTzHSZB.s 			page 72


 2214              	tabview_realign:
 2215              	.LFB373:
 854:lvgl\src\lv_widgets/lv_tabview.c ****     lv_tabview_ext_t * ext = lv_obj_get_ext_attr(tabview);
 2216              		.loc 1 854 0
 2217              		.cfi_startproc
 2218              		@ args = 0, pretend = 0, frame = 0
 2219              		@ frame_needed = 0, uses_anonymous_args = 0
 2220              	.LVL359:
 2221 0000 38B5     		push	{r3, r4, r5, lr}
 2222              		.cfi_def_cfa_offset 16
 2223              		.cfi_offset 3, -16
 2224              		.cfi_offset 4, -12
 2225              		.cfi_offset 5, -8
 2226              		.cfi_offset 14, -4
 2227 0002 0446     		mov	r4, r0
 855:lvgl\src\lv_widgets/lv_tabview.c **** 
 2228              		.loc 1 855 0
 2229 0004 FFF7FEFF 		bl	lv_obj_get_ext_attr
 2230              	.LVL360:
 2231 0008 0546     		mov	r5, r0
 2232              	.LVL361:
 857:lvgl\src\lv_widgets/lv_tabview.c ****     refr_content_size(tabview);
 2233              		.loc 1 857 0
 2234 000a 2046     		mov	r0, r4
 2235              	.LVL362:
 2236 000c FFF7FEFF 		bl	refr_btns_size
 2237              	.LVL363:
 858:lvgl\src\lv_widgets/lv_tabview.c ****     refr_indic_size(tabview);
 2238              		.loc 1 858 0
 2239 0010 2046     		mov	r0, r4
 2240 0012 FFF7FEFF 		bl	refr_content_size
 2241              	.LVL364:
 859:lvgl\src\lv_widgets/lv_tabview.c **** 
 2242              		.loc 1 859 0
 2243 0016 2046     		mov	r0, r4
 2244 0018 FFF7FEFF 		bl	refr_indic_size
 2245              	.LVL365:
 861:lvgl\src\lv_widgets/lv_tabview.c **** 
 2246              		.loc 1 861 0
 2247 001c 2046     		mov	r0, r4
 2248 001e FFF7FEFF 		bl	refr_align
 2249              	.LVL366:
 863:lvgl\src\lv_widgets/lv_tabview.c **** }
 2250              		.loc 1 863 0
 2251 0022 0022     		movs	r2, #0
 2252 0024 A98A     		ldrh	r1, [r5, #20]
 2253 0026 2046     		mov	r0, r4
 2254 0028 FFF7FEFF 		bl	lv_tabview_set_tab_act
 2255              	.LVL367:
 2256 002c 38BD     		pop	{r3, r4, r5, pc}
 2257              		.cfi_endproc
 2258              	.LFE373:
 2259              		.size	tabview_realign, .-tabview_realign
 2260 002e 00BF     		.section	.text.lv_tabview_signal,"ax",%progbits
 2261              		.align	2
 2262              		.thumb
 2263              		.thumb_func
ARM GAS  C:\Users\strap\AppData\Local\Temp\ccTzHSZB.s 			page 73


 2264              		.type	lv_tabview_signal, %function
 2265              	lv_tabview_signal:
 2266              	.LFB369:
 604:lvgl\src\lv_widgets/lv_tabview.c ****     lv_res_t res;
 2267              		.loc 1 604 0
 2268              		.cfi_startproc
 2269              		@ args = 0, pretend = 0, frame = 0
 2270              		@ frame_needed = 0, uses_anonymous_args = 0
 2271              	.LVL368:
 2272 0000 2DE9F843 		push	{r3, r4, r5, r6, r7, r8, r9, lr}
 2273              		.cfi_def_cfa_offset 32
 2274              		.cfi_offset 3, -32
 2275              		.cfi_offset 4, -28
 2276              		.cfi_offset 5, -24
 2277              		.cfi_offset 6, -20
 2278              		.cfi_offset 7, -16
 2279              		.cfi_offset 8, -12
 2280              		.cfi_offset 9, -8
 2281              		.cfi_offset 14, -4
 2282 0004 8046     		mov	r8, r0
 2283 0006 0D46     		mov	r5, r1
 2284 0008 1746     		mov	r7, r2
 606:lvgl\src\lv_widgets/lv_tabview.c ****         lv_get_style_info_t * info = param;
 2285              		.loc 1 606 0
 2286 000a 0829     		cmp	r1, #8
 2287 000c 0ED1     		bne	.L166
 2288              	.LVL369:
 2289              	.LBB151:
 608:lvgl\src\lv_widgets/lv_tabview.c ****         if(info->result != NULL) return LV_RES_OK;
 2290              		.loc 1 608 0
 2291 000e 1178     		ldrb	r1, [r2]	@ zero_extendqisi2
 2292              	.LVL370:
 2293 0010 FFF7FEFF 		bl	lv_tabview_get_style
 2294              	.LVL371:
 2295 0014 7860     		str	r0, [r7, #4]
 609:lvgl\src\lv_widgets/lv_tabview.c ****         else return ancestor_signal(tabview, sign, param);
 2296              		.loc 1 609 0
 2297 0016 0028     		cmp	r0, #0
 2298 0018 40F00081 		bne	.L188
 610:lvgl\src\lv_widgets/lv_tabview.c ****     }
 2299              		.loc 1 610 0
 2300 001c 864B     		ldr	r3, .L196
 2301 001e 9B68     		ldr	r3, [r3, #8]
 2302 0020 3A46     		mov	r2, r7
 2303 0022 2946     		mov	r1, r5
 2304 0024 4046     		mov	r0, r8
 2305 0026 9847     		blx	r3
 2306              	.LVL372:
 2307 0028 BDE8F883 		pop	{r3, r4, r5, r6, r7, r8, r9, pc}
 2308              	.LVL373:
 2309              	.L166:
 2310              	.LBE151:
 612:lvgl\src\lv_widgets/lv_tabview.c ****         lv_tabview_ext_t * ext = lv_obj_get_ext_attr(tabview);
 2311              		.loc 1 612 0
 2312 002c 0929     		cmp	r1, #9
 2313 002e 2BD1     		bne	.L168
 2314              	.LBB152:
ARM GAS  C:\Users\strap\AppData\Local\Temp\ccTzHSZB.s 			page 74


 613:lvgl\src\lv_widgets/lv_tabview.c ****         lv_get_state_info_t * info = param;
 2315              		.loc 1 613 0
 2316 0030 FFF7FEFF 		bl	lv_obj_get_ext_attr
 2317              	.LVL374:
 615:lvgl\src\lv_widgets/lv_tabview.c ****         else if(info->part == LV_TABVIEW_PART_TAB_BTN) info->result = lv_obj_get_state(ext->btns, L
 2318              		.loc 1 615 0
 2319 0034 3B78     		ldrb	r3, [r7]	@ zero_extendqisi2
 2320 0036 412B     		cmp	r3, #65
 2321 0038 07D1     		bne	.L169
 615:lvgl\src\lv_widgets/lv_tabview.c ****         else if(info->part == LV_TABVIEW_PART_TAB_BTN) info->result = lv_obj_get_state(ext->btns, L
 2322              		.loc 1 615 0 is_stmt 0 discriminator 1
 2323 003a 0021     		movs	r1, #0
 2324 003c 0068     		ldr	r0, [r0]
 2325              	.LVL375:
 2326 003e FFF7FEFF 		bl	lv_obj_get_state
 2327              	.LVL376:
 2328 0042 7870     		strb	r0, [r7, #1]
 620:lvgl\src\lv_widgets/lv_tabview.c ****     }
 2329              		.loc 1 620 0 is_stmt 1 discriminator 1
 2330 0044 0120     		movs	r0, #1
 2331 0046 BDE8F883 		pop	{r3, r4, r5, r6, r7, r8, r9, pc}
 2332              	.LVL377:
 2333              	.L169:
 616:lvgl\src\lv_widgets/lv_tabview.c ****         else if(info->part == LV_TABVIEW_PART_INDIC) info->result = lv_obj_get_state(ext->indic, LV
 2334              		.loc 1 616 0
 2335 004a 422B     		cmp	r3, #66
 2336 004c 07D1     		bne	.L170
 616:lvgl\src\lv_widgets/lv_tabview.c ****         else if(info->part == LV_TABVIEW_PART_INDIC) info->result = lv_obj_get_state(ext->indic, LV
 2337              		.loc 1 616 0 is_stmt 0 discriminator 1
 2338 004e 0121     		movs	r1, #1
 2339 0050 0068     		ldr	r0, [r0]
 2340              	.LVL378:
 2341 0052 FFF7FEFF 		bl	lv_obj_get_state
 2342              	.LVL379:
 2343 0056 7870     		strb	r0, [r7, #1]
 620:lvgl\src\lv_widgets/lv_tabview.c ****     }
 2344              		.loc 1 620 0 is_stmt 1 discriminator 1
 2345 0058 0120     		movs	r0, #1
 2346 005a BDE8F883 		pop	{r3, r4, r5, r6, r7, r8, r9, pc}
 2347              	.LVL380:
 2348              	.L170:
 617:lvgl\src\lv_widgets/lv_tabview.c ****         else if(info->part == LV_TABVIEW_PART_BG_SCRLLABLE) info->result = lv_obj_get_state(ext->co
 2349              		.loc 1 617 0
 2350 005e 432B     		cmp	r3, #67
 2351 0060 07D1     		bne	.L171
 617:lvgl\src\lv_widgets/lv_tabview.c ****         else if(info->part == LV_TABVIEW_PART_BG_SCRLLABLE) info->result = lv_obj_get_state(ext->co
 2352              		.loc 1 617 0 is_stmt 0 discriminator 1
 2353 0062 0021     		movs	r1, #0
 2354 0064 4068     		ldr	r0, [r0, #4]
 2355              	.LVL381:
 2356 0066 FFF7FEFF 		bl	lv_obj_get_state
 2357              	.LVL382:
 2358 006a 7870     		strb	r0, [r7, #1]
 620:lvgl\src\lv_widgets/lv_tabview.c ****     }
 2359              		.loc 1 620 0 is_stmt 1 discriminator 1
 2360 006c 0120     		movs	r0, #1
 2361 006e BDE8F883 		pop	{r3, r4, r5, r6, r7, r8, r9, pc}
ARM GAS  C:\Users\strap\AppData\Local\Temp\ccTzHSZB.s 			page 75


 2362              	.LVL383:
 2363              	.L171:
 618:lvgl\src\lv_widgets/lv_tabview.c ****                                                                                                 LV_
 2364              		.loc 1 618 0
 2365 0072 402B     		cmp	r3, #64
 2366 0074 40F0D580 		bne	.L189
 618:lvgl\src\lv_widgets/lv_tabview.c ****                                                                                                 LV_
 2367              		.loc 1 618 0 is_stmt 0 discriminator 1
 2368 0078 4021     		movs	r1, #64
 2369 007a 8068     		ldr	r0, [r0, #8]
 2370              	.LVL384:
 2371 007c FFF7FEFF 		bl	lv_obj_get_state
 2372              	.LVL385:
 2373 0080 7870     		strb	r0, [r7, #1]
 620:lvgl\src\lv_widgets/lv_tabview.c ****     }
 2374              		.loc 1 620 0 is_stmt 1 discriminator 1
 2375 0082 0120     		movs	r0, #1
 2376 0084 BDE8F883 		pop	{r3, r4, r5, r6, r7, r8, r9, pc}
 2377              	.LVL386:
 2378              	.L168:
 2379              	.LBE152:
 624:lvgl\src\lv_widgets/lv_tabview.c ****     if(res != LV_RES_OK) return res;
 2380              		.loc 1 624 0
 2381 0088 6B4B     		ldr	r3, .L196
 2382 008a 9B68     		ldr	r3, [r3, #8]
 2383 008c 9847     		blx	r3
 2384              	.LVL387:
 2385 008e 0646     		mov	r6, r0
 2386              	.LVL388:
 625:lvgl\src\lv_widgets/lv_tabview.c ****     if(sign == LV_SIGNAL_GET_TYPE) return lv_obj_handle_get_type_signal(param, LV_OBJX_NAME);
 2387              		.loc 1 625 0
 2388 0090 0128     		cmp	r0, #1
 2389 0092 40F0C980 		bne	.L190
 626:lvgl\src\lv_widgets/lv_tabview.c **** 
 2390              		.loc 1 626 0
 2391 0096 072D     		cmp	r5, #7
 2392 0098 05D1     		bne	.L172
 626:lvgl\src\lv_widgets/lv_tabview.c **** 
 2393              		.loc 1 626 0 is_stmt 0 discriminator 1
 2394 009a 6849     		ldr	r1, .L196+4
 2395 009c 3846     		mov	r0, r7
 2396              	.LVL389:
 2397 009e FFF7FEFF 		bl	lv_obj_handle_get_type_signal
 2398              	.LVL390:
 2399 00a2 BDE8F883 		pop	{r3, r4, r5, r6, r7, r8, r9, pc}
 2400              	.LVL391:
 2401              	.L172:
 628:lvgl\src\lv_widgets/lv_tabview.c ****     if(sign == LV_SIGNAL_CLEANUP) {
 2402              		.loc 1 628 0 is_stmt 1
 2403 00a6 4046     		mov	r0, r8
 2404              	.LVL392:
 2405 00a8 FFF7FEFF 		bl	lv_obj_get_ext_attr
 2406              	.LVL393:
 2407 00ac 8146     		mov	r9, r0
 2408              	.LVL394:
 629:lvgl\src\lv_widgets/lv_tabview.c ****         uint8_t i;
 2409              		.loc 1 629 0
ARM GAS  C:\Users\strap\AppData\Local\Temp\ccTzHSZB.s 			page 76


 2410 00ae 2DB1     		cbz	r5, .L191
 2411 00b0 18E0     		b	.L194
 2412              	.LVL395:
 2413              	.L176:
 2414              	.LBB153:
 631:lvgl\src\lv_widgets/lv_tabview.c **** 
 2415              		.loc 1 631 0 discriminator 4
 2416 00b2 FFF7FEFF 		bl	lv_mem_free
 2417              	.LVL396:
 2418 00b6 0134     		adds	r4, r4, #1
 2419              	.LVL397:
 2420 00b8 E4B2     		uxtb	r4, r4
 2421              	.LVL398:
 2422 00ba 00E0     		b	.L173
 2423              	.LVL399:
 2424              	.L191:
 2425              	.LBE153:
 2426 00bc 0024     		movs	r4, #0
 2427              	.LVL400:
 2428              	.L173:
 2429              	.LBB154:
 631:lvgl\src\lv_widgets/lv_tabview.c **** 
 2430              		.loc 1 631 0 is_stmt 0 discriminator 1
 2431 00be D9F80C20 		ldr	r2, [r9, #12]
 2432 00c2 52F82400 		ldr	r0, [r2, r4, lsl #2]
 2433 00c6 0378     		ldrb	r3, [r0]	@ zero_extendqisi2
 2434 00c8 0BB1     		cbz	r3, .L175
 631:lvgl\src\lv_widgets/lv_tabview.c **** 
 2435              		.loc 1 631 0 discriminator 3
 2436 00ca 0A2B     		cmp	r3, #10
 2437 00cc F1D1     		bne	.L176
 2438              	.L175:
 633:lvgl\src\lv_widgets/lv_tabview.c ****         ext->tab_name_ptr = NULL;
 2439              		.loc 1 633 0 is_stmt 1
 2440 00ce 1046     		mov	r0, r2
 2441 00d0 FFF7FEFF 		bl	lv_mem_free
 2442              	.LVL401:
 634:lvgl\src\lv_widgets/lv_tabview.c ****         ext->btns         = NULL; /*These objects were children so they are already invalid*/
 2443              		.loc 1 634 0
 2444 00d4 0023     		movs	r3, #0
 2445 00d6 C9F80C30 		str	r3, [r9, #12]
 635:lvgl\src\lv_widgets/lv_tabview.c ****         ext->content      = NULL;
 2446              		.loc 1 635 0
 2447 00da C9F80030 		str	r3, [r9]
 636:lvgl\src\lv_widgets/lv_tabview.c ****     }
 2448              		.loc 1 636 0
 2449 00de C9F80830 		str	r3, [r9, #8]
 2450              	.LBE154:
 2451 00e2 48E0     		b	.L177
 2452              	.LVL402:
 2453              	.L194:
 638:lvgl\src\lv_widgets/lv_tabview.c ****         /*Be sure the buttons are updated because correct button size is required in `tabview_reali
 2454              		.loc 1 638 0
 2455 00e4 042D     		cmp	r5, #4
 2456 00e6 08D1     		bne	.L178
 640:lvgl\src\lv_widgets/lv_tabview.c **** 
 2457              		.loc 1 640 0
ARM GAS  C:\Users\strap\AppData\Local\Temp\ccTzHSZB.s 			page 77


 2458 00e8 0022     		movs	r2, #0
 2459 00ea 0421     		movs	r1, #4
 2460 00ec 0068     		ldr	r0, [r0]
 2461              	.LVL403:
 2462 00ee FFF7FEFF 		bl	lv_signal_send
 2463              	.LVL404:
 642:lvgl\src\lv_widgets/lv_tabview.c ****     }
 2464              		.loc 1 642 0
 2465 00f2 4046     		mov	r0, r8
 2466 00f4 FFF7FEFF 		bl	tabview_realign
 2467              	.LVL405:
 2468 00f8 3DE0     		b	.L177
 2469              	.LVL406:
 2470              	.L178:
 644:lvgl\src\lv_widgets/lv_tabview.c ****         if(ext->content != NULL && (lv_obj_get_width(tabview) != lv_area_get_width(param) ||
 2471              		.loc 1 644 0
 2472 00fa 022D     		cmp	r5, #2
 2473 00fc 1DD1     		bne	.L179
 645:lvgl\src\lv_widgets/lv_tabview.c ****                                     lv_obj_get_height(tabview) != lv_area_get_height(param))) {
 2474              		.loc 1 645 0
 2475 00fe 8368     		ldr	r3, [r0, #8]
 2476 0100 CBB3     		cbz	r3, .L177
 645:lvgl\src\lv_widgets/lv_tabview.c ****                                     lv_obj_get_height(tabview) != lv_area_get_height(param))) {
 2477              		.loc 1 645 0 is_stmt 0 discriminator 1
 2478 0102 4046     		mov	r0, r8
 2479              	.LVL407:
 2480 0104 FFF7FEFF 		bl	lv_obj_get_width
 2481              	.LVL408:
 2482              	.LBB155:
 2483              	.LBB156:
 112:lvgl\src\lv_widgets\../lv_core/../lv_font/../lv_misc/lv_area.h **** }
 2484              		.loc 4 112 0 is_stmt 1 discriminator 1
 2485 0108 B7F90430 		ldrsh	r3, [r7, #4]
 2486 010c B7F90020 		ldrsh	r2, [r7]
 2487 0110 9B1A     		subs	r3, r3, r2
 2488 0112 0133     		adds	r3, r3, #1
 2489 0114 1BB2     		sxth	r3, r3
 2490              	.LVL409:
 2491              	.LBE156:
 2492              	.LBE155:
 645:lvgl\src\lv_widgets/lv_tabview.c ****                                     lv_obj_get_height(tabview) != lv_area_get_height(param))) {
 2493              		.loc 1 645 0 discriminator 1
 2494 0116 9842     		cmp	r0, r3
 2495 0118 0BD1     		bne	.L180
 646:lvgl\src\lv_widgets/lv_tabview.c ****             tabview_realign(tabview);
 2496              		.loc 1 646 0 discriminator 2
 2497 011a 4046     		mov	r0, r8
 2498 011c FFF7FEFF 		bl	lv_obj_get_height
 2499              	.LVL410:
 2500              	.LBB157:
 2501              	.LBB158:
 2502              		.loc 4 122 0 discriminator 2
 2503 0120 B7F90630 		ldrsh	r3, [r7, #6]
 2504 0124 B7F90220 		ldrsh	r2, [r7, #2]
 2505 0128 9B1A     		subs	r3, r3, r2
 2506 012a 0133     		adds	r3, r3, #1
 2507 012c 1BB2     		sxth	r3, r3
ARM GAS  C:\Users\strap\AppData\Local\Temp\ccTzHSZB.s 			page 78


 2508              	.LVL411:
 2509              	.LBE158:
 2510              	.LBE157:
 645:lvgl\src\lv_widgets/lv_tabview.c ****                                     lv_obj_get_height(tabview) != lv_area_get_height(param))) {
 2511              		.loc 1 645 0 discriminator 2
 2512 012e 9842     		cmp	r0, r3
 2513 0130 21D0     		beq	.L177
 2514              	.L180:
 647:lvgl\src\lv_widgets/lv_tabview.c ****         }
 2515              		.loc 1 647 0
 2516 0132 4046     		mov	r0, r8
 2517 0134 FFF7FEFF 		bl	tabview_realign
 2518              	.LVL412:
 2519 0138 1DE0     		b	.L177
 2520              	.LVL413:
 2521              	.L179:
 650:lvgl\src\lv_widgets/lv_tabview.c **** #if LV_USE_GROUP
 2522              		.loc 1 650 0
 2523 013a 0E2D     		cmp	r5, #14
 2524 013c 17D1     		bne	.L181
 2525              	.LBB159:
 654:lvgl\src\lv_widgets/lv_tabview.c ****         lv_indev_type_t indev_type = lv_indev_get_type(indev);
 2526              		.loc 1 654 0
 2527 013e FFF7FEFF 		bl	lv_indev_get_act
 2528              	.LVL414:
 655:lvgl\src\lv_widgets/lv_tabview.c ****         if(indev_type == LV_INDEV_TYPE_KEYPAD ||
 2529              		.loc 1 655 0
 2530 0142 FFF7FEFF 		bl	lv_indev_get_type
 2531              	.LVL415:
 656:lvgl\src\lv_widgets/lv_tabview.c ****            (indev_type == LV_INDEV_TYPE_ENCODER && lv_group_get_editing(lv_obj_get_group(tabview)))
 2532              		.loc 1 656 0
 2533 0146 0228     		cmp	r0, #2
 2534 0148 07D0     		beq	.L182
 656:lvgl\src\lv_widgets/lv_tabview.c ****            (indev_type == LV_INDEV_TYPE_ENCODER && lv_group_get_editing(lv_obj_get_group(tabview)))
 2535              		.loc 1 656 0 is_stmt 0 discriminator 1
 2536 014a 0428     		cmp	r0, #4
 2537 014c 13D1     		bne	.L177
 657:lvgl\src\lv_widgets/lv_tabview.c ****             lv_event_send(ext->btns, LV_EVENT_CLICKED, lv_event_get_data());
 2538              		.loc 1 657 0 is_stmt 1
 2539 014e 4046     		mov	r0, r8
 2540              	.LVL416:
 2541 0150 FFF7FEFF 		bl	lv_obj_get_group
 2542              	.LVL417:
 2543 0154 FFF7FEFF 		bl	lv_group_get_editing
 2544              	.LVL418:
 2545 0158 68B1     		cbz	r0, .L177
 2546              	.L182:
 658:lvgl\src\lv_widgets/lv_tabview.c ****         }
 2547              		.loc 1 658 0
 2548 015a D9F80040 		ldr	r4, [r9]
 2549 015e FFF7FEFF 		bl	lv_event_get_data
 2550              	.LVL419:
 2551 0162 0246     		mov	r2, r0
 2552 0164 0621     		movs	r1, #6
 2553 0166 2046     		mov	r0, r4
 2554 0168 FFF7FEFF 		bl	lv_event_send
 2555              	.LVL420:
ARM GAS  C:\Users\strap\AppData\Local\Temp\ccTzHSZB.s 			page 79


 2556 016c 03E0     		b	.L177
 2557              	.LVL421:
 2558              	.L181:
 2559              	.LBE159:
 662:lvgl\src\lv_widgets/lv_tabview.c **** #if LV_USE_GROUP
 2560              		.loc 1 662 0
 2561 016e 192D     		cmp	r5, #25
 2562 0170 01D1     		bne	.L177
 2563              	.LVL422:
 2564              	.LBB160:
 665:lvgl\src\lv_widgets/lv_tabview.c **** #endif
 2565              		.loc 1 665 0
 2566 0172 0123     		movs	r3, #1
 2567 0174 3B70     		strb	r3, [r7]
 2568              	.LVL423:
 2569              	.L177:
 2570              	.LBE160:
 669:lvgl\src\lv_widgets/lv_tabview.c **** #if LV_USE_GROUP
 2571              		.loc 1 669 0
 2572 0176 A5F11604 		sub	r4, r5, #22
 2573 017a E4B2     		uxtb	r4, r4
 2574 017c 022C     		cmp	r4, #2
 2575 017e 03D9     		bls	.L183
 671:lvgl\src\lv_widgets/lv_tabview.c **** #endif
 2576              		.loc 1 671 0
 2577 0180 0B2D     		cmp	r5, #11
 2578 0182 01D0     		beq	.L183
 673:lvgl\src\lv_widgets/lv_tabview.c **** 
 2579              		.loc 1 673 0
 2580 0184 0E2D     		cmp	r5, #14
 2581 0186 51D1     		bne	.L192
 2582              	.L183:
 677:lvgl\src\lv_widgets/lv_tabview.c **** 
 2583              		.loc 1 677 0
 2584 0188 D9F80000 		ldr	r0, [r9]
 2585 018c C369     		ldr	r3, [r0, #28]
 2586 018e 3A46     		mov	r2, r7
 2587 0190 2946     		mov	r1, r5
 2588 0192 9847     		blx	r3
 2589              	.LVL424:
 680:lvgl\src\lv_widgets/lv_tabview.c ****             lv_btnmatrix_set_focused_btn(ext->btns, ext->tab_cur);
 2590              		.loc 1 680 0
 2591 0194 162D     		cmp	r5, #22
 2592 0196 05D1     		bne	.L184
 681:lvgl\src\lv_widgets/lv_tabview.c ****         }
 2593              		.loc 1 681 0
 2594 0198 B9F81410 		ldrh	r1, [r9, #20]
 2595 019c D9F80000 		ldr	r0, [r9]
 2596 01a0 FFF7FEFF 		bl	lv_btnmatrix_set_focused_btn
 2597              	.LVL425:
 2598              	.L184:
 684:lvgl\src\lv_widgets/lv_tabview.c ****             lv_state_t state = lv_obj_get_state(tabview, LV_TABVIEW_PART_BG);
 2599              		.loc 1 684 0
 2600 01a4 012C     		cmp	r4, #1
 2601 01a6 44D8     		bhi	.L193
 2602              	.LBB161:
 685:lvgl\src\lv_widgets/lv_tabview.c ****             if(state & LV_STATE_FOCUSED) {
ARM GAS  C:\Users\strap\AppData\Local\Temp\ccTzHSZB.s 			page 80


 2603              		.loc 1 685 0
 2604 01a8 0021     		movs	r1, #0
 2605 01aa 4046     		mov	r0, r8
 2606 01ac FFF7FEFF 		bl	lv_obj_get_state
 2607              	.LVL426:
 2608 01b0 0446     		mov	r4, r0
 2609              	.LVL427:
 686:lvgl\src\lv_widgets/lv_tabview.c ****                 lv_obj_set_state(ext->btns, LV_STATE_FOCUSED);
 2610              		.loc 1 686 0
 2611 01b2 10F0020F 		tst	r0, #2
 2612 01b6 0AD0     		beq	.L185
 687:lvgl\src\lv_widgets/lv_tabview.c ****                 lv_obj_set_state(ext->indic, LV_STATE_FOCUSED);
 2613              		.loc 1 687 0
 2614 01b8 0221     		movs	r1, #2
 2615 01ba D9F80000 		ldr	r0, [r9]
 2616              	.LVL428:
 2617 01be FFF7FEFF 		bl	lv_obj_set_state
 2618              	.LVL429:
 688:lvgl\src\lv_widgets/lv_tabview.c ****             }
 2619              		.loc 1 688 0
 2620 01c2 0221     		movs	r1, #2
 2621 01c4 D9F80400 		ldr	r0, [r9, #4]
 2622 01c8 FFF7FEFF 		bl	lv_obj_set_state
 2623              	.LVL430:
 2624 01cc 09E0     		b	.L186
 2625              	.LVL431:
 2626              	.L185:
 691:lvgl\src\lv_widgets/lv_tabview.c ****                 lv_obj_clear_state(ext->indic, LV_STATE_FOCUSED);
 2627              		.loc 1 691 0
 2628 01ce 0221     		movs	r1, #2
 2629 01d0 D9F80000 		ldr	r0, [r9]
 2630              	.LVL432:
 2631 01d4 FFF7FEFF 		bl	lv_obj_clear_state
 2632              	.LVL433:
 692:lvgl\src\lv_widgets/lv_tabview.c **** 
 2633              		.loc 1 692 0
 2634 01d8 0221     		movs	r1, #2
 2635 01da D9F80400 		ldr	r0, [r9, #4]
 2636 01de FFF7FEFF 		bl	lv_obj_clear_state
 2637              	.LVL434:
 2638              	.L186:
 695:lvgl\src\lv_widgets/lv_tabview.c ****                 lv_obj_set_state(ext->btns, LV_STATE_EDITED);
 2639              		.loc 1 695 0
 2640 01e2 14F0040F 		tst	r4, #4
 2641 01e6 0CD0     		beq	.L187
 696:lvgl\src\lv_widgets/lv_tabview.c ****                 lv_obj_set_state(ext->indic, LV_STATE_EDITED);
 2642              		.loc 1 696 0
 2643 01e8 0421     		movs	r1, #4
 2644 01ea D9F80000 		ldr	r0, [r9]
 2645 01ee FFF7FEFF 		bl	lv_obj_set_state
 2646              	.LVL435:
 697:lvgl\src\lv_widgets/lv_tabview.c ****             }
 2647              		.loc 1 697 0
 2648 01f2 0421     		movs	r1, #4
 2649 01f4 D9F80400 		ldr	r0, [r9, #4]
 2650 01f8 FFF7FEFF 		bl	lv_obj_set_state
 2651              	.LVL436:
ARM GAS  C:\Users\strap\AppData\Local\Temp\ccTzHSZB.s 			page 81


 2652              	.LBE161:
 707:lvgl\src\lv_widgets/lv_tabview.c **** }
 2653              		.loc 1 707 0
 2654 01fc 3046     		mov	r0, r6
 2655              	.LBB162:
 2656 01fe BDE8F883 		pop	{r3, r4, r5, r6, r7, r8, r9, pc}
 2657              	.LVL437:
 2658              	.L187:
 700:lvgl\src\lv_widgets/lv_tabview.c ****                 lv_obj_clear_state(ext->indic, LV_STATE_EDITED);
 2659              		.loc 1 700 0
 2660 0202 0421     		movs	r1, #4
 2661 0204 D9F80000 		ldr	r0, [r9]
 2662 0208 FFF7FEFF 		bl	lv_obj_clear_state
 2663              	.LVL438:
 701:lvgl\src\lv_widgets/lv_tabview.c **** 
 2664              		.loc 1 701 0
 2665 020c 0421     		movs	r1, #4
 2666 020e D9F80400 		ldr	r0, [r9, #4]
 2667 0212 FFF7FEFF 		bl	lv_obj_clear_state
 2668              	.LVL439:
 2669              	.LBE162:
 707:lvgl\src\lv_widgets/lv_tabview.c **** }
 2670              		.loc 1 707 0
 2671 0216 3046     		mov	r0, r6
 2672 0218 BDE8F883 		pop	{r3, r4, r5, r6, r7, r8, r9, pc}
 2673              	.LVL440:
 2674              	.L188:
 2675              	.LBB163:
 609:lvgl\src\lv_widgets/lv_tabview.c ****         else return ancestor_signal(tabview, sign, param);
 2676              		.loc 1 609 0
 2677 021c 0120     		movs	r0, #1
 2678 021e BDE8F883 		pop	{r3, r4, r5, r6, r7, r8, r9, pc}
 2679              	.LVL441:
 2680              	.L189:
 2681              	.LBE163:
 2682              	.LBB164:
 620:lvgl\src\lv_widgets/lv_tabview.c ****     }
 2683              		.loc 1 620 0
 2684 0222 0120     		movs	r0, #1
 2685              	.LVL442:
 2686 0224 BDE8F883 		pop	{r3, r4, r5, r6, r7, r8, r9, pc}
 2687              	.LVL443:
 2688              	.L190:
 2689 0228 BDE8F883 		pop	{r3, r4, r5, r6, r7, r8, r9, pc}
 2690              	.LVL444:
 2691              	.L192:
 2692              	.LBE164:
 707:lvgl\src\lv_widgets/lv_tabview.c **** }
 2693              		.loc 1 707 0
 2694 022c 3046     		mov	r0, r6
 2695 022e BDE8F883 		pop	{r3, r4, r5, r6, r7, r8, r9, pc}
 2696              	.LVL445:
 2697              	.L193:
 2698 0232 3046     		mov	r0, r6
 708:lvgl\src\lv_widgets/lv_tabview.c **** 
 2699              		.loc 1 708 0
 2700 0234 BDE8F883 		pop	{r3, r4, r5, r6, r7, r8, r9, pc}
ARM GAS  C:\Users\strap\AppData\Local\Temp\ccTzHSZB.s 			page 82


 2701              	.LVL446:
 2702              	.L197:
 2703              		.align	2
 2704              	.L196:
 2705 0238 00000000 		.word	.LANCHOR0
 2706 023c 24000000 		.word	.LC3
 2707              		.cfi_endproc
 2708              	.LFE369:
 2709              		.size	lv_tabview_signal, .-lv_tabview_signal
 2710              		.section	.text.lv_tabview_set_btns_pos,"ax",%progbits
 2711              		.align	2
 2712              		.global	lv_tabview_set_btns_pos
 2713              		.thumb
 2714              		.thumb_func
 2715              		.type	lv_tabview_set_btns_pos, %function
 2716              	lv_tabview_set_btns_pos:
 2717              	.LFB363:
 490:lvgl\src\lv_widgets/lv_tabview.c ****     if(btns_pos != LV_TABVIEW_TAB_POS_NONE &&
 2718              		.loc 1 490 0
 2719              		.cfi_startproc
 2720              		@ args = 0, pretend = 0, frame = 0
 2721              		@ frame_needed = 0, uses_anonymous_args = 0
 2722              	.LVL447:
 491:lvgl\src\lv_widgets/lv_tabview.c ****        btns_pos != LV_TABVIEW_TAB_POS_TOP &&
 2723              		.loc 1 491 0
 2724 0000 0429     		cmp	r1, #4
 2725 0002 16D8     		bhi	.L203
 490:lvgl\src\lv_widgets/lv_tabview.c ****     if(btns_pos != LV_TABVIEW_TAB_POS_NONE &&
 2726              		.loc 1 490 0
 2727 0004 38B5     		push	{r3, r4, r5, lr}
 2728              		.cfi_def_cfa_offset 16
 2729              		.cfi_offset 3, -16
 2730              		.cfi_offset 4, -12
 2731              		.cfi_offset 5, -8
 2732              		.cfi_offset 14, -4
 2733 0006 0D46     		mov	r5, r1
 2734 0008 0446     		mov	r4, r0
 499:lvgl\src\lv_widgets/lv_tabview.c **** 
 2735              		.loc 1 499 0
 2736 000a FFF7FEFF 		bl	lv_debug_check_null
 2737              	.LVL448:
 2738 000e 28B9     		cbnz	r0, .L200
 499:lvgl\src\lv_widgets/lv_tabview.c **** 
 2739              		.loc 1 499 0 is_stmt 0 discriminator 1
 2740 0010 2246     		mov	r2, r4
 2741 0012 0023     		movs	r3, #0
 2742 0014 0748     		ldr	r0, .L204
 2743 0016 FFF7FEFF 		bl	lv_debug_log_error
 2744              	.LVL449:
 2745              	.L201:
 2746 001a FEE7     		b	.L201
 2747              	.L200:
 501:lvgl\src\lv_widgets/lv_tabview.c **** 
 2748              		.loc 1 501 0 is_stmt 1
 2749 001c 2046     		mov	r0, r4
 2750 001e FFF7FEFF 		bl	lv_obj_get_ext_attr
 2751              	.LVL450:
ARM GAS  C:\Users\strap\AppData\Local\Temp\ccTzHSZB.s 			page 83


 503:lvgl\src\lv_widgets/lv_tabview.c ****     tabview_realign(tabview);
 2752              		.loc 1 503 0
 2753 0022 837E     		ldrb	r3, [r0, #26]	@ zero_extendqisi2
 2754 0024 65F30203 		bfi	r3, r5, #0, #3
 2755 0028 8376     		strb	r3, [r0, #26]
 504:lvgl\src\lv_widgets/lv_tabview.c **** }
 2756              		.loc 1 504 0
 2757 002a 2046     		mov	r0, r4
 2758              	.LVL451:
 2759 002c FFF7FEFF 		bl	tabview_realign
 2760              	.LVL452:
 2761 0030 38BD     		pop	{r3, r4, r5, pc}
 2762              	.LVL453:
 2763              	.L203:
 2764              		.cfi_def_cfa_offset 0
 2765              		.cfi_restore 3
 2766              		.cfi_restore 4
 2767              		.cfi_restore 5
 2768              		.cfi_restore 14
 2769 0032 7047     		bx	lr
 2770              	.L205:
 2771              		.align	2
 2772              	.L204:
 2773 0034 00000000 		.word	.LC0
 2774              		.cfi_endproc
 2775              	.LFE363:
 2776              		.size	lv_tabview_set_btns_pos, .-lv_tabview_set_btns_pos
 2777              		.section	.text.lv_tabview_add_tab,"ax",%progbits
 2778              		.align	2
 2779              		.global	lv_tabview_add_tab
 2780              		.thumb
 2781              		.thumb_func
 2782              		.type	lv_tabview_add_tab, %function
 2783              	lv_tabview_add_tab:
 2784              	.LFB358:
 208:lvgl\src\lv_widgets/lv_tabview.c ****     LV_ASSERT_OBJ(tabview, LV_OBJX_NAME);
 2785              		.loc 1 208 0
 2786              		.cfi_startproc
 2787              		@ args = 0, pretend = 0, frame = 0
 2788              		@ frame_needed = 0, uses_anonymous_args = 0
 2789              	.LVL454:
 2790 0000 2DE9F041 		push	{r4, r5, r6, r7, r8, lr}
 2791              		.cfi_def_cfa_offset 24
 2792              		.cfi_offset 4, -24
 2793              		.cfi_offset 5, -20
 2794              		.cfi_offset 6, -16
 2795              		.cfi_offset 7, -12
 2796              		.cfi_offset 8, -8
 2797              		.cfi_offset 14, -4
 2798 0004 82B0     		sub	sp, sp, #8
 2799              		.cfi_def_cfa_offset 32
 2800 0006 0746     		mov	r7, r0
 2801 0008 8846     		mov	r8, r1
 209:lvgl\src\lv_widgets/lv_tabview.c ****     LV_ASSERT_STR(name);
 2802              		.loc 1 209 0
 2803 000a FFF7FEFF 		bl	lv_debug_check_null
 2804              	.LVL455:
ARM GAS  C:\Users\strap\AppData\Local\Temp\ccTzHSZB.s 			page 84


 2805 000e 28B9     		cbnz	r0, .L207
 209:lvgl\src\lv_widgets/lv_tabview.c ****     LV_ASSERT_STR(name);
 2806              		.loc 1 209 0 is_stmt 0 discriminator 1
 2807 0010 3A46     		mov	r2, r7
 2808 0012 0023     		movs	r3, #0
 2809 0014 6548     		ldr	r0, .L229
 2810 0016 FFF7FEFF 		bl	lv_debug_log_error
 2811              	.LVL456:
 2812              	.L208:
 2813 001a FEE7     		b	.L208
 2814              	.L207:
 210:lvgl\src\lv_widgets/lv_tabview.c **** 
 2815              		.loc 1 210 0 is_stmt 1
 2816 001c 4046     		mov	r0, r8
 2817 001e FFF7FEFF 		bl	lv_debug_check_null
 2818              	.LVL457:
 2819 0022 28B9     		cbnz	r0, .L209
 210:lvgl\src\lv_widgets/lv_tabview.c **** 
 2820              		.loc 1 210 0 is_stmt 0 discriminator 1
 2821 0024 4246     		mov	r2, r8
 2822 0026 0023     		movs	r3, #0
 2823 0028 6048     		ldr	r0, .L229
 2824 002a FFF7FEFF 		bl	lv_debug_log_error
 2825              	.LVL458:
 2826              	.L210:
 2827 002e FEE7     		b	.L210
 2828              	.L209:
 212:lvgl\src\lv_widgets/lv_tabview.c **** 
 2829              		.loc 1 212 0 is_stmt 1
 2830 0030 3846     		mov	r0, r7
 2831 0032 FFF7FEFF 		bl	lv_obj_get_ext_attr
 2832              	.LVL459:
 2833 0036 0446     		mov	r4, r0
 2834              	.LVL460:
 215:lvgl\src\lv_widgets/lv_tabview.c ****     lv_obj_set_size(h, lv_obj_get_width(tabview), lv_obj_get_height(ext->content));
 2835              		.loc 1 215 0
 2836 0038 0021     		movs	r1, #0
 2837 003a 8068     		ldr	r0, [r0, #8]
 2838              	.LVL461:
 2839 003c FFF7FEFF 		bl	lv_page_create
 2840              	.LVL462:
 2841 0040 0546     		mov	r5, r0
 2842              	.LVL463:
 216:lvgl\src\lv_widgets/lv_tabview.c ****     lv_page_set_scrollbar_mode(h, LV_SCROLLBAR_MODE_AUTO);
 2843              		.loc 1 216 0
 2844 0042 3846     		mov	r0, r7
 2845              	.LVL464:
 2846 0044 FFF7FEFF 		bl	lv_obj_get_width
 2847              	.LVL465:
 2848 0048 0646     		mov	r6, r0
 2849 004a A068     		ldr	r0, [r4, #8]
 2850 004c FFF7FEFF 		bl	lv_obj_get_height
 2851              	.LVL466:
 2852 0050 0246     		mov	r2, r0
 2853 0052 3146     		mov	r1, r6
 2854 0054 2846     		mov	r0, r5
 2855 0056 FFF7FEFF 		bl	lv_obj_set_size
ARM GAS  C:\Users\strap\AppData\Local\Temp\ccTzHSZB.s 			page 85


 2856              	.LVL467:
 217:lvgl\src\lv_widgets/lv_tabview.c ****     lv_page_set_scroll_propagation(h, true);
 2857              		.loc 1 217 0
 2858 005a 0321     		movs	r1, #3
 2859 005c 2846     		mov	r0, r5
 2860 005e FFF7FEFF 		bl	lv_page_set_scrollbar_mode
 2861              	.LVL468:
 218:lvgl\src\lv_widgets/lv_tabview.c ****     lv_page_set_scrollable_fit4(h, LV_FIT_NONE, LV_FIT_MAX, LV_FIT_NONE, LV_FIT_MAX);
 2862              		.loc 1 218 0
 2863 0062 0121     		movs	r1, #1
 2864 0064 2846     		mov	r0, r5
 2865 0066 FFF7FEFF 		bl	lv_page_set_scroll_propagation
 2866              	.LVL469:
 2867              	.LBB165:
 2868              	.LBB166:
 2869              		.file 6 "lvgl\\src\\lv_widgets\\../lv_widgets/lv_page.h"
   1:lvgl\src\lv_widgets\../lv_widgets/lv_page.h **** /**
   2:lvgl\src\lv_widgets\../lv_widgets/lv_page.h ****  * @file lv_page.h
   3:lvgl\src\lv_widgets\../lv_widgets/lv_page.h ****  *
   4:lvgl\src\lv_widgets\../lv_widgets/lv_page.h ****  */
   5:lvgl\src\lv_widgets\../lv_widgets/lv_page.h **** 
   6:lvgl\src\lv_widgets\../lv_widgets/lv_page.h **** #ifndef LV_PAGE_H
   7:lvgl\src\lv_widgets\../lv_widgets/lv_page.h **** #define LV_PAGE_H
   8:lvgl\src\lv_widgets\../lv_widgets/lv_page.h **** 
   9:lvgl\src\lv_widgets\../lv_widgets/lv_page.h **** #ifdef __cplusplus
  10:lvgl\src\lv_widgets\../lv_widgets/lv_page.h **** extern "C" {
  11:lvgl\src\lv_widgets\../lv_widgets/lv_page.h **** #endif
  12:lvgl\src\lv_widgets\../lv_widgets/lv_page.h **** 
  13:lvgl\src\lv_widgets\../lv_widgets/lv_page.h **** /*********************
  14:lvgl\src\lv_widgets\../lv_widgets/lv_page.h ****  *      INCLUDES
  15:lvgl\src\lv_widgets\../lv_widgets/lv_page.h ****  *********************/
  16:lvgl\src\lv_widgets\../lv_widgets/lv_page.h **** #include "../lv_conf_internal.h"
  17:lvgl\src\lv_widgets\../lv_widgets/lv_page.h **** 
  18:lvgl\src\lv_widgets\../lv_widgets/lv_page.h **** #if LV_USE_PAGE != 0
  19:lvgl\src\lv_widgets\../lv_widgets/lv_page.h **** 
  20:lvgl\src\lv_widgets\../lv_widgets/lv_page.h **** /*Testing of dependencies*/
  21:lvgl\src\lv_widgets\../lv_widgets/lv_page.h **** #if LV_USE_CONT == 0
  22:lvgl\src\lv_widgets\../lv_widgets/lv_page.h **** #error "lv_page: lv_cont is required. Enable it in lv_conf.h (LV_USE_CONT  1) "
  23:lvgl\src\lv_widgets\../lv_widgets/lv_page.h **** #endif
  24:lvgl\src\lv_widgets\../lv_widgets/lv_page.h **** 
  25:lvgl\src\lv_widgets\../lv_widgets/lv_page.h **** #include "lv_cont.h"
  26:lvgl\src\lv_widgets\../lv_widgets/lv_page.h **** #include "../lv_core/lv_indev.h"
  27:lvgl\src\lv_widgets\../lv_widgets/lv_page.h **** #include "../lv_misc/lv_anim.h"
  28:lvgl\src\lv_widgets\../lv_widgets/lv_page.h **** 
  29:lvgl\src\lv_widgets\../lv_widgets/lv_page.h **** /*********************
  30:lvgl\src\lv_widgets\../lv_widgets/lv_page.h ****  *      DEFINES
  31:lvgl\src\lv_widgets\../lv_widgets/lv_page.h ****  *********************/
  32:lvgl\src\lv_widgets\../lv_widgets/lv_page.h **** 
  33:lvgl\src\lv_widgets\../lv_widgets/lv_page.h **** /**********************
  34:lvgl\src\lv_widgets\../lv_widgets/lv_page.h ****  *      TYPEDEFS
  35:lvgl\src\lv_widgets\../lv_widgets/lv_page.h ****  **********************/
  36:lvgl\src\lv_widgets\../lv_widgets/lv_page.h **** 
  37:lvgl\src\lv_widgets\../lv_widgets/lv_page.h **** /** Scrollbar modes: shows when should the scrollbars be visible*/
  38:lvgl\src\lv_widgets\../lv_widgets/lv_page.h **** enum {
  39:lvgl\src\lv_widgets\../lv_widgets/lv_page.h ****     LV_SCROLLBAR_MODE_OFF    = 0x0, /**< Never show scroll bars*/
  40:lvgl\src\lv_widgets\../lv_widgets/lv_page.h ****     LV_SCROLLBAR_MODE_ON     = 0x1, /**< Always show scroll bars*/
  41:lvgl\src\lv_widgets\../lv_widgets/lv_page.h ****     LV_SCROLLBAR_MODE_DRAG   = 0x2, /**< Show scroll bars when page is being dragged*/
ARM GAS  C:\Users\strap\AppData\Local\Temp\ccTzHSZB.s 			page 86


  42:lvgl\src\lv_widgets\../lv_widgets/lv_page.h ****     LV_SCROLLBAR_MODE_AUTO   = 0x3, /**< Show scroll bars when the scrollable container is large en
  43:lvgl\src\lv_widgets\../lv_widgets/lv_page.h ****     LV_SCROLLBAR_MODE_HIDE   = 0x4, /**< Hide the scroll bar temporally*/
  44:lvgl\src\lv_widgets\../lv_widgets/lv_page.h ****     LV_SCROLLBAR_MODE_UNHIDE = 0x8, /**< Unhide the previously hidden scroll bar. Recover original 
  45:lvgl\src\lv_widgets\../lv_widgets/lv_page.h **** };
  46:lvgl\src\lv_widgets\../lv_widgets/lv_page.h **** typedef uint8_t lv_scrollbar_mode_t;
  47:lvgl\src\lv_widgets\../lv_widgets/lv_page.h **** 
  48:lvgl\src\lv_widgets\../lv_widgets/lv_page.h **** /** Edges: describes the four edges of the page*/
  49:lvgl\src\lv_widgets\../lv_widgets/lv_page.h **** enum { LV_PAGE_EDGE_LEFT = 0x1, LV_PAGE_EDGE_TOP = 0x2, LV_PAGE_EDGE_RIGHT = 0x4, LV_PAGE_EDGE_BOTT
  50:lvgl\src\lv_widgets\../lv_widgets/lv_page.h **** typedef uint8_t lv_page_edge_t;
  51:lvgl\src\lv_widgets\../lv_widgets/lv_page.h **** 
  52:lvgl\src\lv_widgets\../lv_widgets/lv_page.h **** /*Data of page*/
  53:lvgl\src\lv_widgets\../lv_widgets/lv_page.h **** typedef struct {
  54:lvgl\src\lv_widgets\../lv_widgets/lv_page.h ****     lv_cont_ext_t bg; /*Ext. of ancestor*/
  55:lvgl\src\lv_widgets\../lv_widgets/lv_page.h ****     /*New data for this type */
  56:lvgl\src\lv_widgets\../lv_widgets/lv_page.h ****     lv_obj_t * scrl; /*The scrollable object on the background*/
  57:lvgl\src\lv_widgets\../lv_widgets/lv_page.h ****     struct {
  58:lvgl\src\lv_widgets\../lv_widgets/lv_page.h ****         lv_style_list_t style; /*Style of scrollbars*/
  59:lvgl\src\lv_widgets\../lv_widgets/lv_page.h ****         lv_area_t hor_area;       /*Horizontal scrollbar area relative to the page. (Handled by the
  60:lvgl\src\lv_widgets\../lv_widgets/lv_page.h ****         lv_area_t ver_area;       /*Vertical scrollbar area relative to the page (Handled by the li
  61:lvgl\src\lv_widgets\../lv_widgets/lv_page.h ****         uint8_t hor_draw : 1;     /*1: horizontal scrollbar is visible now (Handled by the library)
  62:lvgl\src\lv_widgets\../lv_widgets/lv_page.h ****         uint8_t ver_draw : 1;     /*1: vertical scrollbar is visible now (Handled by the library)*/
  63:lvgl\src\lv_widgets\../lv_widgets/lv_page.h ****         lv_scrollbar_mode_t mode : 3;    /*Scrollbar visibility from 'lv_scrollbar_mode_t'*/
  64:lvgl\src\lv_widgets\../lv_widgets/lv_page.h ****     } scrlbar;
  65:lvgl\src\lv_widgets\../lv_widgets/lv_page.h **** #if LV_USE_ANIMATION
  66:lvgl\src\lv_widgets\../lv_widgets/lv_page.h ****     struct {
  67:lvgl\src\lv_widgets\../lv_widgets/lv_page.h ****         lv_anim_value_t state;    /*Store the current size of the edge flash effect*/
  68:lvgl\src\lv_widgets\../lv_widgets/lv_page.h ****         lv_style_list_t style; /*Style of edge flash effect (usually homogeneous circle)*/
  69:lvgl\src\lv_widgets\../lv_widgets/lv_page.h ****         uint8_t enabled : 1;      /*1: Show a flash animation on the edge*/
  70:lvgl\src\lv_widgets\../lv_widgets/lv_page.h ****         uint8_t top_ip : 1;       /*Used internally to show that top most position is reached (flas
  71:lvgl\src\lv_widgets\../lv_widgets/lv_page.h ****                                      Progress)*/
  72:lvgl\src\lv_widgets\../lv_widgets/lv_page.h ****         uint8_t bottom_ip : 1;    /*Used internally to show that bottom most position is reached (f
  73:lvgl\src\lv_widgets\../lv_widgets/lv_page.h ****                                      is In Progress)*/
  74:lvgl\src\lv_widgets\../lv_widgets/lv_page.h ****         uint8_t right_ip : 1;     /*Used internally to show that right most position is reached (fl
  75:lvgl\src\lv_widgets\../lv_widgets/lv_page.h ****                                      is In Progress)*/
  76:lvgl\src\lv_widgets\../lv_widgets/lv_page.h ****         uint8_t left_ip : 1;      /*Used internally to show that left most position is reached (fla
  77:lvgl\src\lv_widgets\../lv_widgets/lv_page.h ****                                      In Progress)*/
  78:lvgl\src\lv_widgets\../lv_widgets/lv_page.h ****     } edge_flash;
  79:lvgl\src\lv_widgets\../lv_widgets/lv_page.h **** 
  80:lvgl\src\lv_widgets\../lv_widgets/lv_page.h ****     uint16_t anim_time; /*Scroll animation time*/
  81:lvgl\src\lv_widgets\../lv_widgets/lv_page.h **** #endif
  82:lvgl\src\lv_widgets\../lv_widgets/lv_page.h ****     lv_obj_t * scroll_prop_obj;          /*Pointer to child page from where the scroll is being pro
  83:lvgl\src\lv_widgets\../lv_widgets/lv_page.h ****     uint8_t scroll_prop : 1;   /*The direction of the scroll propagation*/
  84:lvgl\src\lv_widgets\../lv_widgets/lv_page.h **** } lv_page_ext_t;
  85:lvgl\src\lv_widgets\../lv_widgets/lv_page.h **** 
  86:lvgl\src\lv_widgets\../lv_widgets/lv_page.h **** enum {
  87:lvgl\src\lv_widgets\../lv_widgets/lv_page.h ****     LV_PAGE_PART_BG = LV_CONT_PART_MAIN,
  88:lvgl\src\lv_widgets\../lv_widgets/lv_page.h ****     LV_PAGE_PART_SCROLLBAR = _LV_OBJ_PART_VIRTUAL_LAST,
  89:lvgl\src\lv_widgets\../lv_widgets/lv_page.h ****     LV_PAGE_PART_EDGE_FLASH,
  90:lvgl\src\lv_widgets\../lv_widgets/lv_page.h ****     _LV_PAGE_PART_VIRTUAL_LAST,
  91:lvgl\src\lv_widgets\../lv_widgets/lv_page.h **** 
  92:lvgl\src\lv_widgets\../lv_widgets/lv_page.h ****     LV_PAGE_PART_SCROLLABLE = _LV_OBJ_PART_REAL_LAST,
  93:lvgl\src\lv_widgets\../lv_widgets/lv_page.h ****     _LV_PAGE_PART_REAL_LAST,
  94:lvgl\src\lv_widgets\../lv_widgets/lv_page.h **** };
  95:lvgl\src\lv_widgets\../lv_widgets/lv_page.h **** typedef uint8_t lv_part_style_t;
  96:lvgl\src\lv_widgets\../lv_widgets/lv_page.h **** 
  97:lvgl\src\lv_widgets\../lv_widgets/lv_page.h **** /**********************
  98:lvgl\src\lv_widgets\../lv_widgets/lv_page.h ****  * GLOBAL PROTOTYPES
ARM GAS  C:\Users\strap\AppData\Local\Temp\ccTzHSZB.s 			page 87


  99:lvgl\src\lv_widgets\../lv_widgets/lv_page.h ****  **********************/
 100:lvgl\src\lv_widgets\../lv_widgets/lv_page.h **** 
 101:lvgl\src\lv_widgets\../lv_widgets/lv_page.h **** /**
 102:lvgl\src\lv_widgets\../lv_widgets/lv_page.h ****  * Create a page objects
 103:lvgl\src\lv_widgets\../lv_widgets/lv_page.h ****  * @param par pointer to an object, it will be the parent of the new page
 104:lvgl\src\lv_widgets\../lv_widgets/lv_page.h ****  * @param copy pointer to a page object, if not NULL then the new object will be copied from it
 105:lvgl\src\lv_widgets\../lv_widgets/lv_page.h ****  * @return pointer to the created page
 106:lvgl\src\lv_widgets\../lv_widgets/lv_page.h ****  */
 107:lvgl\src\lv_widgets\../lv_widgets/lv_page.h **** lv_obj_t * lv_page_create(lv_obj_t * par, const lv_obj_t * copy);
 108:lvgl\src\lv_widgets\../lv_widgets/lv_page.h **** 
 109:lvgl\src\lv_widgets\../lv_widgets/lv_page.h **** /**
 110:lvgl\src\lv_widgets\../lv_widgets/lv_page.h ****  * Delete all children of the scrl object, without deleting scrl child.
 111:lvgl\src\lv_widgets\../lv_widgets/lv_page.h ****  * @param page pointer to an object
 112:lvgl\src\lv_widgets\../lv_widgets/lv_page.h ****  */
 113:lvgl\src\lv_widgets\../lv_widgets/lv_page.h **** void lv_page_clean(lv_obj_t * page);
 114:lvgl\src\lv_widgets\../lv_widgets/lv_page.h **** 
 115:lvgl\src\lv_widgets\../lv_widgets/lv_page.h **** /**
 116:lvgl\src\lv_widgets\../lv_widgets/lv_page.h ****  * Get the scrollable object of a page
 117:lvgl\src\lv_widgets\../lv_widgets/lv_page.h ****  * @param page pointer to a page object
 118:lvgl\src\lv_widgets\../lv_widgets/lv_page.h ****  * @return pointer to a container which is the scrollable part of the page
 119:lvgl\src\lv_widgets\../lv_widgets/lv_page.h ****  */
 120:lvgl\src\lv_widgets\../lv_widgets/lv_page.h **** lv_obj_t * lv_page_get_scrollable(const lv_obj_t * page);
 121:lvgl\src\lv_widgets\../lv_widgets/lv_page.h **** 
 122:lvgl\src\lv_widgets\../lv_widgets/lv_page.h **** /**
 123:lvgl\src\lv_widgets\../lv_widgets/lv_page.h ****  * Get the animation time
 124:lvgl\src\lv_widgets\../lv_widgets/lv_page.h ****  * @param page pointer to a page object
 125:lvgl\src\lv_widgets\../lv_widgets/lv_page.h ****  * @return the animation time in milliseconds
 126:lvgl\src\lv_widgets\../lv_widgets/lv_page.h ****  */
 127:lvgl\src\lv_widgets\../lv_widgets/lv_page.h **** uint16_t lv_page_get_anim_time(const lv_obj_t * page);
 128:lvgl\src\lv_widgets\../lv_widgets/lv_page.h **** 
 129:lvgl\src\lv_widgets\../lv_widgets/lv_page.h **** /*=====================
 130:lvgl\src\lv_widgets\../lv_widgets/lv_page.h ****  * Setter functions
 131:lvgl\src\lv_widgets\../lv_widgets/lv_page.h ****  *====================*/
 132:lvgl\src\lv_widgets\../lv_widgets/lv_page.h **** 
 133:lvgl\src\lv_widgets\../lv_widgets/lv_page.h **** /**
 134:lvgl\src\lv_widgets\../lv_widgets/lv_page.h ****  * Set the scroll bar mode on a page
 135:lvgl\src\lv_widgets\../lv_widgets/lv_page.h ****  * @param page pointer to a page object
 136:lvgl\src\lv_widgets\../lv_widgets/lv_page.h ****  * @param sb_mode the new mode from 'lv_page_sb.mode_t' enum
 137:lvgl\src\lv_widgets\../lv_widgets/lv_page.h ****  */
 138:lvgl\src\lv_widgets\../lv_widgets/lv_page.h **** void lv_page_set_scrollbar_mode(lv_obj_t * page, lv_scrollbar_mode_t sb_mode);
 139:lvgl\src\lv_widgets\../lv_widgets/lv_page.h **** 
 140:lvgl\src\lv_widgets\../lv_widgets/lv_page.h **** /**
 141:lvgl\src\lv_widgets\../lv_widgets/lv_page.h ****  * Set the animation time for the page
 142:lvgl\src\lv_widgets\../lv_widgets/lv_page.h ****  * @param page pointer to a page object
 143:lvgl\src\lv_widgets\../lv_widgets/lv_page.h ****  * @param anim_time animation time in milliseconds
 144:lvgl\src\lv_widgets\../lv_widgets/lv_page.h ****  */
 145:lvgl\src\lv_widgets\../lv_widgets/lv_page.h **** void lv_page_set_anim_time(lv_obj_t * page, uint16_t anim_time);
 146:lvgl\src\lv_widgets\../lv_widgets/lv_page.h **** 
 147:lvgl\src\lv_widgets\../lv_widgets/lv_page.h **** /**
 148:lvgl\src\lv_widgets\../lv_widgets/lv_page.h ****  * Enable the scroll propagation feature. If enabled then the page will move its parent if there is
 149:lvgl\src\lv_widgets\../lv_widgets/lv_page.h ****  * no more space to scroll.
 150:lvgl\src\lv_widgets\../lv_widgets/lv_page.h ****  * The page needs to have a page-like parent (e.g. `lv_page`, `lv_tabview` tab, `lv_win` content ar
 151:lvgl\src\lv_widgets\../lv_widgets/lv_page.h ****  * If enabled drag direction will be changed `LV_DRAG_DIR_ONE` automatically to allow scrolling onl
 152:lvgl\src\lv_widgets\../lv_widgets/lv_page.h ****  * @param page pointer to a Page
 153:lvgl\src\lv_widgets\../lv_widgets/lv_page.h ****  * @param en true or false to enable/disable scroll propagation
 154:lvgl\src\lv_widgets\../lv_widgets/lv_page.h ****  */
 155:lvgl\src\lv_widgets\../lv_widgets/lv_page.h **** void lv_page_set_scroll_propagation(lv_obj_t * page, bool en);
ARM GAS  C:\Users\strap\AppData\Local\Temp\ccTzHSZB.s 			page 88


 156:lvgl\src\lv_widgets\../lv_widgets/lv_page.h **** 
 157:lvgl\src\lv_widgets\../lv_widgets/lv_page.h **** /**
 158:lvgl\src\lv_widgets\../lv_widgets/lv_page.h ****  * Enable the edge flash effect. (Show an arc when the an edge is reached)
 159:lvgl\src\lv_widgets\../lv_widgets/lv_page.h ****  * @param page pointer to a Page
 160:lvgl\src\lv_widgets\../lv_widgets/lv_page.h ****  * @param en true or false to enable/disable end flash
 161:lvgl\src\lv_widgets\../lv_widgets/lv_page.h ****  */
 162:lvgl\src\lv_widgets\../lv_widgets/lv_page.h **** void lv_page_set_edge_flash(lv_obj_t * page, bool en);
 163:lvgl\src\lv_widgets\../lv_widgets/lv_page.h **** 
 164:lvgl\src\lv_widgets\../lv_widgets/lv_page.h **** /**
 165:lvgl\src\lv_widgets\../lv_widgets/lv_page.h ****  * Set the fit policy in all 4 directions separately.
 166:lvgl\src\lv_widgets\../lv_widgets/lv_page.h ****  * It tell how to change the page size automatically.
 167:lvgl\src\lv_widgets\../lv_widgets/lv_page.h ****  * @param page pointer to a page object
 168:lvgl\src\lv_widgets\../lv_widgets/lv_page.h ****  * @param left left fit policy from `lv_fit_t`
 169:lvgl\src\lv_widgets\../lv_widgets/lv_page.h ****  * @param right right fit policy from `lv_fit_t`
 170:lvgl\src\lv_widgets\../lv_widgets/lv_page.h ****  * @param top bottom fit policy from `lv_fit_t`
 171:lvgl\src\lv_widgets\../lv_widgets/lv_page.h ****  * @param bottom bottom fit policy from `lv_fit_t`
 172:lvgl\src\lv_widgets\../lv_widgets/lv_page.h ****  */
 173:lvgl\src\lv_widgets\../lv_widgets/lv_page.h **** static inline void lv_page_set_scrollable_fit4(lv_obj_t * page, lv_fit_t left, lv_fit_t right, lv_f
 174:lvgl\src\lv_widgets\../lv_widgets/lv_page.h ****                                                lv_fit_t bottom)
 175:lvgl\src\lv_widgets\../lv_widgets/lv_page.h **** {
 176:lvgl\src\lv_widgets\../lv_widgets/lv_page.h ****     lv_cont_set_fit4(lv_page_get_scrollable(page), left, right, top, bottom);
 2870              		.loc 6 176 0
 2871 006a 2846     		mov	r0, r5
 2872 006c FFF7FEFF 		bl	lv_page_get_scrollable
 2873              	.LVL470:
 2874 0070 0322     		movs	r2, #3
 2875 0072 0092     		str	r2, [sp]
 2876 0074 0023     		movs	r3, #0
 2877 0076 1946     		mov	r1, r3
 2878 0078 FFF7FEFF 		bl	lv_cont_set_fit4
 2879              	.LVL471:
 2880              	.LBE166:
 2881              	.LBE165:
 220:lvgl\src\lv_widgets/lv_tabview.c **** 
 2882              		.loc 1 220 0
 2883 007c 1021     		movs	r1, #16
 2884 007e 2846     		mov	r0, r5
 2885 0080 FFF7FEFF 		bl	lv_theme_apply
 2886              	.LVL472:
 222:lvgl\src\lv_widgets/lv_tabview.c **** 
 2887              		.loc 1 222 0
 2888 0084 4A4B     		ldr	r3, .L229+4
 2889 0086 1B68     		ldr	r3, [r3]
 2890 0088 23B9     		cbnz	r3, .L211
 222:lvgl\src\lv_widgets/lv_tabview.c **** 
 2891              		.loc 1 222 0 is_stmt 0 discriminator 1
 2892 008a 2846     		mov	r0, r5
 2893 008c FFF7FEFF 		bl	lv_obj_get_signal_cb
 2894              	.LVL473:
 2895 0090 474B     		ldr	r3, .L229+4
 2896 0092 1860     		str	r0, [r3]
 2897              	.L211:
 226:lvgl\src\lv_widgets/lv_tabview.c ****     LV_ASSERT_MEM(name_dm);
 2898              		.loc 1 226 0 is_stmt 1
 2899 0094 4046     		mov	r0, r8
 2900 0096 FFF7FEFF 		bl	strlen
 2901              	.LVL474:
ARM GAS  C:\Users\strap\AppData\Local\Temp\ccTzHSZB.s 			page 89


 2902 009a 0130     		adds	r0, r0, #1
 2903 009c FFF7FEFF 		bl	lv_mem_alloc
 2904              	.LVL475:
 2905 00a0 0646     		mov	r6, r0
 2906              	.LVL476:
 227:lvgl\src\lv_widgets/lv_tabview.c ****     if(name_dm == NULL) return NULL;
 2907              		.loc 1 227 0
 2908 00a2 FFF7FEFF 		bl	lv_debug_check_null
 2909              	.LVL477:
 2910 00a6 28B9     		cbnz	r0, .L212
 227:lvgl\src\lv_widgets/lv_tabview.c ****     if(name_dm == NULL) return NULL;
 2911              		.loc 1 227 0 is_stmt 0 discriminator 1
 2912 00a8 3246     		mov	r2, r6
 2913 00aa 0023     		movs	r3, #0
 2914 00ac 4148     		ldr	r0, .L229+8
 2915 00ae FFF7FEFF 		bl	lv_debug_log_error
 2916              	.LVL478:
 2917              	.L213:
 2918 00b2 FEE7     		b	.L213
 2919              	.L212:
 228:lvgl\src\lv_widgets/lv_tabview.c ****     strcpy(name_dm, name);
 2920              		.loc 1 228 0 is_stmt 1
 2921 00b4 002E     		cmp	r6, #0
 2922 00b6 70D0     		beq	.L224
 229:lvgl\src\lv_widgets/lv_tabview.c **** 
 2923              		.loc 1 229 0
 2924 00b8 4146     		mov	r1, r8
 2925 00ba 3046     		mov	r0, r6
 2926 00bc FFF7FEFF 		bl	strcpy
 2927              	.LVL479:
 231:lvgl\src\lv_widgets/lv_tabview.c **** 
 2928              		.loc 1 231 0
 2929 00c0 E18A     		ldrh	r1, [r4, #22]
 2930 00c2 0131     		adds	r1, r1, #1
 2931 00c4 89B2     		uxth	r1, r1
 2932 00c6 E182     		strh	r1, [r4, #22]	@ movhi
 237:lvgl\src\lv_widgets/lv_tabview.c ****         default: /*default case is prevented in lv_tabview_set_btns_pos(), but here for safety*/
 2933              		.loc 1 237 0
 2934 00c8 A37E     		ldrb	r3, [r4, #26]	@ zero_extendqisi2
 2935 00ca 03F00703 		and	r3, r3, #7
 2936 00ce 033B     		subs	r3, r3, #3
 2937 00d0 012B     		cmp	r3, #1
 2938 00d2 1DD9     		bls	.L227
 242:lvgl\src\lv_widgets/lv_tabview.c **** 
 2939              		.loc 1 242 0
 2940 00d4 0131     		adds	r1, r1, #1
 2941 00d6 8900     		lsls	r1, r1, #2
 2942 00d8 E068     		ldr	r0, [r4, #12]
 2943 00da FFF7FEFF 		bl	lv_mem_realloc
 2944              	.LVL480:
 2945 00de E060     		str	r0, [r4, #12]
 244:lvgl\src\lv_widgets/lv_tabview.c ****             if(ext->tab_name_ptr == NULL) return NULL;
 2946              		.loc 1 244 0
 2947 00e0 FFF7FEFF 		bl	lv_debug_check_null
 2948              	.LVL481:
 2949 00e4 28B9     		cbnz	r0, .L217
 244:lvgl\src\lv_widgets/lv_tabview.c ****             if(ext->tab_name_ptr == NULL) return NULL;
ARM GAS  C:\Users\strap\AppData\Local\Temp\ccTzHSZB.s 			page 90


 2950              		.loc 1 244 0 is_stmt 0 discriminator 1
 2951 00e6 E268     		ldr	r2, [r4, #12]
 2952 00e8 0023     		movs	r3, #0
 2953 00ea 3248     		ldr	r0, .L229+8
 2954 00ec FFF7FEFF 		bl	lv_debug_log_error
 2955              	.LVL482:
 2956              	.L218:
 2957 00f0 FEE7     		b	.L218
 2958              	.L217:
 245:lvgl\src\lv_widgets/lv_tabview.c **** 
 2959              		.loc 1 245 0 is_stmt 1
 2960 00f2 E268     		ldr	r2, [r4, #12]
 2961 00f4 002A     		cmp	r2, #0
 2962 00f6 52D0     		beq	.L225
 247:lvgl\src\lv_widgets/lv_tabview.c ****             ext->tab_name_ptr[ext->tab_cnt]     = "";
 2963              		.loc 1 247 0
 2964 00f8 E38A     		ldrh	r3, [r4, #22]
 2965 00fa 03F18043 		add	r3, r3, #1073741824
 2966 00fe 013B     		subs	r3, r3, #1
 2967 0100 42F82360 		str	r6, [r2, r3, lsl #2]
 248:lvgl\src\lv_widgets/lv_tabview.c **** 
 2968              		.loc 1 248 0
 2969 0104 E368     		ldr	r3, [r4, #12]
 2970 0106 E28A     		ldrh	r2, [r4, #22]
 2971 0108 2B49     		ldr	r1, .L229+12
 2972 010a 43F82210 		str	r1, [r3, r2, lsl #2]
 250:lvgl\src\lv_widgets/lv_tabview.c ****         case LV_TABVIEW_TAB_POS_LEFT:
 2973              		.loc 1 250 0
 2974 010e 27E0     		b	.L219
 2975              	.L227:
 253:lvgl\src\lv_widgets/lv_tabview.c **** 
 2976              		.loc 1 253 0
 2977 0110 C900     		lsls	r1, r1, #3
 2978 0112 E068     		ldr	r0, [r4, #12]
 2979 0114 FFF7FEFF 		bl	lv_mem_realloc
 2980              	.LVL483:
 2981 0118 E060     		str	r0, [r4, #12]
 255:lvgl\src\lv_widgets/lv_tabview.c ****             if(ext->tab_name_ptr == NULL) return NULL;
 2982              		.loc 1 255 0
 2983 011a FFF7FEFF 		bl	lv_debug_check_null
 2984              	.LVL484:
 2985 011e 28B9     		cbnz	r0, .L220
 255:lvgl\src\lv_widgets/lv_tabview.c ****             if(ext->tab_name_ptr == NULL) return NULL;
 2986              		.loc 1 255 0 is_stmt 0 discriminator 1
 2987 0120 E268     		ldr	r2, [r4, #12]
 2988 0122 0023     		movs	r3, #0
 2989 0124 2348     		ldr	r0, .L229+8
 2990 0126 FFF7FEFF 		bl	lv_debug_log_error
 2991              	.LVL485:
 2992              	.L221:
 2993 012a FEE7     		b	.L221
 2994              	.L220:
 256:lvgl\src\lv_widgets/lv_tabview.c **** 
 2995              		.loc 1 256 0 is_stmt 1
 2996 012c E268     		ldr	r2, [r4, #12]
 2997 012e 002A     		cmp	r2, #0
 2998 0130 37D0     		beq	.L226
ARM GAS  C:\Users\strap\AppData\Local\Temp\ccTzHSZB.s 			page 91


 258:lvgl\src\lv_widgets/lv_tabview.c ****                 ext->tab_name_ptr[0] = name_dm;
 2999              		.loc 1 258 0
 3000 0132 E38A     		ldrh	r3, [r4, #22]
 3001 0134 012B     		cmp	r3, #1
 3002 0136 04D1     		bne	.L222
 259:lvgl\src\lv_widgets/lv_tabview.c ****                 ext->tab_name_ptr[1] = "";
 3003              		.loc 1 259 0
 3004 0138 1660     		str	r6, [r2]
 260:lvgl\src\lv_widgets/lv_tabview.c ****             }
 3005              		.loc 1 260 0
 3006 013a E368     		ldr	r3, [r4, #12]
 3007 013c 1E4A     		ldr	r2, .L229+12
 3008 013e 5A60     		str	r2, [r3, #4]
 3009 0140 0EE0     		b	.L219
 3010              	.L222:
 263:lvgl\src\lv_widgets/lv_tabview.c ****                 ext->tab_name_ptr[ext->tab_cnt * 2 - 2] = name_dm;
 3011              		.loc 1 263 0
 3012 0142 DB00     		lsls	r3, r3, #3
 3013 0144 0C3B     		subs	r3, r3, #12
 3014 0146 1D49     		ldr	r1, .L229+16
 3015 0148 D150     		str	r1, [r2, r3]
 264:lvgl\src\lv_widgets/lv_tabview.c ****                 ext->tab_name_ptr[ext->tab_cnt * 2 - 1] = "";
 3016              		.loc 1 264 0
 3017 014a E268     		ldr	r2, [r4, #12]
 3018 014c E38A     		ldrh	r3, [r4, #22]
 3019 014e DB00     		lsls	r3, r3, #3
 3020 0150 083B     		subs	r3, r3, #8
 3021 0152 D650     		str	r6, [r2, r3]
 265:lvgl\src\lv_widgets/lv_tabview.c ****             }
 3022              		.loc 1 265 0
 3023 0154 E268     		ldr	r2, [r4, #12]
 3024 0156 E38A     		ldrh	r3, [r4, #22]
 3025 0158 DB00     		lsls	r3, r3, #3
 3026 015a 043B     		subs	r3, r3, #4
 3027 015c 1649     		ldr	r1, .L229+12
 3028 015e D150     		str	r1, [r2, r3]
 3029              	.L219:
 272:lvgl\src\lv_widgets/lv_tabview.c ****     btnm_ext->map_p          = NULL;
 3030              		.loc 1 272 0
 3031 0160 2068     		ldr	r0, [r4]
 3032 0162 FFF7FEFF 		bl	lv_obj_get_ext_attr
 3033              	.LVL486:
 273:lvgl\src\lv_widgets/lv_tabview.c **** 
 3034              		.loc 1 273 0
 3035 0166 0023     		movs	r3, #0
 3036 0168 0360     		str	r3, [r0]
 275:lvgl\src\lv_widgets/lv_tabview.c ****     lv_btnmatrix_set_btn_ctrl(ext->btns, ext->tab_cur, LV_BTNMATRIX_CTRL_NO_REPEAT);
 3037              		.loc 1 275 0
 3038 016a E168     		ldr	r1, [r4, #12]
 3039 016c 2068     		ldr	r0, [r4]
 3040              	.LVL487:
 3041 016e FFF7FEFF 		bl	lv_btnmatrix_set_map
 3042              	.LVL488:
 276:lvgl\src\lv_widgets/lv_tabview.c **** 
 3043              		.loc 1 276 0
 3044 0172 1022     		movs	r2, #16
 3045 0174 A18A     		ldrh	r1, [r4, #20]
ARM GAS  C:\Users\strap\AppData\Local\Temp\ccTzHSZB.s 			page 92


 3046 0176 2068     		ldr	r0, [r4]
 3047 0178 FFF7FEFF 		bl	lv_btnmatrix_set_btn_ctrl
 3048              	.LVL489:
 279:lvgl\src\lv_widgets/lv_tabview.c **** 
 3049              		.loc 1 279 0
 3050 017c E38A     		ldrh	r3, [r4, #22]
 3051 017e 012B     		cmp	r3, #1
 3052 0180 01D1     		bne	.L223
 279:lvgl\src\lv_widgets/lv_tabview.c **** 
 3053              		.loc 1 279 0 is_stmt 0 discriminator 1
 3054 0182 0023     		movs	r3, #0
 3055 0184 A382     		strh	r3, [r4, #20]	@ movhi
 3056              	.L223:
 281:lvgl\src\lv_widgets/lv_tabview.c **** 
 3057              		.loc 1 281 0 is_stmt 1
 3058 0186 3846     		mov	r0, r7
 3059 0188 FFF7FEFF 		bl	tabview_realign
 3060              	.LVL490:
 283:lvgl\src\lv_widgets/lv_tabview.c **** 
 3061              		.loc 1 283 0
 3062 018c 0022     		movs	r2, #0
 3063 018e A18A     		ldrh	r1, [r4, #20]
 3064 0190 3846     		mov	r0, r7
 3065 0192 FFF7FEFF 		bl	lv_tabview_set_tab_act
 3066              	.LVL491:
 285:lvgl\src\lv_widgets/lv_tabview.c **** }
 3067              		.loc 1 285 0
 3068 0196 2846     		mov	r0, r5
 3069 0198 04E0     		b	.L214
 3070              	.L224:
 228:lvgl\src\lv_widgets/lv_tabview.c ****     strcpy(name_dm, name);
 3071              		.loc 1 228 0
 3072 019a 0020     		movs	r0, #0
 3073 019c 02E0     		b	.L214
 3074              	.L225:
 245:lvgl\src\lv_widgets/lv_tabview.c **** 
 3075              		.loc 1 245 0
 3076 019e 0020     		movs	r0, #0
 3077 01a0 00E0     		b	.L214
 3078              	.L226:
 256:lvgl\src\lv_widgets/lv_tabview.c **** 
 3079              		.loc 1 256 0
 3080 01a2 0020     		movs	r0, #0
 3081              	.L214:
 286:lvgl\src\lv_widgets/lv_tabview.c **** 
 3082              		.loc 1 286 0
 3083 01a4 02B0     		add	sp, sp, #8
 3084              		.cfi_def_cfa_offset 24
 3085              		@ sp needed
 3086 01a6 BDE8F081 		pop	{r4, r5, r6, r7, r8, pc}
 3087              	.LVL492:
 3088              	.L230:
 3089 01aa 00BF     		.align	2
 3090              	.L229:
 3091 01ac 00000000 		.word	.LC0
 3092 01b0 00000000 		.word	.LANCHOR0
 3093 01b4 10000000 		.word	.LC1
ARM GAS  C:\Users\strap\AppData\Local\Temp\ccTzHSZB.s 			page 93


 3094 01b8 20000000 		.word	.LC2
 3095 01bc 30000000 		.word	.LC4
 3096              		.cfi_endproc
 3097              	.LFE358:
 3098              		.size	lv_tabview_add_tab, .-lv_tabview_add_tab
 3099              		.section	.text.lv_tabview_create,"ax",%progbits
 3100              		.align	2
 3101              		.global	lv_tabview_create
 3102              		.thumb
 3103              		.thumb_func
 3104              		.type	lv_tabview_create, %function
 3105              	lv_tabview_create:
 3106              	.LFB357:
  73:lvgl\src\lv_widgets/lv_tabview.c ****     LV_LOG_TRACE("tab view create started");
 3107              		.loc 1 73 0
 3108              		.cfi_startproc
 3109              		@ args = 0, pretend = 0, frame = 0
 3110              		@ frame_needed = 0, uses_anonymous_args = 0
 3111              	.LVL493:
 3112 0000 2DE9F047 		push	{r4, r5, r6, r7, r8, r9, r10, lr}
 3113              		.cfi_def_cfa_offset 32
 3114              		.cfi_offset 4, -32
 3115              		.cfi_offset 5, -28
 3116              		.cfi_offset 6, -24
 3117              		.cfi_offset 7, -20
 3118              		.cfi_offset 8, -16
 3119              		.cfi_offset 9, -12
 3120              		.cfi_offset 10, -8
 3121              		.cfi_offset 14, -4
 3122 0004 82B0     		sub	sp, sp, #8
 3123              		.cfi_def_cfa_offset 40
 3124 0006 0746     		mov	r7, r0
 3125 0008 0E46     		mov	r6, r1
  77:lvgl\src\lv_widgets/lv_tabview.c ****     LV_ASSERT_MEM(tabview);
 3126              		.loc 1 77 0
 3127 000a FFF7FEFF 		bl	lv_obj_create
 3128              	.LVL494:
 3129 000e 0546     		mov	r5, r0
 3130              	.LVL495:
  78:lvgl\src\lv_widgets/lv_tabview.c ****     if(tabview == NULL) return NULL;
 3131              		.loc 1 78 0
 3132 0010 FFF7FEFF 		bl	lv_debug_check_null
 3133              	.LVL496:
 3134 0014 28B9     		cbnz	r0, .L232
  78:lvgl\src\lv_widgets/lv_tabview.c ****     if(tabview == NULL) return NULL;
 3135              		.loc 1 78 0 is_stmt 0 discriminator 1
 3136 0016 2A46     		mov	r2, r5
 3137 0018 0023     		movs	r3, #0
 3138 001a A448     		ldr	r0, .L254
 3139 001c FFF7FEFF 		bl	lv_debug_log_error
 3140              	.LVL497:
 3141              	.L233:
 3142 0020 FEE7     		b	.L233
 3143              	.L232:
  79:lvgl\src\lv_widgets/lv_tabview.c ****     if(ancestor_signal == NULL) ancestor_signal = lv_obj_get_signal_cb(tabview);
 3144              		.loc 1 79 0 is_stmt 1
 3145 0022 002D     		cmp	r5, #0
ARM GAS  C:\Users\strap\AppData\Local\Temp\ccTzHSZB.s 			page 94


 3146 0024 00F03A81 		beq	.L250
  80:lvgl\src\lv_widgets/lv_tabview.c **** 
 3147              		.loc 1 80 0
 3148 0028 A14B     		ldr	r3, .L254+4
 3149 002a 9B68     		ldr	r3, [r3, #8]
 3150 002c 23B9     		cbnz	r3, .L235
  80:lvgl\src\lv_widgets/lv_tabview.c **** 
 3151              		.loc 1 80 0 is_stmt 0 discriminator 1
 3152 002e 2846     		mov	r0, r5
 3153 0030 FFF7FEFF 		bl	lv_obj_get_signal_cb
 3154              	.LVL498:
 3155 0034 9E4B     		ldr	r3, .L254+4
 3156 0036 9860     		str	r0, [r3, #8]
 3157              	.L235:
  83:lvgl\src\lv_widgets/lv_tabview.c ****     LV_ASSERT_MEM(ext);
 3158              		.loc 1 83 0 is_stmt 1
 3159 0038 1C21     		movs	r1, #28
 3160 003a 2846     		mov	r0, r5
 3161 003c FFF7FEFF 		bl	lv_obj_allocate_ext_attr
 3162              	.LVL499:
 3163 0040 0446     		mov	r4, r0
 3164              	.LVL500:
  84:lvgl\src\lv_widgets/lv_tabview.c ****     if(ext == NULL) {
 3165              		.loc 1 84 0
 3166 0042 FFF7FEFF 		bl	lv_debug_check_null
 3167              	.LVL501:
 3168 0046 28B9     		cbnz	r0, .L236
  84:lvgl\src\lv_widgets/lv_tabview.c ****     if(ext == NULL) {
 3169              		.loc 1 84 0 is_stmt 0 discriminator 1
 3170 0048 2246     		mov	r2, r4
 3171 004a 0023     		movs	r3, #0
 3172 004c 9748     		ldr	r0, .L254
 3173 004e FFF7FEFF 		bl	lv_debug_log_error
 3174              	.LVL502:
 3175              	.L237:
 3176 0052 FEE7     		b	.L237
 3177              	.L236:
  85:lvgl\src\lv_widgets/lv_tabview.c ****         lv_obj_del(tabview);
 3178              		.loc 1 85 0 is_stmt 1
 3179 0054 24B9     		cbnz	r4, .L238
  86:lvgl\src\lv_widgets/lv_tabview.c ****         return NULL;
 3180              		.loc 1 86 0
 3181 0056 2846     		mov	r0, r5
 3182 0058 FFF7FEFF 		bl	lv_obj_del
 3183              	.LVL503:
  87:lvgl\src\lv_widgets/lv_tabview.c ****     }
 3184              		.loc 1 87 0
 3185 005c 0020     		movs	r0, #0
 3186 005e 22E1     		b	.L234
 3187              	.L238:
  91:lvgl\src\lv_widgets/lv_tabview.c ****     ext->tab_cnt      = 0;
 3188              		.loc 1 91 0
 3189 0060 0023     		movs	r3, #0
 3190 0062 A382     		strh	r3, [r4, #20]	@ movhi
  92:lvgl\src\lv_widgets/lv_tabview.c ****     ext->point_last.x = 0;
 3191              		.loc 1 92 0
 3192 0064 E382     		strh	r3, [r4, #22]	@ movhi
ARM GAS  C:\Users\strap\AppData\Local\Temp\ccTzHSZB.s 			page 95


  93:lvgl\src\lv_widgets/lv_tabview.c ****     ext->point_last.y = 0;
 3193              		.loc 1 93 0
 3194 0066 2382     		strh	r3, [r4, #16]	@ movhi
  94:lvgl\src\lv_widgets/lv_tabview.c ****     ext->content      = NULL;
 3195              		.loc 1 94 0
 3196 0068 6382     		strh	r3, [r4, #18]	@ movhi
  95:lvgl\src\lv_widgets/lv_tabview.c ****     ext->indic        = NULL;
 3197              		.loc 1 95 0
 3198 006a A360     		str	r3, [r4, #8]
  96:lvgl\src\lv_widgets/lv_tabview.c ****     ext->btns         = NULL;
 3199              		.loc 1 96 0
 3200 006c 6360     		str	r3, [r4, #4]
  97:lvgl\src\lv_widgets/lv_tabview.c ****     ext->btns_pos     = LV_TABVIEW_TAB_POS_TOP;
 3201              		.loc 1 97 0
 3202 006e 2360     		str	r3, [r4]
  98:lvgl\src\lv_widgets/lv_tabview.c **** #if LV_USE_ANIMATION
 3203              		.loc 1 98 0
 3204 0070 A37E     		ldrb	r3, [r4, #26]	@ zero_extendqisi2
 3205 0072 0122     		movs	r2, #1
 3206 0074 62F30203 		bfi	r3, r2, #0, #3
 3207 0078 A376     		strb	r3, [r4, #26]
 100:lvgl\src\lv_widgets/lv_tabview.c **** #endif
 3208              		.loc 1 100 0
 3209 007a 4FF49673 		mov	r3, #300
 3210 007e 2383     		strh	r3, [r4, #24]	@ movhi
 104:lvgl\src\lv_widgets/lv_tabview.c ****     /*Init the new tab tab*/
 3211              		.loc 1 104 0
 3212 0080 8C49     		ldr	r1, .L254+8
 3213 0082 2846     		mov	r0, r5
 3214 0084 FFF7FEFF 		bl	lv_obj_set_signal_cb
 3215              	.LVL504:
 106:lvgl\src\lv_widgets/lv_tabview.c ****         ext->tab_name_ptr = lv_mem_alloc(sizeof(char *));
 3216              		.loc 1 106 0
 3217 0088 002E     		cmp	r6, #0
 3218 008a 77D1     		bne	.L239
 3219              	.LBB176:
 107:lvgl\src\lv_widgets/lv_tabview.c ****         LV_ASSERT_MEM(ext->tab_name_ptr);
 3220              		.loc 1 107 0
 3221 008c 0420     		movs	r0, #4
 3222 008e FFF7FEFF 		bl	lv_mem_alloc
 3223              	.LVL505:
 3224 0092 E060     		str	r0, [r4, #12]
 108:lvgl\src\lv_widgets/lv_tabview.c ****         if(ext->tab_name_ptr == NULL) return NULL;
 3225              		.loc 1 108 0
 3226 0094 FFF7FEFF 		bl	lv_debug_check_null
 3227              	.LVL506:
 3228 0098 28B9     		cbnz	r0, .L240
 108:lvgl\src\lv_widgets/lv_tabview.c ****         if(ext->tab_name_ptr == NULL) return NULL;
 3229              		.loc 1 108 0 is_stmt 0 discriminator 1
 3230 009a E268     		ldr	r2, [r4, #12]
 3231 009c 0023     		movs	r3, #0
 3232 009e 8348     		ldr	r0, .L254
 3233 00a0 FFF7FEFF 		bl	lv_debug_log_error
 3234              	.LVL507:
 3235              	.L241:
 3236 00a4 FEE7     		b	.L241
 3237              	.L240:
ARM GAS  C:\Users\strap\AppData\Local\Temp\ccTzHSZB.s 			page 96


 109:lvgl\src\lv_widgets/lv_tabview.c ****         ext->tab_name_ptr[0] = "";
 3238              		.loc 1 109 0 is_stmt 1
 3239 00a6 E368     		ldr	r3, [r4, #12]
 3240 00a8 002B     		cmp	r3, #0
 3241 00aa 00F0F980 		beq	.L251
 110:lvgl\src\lv_widgets/lv_tabview.c **** 
 3242              		.loc 1 110 0
 3243 00ae 824A     		ldr	r2, .L254+12
 3244 00b0 1A60     		str	r2, [r3]
 117:lvgl\src\lv_widgets/lv_tabview.c ****             w = lv_obj_get_width_fit(lv_obj_get_parent(tabview));
 3245              		.loc 1 117 0
 3246 00b2 5FB1     		cbz	r7, .L242
 118:lvgl\src\lv_widgets/lv_tabview.c ****             h = lv_obj_get_height_fit(lv_obj_get_parent(tabview));
 3247              		.loc 1 118 0
 3248 00b4 2846     		mov	r0, r5
 3249 00b6 FFF7FEFF 		bl	lv_obj_get_parent
 3250              	.LVL508:
 3251 00ba FFF7FEFF 		bl	lv_obj_get_width_fit
 3252              	.LVL509:
 3253 00be 0646     		mov	r6, r0
 3254              	.LVL510:
 119:lvgl\src\lv_widgets/lv_tabview.c ****         }
 3255              		.loc 1 119 0
 3256 00c0 2846     		mov	r0, r5
 3257 00c2 FFF7FEFF 		bl	lv_obj_get_parent
 3258              	.LVL511:
 3259 00c6 FFF7FEFF 		bl	lv_obj_get_height_fit
 3260              	.LVL512:
 3261 00ca 06E0     		b	.L243
 3262              	.LVL513:
 3263              	.L242:
 122:lvgl\src\lv_widgets/lv_tabview.c ****             h = lv_disp_get_ver_res(NULL);
 3264              		.loc 1 122 0
 3265 00cc 0020     		movs	r0, #0
 3266 00ce FFF7FEFF 		bl	lv_disp_get_hor_res
 3267              	.LVL514:
 3268 00d2 0646     		mov	r6, r0
 3269              	.LVL515:
 123:lvgl\src\lv_widgets/lv_tabview.c ****         }
 3270              		.loc 1 123 0
 3271 00d4 0020     		movs	r0, #0
 3272 00d6 FFF7FEFF 		bl	lv_disp_get_ver_res
 3273              	.LVL516:
 3274              	.L243:
 126:lvgl\src\lv_widgets/lv_tabview.c **** 
 3275              		.loc 1 126 0
 3276 00da 0246     		mov	r2, r0
 3277 00dc 3146     		mov	r1, r6
 3278 00de 2846     		mov	r0, r5
 3279              	.LVL517:
 3280 00e0 FFF7FEFF 		bl	lv_obj_set_size
 3281              	.LVL518:
 128:lvgl\src\lv_widgets/lv_tabview.c ****         ext->btns    = lv_btnmatrix_create(tabview, NULL);
 3282              		.loc 1 128 0
 3283 00e4 0021     		movs	r1, #0
 3284 00e6 2846     		mov	r0, r5
 3285 00e8 FFF7FEFF 		bl	lv_page_create
ARM GAS  C:\Users\strap\AppData\Local\Temp\ccTzHSZB.s 			page 97


 3286              	.LVL519:
 3287 00ec A060     		str	r0, [r4, #8]
 129:lvgl\src\lv_widgets/lv_tabview.c ****         ext->indic   = lv_obj_create(ext->btns, NULL);
 3288              		.loc 1 129 0
 3289 00ee 0021     		movs	r1, #0
 3290 00f0 2846     		mov	r0, r5
 3291 00f2 FFF7FEFF 		bl	lv_btnmatrix_create
 3292              	.LVL520:
 3293 00f6 2060     		str	r0, [r4]
 130:lvgl\src\lv_widgets/lv_tabview.c **** 
 3294              		.loc 1 130 0
 3295 00f8 0021     		movs	r1, #0
 3296 00fa FFF7FEFF 		bl	lv_obj_create
 3297              	.LVL521:
 3298 00fe 6060     		str	r0, [r4, #4]
 132:lvgl\src\lv_widgets/lv_tabview.c ****         lv_obj_set_signal_cb(lv_page_get_scrollable(ext->content), tabview_scrl_signal);
 3299              		.loc 1 132 0
 3300 0100 6B4B     		ldr	r3, .L254+4
 3301 0102 5B68     		ldr	r3, [r3, #4]
 3302 0104 33B9     		cbnz	r3, .L244
 132:lvgl\src\lv_widgets/lv_tabview.c ****         lv_obj_set_signal_cb(lv_page_get_scrollable(ext->content), tabview_scrl_signal);
 3303              		.loc 1 132 0 is_stmt 0 discriminator 1
 3304 0106 A068     		ldr	r0, [r4, #8]
 3305 0108 FFF7FEFF 		bl	lv_page_get_scrollable
 3306              	.LVL522:
 3307 010c FFF7FEFF 		bl	lv_obj_get_signal_cb
 3308              	.LVL523:
 3309 0110 674B     		ldr	r3, .L254+4
 3310 0112 5860     		str	r0, [r3, #4]
 3311              	.L244:
 133:lvgl\src\lv_widgets/lv_tabview.c **** 
 3312              		.loc 1 133 0 is_stmt 1
 3313 0114 A068     		ldr	r0, [r4, #8]
 3314 0116 FFF7FEFF 		bl	lv_page_get_scrollable
 3315              	.LVL524:
 3316 011a 6849     		ldr	r1, .L254+16
 3317 011c FFF7FEFF 		bl	lv_obj_set_signal_cb
 3318              	.LVL525:
 135:lvgl\src\lv_widgets/lv_tabview.c ****         lv_obj_set_event_cb(ext->btns, tab_btnm_event_cb);
 3319              		.loc 1 135 0
 3320 0120 6749     		ldr	r1, .L254+20
 3321 0122 2068     		ldr	r0, [r4]
 3322 0124 FFF7FEFF 		bl	lv_btnmatrix_set_map
 3323              	.LVL526:
 136:lvgl\src\lv_widgets/lv_tabview.c **** 
 3324              		.loc 1 136 0
 3325 0128 6649     		ldr	r1, .L254+24
 3326 012a 2068     		ldr	r0, [r4]
 3327 012c FFF7FEFF 		bl	lv_obj_set_event_cb
 3328              	.LVL527:
 138:lvgl\src\lv_widgets/lv_tabview.c ****         lv_obj_set_drag_dir(lv_page_get_scrollable(ext->content), LV_DRAG_DIR_ONE);
 3329              		.loc 1 138 0
 3330 0130 0021     		movs	r1, #0
 3331 0132 6068     		ldr	r0, [r4, #4]
 3332 0134 FFF7FEFF 		bl	lv_obj_set_click
 3333              	.LVL528:
 139:lvgl\src\lv_widgets/lv_tabview.c **** 
ARM GAS  C:\Users\strap\AppData\Local\Temp\ccTzHSZB.s 			page 98


 3334              		.loc 1 139 0
 3335 0138 A068     		ldr	r0, [r4, #8]
 3336 013a FFF7FEFF 		bl	lv_page_get_scrollable
 3337              	.LVL529:
 3338 013e 0421     		movs	r1, #4
 3339 0140 FFF7FEFF 		bl	lv_obj_set_drag_dir
 3340              	.LVL530:
 3341              	.LBB177:
 3342              	.LBB178:
 177:lvgl\src\lv_widgets\../lv_widgets/lv_page.h **** }
 178:lvgl\src\lv_widgets\../lv_widgets/lv_page.h **** 
 179:lvgl\src\lv_widgets\../lv_widgets/lv_page.h **** /**
 180:lvgl\src\lv_widgets\../lv_widgets/lv_page.h ****  * Set the fit policy horizontally and vertically separately.
 181:lvgl\src\lv_widgets\../lv_widgets/lv_page.h ****  * It tell how to change the page size automatically.
 182:lvgl\src\lv_widgets\../lv_widgets/lv_page.h ****  * @param page pointer to a page object
 183:lvgl\src\lv_widgets\../lv_widgets/lv_page.h ****  * @param hot horizontal fit policy from `lv_fit_t`
 184:lvgl\src\lv_widgets\../lv_widgets/lv_page.h ****  * @param ver vertical fit policy from `lv_fit_t`
 185:lvgl\src\lv_widgets\../lv_widgets/lv_page.h ****  */
 186:lvgl\src\lv_widgets\../lv_widgets/lv_page.h **** static inline void lv_page_set_scrollable_fit2(lv_obj_t * page, lv_fit_t hor, lv_fit_t ver)
 187:lvgl\src\lv_widgets\../lv_widgets/lv_page.h **** {
 188:lvgl\src\lv_widgets\../lv_widgets/lv_page.h ****     lv_cont_set_fit2(lv_page_get_scrollable(page), hor, ver);
 3343              		.loc 6 188 0
 3344 0144 A068     		ldr	r0, [r4, #8]
 3345 0146 FFF7FEFF 		bl	lv_page_get_scrollable
 3346              	.LVL531:
 3347              	.LBB179:
 3348              	.LBB180:
 3349              		.file 7 "lvgl\\src\\lv_widgets\\../lv_widgets/lv_cont.h"
   1:lvgl\src\lv_widgets\../lv_widgets/lv_cont.h **** /**
   2:lvgl\src\lv_widgets\../lv_widgets/lv_cont.h ****  * @file lv_cont.h
   3:lvgl\src\lv_widgets\../lv_widgets/lv_cont.h ****  *
   4:lvgl\src\lv_widgets\../lv_widgets/lv_cont.h ****  */
   5:lvgl\src\lv_widgets\../lv_widgets/lv_cont.h **** 
   6:lvgl\src\lv_widgets\../lv_widgets/lv_cont.h **** #ifndef LV_CONT_H
   7:lvgl\src\lv_widgets\../lv_widgets/lv_cont.h **** #define LV_CONT_H
   8:lvgl\src\lv_widgets\../lv_widgets/lv_cont.h **** 
   9:lvgl\src\lv_widgets\../lv_widgets/lv_cont.h **** #ifdef __cplusplus
  10:lvgl\src\lv_widgets\../lv_widgets/lv_cont.h **** extern "C" {
  11:lvgl\src\lv_widgets\../lv_widgets/lv_cont.h **** #endif
  12:lvgl\src\lv_widgets\../lv_widgets/lv_cont.h **** 
  13:lvgl\src\lv_widgets\../lv_widgets/lv_cont.h **** /*********************
  14:lvgl\src\lv_widgets\../lv_widgets/lv_cont.h ****  *      INCLUDES
  15:lvgl\src\lv_widgets\../lv_widgets/lv_cont.h ****  *********************/
  16:lvgl\src\lv_widgets\../lv_widgets/lv_cont.h **** #include "../lv_conf_internal.h"
  17:lvgl\src\lv_widgets\../lv_widgets/lv_cont.h **** 
  18:lvgl\src\lv_widgets\../lv_widgets/lv_cont.h **** #if LV_USE_CONT != 0
  19:lvgl\src\lv_widgets\../lv_widgets/lv_cont.h **** 
  20:lvgl\src\lv_widgets\../lv_widgets/lv_cont.h **** #include "../lv_core/lv_obj.h"
  21:lvgl\src\lv_widgets\../lv_widgets/lv_cont.h **** 
  22:lvgl\src\lv_widgets\../lv_widgets/lv_cont.h **** /*********************
  23:lvgl\src\lv_widgets\../lv_widgets/lv_cont.h ****  *      DEFINES
  24:lvgl\src\lv_widgets\../lv_widgets/lv_cont.h ****  *********************/
  25:lvgl\src\lv_widgets\../lv_widgets/lv_cont.h **** 
  26:lvgl\src\lv_widgets\../lv_widgets/lv_cont.h **** /**********************
  27:lvgl\src\lv_widgets\../lv_widgets/lv_cont.h ****  *      TYPEDEFS
  28:lvgl\src\lv_widgets\../lv_widgets/lv_cont.h ****  **********************/
  29:lvgl\src\lv_widgets\../lv_widgets/lv_cont.h **** 
ARM GAS  C:\Users\strap\AppData\Local\Temp\ccTzHSZB.s 			page 99


  30:lvgl\src\lv_widgets\../lv_widgets/lv_cont.h **** /** Container layout options*/
  31:lvgl\src\lv_widgets\../lv_widgets/lv_cont.h **** enum {
  32:lvgl\src\lv_widgets\../lv_widgets/lv_cont.h ****     LV_LAYOUT_OFF = 0, /**< No layout */
  33:lvgl\src\lv_widgets\../lv_widgets/lv_cont.h ****     LV_LAYOUT_CENTER, /**< Center objects */
  34:lvgl\src\lv_widgets\../lv_widgets/lv_cont.h **** 
  35:lvgl\src\lv_widgets\../lv_widgets/lv_cont.h ****     /**
  36:lvgl\src\lv_widgets\../lv_widgets/lv_cont.h ****      * COULMN:
  37:lvgl\src\lv_widgets\../lv_widgets/lv_cont.h ****      * - Place the object below each other
  38:lvgl\src\lv_widgets\../lv_widgets/lv_cont.h ****      * - Keep `pad_top` space on the top
  39:lvgl\src\lv_widgets\../lv_widgets/lv_cont.h ****      * - Keep `pad_inner` space between the objects
  40:lvgl\src\lv_widgets\../lv_widgets/lv_cont.h ****      */
  41:lvgl\src\lv_widgets\../lv_widgets/lv_cont.h ****     LV_LAYOUT_COLUMN_LEFT,      /**< Column left align*/
  42:lvgl\src\lv_widgets\../lv_widgets/lv_cont.h ****     LV_LAYOUT_COLUMN_MID,       /**< Column middle align*/
  43:lvgl\src\lv_widgets\../lv_widgets/lv_cont.h ****     LV_LAYOUT_COLUMN_RIGHT,     /**< Column right align*/
  44:lvgl\src\lv_widgets\../lv_widgets/lv_cont.h **** 
  45:lvgl\src\lv_widgets\../lv_widgets/lv_cont.h ****     /**
  46:lvgl\src\lv_widgets\../lv_widgets/lv_cont.h ****      * ROW:
  47:lvgl\src\lv_widgets\../lv_widgets/lv_cont.h ****      * - Place the object next to each other
  48:lvgl\src\lv_widgets\../lv_widgets/lv_cont.h ****      * - Keep `pad_left` space on the left
  49:lvgl\src\lv_widgets\../lv_widgets/lv_cont.h ****      * - Keep `pad_inner` space between the objects
  50:lvgl\src\lv_widgets\../lv_widgets/lv_cont.h ****      * - If the object which applies the layout has `base_dir == LV_BIDI_DIR_RTL`
  51:lvgl\src\lv_widgets\../lv_widgets/lv_cont.h ****      *   the row will start from the right applying `pad.right` space
  52:lvgl\src\lv_widgets\../lv_widgets/lv_cont.h ****      */
  53:lvgl\src\lv_widgets\../lv_widgets/lv_cont.h ****     LV_LAYOUT_ROW_TOP,          /**< Row top align*/
  54:lvgl\src\lv_widgets\../lv_widgets/lv_cont.h ****     LV_LAYOUT_ROW_MID,          /**< Row middle align*/
  55:lvgl\src\lv_widgets\../lv_widgets/lv_cont.h ****     LV_LAYOUT_ROW_BOTTOM,       /**< Row bottom align*/
  56:lvgl\src\lv_widgets\../lv_widgets/lv_cont.h **** 
  57:lvgl\src\lv_widgets\../lv_widgets/lv_cont.h **** 
  58:lvgl\src\lv_widgets\../lv_widgets/lv_cont.h ****     /**
  59:lvgl\src\lv_widgets\../lv_widgets/lv_cont.h ****      * PRETTY:
  60:lvgl\src\lv_widgets\../lv_widgets/lv_cont.h ****      * - Place the object next to each other
  61:lvgl\src\lv_widgets\../lv_widgets/lv_cont.h ****      * - If there is no more space start a new row
  62:lvgl\src\lv_widgets\../lv_widgets/lv_cont.h ****      * - Respect `pad_left` and `pad_right` when determining the available space in a row
  63:lvgl\src\lv_widgets\../lv_widgets/lv_cont.h ****      * - Keep `pad_inner` space between the objects in the same row
  64:lvgl\src\lv_widgets\../lv_widgets/lv_cont.h ****      * - Keep `pad_inner` space between the objects in rows
  65:lvgl\src\lv_widgets\../lv_widgets/lv_cont.h ****      * - Divide the remaining horizontal space equally
  66:lvgl\src\lv_widgets\../lv_widgets/lv_cont.h ****      */
  67:lvgl\src\lv_widgets\../lv_widgets/lv_cont.h ****     LV_LAYOUT_PRETTY_TOP,       /**< Row top align*/
  68:lvgl\src\lv_widgets\../lv_widgets/lv_cont.h ****     LV_LAYOUT_PRETTY_MID,       /**< Row middle align*/
  69:lvgl\src\lv_widgets\../lv_widgets/lv_cont.h ****     LV_LAYOUT_PRETTY_BOTTOM,    /**< Row bottom align*/
  70:lvgl\src\lv_widgets\../lv_widgets/lv_cont.h **** 
  71:lvgl\src\lv_widgets\../lv_widgets/lv_cont.h ****     /**
  72:lvgl\src\lv_widgets\../lv_widgets/lv_cont.h ****      * GRID
  73:lvgl\src\lv_widgets\../lv_widgets/lv_cont.h ****      * - Place the object next to each other
  74:lvgl\src\lv_widgets\../lv_widgets/lv_cont.h ****      * - If there is no more space start a new row
  75:lvgl\src\lv_widgets\../lv_widgets/lv_cont.h ****      * - Respect `pad_left` and `pad_right` when determining the available space in a row
  76:lvgl\src\lv_widgets\../lv_widgets/lv_cont.h ****      * - Keep `pad_inner` space between the objects in the same row
  77:lvgl\src\lv_widgets\../lv_widgets/lv_cont.h ****      * - Keep `pad_inner` space between the objects in rows
  78:lvgl\src\lv_widgets\../lv_widgets/lv_cont.h ****      * - Unlike `PRETTY`, `GRID` always keep `pad_inner` space horizontally between objects
  79:lvgl\src\lv_widgets\../lv_widgets/lv_cont.h ****      *   so it doesn't divide the remaining horizontal space equally
  80:lvgl\src\lv_widgets\../lv_widgets/lv_cont.h ****      */
  81:lvgl\src\lv_widgets\../lv_widgets/lv_cont.h ****     LV_LAYOUT_GRID,   /**< Align same-sized object into a grid*/
  82:lvgl\src\lv_widgets\../lv_widgets/lv_cont.h **** 
  83:lvgl\src\lv_widgets\../lv_widgets/lv_cont.h ****     _LV_LAYOUT_LAST
  84:lvgl\src\lv_widgets\../lv_widgets/lv_cont.h **** };
  85:lvgl\src\lv_widgets\../lv_widgets/lv_cont.h **** typedef uint8_t lv_layout_t;
  86:lvgl\src\lv_widgets\../lv_widgets/lv_cont.h **** 
ARM GAS  C:\Users\strap\AppData\Local\Temp\ccTzHSZB.s 			page 100


  87:lvgl\src\lv_widgets\../lv_widgets/lv_cont.h **** /**
  88:lvgl\src\lv_widgets\../lv_widgets/lv_cont.h ****  * How to resize the container around the children.
  89:lvgl\src\lv_widgets\../lv_widgets/lv_cont.h ****  */
  90:lvgl\src\lv_widgets\../lv_widgets/lv_cont.h **** enum {
  91:lvgl\src\lv_widgets\../lv_widgets/lv_cont.h ****     LV_FIT_NONE,  /**< Do not change the size automatically*/
  92:lvgl\src\lv_widgets\../lv_widgets/lv_cont.h ****     LV_FIT_TIGHT, /**< Shrink wrap around the children */
  93:lvgl\src\lv_widgets\../lv_widgets/lv_cont.h ****     LV_FIT_PARENT, /**< Align the size to the parent's edge*/
  94:lvgl\src\lv_widgets\../lv_widgets/lv_cont.h ****     LV_FIT_MAX,  /**< Align the size to the parent's edge first but if there is an object out of it
  95:lvgl\src\lv_widgets\../lv_widgets/lv_cont.h ****                      then get larger */
  96:lvgl\src\lv_widgets\../lv_widgets/lv_cont.h ****     _LV_FIT_LAST
  97:lvgl\src\lv_widgets\../lv_widgets/lv_cont.h **** };
  98:lvgl\src\lv_widgets\../lv_widgets/lv_cont.h **** typedef uint8_t lv_fit_t;
  99:lvgl\src\lv_widgets\../lv_widgets/lv_cont.h **** 
 100:lvgl\src\lv_widgets\../lv_widgets/lv_cont.h **** typedef struct {
 101:lvgl\src\lv_widgets\../lv_widgets/lv_cont.h ****     /*Inherited from 'base_obj' so no inherited ext. */ /*Ext. of ancestor*/
 102:lvgl\src\lv_widgets\../lv_widgets/lv_cont.h ****     /*New data for this type */
 103:lvgl\src\lv_widgets\../lv_widgets/lv_cont.h ****     lv_layout_t layout : 4;     /*A layout from 'lv_layout_t' enum*/
 104:lvgl\src\lv_widgets\../lv_widgets/lv_cont.h ****     lv_fit_t fit_left : 2;   /*A fit type from `lv_fit_t` enum */
 105:lvgl\src\lv_widgets\../lv_widgets/lv_cont.h ****     lv_fit_t fit_right : 2;  /*A fit type from `lv_fit_t` enum */
 106:lvgl\src\lv_widgets\../lv_widgets/lv_cont.h ****     lv_fit_t fit_top : 2;    /*A fit type from `lv_fit_t` enum */
 107:lvgl\src\lv_widgets\../lv_widgets/lv_cont.h ****     lv_fit_t fit_bottom : 2; /*A fit type from `lv_fit_t` enum */
 108:lvgl\src\lv_widgets\../lv_widgets/lv_cont.h **** } lv_cont_ext_t;
 109:lvgl\src\lv_widgets\../lv_widgets/lv_cont.h **** 
 110:lvgl\src\lv_widgets\../lv_widgets/lv_cont.h **** /*Part of the container*/
 111:lvgl\src\lv_widgets\../lv_widgets/lv_cont.h **** enum {
 112:lvgl\src\lv_widgets\../lv_widgets/lv_cont.h ****     LV_CONT_PART_MAIN = LV_OBJ_PART_MAIN,
 113:lvgl\src\lv_widgets\../lv_widgets/lv_cont.h ****     _LV_CONT_PART_VIRTUAL_LAST = _LV_OBJ_PART_VIRTUAL_LAST,
 114:lvgl\src\lv_widgets\../lv_widgets/lv_cont.h ****     _LV_CONT_PART_REAL_LAST = _LV_OBJ_PART_REAL_LAST,
 115:lvgl\src\lv_widgets\../lv_widgets/lv_cont.h **** };
 116:lvgl\src\lv_widgets\../lv_widgets/lv_cont.h **** 
 117:lvgl\src\lv_widgets\../lv_widgets/lv_cont.h **** /**********************
 118:lvgl\src\lv_widgets\../lv_widgets/lv_cont.h ****  * GLOBAL PROTOTYPES
 119:lvgl\src\lv_widgets\../lv_widgets/lv_cont.h ****  **********************/
 120:lvgl\src\lv_widgets\../lv_widgets/lv_cont.h **** 
 121:lvgl\src\lv_widgets\../lv_widgets/lv_cont.h **** /**
 122:lvgl\src\lv_widgets\../lv_widgets/lv_cont.h ****  * Create a container objects
 123:lvgl\src\lv_widgets\../lv_widgets/lv_cont.h ****  * @param par pointer to an object, it will be the parent of the new container
 124:lvgl\src\lv_widgets\../lv_widgets/lv_cont.h ****  * @param copy pointer to a container object, if not NULL then the new object will be copied from i
 125:lvgl\src\lv_widgets\../lv_widgets/lv_cont.h ****  * @return pointer to the created container
 126:lvgl\src\lv_widgets\../lv_widgets/lv_cont.h ****  */
 127:lvgl\src\lv_widgets\../lv_widgets/lv_cont.h **** lv_obj_t * lv_cont_create(lv_obj_t * par, const lv_obj_t * copy);
 128:lvgl\src\lv_widgets\../lv_widgets/lv_cont.h **** 
 129:lvgl\src\lv_widgets\../lv_widgets/lv_cont.h **** /*=====================
 130:lvgl\src\lv_widgets\../lv_widgets/lv_cont.h ****  * Setter functions
 131:lvgl\src\lv_widgets\../lv_widgets/lv_cont.h ****  *====================*/
 132:lvgl\src\lv_widgets\../lv_widgets/lv_cont.h **** 
 133:lvgl\src\lv_widgets\../lv_widgets/lv_cont.h **** /**
 134:lvgl\src\lv_widgets\../lv_widgets/lv_cont.h ****  * Set a layout on a container
 135:lvgl\src\lv_widgets\../lv_widgets/lv_cont.h ****  * @param cont pointer to a container object
 136:lvgl\src\lv_widgets\../lv_widgets/lv_cont.h ****  * @param layout a layout from 'lv_cont_layout_t'
 137:lvgl\src\lv_widgets\../lv_widgets/lv_cont.h ****  */
 138:lvgl\src\lv_widgets\../lv_widgets/lv_cont.h **** void lv_cont_set_layout(lv_obj_t * cont, lv_layout_t layout);
 139:lvgl\src\lv_widgets\../lv_widgets/lv_cont.h **** 
 140:lvgl\src\lv_widgets\../lv_widgets/lv_cont.h **** /**
 141:lvgl\src\lv_widgets\../lv_widgets/lv_cont.h ****  * Set the fit policy in all 4 directions separately.
 142:lvgl\src\lv_widgets\../lv_widgets/lv_cont.h ****  * It tell how to change the container's size automatically.
 143:lvgl\src\lv_widgets\../lv_widgets/lv_cont.h ****  * @param cont pointer to a container object
ARM GAS  C:\Users\strap\AppData\Local\Temp\ccTzHSZB.s 			page 101


 144:lvgl\src\lv_widgets\../lv_widgets/lv_cont.h ****  * @param left left fit policy from `lv_fit_t`
 145:lvgl\src\lv_widgets\../lv_widgets/lv_cont.h ****  * @param right right fit policy from `lv_fit_t`
 146:lvgl\src\lv_widgets\../lv_widgets/lv_cont.h ****  * @param top top fit policy from `lv_fit_t`
 147:lvgl\src\lv_widgets\../lv_widgets/lv_cont.h ****  * @param bottom bottom fit policy from `lv_fit_t`
 148:lvgl\src\lv_widgets\../lv_widgets/lv_cont.h ****  */
 149:lvgl\src\lv_widgets\../lv_widgets/lv_cont.h **** void lv_cont_set_fit4(lv_obj_t * cont, lv_fit_t left, lv_fit_t right, lv_fit_t top, lv_fit_t bottom
 150:lvgl\src\lv_widgets\../lv_widgets/lv_cont.h **** 
 151:lvgl\src\lv_widgets\../lv_widgets/lv_cont.h **** /**
 152:lvgl\src\lv_widgets\../lv_widgets/lv_cont.h ****  * Set the fit policy horizontally and vertically separately.
 153:lvgl\src\lv_widgets\../lv_widgets/lv_cont.h ****  * It tells how to change the container's size automatically.
 154:lvgl\src\lv_widgets\../lv_widgets/lv_cont.h ****  * @param cont pointer to a container object
 155:lvgl\src\lv_widgets\../lv_widgets/lv_cont.h ****  * @param hor horizontal fit policy from `lv_fit_t`
 156:lvgl\src\lv_widgets\../lv_widgets/lv_cont.h ****  * @param ver vertical fit policy from `lv_fit_t`
 157:lvgl\src\lv_widgets\../lv_widgets/lv_cont.h ****  */
 158:lvgl\src\lv_widgets\../lv_widgets/lv_cont.h **** static inline void lv_cont_set_fit2(lv_obj_t * cont, lv_fit_t hor, lv_fit_t ver)
 159:lvgl\src\lv_widgets\../lv_widgets/lv_cont.h **** {
 160:lvgl\src\lv_widgets\../lv_widgets/lv_cont.h ****     lv_cont_set_fit4(cont, hor, hor, ver, ver);
 3350              		.loc 7 160 0
 3351 014a 0223     		movs	r3, #2
 3352 014c 0093     		str	r3, [sp]
 3353 014e 0122     		movs	r2, #1
 3354 0150 1146     		mov	r1, r2
 3355 0152 FFF7FEFF 		bl	lv_cont_set_fit4
 3356              	.LVL532:
 3357              	.LBE180:
 3358              	.LBE179:
 3359              	.LBE178:
 3360              	.LBE177:
 3361              	.LBB181:
 3362              	.LBB182:
 189:lvgl\src\lv_widgets\../lv_widgets/lv_page.h **** }
 190:lvgl\src\lv_widgets\../lv_widgets/lv_page.h **** 
 191:lvgl\src\lv_widgets\../lv_widgets/lv_page.h **** /**
 192:lvgl\src\lv_widgets\../lv_widgets/lv_page.h ****  * Set the fit policy in all 4 direction at once.
 193:lvgl\src\lv_widgets\../lv_widgets/lv_page.h ****  * It tell how to change the page size automatically.
 194:lvgl\src\lv_widgets\../lv_widgets/lv_page.h ****  * @param page pointer to a button object
 195:lvgl\src\lv_widgets\../lv_widgets/lv_page.h ****  * @param fit fit policy from `lv_fit_t`
 196:lvgl\src\lv_widgets\../lv_widgets/lv_page.h ****  */
 197:lvgl\src\lv_widgets\../lv_widgets/lv_page.h **** static inline void lv_page_set_scrollable_fit(lv_obj_t * page, lv_fit_t fit)
 198:lvgl\src\lv_widgets\../lv_widgets/lv_page.h **** {
 199:lvgl\src\lv_widgets\../lv_widgets/lv_page.h ****     lv_cont_set_fit(lv_page_get_scrollable(page), fit);
 200:lvgl\src\lv_widgets\../lv_widgets/lv_page.h **** }
 201:lvgl\src\lv_widgets\../lv_widgets/lv_page.h **** 
 202:lvgl\src\lv_widgets\../lv_widgets/lv_page.h **** /**
 203:lvgl\src\lv_widgets\../lv_widgets/lv_page.h ****  * Set width of the scrollable part of a page
 204:lvgl\src\lv_widgets\../lv_widgets/lv_page.h ****  * @param page pointer to a page object
 205:lvgl\src\lv_widgets\../lv_widgets/lv_page.h ****  * @param w the new width of the scrollable (it ha no effect is horizontal fit is enabled)
 206:lvgl\src\lv_widgets\../lv_widgets/lv_page.h ****  */
 207:lvgl\src\lv_widgets\../lv_widgets/lv_page.h **** static inline void lv_page_set_scrl_width(lv_obj_t * page, lv_coord_t w)
 208:lvgl\src\lv_widgets\../lv_widgets/lv_page.h **** {
 209:lvgl\src\lv_widgets\../lv_widgets/lv_page.h ****     lv_obj_set_width(lv_page_get_scrollable(page), w);
 210:lvgl\src\lv_widgets\../lv_widgets/lv_page.h **** }
 211:lvgl\src\lv_widgets\../lv_widgets/lv_page.h **** 
 212:lvgl\src\lv_widgets\../lv_widgets/lv_page.h **** /**
 213:lvgl\src\lv_widgets\../lv_widgets/lv_page.h ****  * Set height of the scrollable part of a page
 214:lvgl\src\lv_widgets\../lv_widgets/lv_page.h ****  * @param page pointer to a page object
 215:lvgl\src\lv_widgets\../lv_widgets/lv_page.h ****  * @param h the new height of the scrollable (it ha no effect is vertical fit is enabled)
ARM GAS  C:\Users\strap\AppData\Local\Temp\ccTzHSZB.s 			page 102


 216:lvgl\src\lv_widgets\../lv_widgets/lv_page.h ****  */
 217:lvgl\src\lv_widgets\../lv_widgets/lv_page.h **** static inline void lv_page_set_scrl_height(lv_obj_t * page, lv_coord_t h)
 218:lvgl\src\lv_widgets\../lv_widgets/lv_page.h **** {
 219:lvgl\src\lv_widgets\../lv_widgets/lv_page.h ****     lv_obj_set_height(lv_page_get_scrollable(page), h);
 220:lvgl\src\lv_widgets\../lv_widgets/lv_page.h **** }
 221:lvgl\src\lv_widgets\../lv_widgets/lv_page.h **** 
 222:lvgl\src\lv_widgets\../lv_widgets/lv_page.h **** /**
 223:lvgl\src\lv_widgets\../lv_widgets/lv_page.h ****  * Set the layout of the scrollable part of the page
 224:lvgl\src\lv_widgets\../lv_widgets/lv_page.h ****  * @param page pointer to a page object
 225:lvgl\src\lv_widgets\../lv_widgets/lv_page.h ****  * @param layout a layout from 'lv_cont_layout_t'
 226:lvgl\src\lv_widgets\../lv_widgets/lv_page.h ****  */
 227:lvgl\src\lv_widgets\../lv_widgets/lv_page.h **** static inline void lv_page_set_scrl_layout(lv_obj_t * page, lv_layout_t layout)
 228:lvgl\src\lv_widgets\../lv_widgets/lv_page.h **** {
 229:lvgl\src\lv_widgets\../lv_widgets/lv_page.h ****     lv_cont_set_layout(lv_page_get_scrollable(page), layout);
 3363              		.loc 6 229 0
 3364 0156 A068     		ldr	r0, [r4, #8]
 3365 0158 FFF7FEFF 		bl	lv_page_get_scrollable
 3366              	.LVL533:
 3367 015c 0521     		movs	r1, #5
 3368 015e FFF7FEFF 		bl	lv_cont_set_layout
 3369              	.LVL534:
 3370              	.LBE182:
 3371              	.LBE181:
 143:lvgl\src\lv_widgets/lv_tabview.c **** 
 3372              		.loc 1 143 0
 3373 0162 0021     		movs	r1, #0
 3374 0164 A068     		ldr	r0, [r4, #8]
 3375 0166 FFF7FEFF 		bl	lv_page_set_scrollbar_mode
 3376              	.LVL535:
 145:lvgl\src\lv_widgets/lv_tabview.c **** 
 3377              		.loc 1 145 0
 3378 016a 0021     		movs	r1, #0
 3379 016c A068     		ldr	r0, [r4, #8]
 3380 016e FFF7FEFF 		bl	lv_obj_clean_style_list
 3381              	.LVL536:
 147:lvgl\src\lv_widgets/lv_tabview.c **** 
 3382              		.loc 1 147 0
 3383 0172 0F21     		movs	r1, #15
 3384 0174 2846     		mov	r0, r5
 3385 0176 FFF7FEFF 		bl	lv_theme_apply
 3386              	.LVL537:
 3387              	.LBE176:
 3388 017a 8AE0     		b	.L245
 3389              	.LVL538:
 3390              	.L239:
 3391              	.LBB183:
 152:lvgl\src\lv_widgets/lv_tabview.c ****         ext->point_last.x           = 0;
 3392              		.loc 1 152 0
 3393 017c 3046     		mov	r0, r6
 3394 017e FFF7FEFF 		bl	lv_obj_get_ext_attr
 3395              	.LVL539:
 3396 0182 0746     		mov	r7, r0
 3397              	.LVL540:
 153:lvgl\src\lv_widgets/lv_tabview.c ****         ext->point_last.y           = 0;
 3398              		.loc 1 153 0
 3399 0184 0023     		movs	r3, #0
 3400 0186 2382     		strh	r3, [r4, #16]	@ movhi
ARM GAS  C:\Users\strap\AppData\Local\Temp\ccTzHSZB.s 			page 103


 154:lvgl\src\lv_widgets/lv_tabview.c ****         ext->btns                   = lv_btnmatrix_create(tabview, copy_ext->btns);
 3401              		.loc 1 154 0
 3402 0188 6382     		strh	r3, [r4, #18]	@ movhi
 155:lvgl\src\lv_widgets/lv_tabview.c ****         ext->indic                  = lv_obj_create(ext->btns, copy_ext->indic);
 3403              		.loc 1 155 0
 3404 018a 0168     		ldr	r1, [r0]
 3405 018c 2846     		mov	r0, r5
 3406              	.LVL541:
 3407 018e FFF7FEFF 		bl	lv_btnmatrix_create
 3408              	.LVL542:
 3409 0192 2060     		str	r0, [r4]
 156:lvgl\src\lv_widgets/lv_tabview.c ****         ext->content                = lv_page_create(tabview, copy_ext->content);
 3410              		.loc 1 156 0
 3411 0194 7968     		ldr	r1, [r7, #4]
 3412 0196 FFF7FEFF 		bl	lv_obj_create
 3413              	.LVL543:
 3414 019a 6060     		str	r0, [r4, #4]
 157:lvgl\src\lv_widgets/lv_tabview.c **** #if LV_USE_ANIMATION
 3415              		.loc 1 157 0
 3416 019c B968     		ldr	r1, [r7, #8]
 3417 019e 2846     		mov	r0, r5
 3418 01a0 FFF7FEFF 		bl	lv_page_create
 3419              	.LVL544:
 3420 01a4 A060     		str	r0, [r4, #8]
 159:lvgl\src\lv_widgets/lv_tabview.c **** #endif
 3421              		.loc 1 159 0
 3422 01a6 3B8B     		ldrh	r3, [r7, #24]
 3423 01a8 2383     		strh	r3, [r4, #24]	@ movhi
 162:lvgl\src\lv_widgets/lv_tabview.c ****         LV_ASSERT_MEM(ext->tab_name_ptr);
 3424              		.loc 1 162 0
 3425 01aa 0420     		movs	r0, #4
 3426 01ac FFF7FEFF 		bl	lv_mem_alloc
 3427              	.LVL545:
 3428 01b0 E060     		str	r0, [r4, #12]
 163:lvgl\src\lv_widgets/lv_tabview.c ****         if(ext->tab_name_ptr == NULL) return NULL;
 3429              		.loc 1 163 0
 3430 01b2 FFF7FEFF 		bl	lv_debug_check_null
 3431              	.LVL546:
 3432 01b6 28B9     		cbnz	r0, .L246
 163:lvgl\src\lv_widgets/lv_tabview.c ****         if(ext->tab_name_ptr == NULL) return NULL;
 3433              		.loc 1 163 0 is_stmt 0 discriminator 1
 3434 01b8 E268     		ldr	r2, [r4, #12]
 3435 01ba 0023     		movs	r3, #0
 3436 01bc 3B48     		ldr	r0, .L254
 3437 01be FFF7FEFF 		bl	lv_debug_log_error
 3438              	.LVL547:
 3439              	.L247:
 3440 01c2 FEE7     		b	.L247
 3441              	.L246:
 164:lvgl\src\lv_widgets/lv_tabview.c ****         ext->tab_name_ptr[0] = "";
 3442              		.loc 1 164 0 is_stmt 1
 3443 01c4 E368     		ldr	r3, [r4, #12]
 3444 01c6 002B     		cmp	r3, #0
 3445 01c8 6CD0     		beq	.L252
 165:lvgl\src\lv_widgets/lv_tabview.c ****         lv_btnmatrix_set_map(ext->btns, ext->tab_name_ptr);
 3446              		.loc 1 165 0
 3447 01ca 3B4A     		ldr	r2, .L254+12
ARM GAS  C:\Users\strap\AppData\Local\Temp\ccTzHSZB.s 			page 104


 3448 01cc 1A60     		str	r2, [r3]
 166:lvgl\src\lv_widgets/lv_tabview.c **** 
 3449              		.loc 1 166 0
 3450 01ce E168     		ldr	r1, [r4, #12]
 3451 01d0 2068     		ldr	r0, [r4]
 3452 01d2 FFF7FEFF 		bl	lv_btnmatrix_set_map
 3453              	.LVL548:
 168:lvgl\src\lv_widgets/lv_tabview.c ****                                                                                                    
 3454              		.loc 1 168 0
 3455 01d6 4021     		movs	r1, #64
 3456 01d8 2846     		mov	r0, r5
 3457 01da FFF7FEFF 		bl	lv_obj_get_style_list
 3458              	.LVL549:
 3459 01de 0446     		mov	r4, r0
 3460              	.LVL550:
 3461 01e0 4021     		movs	r1, #64
 3462 01e2 3046     		mov	r0, r6
 3463 01e4 FFF7FEFF 		bl	lv_obj_get_style_list
 3464              	.LVL551:
 3465 01e8 0146     		mov	r1, r0
 3466 01ea 2046     		mov	r0, r4
 3467 01ec FFF7FEFF 		bl	lv_style_list_copy
 3468              	.LVL552:
 170:lvgl\src\lv_widgets/lv_tabview.c ****                                                                                                    
 3469              		.loc 1 170 0
 3470 01f0 4121     		movs	r1, #65
 3471 01f2 2846     		mov	r0, r5
 3472 01f4 FFF7FEFF 		bl	lv_obj_get_style_list
 3473              	.LVL553:
 3474 01f8 0446     		mov	r4, r0
 3475 01fa 4121     		movs	r1, #65
 3476 01fc 3046     		mov	r0, r6
 3477 01fe FFF7FEFF 		bl	lv_obj_get_style_list
 3478              	.LVL554:
 3479 0202 0146     		mov	r1, r0
 3480 0204 2046     		mov	r0, r4
 3481 0206 FFF7FEFF 		bl	lv_style_list_copy
 3482              	.LVL555:
 172:lvgl\src\lv_widgets/lv_tabview.c ****                                                                                                    
 3483              		.loc 1 172 0
 3484 020a 4221     		movs	r1, #66
 3485 020c 2846     		mov	r0, r5
 3486 020e FFF7FEFF 		bl	lv_obj_get_style_list
 3487              	.LVL556:
 3488 0212 0446     		mov	r4, r0
 3489 0214 4221     		movs	r1, #66
 3490 0216 3046     		mov	r0, r6
 3491 0218 FFF7FEFF 		bl	lv_obj_get_style_list
 3492              	.LVL557:
 3493 021c 0146     		mov	r1, r0
 3494 021e 2046     		mov	r0, r4
 3495 0220 FFF7FEFF 		bl	lv_style_list_copy
 3496              	.LVL558:
 176:lvgl\src\lv_widgets/lv_tabview.c ****             lv_obj_t * new_tab = lv_tabview_add_tab(tabview, copy_ext->tab_name_ptr[i]);
 3497              		.loc 1 176 0
 3498 0224 0024     		movs	r4, #0
 3499 0226 2CE0     		b	.L248
ARM GAS  C:\Users\strap\AppData\Local\Temp\ccTzHSZB.s 			page 105


 3500              	.LVL559:
 3501              	.L249:
 3502              	.LBB184:
 177:lvgl\src\lv_widgets/lv_tabview.c ****             lv_obj_t * copy_tab = lv_tabview_get_tab(copy, i);
 3503              		.loc 1 177 0 discriminator 3
 3504 0228 FB68     		ldr	r3, [r7, #12]
 3505 022a 53F82410 		ldr	r1, [r3, r4, lsl #2]
 3506 022e 2846     		mov	r0, r5
 3507 0230 FFF7FEFF 		bl	lv_tabview_add_tab
 3508              	.LVL560:
 3509 0234 8046     		mov	r8, r0
 3510              	.LVL561:
 178:lvgl\src\lv_widgets/lv_tabview.c ****             lv_style_list_copy(lv_obj_get_style_list(new_tab, LV_PAGE_PART_SCROLLABLE), lv_obj_get_
 3511              		.loc 1 178 0 discriminator 3
 3512 0236 2146     		mov	r1, r4
 3513 0238 3046     		mov	r0, r6
 3514              	.LVL562:
 3515 023a FFF7FEFF 		bl	lv_tabview_get_tab
 3516              	.LVL563:
 3517 023e 8146     		mov	r9, r0
 3518              	.LVL564:
 179:lvgl\src\lv_widgets/lv_tabview.c ****                                                                                                    
 3519              		.loc 1 179 0 discriminator 3
 3520 0240 4021     		movs	r1, #64
 3521 0242 4046     		mov	r0, r8
 3522              	.LVL565:
 3523 0244 FFF7FEFF 		bl	lv_obj_get_style_list
 3524              	.LVL566:
 3525 0248 8246     		mov	r10, r0
 3526 024a 4021     		movs	r1, #64
 3527 024c 4846     		mov	r0, r9
 3528 024e FFF7FEFF 		bl	lv_obj_get_style_list
 3529              	.LVL567:
 3530 0252 0146     		mov	r1, r0
 3531 0254 5046     		mov	r0, r10
 3532 0256 FFF7FEFF 		bl	lv_style_list_copy
 3533              	.LVL568:
 181:lvgl\src\lv_widgets/lv_tabview.c ****                                                                                                    
 3534              		.loc 1 181 0 discriminator 3
 3535 025a 0121     		movs	r1, #1
 3536 025c 4046     		mov	r0, r8
 3537 025e FFF7FEFF 		bl	lv_obj_get_style_list
 3538              	.LVL569:
 3539 0262 8246     		mov	r10, r0
 3540 0264 0121     		movs	r1, #1
 3541 0266 4846     		mov	r0, r9
 3542 0268 FFF7FEFF 		bl	lv_obj_get_style_list
 3543              	.LVL570:
 3544 026c 0146     		mov	r1, r0
 3545 026e 5046     		mov	r0, r10
 3546 0270 FFF7FEFF 		bl	lv_style_list_copy
 3547              	.LVL571:
 183:lvgl\src\lv_widgets/lv_tabview.c ****         }
 3548              		.loc 1 183 0 discriminator 3
 3549 0274 FF22     		movs	r2, #255
 3550 0276 1146     		mov	r1, r2
 3551 0278 4046     		mov	r0, r8
ARM GAS  C:\Users\strap\AppData\Local\Temp\ccTzHSZB.s 			page 106


 3552 027a FFF7FEFF 		bl	lv_obj_refresh_style
 3553              	.LVL572:
 3554              	.LBE184:
 176:lvgl\src\lv_widgets/lv_tabview.c ****             lv_obj_t * new_tab = lv_tabview_add_tab(tabview, copy_ext->tab_name_ptr[i]);
 3555              		.loc 1 176 0 discriminator 3
 3556 027e 0134     		adds	r4, r4, #1
 3557              	.LVL573:
 3558 0280 A4B2     		uxth	r4, r4
 3559              	.LVL574:
 3560              	.L248:
 176:lvgl\src\lv_widgets/lv_tabview.c ****             lv_obj_t * new_tab = lv_tabview_add_tab(tabview, copy_ext->tab_name_ptr[i]);
 3561              		.loc 1 176 0 is_stmt 0 discriminator 1
 3562 0282 FB8A     		ldrh	r3, [r7, #22]
 3563 0284 9C42     		cmp	r4, r3
 3564 0286 CFD3     		bcc	.L249
 187:lvgl\src\lv_widgets/lv_tabview.c ****     }
 3565              		.loc 1 187 0 is_stmt 1
 3566 0288 FF22     		movs	r2, #255
 3567 028a 1146     		mov	r1, r2
 3568 028c 2846     		mov	r0, r5
 3569 028e FFF7FEFF 		bl	lv_obj_refresh_style
 3570              	.LVL575:
 3571              	.L245:
 3572              	.LBE183:
 190:lvgl\src\lv_widgets/lv_tabview.c **** 
 3573              		.loc 1 190 0
 3574 0292 2846     		mov	r0, r5
 3575 0294 FFF7FEFF 		bl	tabview_realign
 3576              	.LVL576:
 194:lvgl\src\lv_widgets/lv_tabview.c **** }
 3577              		.loc 1 194 0
 3578 0298 2846     		mov	r0, r5
 3579 029a 04E0     		b	.L234
 3580              	.LVL577:
 3581              	.L250:
  79:lvgl\src\lv_widgets/lv_tabview.c ****     if(ancestor_signal == NULL) ancestor_signal = lv_obj_get_signal_cb(tabview);
 3582              		.loc 1 79 0
 3583 029c 0020     		movs	r0, #0
 3584 029e 02E0     		b	.L234
 3585              	.LVL578:
 3586              	.L251:
 3587              	.LBB185:
 109:lvgl\src\lv_widgets/lv_tabview.c ****         ext->tab_name_ptr[0] = "";
 3588              		.loc 1 109 0
 3589 02a0 0020     		movs	r0, #0
 3590 02a2 00E0     		b	.L234
 3591              	.LVL579:
 3592              	.L252:
 3593              	.LBE185:
 3594              	.LBB186:
 164:lvgl\src\lv_widgets/lv_tabview.c ****         ext->tab_name_ptr[0] = "";
 3595              		.loc 1 164 0
 3596 02a4 0020     		movs	r0, #0
 3597              	.LVL580:
 3598              	.L234:
 3599              	.LBE186:
 195:lvgl\src\lv_widgets/lv_tabview.c **** 
ARM GAS  C:\Users\strap\AppData\Local\Temp\ccTzHSZB.s 			page 107


 3600              		.loc 1 195 0
 3601 02a6 02B0     		add	sp, sp, #8
 3602              		.cfi_def_cfa_offset 32
 3603              		@ sp needed
 3604 02a8 BDE8F087 		pop	{r4, r5, r6, r7, r8, r9, r10, pc}
 3605              	.LVL581:
 3606              	.L255:
 3607              		.align	2
 3608              	.L254:
 3609 02ac 10000000 		.word	.LC1
 3610 02b0 00000000 		.word	.LANCHOR0
 3611 02b4 00000000 		.word	lv_tabview_signal
 3612 02b8 20000000 		.word	.LC2
 3613 02bc 00000000 		.word	tabview_scrl_signal
 3614 02c0 00000000 		.word	.LANCHOR1
 3615 02c4 00000000 		.word	tab_btnm_event_cb
 3616              		.cfi_endproc
 3617              	.LFE357:
 3618              		.size	lv_tabview_create, .-lv_tabview_create
 3619              		.section	.text.lv_tabview_get_btns_pos,"ax",%progbits
 3620              		.align	2
 3621              		.global	lv_tabview_get_btns_pos
 3622              		.thumb
 3623              		.thumb_func
 3624              		.type	lv_tabview_get_btns_pos, %function
 3625              	lv_tabview_get_btns_pos:
 3626              	.LFB368:
 585:lvgl\src\lv_widgets/lv_tabview.c ****     LV_ASSERT_OBJ(tabview, LV_OBJX_NAME);
 3627              		.loc 1 585 0
 3628              		.cfi_startproc
 3629              		@ args = 0, pretend = 0, frame = 0
 3630              		@ frame_needed = 0, uses_anonymous_args = 0
 3631              	.LVL582:
 3632 0000 10B5     		push	{r4, lr}
 3633              		.cfi_def_cfa_offset 8
 3634              		.cfi_offset 4, -8
 3635              		.cfi_offset 14, -4
 3636 0002 0446     		mov	r4, r0
 586:lvgl\src\lv_widgets/lv_tabview.c **** 
 3637              		.loc 1 586 0
 3638 0004 FFF7FEFF 		bl	lv_debug_check_null
 3639              	.LVL583:
 3640 0008 28B9     		cbnz	r0, .L257
 586:lvgl\src\lv_widgets/lv_tabview.c **** 
 3641              		.loc 1 586 0 is_stmt 0 discriminator 1
 3642 000a 2246     		mov	r2, r4
 3643 000c 0023     		movs	r3, #0
 3644 000e 0548     		ldr	r0, .L260
 3645 0010 FFF7FEFF 		bl	lv_debug_log_error
 3646              	.LVL584:
 3647              	.L258:
 3648 0014 FEE7     		b	.L258
 3649              	.L257:
 588:lvgl\src\lv_widgets/lv_tabview.c ****     return ext->btns_pos;
 3650              		.loc 1 588 0 is_stmt 1
 3651 0016 2046     		mov	r0, r4
 3652 0018 FFF7FEFF 		bl	lv_obj_get_ext_attr
ARM GAS  C:\Users\strap\AppData\Local\Temp\ccTzHSZB.s 			page 108


 3653              	.LVL585:
 589:lvgl\src\lv_widgets/lv_tabview.c **** }
 3654              		.loc 1 589 0
 3655 001c 807E     		ldrb	r0, [r0, #26]	@ zero_extendqisi2
 3656              	.LVL586:
 590:lvgl\src\lv_widgets/lv_tabview.c **** 
 3657              		.loc 1 590 0
 3658 001e 00F00700 		and	r0, r0, #7
 3659 0022 10BD     		pop	{r4, pc}
 3660              	.LVL587:
 3661              	.L261:
 3662              		.align	2
 3663              	.L260:
 3664 0024 00000000 		.word	.LC0
 3665              		.cfi_endproc
 3666              	.LFE368:
 3667              		.size	lv_tabview_get_btns_pos, .-lv_tabview_get_btns_pos
 3668              		.data
 3669              		.align	2
 3670              		.set	.LANCHOR1,. + 0
 3671              		.type	tab_def, %object
 3672              		.size	tab_def, 4
 3673              	tab_def:
 3674 0000 20000000 		.word	.LC2
 3675              		.section	.rodata.str1.4,"aMS",%progbits,1
 3676              		.align	2
 3677              	.LC0:
 3678 0000 4E554C4C 		.ascii	"NULL pointer\000"
 3678      20706F69 
 3678      6E746572 
 3678      00
 3679 000d 000000   		.space	3
 3680              	.LC1:
 3681 0010 4F757420 		.ascii	"Out of memory\000"
 3681      6F66206D 
 3681      656D6F72 
 3681      7900
 3682 001e 0000     		.space	2
 3683              	.LC2:
 3684 0020 00       		.ascii	"\000"
 3685 0021 000000   		.space	3
 3686              	.LC3:
 3687 0024 6C765F74 		.ascii	"lv_tabview\000"
 3687      61627669 
 3687      657700
 3688 002f 00       		.space	1
 3689              	.LC4:
 3690 0030 0A00     		.ascii	"\012\000"
 3691              		.bss
 3692              		.align	2
 3693              		.set	.LANCHOR0,. + 0
 3694              		.type	page_signal, %object
 3695              		.size	page_signal, 4
 3696              	page_signal:
 3697 0000 00000000 		.space	4
 3698              		.type	ancestor_scrl_signal, %object
 3699              		.size	ancestor_scrl_signal, 4
ARM GAS  C:\Users\strap\AppData\Local\Temp\ccTzHSZB.s 			page 109


 3700              	ancestor_scrl_signal:
 3701 0004 00000000 		.space	4
 3702              		.type	ancestor_signal, %object
 3703              		.size	ancestor_signal, 4
 3704              	ancestor_signal:
 3705 0008 00000000 		.space	4
 3706              		.text
 3707              	.Letext0:
 3708              		.file 8 "c:\\program files (x86)\\cypress\\psoc creator\\4.4\\psoc creator\\import\\gnu\\arm\\5.4.
 3709              		.file 9 "c:\\program files (x86)\\cypress\\psoc creator\\4.4\\psoc creator\\import\\gnu\\arm\\5.4.
 3710              		.file 10 "lvgl\\src\\lv_widgets\\../../../lv_conf.h"
 3711              		.file 11 "lvgl\\src\\lv_widgets\\../lv_core/../lv_font/../lv_misc/lv_types.h"
 3712              		.file 12 "lvgl\\src\\lv_widgets\\../lv_core/../lv_misc/lv_color.h"
 3713              		.file 13 "lvgl\\src\\lv_widgets\\../lv_core/lv_style.h"
 3714              		.file 14 "lvgl\\src\\lv_widgets\\../lv_core/../lv_hal/../lv_misc/lv_ll.h"
 3715              		.file 15 "lvgl\\src\\lv_widgets\\../lv_core/../lv_hal/../lv_misc/lv_task.h"
 3716              		.file 16 "lvgl\\src\\lv_widgets\\../lv_core/../lv_hal/lv_hal_disp.h"
 3717              		.file 17 "lvgl\\src\\lv_widgets\\../lv_core/lv_obj.h"
 3718              		.file 18 "lvgl\\src\\lv_widgets\\../lv_core/../lv_hal/lv_hal_indev.h"
 3719              		.file 19 "lvgl\\src\\lv_widgets\\../lv_widgets/../lv_core/../lv_core/lv_group.h"
 3720              		.file 20 "lvgl\\src\\lv_widgets\\../lv_core/../lv_draw/../lv_misc/lv_bidi.h"
 3721              		.file 21 "lvgl\\src\\lv_widgets\\lv_tabview.h"
 3722              		.file 22 "lvgl\\src\\lv_widgets\\lv_btnmatrix.h"
 3723              		.file 23 "lvgl\\src\\lv_widgets\\../lv_themes/lv_theme.h"
 3724              		.file 24 "lvgl\\src\\lv_widgets\\../lv_core/../lv_misc/lv_debug.h"
 3725              		.file 25 "c:\\program files (x86)\\cypress\\psoc creator\\4.4\\psoc creator\\import\\gnu\\arm\\5.4
 3726              		.file 26 "lvgl\\src\\lv_widgets\\../lv_core/../lv_font/../lv_misc/lv_mem.h"
 3727              		.file 27 "lvgl\\src\\lv_widgets\\../lv_widgets/../lv_core/lv_indev.h"
 3728              		.section	.debug_info,"",%progbits
 3729              	.Ldebug_info0:
 3730 0000 F2490000 		.4byte	0x49f2
 3731 0004 0400     		.2byte	0x4
 3732 0006 00000000 		.4byte	.Ldebug_abbrev0
 3733 000a 04       		.byte	0x4
 3734 000b 01       		.uleb128 0x1
 3735 000c E2070000 		.4byte	.LASF758
 3736 0010 0C       		.byte	0xc
 3737 0011 812D0000 		.4byte	.LASF759
 3738 0015 2C030000 		.4byte	.LASF760
 3739 0019 90000000 		.4byte	.Ldebug_ranges0+0x90
 3740 001d 00000000 		.4byte	0
 3741 0021 00000000 		.4byte	.Ldebug_line0
 3742 0025 02       		.uleb128 0x2
 3743 0026 16210000 		.4byte	.LASF0
 3744 002a 08       		.byte	0x8
 3745 002b 1B       		.byte	0x1b
 3746 002c 30000000 		.4byte	0x30
 3747 0030 03       		.uleb128 0x3
 3748 0031 01       		.byte	0x1
 3749 0032 06       		.byte	0x6
 3750 0033 090A0000 		.4byte	.LASF2
 3751 0037 02       		.uleb128 0x2
 3752 0038 69050000 		.4byte	.LASF1
 3753 003c 08       		.byte	0x8
 3754 003d 1D       		.byte	0x1d
 3755 003e 42000000 		.4byte	0x42
 3756 0042 03       		.uleb128 0x3
ARM GAS  C:\Users\strap\AppData\Local\Temp\ccTzHSZB.s 			page 110


 3757 0043 01       		.byte	0x1
 3758 0044 08       		.byte	0x8
 3759 0045 FC0A0000 		.4byte	.LASF3
 3760 0049 02       		.uleb128 0x2
 3761 004a 67240000 		.4byte	.LASF4
 3762 004e 08       		.byte	0x8
 3763 004f 29       		.byte	0x29
 3764 0050 54000000 		.4byte	0x54
 3765 0054 03       		.uleb128 0x3
 3766 0055 02       		.byte	0x2
 3767 0056 05       		.byte	0x5
 3768 0057 8B270000 		.4byte	.LASF5
 3769 005b 02       		.uleb128 0x2
 3770 005c 7F0D0000 		.4byte	.LASF6
 3771 0060 08       		.byte	0x8
 3772 0061 2B       		.byte	0x2b
 3773 0062 66000000 		.4byte	0x66
 3774 0066 03       		.uleb128 0x3
 3775 0067 02       		.byte	0x2
 3776 0068 07       		.byte	0x7
 3777 0069 7A2C0000 		.4byte	.LASF7
 3778 006d 02       		.uleb128 0x2
 3779 006e CF2D0000 		.4byte	.LASF8
 3780 0072 08       		.byte	0x8
 3781 0073 3F       		.byte	0x3f
 3782 0074 78000000 		.4byte	0x78
 3783 0078 03       		.uleb128 0x3
 3784 0079 04       		.byte	0x4
 3785 007a 05       		.byte	0x5
 3786 007b 84060000 		.4byte	.LASF9
 3787 007f 02       		.uleb128 0x2
 3788 0080 D9170000 		.4byte	.LASF10
 3789 0084 08       		.byte	0x8
 3790 0085 41       		.byte	0x41
 3791 0086 8A000000 		.4byte	0x8a
 3792 008a 03       		.uleb128 0x3
 3793 008b 04       		.byte	0x4
 3794 008c 07       		.byte	0x7
 3795 008d 02140000 		.4byte	.LASF11
 3796 0091 03       		.uleb128 0x3
 3797 0092 08       		.byte	0x8
 3798 0093 05       		.byte	0x5
 3799 0094 09180000 		.4byte	.LASF12
 3800 0098 02       		.uleb128 0x2
 3801 0099 A6130000 		.4byte	.LASF13
 3802 009d 08       		.byte	0x8
 3803 009e 5B       		.byte	0x5b
 3804 009f A3000000 		.4byte	0xa3
 3805 00a3 03       		.uleb128 0x3
 3806 00a4 08       		.byte	0x8
 3807 00a5 07       		.byte	0x7
 3808 00a6 C4210000 		.4byte	.LASF14
 3809 00aa 04       		.uleb128 0x4
 3810 00ab 04       		.byte	0x4
 3811 00ac 05       		.byte	0x5
 3812 00ad 696E7400 		.ascii	"int\000"
 3813 00b1 02       		.uleb128 0x2
ARM GAS  C:\Users\strap\AppData\Local\Temp\ccTzHSZB.s 			page 111


 3814 00b2 77250000 		.4byte	.LASF15
 3815 00b6 08       		.byte	0x8
 3816 00b7 CA       		.byte	0xca
 3817 00b8 BC000000 		.4byte	0xbc
 3818 00bc 03       		.uleb128 0x3
 3819 00bd 04       		.byte	0x4
 3820 00be 07       		.byte	0x7
 3821 00bf 151B0000 		.4byte	.LASF16
 3822 00c3 02       		.uleb128 0x2
 3823 00c4 29000000 		.4byte	.LASF17
 3824 00c8 09       		.byte	0x9
 3825 00c9 14       		.byte	0x14
 3826 00ca 25000000 		.4byte	0x25
 3827 00ce 02       		.uleb128 0x2
 3828 00cf 280A0000 		.4byte	.LASF18
 3829 00d3 09       		.byte	0x9
 3830 00d4 18       		.byte	0x18
 3831 00d5 37000000 		.4byte	0x37
 3832 00d9 02       		.uleb128 0x2
 3833 00da 32280000 		.4byte	.LASF19
 3834 00de 09       		.byte	0x9
 3835 00df 20       		.byte	0x20
 3836 00e0 49000000 		.4byte	0x49
 3837 00e4 02       		.uleb128 0x2
 3838 00e5 61220000 		.4byte	.LASF20
 3839 00e9 09       		.byte	0x9
 3840 00ea 24       		.byte	0x24
 3841 00eb 5B000000 		.4byte	0x5b
 3842 00ef 02       		.uleb128 0x2
 3843 00f0 71010000 		.4byte	.LASF21
 3844 00f4 09       		.byte	0x9
 3845 00f5 2C       		.byte	0x2c
 3846 00f6 6D000000 		.4byte	0x6d
 3847 00fa 02       		.uleb128 0x2
 3848 00fb AD2B0000 		.4byte	.LASF22
 3849 00ff 09       		.byte	0x9
 3850 0100 30       		.byte	0x30
 3851 0101 7F000000 		.4byte	0x7f
 3852 0105 02       		.uleb128 0x2
 3853 0106 AD270000 		.4byte	.LASF23
 3854 010a 09       		.byte	0x9
 3855 010b 3C       		.byte	0x3c
 3856 010c 98000000 		.4byte	0x98
 3857 0110 02       		.uleb128 0x2
 3858 0111 BD150000 		.4byte	.LASF24
 3859 0115 09       		.byte	0x9
 3860 0116 48       		.byte	0x48
 3861 0117 B1000000 		.4byte	0xb1
 3862 011b 02       		.uleb128 0x2
 3863 011c CF2C0000 		.4byte	.LASF25
 3864 0120 0A       		.byte	0xa
 3865 0121 46       		.byte	0x46
 3866 0122 D9000000 		.4byte	0xd9
 3867 0126 02       		.uleb128 0x2
 3868 0127 63100000 		.4byte	.LASF26
 3869 012b 0A       		.byte	0xa
 3870 012c 99       		.byte	0x99
ARM GAS  C:\Users\strap\AppData\Local\Temp\ccTzHSZB.s 			page 112


 3871 012d 31010000 		.4byte	0x131
 3872 0131 05       		.uleb128 0x5
 3873 0132 04       		.byte	0x4
 3874 0133 02       		.uleb128 0x2
 3875 0134 6E210000 		.4byte	.LASF27
 3876 0138 0A       		.byte	0xa
 3877 0139 BC       		.byte	0xbc
 3878 013a 31010000 		.4byte	0x131
 3879 013e 06       		.uleb128 0x6
 3880 013f 7C040000 		.4byte	.LASF28
 3881 0143 0A       		.byte	0xa
 3882 0144 2101     		.2byte	0x121
 3883 0146 31010000 		.4byte	0x131
 3884 014a 06       		.uleb128 0x6
 3885 014b CF1F0000 		.4byte	.LASF29
 3886 014f 0A       		.byte	0xa
 3887 0150 2201     		.2byte	0x122
 3888 0152 31010000 		.4byte	0x131
 3889 0156 06       		.uleb128 0x6
 3890 0157 2F230000 		.4byte	.LASF30
 3891 015b 0A       		.byte	0xa
 3892 015c A901     		.2byte	0x1a9
 3893 015e 31010000 		.4byte	0x131
 3894 0162 06       		.uleb128 0x6
 3895 0163 9A140000 		.4byte	.LASF31
 3896 0167 0A       		.byte	0xa
 3897 0168 1202     		.2byte	0x212
 3898 016a 31010000 		.4byte	0x131
 3899 016e 03       		.uleb128 0x3
 3900 016f 08       		.byte	0x8
 3901 0170 04       		.byte	0x4
 3902 0171 B21E0000 		.4byte	.LASF32
 3903 0175 03       		.uleb128 0x3
 3904 0176 04       		.byte	0x4
 3905 0177 07       		.byte	0x7
 3906 0178 6E000000 		.4byte	.LASF33
 3907 017c 07       		.uleb128 0x7
 3908 017d 04       		.byte	0x4
 3909 017e 82010000 		.4byte	0x182
 3910 0182 03       		.uleb128 0x3
 3911 0183 01       		.byte	0x1
 3912 0184 08       		.byte	0x8
 3913 0185 7A0C0000 		.4byte	.LASF34
 3914 0189 07       		.uleb128 0x7
 3915 018a 04       		.byte	0x4
 3916 018b 8F010000 		.4byte	0x18f
 3917 018f 08       		.uleb128 0x8
 3918 0190 82010000 		.4byte	0x182
 3919 0194 09       		.uleb128 0x9
 3920 0195 01       		.byte	0x1
 3921 0196 42000000 		.4byte	0x42
 3922 019a 0B       		.byte	0xb
 3923 019b 2F       		.byte	0x2f
 3924 019c AD010000 		.4byte	0x1ad
 3925 01a0 0A       		.uleb128 0xa
 3926 01a1 D7030000 		.4byte	.LASF35
 3927 01a5 00       		.byte	0
ARM GAS  C:\Users\strap\AppData\Local\Temp\ccTzHSZB.s 			page 113


 3928 01a6 0A       		.uleb128 0xa
 3929 01a7 6A220000 		.4byte	.LASF36
 3930 01ab 01       		.byte	0x1
 3931 01ac 00       		.byte	0
 3932 01ad 02       		.uleb128 0x2
 3933 01ae 731E0000 		.4byte	.LASF37
 3934 01b2 0B       		.byte	0xb
 3935 01b3 34       		.byte	0x34
 3936 01b4 CE000000 		.4byte	0xce
 3937 01b8 0B       		.uleb128 0xb
 3938 01b9 04       		.byte	0x4
 3939 01ba 04       		.byte	0x4
 3940 01bb 27       		.byte	0x27
 3941 01bc D5010000 		.4byte	0x1d5
 3942 01c0 0C       		.uleb128 0xc
 3943 01c1 7800     		.ascii	"x\000"
 3944 01c3 04       		.byte	0x4
 3945 01c4 28       		.byte	0x28
 3946 01c5 1B010000 		.4byte	0x11b
 3947 01c9 00       		.byte	0
 3948 01ca 0C       		.uleb128 0xc
 3949 01cb 7900     		.ascii	"y\000"
 3950 01cd 04       		.byte	0x4
 3951 01ce 29       		.byte	0x29
 3952 01cf 1B010000 		.4byte	0x11b
 3953 01d3 02       		.byte	0x2
 3954 01d4 00       		.byte	0
 3955 01d5 02       		.uleb128 0x2
 3956 01d6 91010000 		.4byte	.LASF38
 3957 01da 04       		.byte	0x4
 3958 01db 2A       		.byte	0x2a
 3959 01dc B8010000 		.4byte	0x1b8
 3960 01e0 0B       		.uleb128 0xb
 3961 01e1 08       		.byte	0x8
 3962 01e2 04       		.byte	0x4
 3963 01e3 2D       		.byte	0x2d
 3964 01e4 15020000 		.4byte	0x215
 3965 01e8 0C       		.uleb128 0xc
 3966 01e9 783100   		.ascii	"x1\000"
 3967 01ec 04       		.byte	0x4
 3968 01ed 2E       		.byte	0x2e
 3969 01ee 1B010000 		.4byte	0x11b
 3970 01f2 00       		.byte	0
 3971 01f3 0C       		.uleb128 0xc
 3972 01f4 793100   		.ascii	"y1\000"
 3973 01f7 04       		.byte	0x4
 3974 01f8 2F       		.byte	0x2f
 3975 01f9 1B010000 		.4byte	0x11b
 3976 01fd 02       		.byte	0x2
 3977 01fe 0C       		.uleb128 0xc
 3978 01ff 783200   		.ascii	"x2\000"
 3979 0202 04       		.byte	0x4
 3980 0203 30       		.byte	0x30
 3981 0204 1B010000 		.4byte	0x11b
 3982 0208 04       		.byte	0x4
 3983 0209 0C       		.uleb128 0xc
 3984 020a 793200   		.ascii	"y2\000"
ARM GAS  C:\Users\strap\AppData\Local\Temp\ccTzHSZB.s 			page 114


 3985 020d 04       		.byte	0x4
 3986 020e 31       		.byte	0x31
 3987 020f 1B010000 		.4byte	0x11b
 3988 0213 06       		.byte	0x6
 3989 0214 00       		.byte	0
 3990 0215 02       		.uleb128 0x2
 3991 0216 F1100000 		.4byte	.LASF39
 3992 021a 04       		.byte	0x4
 3993 021b 32       		.byte	0x32
 3994 021c E0010000 		.4byte	0x1e0
 3995 0220 09       		.uleb128 0x9
 3996 0221 01       		.byte	0x1
 3997 0222 42000000 		.4byte	0x42
 3998 0226 04       		.byte	0x4
 3999 0227 37       		.byte	0x37
 4000 0228 AB020000 		.4byte	0x2ab
 4001 022c 0A       		.uleb128 0xa
 4002 022d 101C0000 		.4byte	.LASF40
 4003 0231 00       		.byte	0
 4004 0232 0A       		.uleb128 0xa
 4005 0233 2F260000 		.4byte	.LASF41
 4006 0237 01       		.byte	0x1
 4007 0238 0A       		.uleb128 0xa
 4008 0239 02210000 		.4byte	.LASF42
 4009 023d 02       		.byte	0x2
 4010 023e 0A       		.uleb128 0xa
 4011 023f D4180000 		.4byte	.LASF43
 4012 0243 03       		.byte	0x3
 4013 0244 0A       		.uleb128 0xa
 4014 0245 581A0000 		.4byte	.LASF44
 4015 0249 04       		.byte	0x4
 4016 024a 0A       		.uleb128 0xa
 4017 024b 6D070000 		.4byte	.LASF45
 4018 024f 05       		.byte	0x5
 4019 0250 0A       		.uleb128 0xa
 4020 0251 83120000 		.4byte	.LASF46
 4021 0255 06       		.byte	0x6
 4022 0256 0A       		.uleb128 0xa
 4023 0257 09150000 		.4byte	.LASF47
 4024 025b 07       		.byte	0x7
 4025 025c 0A       		.uleb128 0xa
 4026 025d 3B250000 		.4byte	.LASF48
 4027 0261 08       		.byte	0x8
 4028 0262 0A       		.uleb128 0xa
 4029 0263 101F0000 		.4byte	.LASF49
 4030 0267 09       		.byte	0x9
 4031 0268 0A       		.uleb128 0xa
 4032 0269 CC2A0000 		.4byte	.LASF50
 4033 026d 0A       		.byte	0xa
 4034 026e 0A       		.uleb128 0xa
 4035 026f 0E280000 		.4byte	.LASF51
 4036 0273 0B       		.byte	0xb
 4037 0274 0A       		.uleb128 0xa
 4038 0275 91170000 		.4byte	.LASF52
 4039 0279 0C       		.byte	0xc
 4040 027a 0A       		.uleb128 0xa
 4041 027b C5130000 		.4byte	.LASF53
ARM GAS  C:\Users\strap\AppData\Local\Temp\ccTzHSZB.s 			page 115


 4042 027f 0D       		.byte	0xd
 4043 0280 0A       		.uleb128 0xa
 4044 0281 9C120000 		.4byte	.LASF54
 4045 0285 0E       		.byte	0xe
 4046 0286 0A       		.uleb128 0xa
 4047 0287 D32B0000 		.4byte	.LASF55
 4048 028b 0F       		.byte	0xf
 4049 028c 0A       		.uleb128 0xa
 4050 028d D60D0000 		.4byte	.LASF56
 4051 0291 10       		.byte	0x10
 4052 0292 0A       		.uleb128 0xa
 4053 0293 25180000 		.4byte	.LASF57
 4054 0297 11       		.byte	0x11
 4055 0298 0A       		.uleb128 0xa
 4056 0299 4A220000 		.4byte	.LASF58
 4057 029d 12       		.byte	0x12
 4058 029e 0A       		.uleb128 0xa
 4059 029f E2030000 		.4byte	.LASF59
 4060 02a3 13       		.byte	0x13
 4061 02a4 0A       		.uleb128 0xa
 4062 02a5 891E0000 		.4byte	.LASF60
 4063 02a9 14       		.byte	0x14
 4064 02aa 00       		.byte	0
 4065 02ab 02       		.uleb128 0x2
 4066 02ac 0F020000 		.4byte	.LASF61
 4067 02b0 04       		.byte	0x4
 4068 02b1 4E       		.byte	0x4e
 4069 02b2 CE000000 		.4byte	0xce
 4070 02b6 0B       		.uleb128 0xb
 4071 02b7 0C       		.byte	0xc
 4072 02b8 03       		.byte	0x3
 4073 02b9 2A       		.byte	0x2a
 4074 02ba 07030000 		.4byte	0x307
 4075 02be 0D       		.uleb128 0xd
 4076 02bf 4E000000 		.4byte	.LASF62
 4077 02c3 03       		.byte	0x3
 4078 02c4 2B       		.byte	0x2b
 4079 02c5 E4000000 		.4byte	0xe4
 4080 02c9 00       		.byte	0
 4081 02ca 0D       		.uleb128 0xd
 4082 02cb 85270000 		.4byte	.LASF63
 4083 02cf 03       		.byte	0x3
 4084 02d0 2C       		.byte	0x2c
 4085 02d1 E4000000 		.4byte	0xe4
 4086 02d5 02       		.byte	0x2
 4087 02d6 0D       		.uleb128 0xd
 4088 02d7 E2260000 		.4byte	.LASF64
 4089 02db 03       		.byte	0x3
 4090 02dc 2D       		.byte	0x2d
 4091 02dd E4000000 		.4byte	0xe4
 4092 02e1 04       		.byte	0x4
 4093 02e2 0D       		.uleb128 0xd
 4094 02e3 C30B0000 		.4byte	.LASF65
 4095 02e7 03       		.byte	0x3
 4096 02e8 2E       		.byte	0x2e
 4097 02e9 D9000000 		.4byte	0xd9
 4098 02ed 06       		.byte	0x6
ARM GAS  C:\Users\strap\AppData\Local\Temp\ccTzHSZB.s 			page 116


 4099 02ee 0D       		.uleb128 0xd
 4100 02ef C90B0000 		.4byte	.LASF66
 4101 02f3 03       		.byte	0x3
 4102 02f4 2F       		.byte	0x2f
 4103 02f5 D9000000 		.4byte	0xd9
 4104 02f9 08       		.byte	0x8
 4105 02fa 0C       		.uleb128 0xc
 4106 02fb 62707000 		.ascii	"bpp\000"
 4107 02ff 03       		.byte	0x3
 4108 0300 30       		.byte	0x30
 4109 0301 CE000000 		.4byte	0xce
 4110 0305 0A       		.byte	0xa
 4111 0306 00       		.byte	0
 4112 0307 02       		.uleb128 0x2
 4113 0308 321D0000 		.4byte	.LASF67
 4114 030c 03       		.byte	0x3
 4115 030d 31       		.byte	0x31
 4116 030e B6020000 		.4byte	0x2b6
 4117 0312 0E       		.uleb128 0xe
 4118 0313 1A2F0000 		.4byte	.LASF90
 4119 0317 18       		.byte	0x18
 4120 0318 03       		.byte	0x3
 4121 0319 3F       		.byte	0x3f
 4122 031a 8E030000 		.4byte	0x38e
 4123 031e 0D       		.uleb128 0xd
 4124 031f C12D0000 		.4byte	.LASF68
 4125 0323 03       		.byte	0x3
 4126 0324 41       		.byte	0x41
 4127 0325 C4030000 		.4byte	0x3c4
 4128 0329 00       		.byte	0
 4129 032a 0D       		.uleb128 0xd
 4130 032b 620A0000 		.4byte	.LASF69
 4131 032f 03       		.byte	0x3
 4132 0330 44       		.byte	0x44
 4133 0331 E9030000 		.4byte	0x3e9
 4134 0335 04       		.byte	0x4
 4135 0336 0D       		.uleb128 0xd
 4136 0337 F5010000 		.4byte	.LASF70
 4137 033b 03       		.byte	0x3
 4138 033c 47       		.byte	0x47
 4139 033d 1B010000 		.4byte	0x11b
 4140 0341 08       		.byte	0x8
 4141 0342 0D       		.uleb128 0xd
 4142 0343 95270000 		.4byte	.LASF71
 4143 0347 03       		.byte	0x3
 4144 0348 48       		.byte	0x48
 4145 0349 1B010000 		.4byte	0x11b
 4146 034d 0A       		.byte	0xa
 4147 034e 0F       		.uleb128 0xf
 4148 034f 751F0000 		.4byte	.LASF77
 4149 0353 03       		.byte	0x3
 4150 0354 49       		.byte	0x49
 4151 0355 CE000000 		.4byte	0xce
 4152 0359 01       		.byte	0x1
 4153 035a 02       		.byte	0x2
 4154 035b 06       		.byte	0x6
 4155 035c 0C       		.byte	0xc
ARM GAS  C:\Users\strap\AppData\Local\Temp\ccTzHSZB.s 			page 117


 4156 035d 0D       		.uleb128 0xd
 4157 035e B00C0000 		.4byte	.LASF72
 4158 0362 03       		.byte	0x3
 4159 0363 4B       		.byte	0x4b
 4160 0364 C3000000 		.4byte	0xc3
 4161 0368 0D       		.byte	0xd
 4162 0369 0D       		.uleb128 0xd
 4163 036a 071A0000 		.4byte	.LASF73
 4164 036e 03       		.byte	0x3
 4165 036f 4C       		.byte	0x4c
 4166 0370 C3000000 		.4byte	0xc3
 4167 0374 0E       		.byte	0xe
 4168 0375 0C       		.uleb128 0xc
 4169 0376 64736300 		.ascii	"dsc\000"
 4170 037a 03       		.byte	0x3
 4171 037b 4E       		.byte	0x4e
 4172 037c 31010000 		.4byte	0x131
 4173 0380 10       		.byte	0x10
 4174 0381 0D       		.uleb128 0xd
 4175 0382 272D0000 		.4byte	.LASF74
 4176 0386 03       		.byte	0x3
 4177 0387 50       		.byte	0x50
 4178 0388 56010000 		.4byte	0x156
 4179 038c 14       		.byte	0x14
 4180 038d 00       		.byte	0
 4181 038e 10       		.uleb128 0x10
 4182 038f AC030000 		.4byte	0x3ac
 4183 0393 AC030000 		.4byte	0x3ac
 4184 0397 11       		.uleb128 0x11
 4185 0398 B3030000 		.4byte	0x3b3
 4186 039c 11       		.uleb128 0x11
 4187 039d BE030000 		.4byte	0x3be
 4188 03a1 11       		.uleb128 0x11
 4189 03a2 FA000000 		.4byte	0xfa
 4190 03a6 11       		.uleb128 0x11
 4191 03a7 FA000000 		.4byte	0xfa
 4192 03ab 00       		.byte	0
 4193 03ac 03       		.uleb128 0x3
 4194 03ad 01       		.byte	0x1
 4195 03ae 02       		.byte	0x2
 4196 03af 2F0C0000 		.4byte	.LASF75
 4197 03b3 07       		.uleb128 0x7
 4198 03b4 04       		.byte	0x4
 4199 03b5 B9030000 		.4byte	0x3b9
 4200 03b9 08       		.uleb128 0x8
 4201 03ba 12030000 		.4byte	0x312
 4202 03be 07       		.uleb128 0x7
 4203 03bf 04       		.byte	0x4
 4204 03c0 07030000 		.4byte	0x307
 4205 03c4 07       		.uleb128 0x7
 4206 03c5 04       		.byte	0x4
 4207 03c6 8E030000 		.4byte	0x38e
 4208 03ca 10       		.uleb128 0x10
 4209 03cb DE030000 		.4byte	0x3de
 4210 03cf DE030000 		.4byte	0x3de
 4211 03d3 11       		.uleb128 0x11
 4212 03d4 B3030000 		.4byte	0x3b3
ARM GAS  C:\Users\strap\AppData\Local\Temp\ccTzHSZB.s 			page 118


 4213 03d8 11       		.uleb128 0x11
 4214 03d9 FA000000 		.4byte	0xfa
 4215 03dd 00       		.byte	0
 4216 03de 07       		.uleb128 0x7
 4217 03df 04       		.byte	0x4
 4218 03e0 E4030000 		.4byte	0x3e4
 4219 03e4 08       		.uleb128 0x8
 4220 03e5 CE000000 		.4byte	0xce
 4221 03e9 07       		.uleb128 0x7
 4222 03ea 04       		.byte	0x4
 4223 03eb CA030000 		.4byte	0x3ca
 4224 03ef 02       		.uleb128 0x2
 4225 03f0 232C0000 		.4byte	.LASF76
 4226 03f4 03       		.byte	0x3
 4227 03f5 54       		.byte	0x54
 4228 03f6 12030000 		.4byte	0x312
 4229 03fa 0B       		.uleb128 0xb
 4230 03fb 02       		.byte	0x2
 4231 03fc 0C       		.byte	0xc
 4232 03fd EA       		.byte	0xea
 4233 03fe 3F040000 		.4byte	0x43f
 4234 0402 0F       		.uleb128 0xf
 4235 0403 F8120000 		.4byte	.LASF78
 4236 0407 0C       		.byte	0xc
 4237 0408 F0       		.byte	0xf0
 4238 0409 E4000000 		.4byte	0xe4
 4239 040d 02       		.byte	0x2
 4240 040e 03       		.byte	0x3
 4241 040f 0D       		.byte	0xd
 4242 0410 00       		.byte	0
 4243 0411 12       		.uleb128 0x12
 4244 0412 72656400 		.ascii	"red\000"
 4245 0416 0C       		.byte	0xc
 4246 0417 F1       		.byte	0xf1
 4247 0418 E4000000 		.4byte	0xe4
 4248 041c 02       		.byte	0x2
 4249 041d 05       		.byte	0x5
 4250 041e 08       		.byte	0x8
 4251 041f 00       		.byte	0
 4252 0420 0F       		.uleb128 0xf
 4253 0421 810A0000 		.4byte	.LASF79
 4254 0425 0C       		.byte	0xc
 4255 0426 F2       		.byte	0xf2
 4256 0427 E4000000 		.4byte	0xe4
 4257 042b 02       		.byte	0x2
 4258 042c 05       		.byte	0x5
 4259 042d 03       		.byte	0x3
 4260 042e 00       		.byte	0
 4261 042f 0F       		.uleb128 0xf
 4262 0430 14130000 		.4byte	.LASF80
 4263 0434 0C       		.byte	0xc
 4264 0435 F3       		.byte	0xf3
 4265 0436 E4000000 		.4byte	0xe4
 4266 043a 02       		.byte	0x2
 4267 043b 03       		.byte	0x3
 4268 043c 00       		.byte	0
 4269 043d 00       		.byte	0
ARM GAS  C:\Users\strap\AppData\Local\Temp\ccTzHSZB.s 			page 119


 4270 043e 00       		.byte	0
 4271 043f 13       		.uleb128 0x13
 4272 0440 02       		.byte	0x2
 4273 0441 0C       		.byte	0xc
 4274 0442 E9       		.byte	0xe9
 4275 0443 5D040000 		.4byte	0x45d
 4276 0447 14       		.uleb128 0x14
 4277 0448 636800   		.ascii	"ch\000"
 4278 044b 0C       		.byte	0xc
 4279 044c F5       		.byte	0xf5
 4280 044d FA030000 		.4byte	0x3fa
 4281 0451 15       		.uleb128 0x15
 4282 0452 20250000 		.4byte	.LASF81
 4283 0456 0C       		.byte	0xc
 4284 0457 F6       		.byte	0xf6
 4285 0458 E4000000 		.4byte	0xe4
 4286 045c 00       		.byte	0
 4287 045d 02       		.uleb128 0x2
 4288 045e 78270000 		.4byte	.LASF82
 4289 0462 0C       		.byte	0xc
 4290 0463 F7       		.byte	0xf7
 4291 0464 3F040000 		.4byte	0x43f
 4292 0468 06       		.uleb128 0x6
 4293 0469 9D220000 		.4byte	.LASF83
 4294 046d 0C       		.byte	0xc
 4295 046e 0D01     		.2byte	0x10d
 4296 0470 5D040000 		.4byte	0x45d
 4297 0474 06       		.uleb128 0x6
 4298 0475 68010000 		.4byte	.LASF84
 4299 0479 0C       		.byte	0xc
 4300 047a 2001     		.2byte	0x120
 4301 047c CE000000 		.4byte	0xce
 4302 0480 09       		.uleb128 0x9
 4303 0481 01       		.byte	0x1
 4304 0482 42000000 		.4byte	0x42
 4305 0486 05       		.byte	0x5
 4306 0487 20       		.byte	0x20
 4307 0488 99040000 		.4byte	0x499
 4308 048c 0A       		.uleb128 0xa
 4309 048d 300A0000 		.4byte	.LASF85
 4310 0491 00       		.byte	0
 4311 0492 0A       		.uleb128 0xa
 4312 0493 ED000000 		.4byte	.LASF86
 4313 0497 01       		.byte	0x1
 4314 0498 00       		.byte	0
 4315 0499 02       		.uleb128 0x2
 4316 049a EA150000 		.4byte	.LASF87
 4317 049e 05       		.byte	0x5
 4318 049f 25       		.byte	0x25
 4319 04a0 CE000000 		.4byte	0xce
 4320 04a4 02       		.uleb128 0x2
 4321 04a5 EC0D0000 		.4byte	.LASF88
 4322 04a9 05       		.byte	0x5
 4323 04aa 28       		.byte	0x28
 4324 04ab 1B010000 		.4byte	0x11b
 4325 04af 02       		.uleb128 0x2
 4326 04b0 641B0000 		.4byte	.LASF89
ARM GAS  C:\Users\strap\AppData\Local\Temp\ccTzHSZB.s 			page 120


 4327 04b4 05       		.byte	0x5
 4328 04b5 32       		.byte	0x32
 4329 04b6 BA040000 		.4byte	0x4ba
 4330 04ba 07       		.uleb128 0x7
 4331 04bb 04       		.byte	0x4
 4332 04bc C0040000 		.4byte	0x4c0
 4333 04c0 10       		.uleb128 0x10
 4334 04c1 A4040000 		.4byte	0x4a4
 4335 04c5 D4040000 		.4byte	0x4d4
 4336 04c9 11       		.uleb128 0x11
 4337 04ca D4040000 		.4byte	0x4d4
 4338 04ce 11       		.uleb128 0x11
 4339 04cf 03050000 		.4byte	0x503
 4340 04d3 00       		.byte	0
 4341 04d4 07       		.uleb128 0x7
 4342 04d5 04       		.byte	0x4
 4343 04d6 FE040000 		.4byte	0x4fe
 4344 04da 0E       		.uleb128 0xe
 4345 04db 09040000 		.4byte	.LASF91
 4346 04df 08       		.byte	0x8
 4347 04e0 05       		.byte	0x5
 4348 04e1 34       		.byte	0x34
 4349 04e2 FE040000 		.4byte	0x4fe
 4350 04e6 0C       		.uleb128 0xc
 4351 04e7 636200   		.ascii	"cb\000"
 4352 04ea 05       		.byte	0x5
 4353 04eb 35       		.byte	0x35
 4354 04ec AF040000 		.4byte	0x4af
 4355 04f0 00       		.byte	0
 4356 04f1 0D       		.uleb128 0xd
 4357 04f2 272D0000 		.4byte	.LASF74
 4358 04f6 05       		.byte	0x5
 4359 04f7 36       		.byte	0x36
 4360 04f8 31010000 		.4byte	0x131
 4361 04fc 04       		.byte	0x4
 4362 04fd 00       		.byte	0
 4363 04fe 08       		.uleb128 0x8
 4364 04ff DA040000 		.4byte	0x4da
 4365 0503 07       		.uleb128 0x7
 4366 0504 04       		.byte	0x4
 4367 0505 03060000 		.4byte	0x603
 4368 0509 0E       		.uleb128 0xe
 4369 050a 372F0000 		.4byte	.LASF92
 4370 050e 48       		.byte	0x48
 4371 050f 05       		.byte	0x5
 4372 0510 4E       		.byte	0x4e
 4373 0511 03060000 		.4byte	0x603
 4374 0515 0C       		.uleb128 0xc
 4375 0516 76617200 		.ascii	"var\000"
 4376 051a 05       		.byte	0x5
 4377 051b 4F       		.byte	0x4f
 4378 051c 31010000 		.4byte	0x131
 4379 0520 00       		.byte	0
 4380 0521 0D       		.uleb128 0xd
 4381 0522 92230000 		.4byte	.LASF93
 4382 0526 05       		.byte	0x5
 4383 0527 50       		.byte	0x50
ARM GAS  C:\Users\strap\AppData\Local\Temp\ccTzHSZB.s 			page 121


 4384 0528 13060000 		.4byte	0x613
 4385 052c 04       		.byte	0x4
 4386 052d 0D       		.uleb128 0xd
 4387 052e 730A0000 		.4byte	.LASF94
 4388 0532 05       		.byte	0x5
 4389 0533 51       		.byte	0x51
 4390 0534 56060000 		.4byte	0x656
 4391 0538 08       		.byte	0x8
 4392 0539 0D       		.uleb128 0xd
 4393 053a 7D0F0000 		.4byte	.LASF95
 4394 053e 05       		.byte	0x5
 4395 053f 52       		.byte	0x52
 4396 0540 3A060000 		.4byte	0x63a
 4397 0544 0C       		.byte	0xc
 4398 0545 0D       		.uleb128 0xd
 4399 0546 9C010000 		.4byte	.LASF96
 4400 054a 05       		.byte	0x5
 4401 054b 53       		.byte	0x53
 4402 054c 08060000 		.4byte	0x608
 4403 0550 10       		.byte	0x10
 4404 0551 0D       		.uleb128 0xd
 4405 0552 77000000 		.4byte	.LASF97
 4406 0556 05       		.byte	0x5
 4407 0557 54       		.byte	0x54
 4408 0558 EF000000 		.4byte	0xef
 4409 055c 18       		.byte	0x18
 4410 055d 0D       		.uleb128 0xd
 4411 055e F51C0000 		.4byte	.LASF98
 4412 0562 05       		.byte	0x5
 4413 0563 55       		.byte	0x55
 4414 0564 EF000000 		.4byte	0xef
 4415 0568 1C       		.byte	0x1c
 4416 0569 0C       		.uleb128 0xc
 4417 056a 656E6400 		.ascii	"end\000"
 4418 056e 05       		.byte	0x5
 4419 056f 56       		.byte	0x56
 4420 0570 EF000000 		.4byte	0xef
 4421 0574 20       		.byte	0x20
 4422 0575 0D       		.uleb128 0xd
 4423 0576 51250000 		.4byte	.LASF99
 4424 057a 05       		.byte	0x5
 4425 057b 57       		.byte	0x57
 4426 057c EF000000 		.4byte	0xef
 4427 0580 24       		.byte	0x24
 4428 0581 0D       		.uleb128 0xd
 4429 0582 7F2A0000 		.4byte	.LASF100
 4430 0586 05       		.byte	0x5
 4431 0587 58       		.byte	0x58
 4432 0588 EF000000 		.4byte	0xef
 4433 058c 28       		.byte	0x28
 4434 058d 0D       		.uleb128 0xd
 4435 058e D6120000 		.4byte	.LASF101
 4436 0592 05       		.byte	0x5
 4437 0593 59       		.byte	0x59
 4438 0594 FA000000 		.4byte	0xfa
 4439 0598 2C       		.byte	0x2c
 4440 0599 0D       		.uleb128 0xd
ARM GAS  C:\Users\strap\AppData\Local\Temp\ccTzHSZB.s 			page 122


 4441 059a EC230000 		.4byte	.LASF102
 4442 059e 05       		.byte	0x5
 4443 059f 5A       		.byte	0x5a
 4444 05a0 FA000000 		.4byte	0xfa
 4445 05a4 30       		.byte	0x30
 4446 05a5 0D       		.uleb128 0xd
 4447 05a6 CE1D0000 		.4byte	.LASF103
 4448 05aa 05       		.byte	0x5
 4449 05ab 5B       		.byte	0x5b
 4450 05ac FA000000 		.4byte	0xfa
 4451 05b0 34       		.byte	0x34
 4452 05b1 0D       		.uleb128 0xd
 4453 05b2 BA1F0000 		.4byte	.LASF104
 4454 05b6 05       		.byte	0x5
 4455 05b7 5C       		.byte	0x5c
 4456 05b8 E4000000 		.4byte	0xe4
 4457 05bc 38       		.byte	0x38
 4458 05bd 0F       		.uleb128 0xf
 4459 05be 5B090000 		.4byte	.LASF105
 4460 05c2 05       		.byte	0x5
 4461 05c3 5D       		.byte	0x5d
 4462 05c4 CE000000 		.4byte	0xce
 4463 05c8 01       		.byte	0x1
 4464 05c9 01       		.byte	0x1
 4465 05ca 07       		.byte	0x7
 4466 05cb 3A       		.byte	0x3a
 4467 05cc 0D       		.uleb128 0xd
 4468 05cd 272D0000 		.4byte	.LASF74
 4469 05d1 05       		.byte	0x5
 4470 05d2 5F       		.byte	0x5f
 4471 05d3 26010000 		.4byte	0x126
 4472 05d7 3C       		.byte	0x3c
 4473 05d8 0D       		.uleb128 0xd
 4474 05d9 F6240000 		.4byte	.LASF106
 4475 05dd 05       		.byte	0x5
 4476 05de 63       		.byte	0x63
 4477 05df FA000000 		.4byte	0xfa
 4478 05e3 40       		.byte	0x40
 4479 05e4 0F       		.uleb128 0xf
 4480 05e5 452D0000 		.4byte	.LASF107
 4481 05e9 05       		.byte	0x5
 4482 05ea 64       		.byte	0x64
 4483 05eb CE000000 		.4byte	0xce
 4484 05ef 01       		.byte	0x1
 4485 05f0 01       		.byte	0x1
 4486 05f1 07       		.byte	0x7
 4487 05f2 44       		.byte	0x44
 4488 05f3 0F       		.uleb128 0xf
 4489 05f4 83210000 		.4byte	.LASF108
 4490 05f8 05       		.byte	0x5
 4491 05f9 65       		.byte	0x65
 4492 05fa FA000000 		.4byte	0xfa
 4493 05fe 04       		.byte	0x4
 4494 05ff 01       		.byte	0x1
 4495 0600 1E       		.byte	0x1e
 4496 0601 44       		.byte	0x44
 4497 0602 00       		.byte	0
ARM GAS  C:\Users\strap\AppData\Local\Temp\ccTzHSZB.s 			page 123


 4498 0603 08       		.uleb128 0x8
 4499 0604 09050000 		.4byte	0x509
 4500 0608 02       		.uleb128 0x2
 4501 0609 11250000 		.4byte	.LASF109
 4502 060d 05       		.byte	0x5
 4503 060e 37       		.byte	0x37
 4504 060f DA040000 		.4byte	0x4da
 4505 0613 02       		.uleb128 0x2
 4506 0614 9D0C0000 		.4byte	.LASF110
 4507 0618 05       		.byte	0x5
 4508 0619 41       		.byte	0x41
 4509 061a 1E060000 		.4byte	0x61e
 4510 061e 07       		.uleb128 0x7
 4511 061f 04       		.byte	0x4
 4512 0620 24060000 		.4byte	0x624
 4513 0624 16       		.uleb128 0x16
 4514 0625 34060000 		.4byte	0x634
 4515 0629 11       		.uleb128 0x11
 4516 062a 31010000 		.4byte	0x131
 4517 062e 11       		.uleb128 0x11
 4518 062f A4040000 		.4byte	0x4a4
 4519 0633 00       		.byte	0
 4520 0634 07       		.uleb128 0x7
 4521 0635 04       		.byte	0x4
 4522 0636 09050000 		.4byte	0x509
 4523 063a 02       		.uleb128 0x2
 4524 063b E4110000 		.4byte	.LASF111
 4525 063f 05       		.byte	0x5
 4526 0640 48       		.byte	0x48
 4527 0641 45060000 		.4byte	0x645
 4528 0645 07       		.uleb128 0x7
 4529 0646 04       		.byte	0x4
 4530 0647 4B060000 		.4byte	0x64b
 4531 064b 16       		.uleb128 0x16
 4532 064c 56060000 		.4byte	0x656
 4533 0650 11       		.uleb128 0x11
 4534 0651 34060000 		.4byte	0x634
 4535 0655 00       		.byte	0
 4536 0656 02       		.uleb128 0x2
 4537 0657 21270000 		.4byte	.LASF112
 4538 065b 05       		.byte	0x5
 4539 065c 4B       		.byte	0x4b
 4540 065d 45060000 		.4byte	0x645
 4541 0661 02       		.uleb128 0x2
 4542 0662 F8130000 		.4byte	.LASF113
 4543 0666 05       		.byte	0x5
 4544 0667 66       		.byte	0x66
 4545 0668 09050000 		.4byte	0x509
 4546 066c 09       		.uleb128 0x9
 4547 066d 02       		.byte	0x2
 4548 066e 66000000 		.4byte	0x66
 4549 0672 0D       		.byte	0xd
 4550 0673 5E       		.byte	0x5e
 4551 0674 B5080000 		.4byte	0x8b5
 4552 0678 0A       		.uleb128 0xa
 4553 0679 73050000 		.4byte	.LASF114
 4554 067d 01       		.byte	0x1
ARM GAS  C:\Users\strap\AppData\Local\Temp\ccTzHSZB.s 			page 124


 4555 067e 0A       		.uleb128 0xa
 4556 067f 7B1D0000 		.4byte	.LASF115
 4557 0683 02       		.byte	0x2
 4558 0684 0A       		.uleb128 0xa
 4559 0685 ED040000 		.4byte	.LASF116
 4560 0689 03       		.byte	0x3
 4561 068a 0A       		.uleb128 0xa
 4562 068b 8E0B0000 		.4byte	.LASF117
 4563 068f 04       		.byte	0x4
 4564 0690 0A       		.uleb128 0xa
 4565 0691 FC050000 		.4byte	.LASF118
 4566 0695 05       		.byte	0x5
 4567 0696 0A       		.uleb128 0xa
 4568 0697 68190000 		.4byte	.LASF119
 4569 069b 06       		.byte	0x6
 4570 069c 0A       		.uleb128 0xa
 4571 069d C5100000 		.4byte	.LASF120
 4572 06a1 07       		.byte	0x7
 4573 06a2 17       		.uleb128 0x17
 4574 06a3 B1210000 		.4byte	.LASF121
 4575 06a7 0C80     		.2byte	0x800c
 4576 06a9 0A       		.uleb128 0xa
 4577 06aa D5280000 		.4byte	.LASF122
 4578 06ae 10       		.byte	0x10
 4579 06af 0A       		.uleb128 0xa
 4580 06b0 00130000 		.4byte	.LASF123
 4581 06b4 11       		.byte	0x11
 4582 06b5 0A       		.uleb128 0xa
 4583 06b6 FB150000 		.4byte	.LASF124
 4584 06ba 12       		.byte	0x12
 4585 06bb 0A       		.uleb128 0xa
 4586 06bc 47060000 		.4byte	.LASF125
 4587 06c0 13       		.byte	0x13
 4588 06c1 0A       		.uleb128 0xa
 4589 06c2 AF110000 		.4byte	.LASF126
 4590 06c6 14       		.byte	0x14
 4591 06c7 0A       		.uleb128 0xa
 4592 06c8 5F1E0000 		.4byte	.LASF127
 4593 06cc 15       		.byte	0x15
 4594 06cd 0A       		.uleb128 0xa
 4595 06ce F7270000 		.4byte	.LASF128
 4596 06d2 16       		.byte	0x16
 4597 06d3 0A       		.uleb128 0xa
 4598 06d4 10200000 		.4byte	.LASF129
 4599 06d8 17       		.byte	0x17
 4600 06d9 0A       		.uleb128 0xa
 4601 06da 84090000 		.4byte	.LASF130
 4602 06de 18       		.byte	0x18
 4603 06df 0A       		.uleb128 0xa
 4604 06e0 0B240000 		.4byte	.LASF131
 4605 06e4 20       		.byte	0x20
 4606 06e5 0A       		.uleb128 0xa
 4607 06e6 87130000 		.4byte	.LASF132
 4608 06ea 21       		.byte	0x21
 4609 06eb 0A       		.uleb128 0xa
 4610 06ec E5210000 		.4byte	.LASF133
 4611 06f0 22       		.byte	0x22
ARM GAS  C:\Users\strap\AppData\Local\Temp\ccTzHSZB.s 			page 125


 4612 06f1 0A       		.uleb128 0xa
 4613 06f2 4D0A0000 		.4byte	.LASF134
 4614 06f6 23       		.byte	0x23
 4615 06f7 0A       		.uleb128 0xa
 4616 06f8 0E0E0000 		.4byte	.LASF135
 4617 06fc 29       		.byte	0x29
 4618 06fd 0A       		.uleb128 0xa
 4619 06fe C2260000 		.4byte	.LASF136
 4620 0702 2A       		.byte	0x2a
 4621 0703 0A       		.uleb128 0xa
 4622 0704 4A130000 		.4byte	.LASF137
 4623 0708 2C       		.byte	0x2c
 4624 0709 0A       		.uleb128 0xa
 4625 070a 94040000 		.4byte	.LASF138
 4626 070e 30       		.byte	0x30
 4627 070f 0A       		.uleb128 0xa
 4628 0710 03220000 		.4byte	.LASF139
 4629 0714 31       		.byte	0x31
 4630 0715 0A       		.uleb128 0xa
 4631 0716 771C0000 		.4byte	.LASF140
 4632 071a 32       		.byte	0x32
 4633 071b 0A       		.uleb128 0xa
 4634 071c 112B0000 		.4byte	.LASF141
 4635 0720 33       		.byte	0x33
 4636 0721 0A       		.uleb128 0xa
 4637 0722 B7200000 		.4byte	.LASF142
 4638 0726 39       		.byte	0x39
 4639 0727 0A       		.uleb128 0xa
 4640 0728 80080000 		.4byte	.LASF143
 4641 072c 3C       		.byte	0x3c
 4642 072d 0A       		.uleb128 0xa
 4643 072e 04110000 		.4byte	.LASF144
 4644 0732 40       		.byte	0x40
 4645 0733 0A       		.uleb128 0xa
 4646 0734 6E2F0000 		.4byte	.LASF145
 4647 0738 41       		.byte	0x41
 4648 0739 0A       		.uleb128 0xa
 4649 073a 4B0F0000 		.4byte	.LASF146
 4650 073e 42       		.byte	0x42
 4651 073f 0A       		.uleb128 0xa
 4652 0740 102D0000 		.4byte	.LASF147
 4653 0744 49       		.byte	0x49
 4654 0745 0A       		.uleb128 0xa
 4655 0746 520D0000 		.4byte	.LASF148
 4656 074a 4C       		.byte	0x4c
 4657 074b 0A       		.uleb128 0xa
 4658 074c 4B1D0000 		.4byte	.LASF149
 4659 0750 50       		.byte	0x50
 4660 0751 0A       		.uleb128 0xa
 4661 0752 7C230000 		.4byte	.LASF150
 4662 0756 51       		.byte	0x51
 4663 0757 0A       		.uleb128 0xa
 4664 0758 0D160000 		.4byte	.LASF151
 4665 075c 52       		.byte	0x52
 4666 075d 0A       		.uleb128 0xa
 4667 075e 6A2D0000 		.4byte	.LASF152
 4668 0762 53       		.byte	0x53
ARM GAS  C:\Users\strap\AppData\Local\Temp\ccTzHSZB.s 			page 126


 4669 0763 0A       		.uleb128 0xa
 4670 0764 4A020000 		.4byte	.LASF153
 4671 0768 54       		.byte	0x54
 4672 0769 0A       		.uleb128 0xa
 4673 076a B2090000 		.4byte	.LASF154
 4674 076e 59       		.byte	0x59
 4675 076f 0A       		.uleb128 0xa
 4676 0770 C8050000 		.4byte	.LASF155
 4677 0774 5C       		.byte	0x5c
 4678 0775 0A       		.uleb128 0xa
 4679 0776 4D050000 		.4byte	.LASF156
 4680 077a 60       		.byte	0x60
 4681 077b 0A       		.uleb128 0xa
 4682 077c 0D260000 		.4byte	.LASF157
 4683 0780 61       		.byte	0x61
 4684 0781 0A       		.uleb128 0xa
 4685 0782 000D0000 		.4byte	.LASF158
 4686 0786 69       		.byte	0x69
 4687 0787 0A       		.uleb128 0xa
 4688 0788 38050000 		.4byte	.LASF159
 4689 078c 6C       		.byte	0x6c
 4690 078d 0A       		.uleb128 0xa
 4691 078e A9160000 		.4byte	.LASF160
 4692 0792 6D       		.byte	0x6d
 4693 0793 0A       		.uleb128 0xa
 4694 0794 E11B0000 		.4byte	.LASF161
 4695 0798 6E       		.byte	0x6e
 4696 0799 0A       		.uleb128 0xa
 4697 079a 79280000 		.4byte	.LASF162
 4698 079e 70       		.byte	0x70
 4699 079f 0A       		.uleb128 0xa
 4700 07a0 ED2C0000 		.4byte	.LASF163
 4701 07a4 71       		.byte	0x71
 4702 07a5 0A       		.uleb128 0xa
 4703 07a6 67200000 		.4byte	.LASF164
 4704 07aa 72       		.byte	0x72
 4705 07ab 0A       		.uleb128 0xa
 4706 07ac 04100000 		.4byte	.LASF165
 4707 07b0 73       		.byte	0x73
 4708 07b1 0A       		.uleb128 0xa
 4709 07b2 19100000 		.4byte	.LASF166
 4710 07b6 74       		.byte	0x74
 4711 07b7 0A       		.uleb128 0xa
 4712 07b8 9A230000 		.4byte	.LASF167
 4713 07bc 75       		.byte	0x75
 4714 07bd 0A       		.uleb128 0xa
 4715 07be AD260000 		.4byte	.LASF168
 4716 07c2 79       		.byte	0x79
 4717 07c3 0A       		.uleb128 0xa
 4718 07c4 1A020000 		.4byte	.LASF169
 4719 07c8 7C       		.byte	0x7c
 4720 07c9 0A       		.uleb128 0xa
 4721 07ca 67170000 		.4byte	.LASF170
 4722 07ce 7E       		.byte	0x7e
 4723 07cf 0A       		.uleb128 0xa
 4724 07d0 00000000 		.4byte	.LASF171
 4725 07d4 7F       		.byte	0x7f
ARM GAS  C:\Users\strap\AppData\Local\Temp\ccTzHSZB.s 			page 127


 4726 07d5 17       		.uleb128 0x17
 4727 07d6 C62F0000 		.4byte	.LASF172
 4728 07da 8080     		.2byte	0x8080
 4729 07dc 17       		.uleb128 0x17
 4730 07dd 8C110000 		.4byte	.LASF173
 4731 07e1 8180     		.2byte	0x8081
 4732 07e3 17       		.uleb128 0x17
 4733 07e4 1B1A0000 		.4byte	.LASF174
 4734 07e8 8280     		.2byte	0x8082
 4735 07ea 17       		.uleb128 0x17
 4736 07eb B6270000 		.4byte	.LASF175
 4737 07ef 8380     		.2byte	0x8083
 4738 07f1 17       		.uleb128 0x17
 4739 07f2 E11A0000 		.4byte	.LASF176
 4740 07f6 8980     		.2byte	0x8089
 4741 07f8 17       		.uleb128 0x17
 4742 07f9 B9170000 		.4byte	.LASF177
 4743 07fd 8A80     		.2byte	0x808a
 4744 07ff 17       		.uleb128 0x17
 4745 0800 5D120000 		.4byte	.LASF178
 4746 0804 8B80     		.2byte	0x808b
 4747 0806 17       		.uleb128 0x17
 4748 0807 39140000 		.4byte	.LASF179
 4749 080b 8C80     		.2byte	0x808c
 4750 080d 17       		.uleb128 0x17
 4751 080e 86240000 		.4byte	.LASF180
 4752 0812 8E80     		.2byte	0x808e
 4753 0814 0A       		.uleb128 0xa
 4754 0815 73290000 		.4byte	.LASF181
 4755 0819 90       		.byte	0x90
 4756 081a 0A       		.uleb128 0xa
 4757 081b 32150000 		.4byte	.LASF182
 4758 081f 91       		.byte	0x91
 4759 0820 0A       		.uleb128 0xa
 4760 0821 320F0000 		.4byte	.LASF183
 4761 0825 92       		.byte	0x92
 4762 0826 0A       		.uleb128 0xa
 4763 0827 C5000000 		.4byte	.LASF184
 4764 082b 93       		.byte	0x93
 4765 082c 0A       		.uleb128 0xa
 4766 082d 4B2B0000 		.4byte	.LASF185
 4767 0831 94       		.byte	0x94
 4768 0832 0A       		.uleb128 0xa
 4769 0833 5D150000 		.4byte	.LASF186
 4770 0837 99       		.byte	0x99
 4771 0838 0A       		.uleb128 0xa
 4772 0839 5A130000 		.4byte	.LASF187
 4773 083d 9C       		.byte	0x9c
 4774 083e 17       		.uleb128 0x17
 4775 083f DD270000 		.4byte	.LASF188
 4776 0843 A080     		.2byte	0x80a0
 4777 0845 17       		.uleb128 0x17
 4778 0846 E90C0000 		.4byte	.LASF189
 4779 084a A980     		.2byte	0x80a9
 4780 084c 17       		.uleb128 0x17
 4781 084d E90A0000 		.4byte	.LASF190
 4782 0851 AC80     		.2byte	0x80ac
ARM GAS  C:\Users\strap\AppData\Local\Temp\ccTzHSZB.s 			page 128


 4783 0853 17       		.uleb128 0x17
 4784 0854 13190000 		.4byte	.LASF191
 4785 0858 AD80     		.2byte	0x80ad
 4786 085a 0A       		.uleb128 0xa
 4787 085b 861A0000 		.4byte	.LASF192
 4788 085f B0       		.byte	0xb0
 4789 0860 0A       		.uleb128 0xa
 4790 0861 380D0000 		.4byte	.LASF193
 4791 0865 B1       		.byte	0xb1
 4792 0866 0A       		.uleb128 0xa
 4793 0867 B9080000 		.4byte	.LASF194
 4794 086b B2       		.byte	0xb2
 4795 086c 0A       		.uleb128 0xa
 4796 086d D4080000 		.4byte	.LASF195
 4797 0871 B3       		.byte	0xb3
 4798 0872 0A       		.uleb128 0xa
 4799 0873 EF080000 		.4byte	.LASF196
 4800 0877 B4       		.byte	0xb4
 4801 0878 0A       		.uleb128 0xa
 4802 0879 0A090000 		.4byte	.LASF197
 4803 087d B5       		.byte	0xb5
 4804 087e 0A       		.uleb128 0xa
 4805 087f 25090000 		.4byte	.LASF198
 4806 0883 B6       		.byte	0xb6
 4807 0884 0A       		.uleb128 0xa
 4808 0885 40090000 		.4byte	.LASF199
 4809 0889 B7       		.byte	0xb7
 4810 088a 0A       		.uleb128 0xa
 4811 088b 2E060000 		.4byte	.LASF200
 4812 088f BE       		.byte	0xbe
 4813 0890 0A       		.uleb128 0xa
 4814 0891 1A050000 		.4byte	.LASF201
 4815 0895 C0       		.byte	0xc0
 4816 0896 0A       		.uleb128 0xa
 4817 0897 A70B0000 		.4byte	.LASF202
 4818 089b C1       		.byte	0xc1
 4819 089c 0A       		.uleb128 0xa
 4820 089d B6120000 		.4byte	.LASF203
 4821 08a1 C2       		.byte	0xc2
 4822 08a2 0A       		.uleb128 0xa
 4823 08a3 25120000 		.4byte	.LASF204
 4824 08a7 C3       		.byte	0xc3
 4825 08a8 0A       		.uleb128 0xa
 4826 08a9 0C230000 		.4byte	.LASF205
 4827 08ad C9       		.byte	0xc9
 4828 08ae 0A       		.uleb128 0xa
 4829 08af 8D060000 		.4byte	.LASF206
 4830 08b3 CA       		.byte	0xca
 4831 08b4 00       		.byte	0
 4832 08b5 0B       		.uleb128 0xb
 4833 08b6 04       		.byte	0x4
 4834 08b7 0D       		.byte	0xd
 4835 08b8 D3       		.byte	0xd3
 4836 08b9 CA080000 		.4byte	0x8ca
 4837 08bd 0C       		.uleb128 0xc
 4838 08be 6D617000 		.ascii	"map\000"
 4839 08c2 0D       		.byte	0xd
ARM GAS  C:\Users\strap\AppData\Local\Temp\ccTzHSZB.s 			page 129


 4840 08c3 D4       		.byte	0xd4
 4841 08c4 CA080000 		.4byte	0x8ca
 4842 08c8 00       		.byte	0
 4843 08c9 00       		.byte	0
 4844 08ca 07       		.uleb128 0x7
 4845 08cb 04       		.byte	0x4
 4846 08cc CE000000 		.4byte	0xce
 4847 08d0 02       		.uleb128 0x2
 4848 08d1 6C130000 		.4byte	.LASF207
 4849 08d5 0D       		.byte	0xd
 4850 08d6 D8       		.byte	0xd8
 4851 08d7 B5080000 		.4byte	0x8b5
 4852 08db 02       		.uleb128 0x2
 4853 08dc C8090000 		.4byte	.LASF208
 4854 08e0 0D       		.byte	0xd
 4855 08e1 DA       		.byte	0xda
 4856 08e2 D9000000 		.4byte	0xd9
 4857 08e6 0B       		.uleb128 0xb
 4858 08e7 08       		.byte	0x8
 4859 08e8 0D       		.byte	0xd
 4860 08e9 DC       		.byte	0xdc
 4861 08ea 900A0000 		.4byte	0xa90
 4862 08ee 0D       		.uleb128 0xd
 4863 08ef 75080000 		.4byte	.LASF209
 4864 08f3 0D       		.byte	0xd
 4865 08f4 DD       		.byte	0xdd
 4866 08f5 900A0000 		.4byte	0xa90
 4867 08f9 00       		.byte	0
 4868 08fa 0F       		.uleb128 0xf
 4869 08fb E9090000 		.4byte	.LASF210
 4870 08ff 0D       		.byte	0xd
 4871 0900 E1       		.byte	0xe1
 4872 0901 FA000000 		.4byte	0xfa
 4873 0905 04       		.byte	0x4
 4874 0906 06       		.byte	0x6
 4875 0907 1A       		.byte	0x1a
 4876 0908 04       		.byte	0x4
 4877 0909 0F       		.uleb128 0xf
 4878 090a 5D200000 		.4byte	.LASF211
 4879 090e 0D       		.byte	0xd
 4880 090f E2       		.byte	0xe2
 4881 0910 FA000000 		.4byte	0xfa
 4882 0914 04       		.byte	0x4
 4883 0915 01       		.byte	0x1
 4884 0916 19       		.byte	0x19
 4885 0917 04       		.byte	0x4
 4886 0918 0F       		.uleb128 0xf
 4887 0919 B12E0000 		.4byte	.LASF212
 4888 091d 0D       		.byte	0xd
 4889 091e E3       		.byte	0xe3
 4890 091f FA000000 		.4byte	0xfa
 4891 0923 04       		.byte	0x4
 4892 0924 01       		.byte	0x1
 4893 0925 18       		.byte	0x18
 4894 0926 04       		.byte	0x4
 4895 0927 0F       		.uleb128 0xf
 4896 0928 7B1A0000 		.4byte	.LASF213
ARM GAS  C:\Users\strap\AppData\Local\Temp\ccTzHSZB.s 			page 130


 4897 092c 0D       		.byte	0xd
 4898 092d E4       		.byte	0xe4
 4899 092e FA000000 		.4byte	0xfa
 4900 0932 04       		.byte	0x4
 4901 0933 01       		.byte	0x1
 4902 0934 17       		.byte	0x17
 4903 0935 04       		.byte	0x4
 4904 0936 0F       		.uleb128 0xf
 4905 0937 6D2C0000 		.4byte	.LASF214
 4906 093b 0D       		.byte	0xd
 4907 093c E5       		.byte	0xe5
 4908 093d FA000000 		.4byte	0xfa
 4909 0941 04       		.byte	0x4
 4910 0942 01       		.byte	0x1
 4911 0943 16       		.byte	0x16
 4912 0944 04       		.byte	0x4
 4913 0945 0F       		.uleb128 0xf
 4914 0946 F3090000 		.4byte	.LASF215
 4915 094a 0D       		.byte	0xd
 4916 094b E6       		.byte	0xe6
 4917 094c FA000000 		.4byte	0xfa
 4918 0950 04       		.byte	0x4
 4919 0951 01       		.byte	0x1
 4920 0952 15       		.byte	0x15
 4921 0953 04       		.byte	0x4
 4922 0954 0F       		.uleb128 0xf
 4923 0955 C2070000 		.4byte	.LASF216
 4924 0959 0D       		.byte	0xd
 4925 095a E7       		.byte	0xe7
 4926 095b FA000000 		.4byte	0xfa
 4927 095f 04       		.byte	0x4
 4928 0960 01       		.byte	0x1
 4929 0961 14       		.byte	0x14
 4930 0962 04       		.byte	0x4
 4931 0963 0F       		.uleb128 0xf
 4932 0964 FD1C0000 		.4byte	.LASF217
 4933 0968 0D       		.byte	0xd
 4934 0969 E9       		.byte	0xe9
 4935 096a FA000000 		.4byte	0xfa
 4936 096e 04       		.byte	0x4
 4937 096f 01       		.byte	0x1
 4938 0970 13       		.byte	0x13
 4939 0971 04       		.byte	0x4
 4940 0972 0F       		.uleb128 0xf
 4941 0973 EE1E0000 		.4byte	.LASF218
 4942 0977 0D       		.byte	0xd
 4943 0978 EA       		.byte	0xea
 4944 0979 FA000000 		.4byte	0xfa
 4945 097d 04       		.byte	0x4
 4946 097e 01       		.byte	0x1
 4947 097f 12       		.byte	0x12
 4948 0980 04       		.byte	0x4
 4949 0981 0F       		.uleb128 0xf
 4950 0982 BA020000 		.4byte	.LASF219
 4951 0986 0D       		.byte	0xd
 4952 0987 EB       		.byte	0xeb
 4953 0988 FA000000 		.4byte	0xfa
ARM GAS  C:\Users\strap\AppData\Local\Temp\ccTzHSZB.s 			page 131


 4954 098c 04       		.byte	0x4
 4955 098d 01       		.byte	0x1
 4956 098e 11       		.byte	0x11
 4957 098f 04       		.byte	0x4
 4958 0990 0F       		.uleb128 0xf
 4959 0991 CF070000 		.4byte	.LASF220
 4960 0995 0D       		.byte	0xd
 4961 0996 EC       		.byte	0xec
 4962 0997 FA000000 		.4byte	0xfa
 4963 099b 04       		.byte	0x4
 4964 099c 01       		.byte	0x1
 4965 099d 10       		.byte	0x10
 4966 099e 04       		.byte	0x4
 4967 099f 0F       		.uleb128 0xf
 4968 09a0 FB040000 		.4byte	.LASF221
 4969 09a4 0D       		.byte	0xd
 4970 09a5 ED       		.byte	0xed
 4971 09a6 FA000000 		.4byte	0xfa
 4972 09aa 04       		.byte	0x4
 4973 09ab 01       		.byte	0x1
 4974 09ac 0F       		.byte	0xf
 4975 09ad 04       		.byte	0x4
 4976 09ae 0F       		.uleb128 0xf
 4977 09af A9080000 		.4byte	.LASF222
 4978 09b3 0D       		.byte	0xd
 4979 09b4 EE       		.byte	0xee
 4980 09b5 FA000000 		.4byte	0xfa
 4981 09b9 04       		.byte	0x4
 4982 09ba 01       		.byte	0x1
 4983 09bb 0E       		.byte	0xe
 4984 09bc 04       		.byte	0x4
 4985 09bd 0F       		.uleb128 0xf
 4986 09be 8B210000 		.4byte	.LASF223
 4987 09c2 0D       		.byte	0xd
 4988 09c3 EF       		.byte	0xef
 4989 09c4 FA000000 		.4byte	0xfa
 4990 09c8 04       		.byte	0x4
 4991 09c9 01       		.byte	0x1
 4992 09ca 0D       		.byte	0xd
 4993 09cb 04       		.byte	0x4
 4994 09cc 0F       		.uleb128 0xf
 4995 09cd 8B100000 		.4byte	.LASF224
 4996 09d1 0D       		.byte	0xd
 4997 09d2 F0       		.byte	0xf0
 4998 09d3 FA000000 		.4byte	0xfa
 4999 09d7 04       		.byte	0x4
 5000 09d8 01       		.byte	0x1
 5001 09d9 0C       		.byte	0xc
 5002 09da 04       		.byte	0x4
 5003 09db 0F       		.uleb128 0xf
 5004 09dc 9B280000 		.4byte	.LASF225
 5005 09e0 0D       		.byte	0xd
 5006 09e1 F1       		.byte	0xf1
 5007 09e2 FA000000 		.4byte	0xfa
 5008 09e6 04       		.byte	0x4
 5009 09e7 01       		.byte	0x1
 5010 09e8 0B       		.byte	0xb
ARM GAS  C:\Users\strap\AppData\Local\Temp\ccTzHSZB.s 			page 132


 5011 09e9 04       		.byte	0x4
 5012 09ea 0F       		.uleb128 0xf
 5013 09eb 38130000 		.4byte	.LASF226
 5014 09ef 0D       		.byte	0xd
 5015 09f0 F3       		.byte	0xf3
 5016 09f1 FA000000 		.4byte	0xfa
 5017 09f5 04       		.byte	0x4
 5018 09f6 01       		.byte	0x1
 5019 09f7 0A       		.byte	0xa
 5020 09f8 04       		.byte	0x4
 5021 09f9 0F       		.uleb128 0xf
 5022 09fa CB0F0000 		.4byte	.LASF227
 5023 09fe 0D       		.byte	0xd
 5024 09ff F4       		.byte	0xf4
 5025 0a00 FA000000 		.4byte	0xfa
 5026 0a04 04       		.byte	0x4
 5027 0a05 01       		.byte	0x1
 5028 0a06 09       		.byte	0x9
 5029 0a07 04       		.byte	0x4
 5030 0a08 0F       		.uleb128 0xf
 5031 0a09 77130000 		.4byte	.LASF228
 5032 0a0d 0D       		.byte	0xd
 5033 0a0e F5       		.byte	0xf5
 5034 0a0f FA000000 		.4byte	0xfa
 5035 0a13 04       		.byte	0x4
 5036 0a14 01       		.byte	0x1
 5037 0a15 08       		.byte	0x8
 5038 0a16 04       		.byte	0x4
 5039 0a17 0F       		.uleb128 0xf
 5040 0a18 F3290000 		.4byte	.LASF229
 5041 0a1c 0D       		.byte	0xd
 5042 0a1d F7       		.byte	0xf7
 5043 0a1e FA000000 		.4byte	0xfa
 5044 0a22 04       		.byte	0x4
 5045 0a23 01       		.byte	0x1
 5046 0a24 07       		.byte	0x7
 5047 0a25 04       		.byte	0x4
 5048 0a26 0F       		.uleb128 0xf
 5049 0a27 A7100000 		.4byte	.LASF230
 5050 0a2b 0D       		.byte	0xd
 5051 0a2c F8       		.byte	0xf8
 5052 0a2d FA000000 		.4byte	0xfa
 5053 0a31 04       		.byte	0x4
 5054 0a32 01       		.byte	0x1
 5055 0a33 06       		.byte	0x6
 5056 0a34 04       		.byte	0x4
 5057 0a35 0F       		.uleb128 0xf
 5058 0a36 540C0000 		.4byte	.LASF231
 5059 0a3a 0D       		.byte	0xd
 5060 0a3b F9       		.byte	0xf9
 5061 0a3c FA000000 		.4byte	0xfa
 5062 0a40 04       		.byte	0x4
 5063 0a41 01       		.byte	0x1
 5064 0a42 05       		.byte	0x5
 5065 0a43 04       		.byte	0x4
 5066 0a44 0F       		.uleb128 0xf
 5067 0a45 CF270000 		.4byte	.LASF232
ARM GAS  C:\Users\strap\AppData\Local\Temp\ccTzHSZB.s 			page 133


 5068 0a49 0D       		.byte	0xd
 5069 0a4a FA       		.byte	0xfa
 5070 0a4b FA000000 		.4byte	0xfa
 5071 0a4f 04       		.byte	0x4
 5072 0a50 01       		.byte	0x1
 5073 0a51 04       		.byte	0x4
 5074 0a52 04       		.byte	0x4
 5075 0a53 0F       		.uleb128 0xf
 5076 0a54 B52A0000 		.4byte	.LASF233
 5077 0a58 0D       		.byte	0xd
 5078 0a59 FB       		.byte	0xfb
 5079 0a5a FA000000 		.4byte	0xfa
 5080 0a5e 04       		.byte	0x4
 5081 0a5f 01       		.byte	0x1
 5082 0a60 03       		.byte	0x3
 5083 0a61 04       		.byte	0x4
 5084 0a62 0F       		.uleb128 0xf
 5085 0a63 34170000 		.4byte	.LASF234
 5086 0a67 0D       		.byte	0xd
 5087 0a68 FD       		.byte	0xfd
 5088 0a69 FA000000 		.4byte	0xfa
 5089 0a6d 04       		.byte	0x4
 5090 0a6e 01       		.byte	0x1
 5091 0a6f 02       		.byte	0x2
 5092 0a70 04       		.byte	0x4
 5093 0a71 0F       		.uleb128 0xf
 5094 0a72 291E0000 		.4byte	.LASF235
 5095 0a76 0D       		.byte	0xd
 5096 0a77 FE       		.byte	0xfe
 5097 0a78 FA000000 		.4byte	0xfa
 5098 0a7c 04       		.byte	0x4
 5099 0a7d 01       		.byte	0x1
 5100 0a7e 01       		.byte	0x1
 5101 0a7f 04       		.byte	0x4
 5102 0a80 0F       		.uleb128 0xf
 5103 0a81 3E180000 		.4byte	.LASF236
 5104 0a85 0D       		.byte	0xd
 5105 0a86 FF       		.byte	0xff
 5106 0a87 FA000000 		.4byte	0xfa
 5107 0a8b 04       		.byte	0x4
 5108 0a8c 01       		.byte	0x1
 5109 0a8d 00       		.byte	0
 5110 0a8e 04       		.byte	0x4
 5111 0a8f 00       		.byte	0
 5112 0a90 07       		.uleb128 0x7
 5113 0a91 04       		.byte	0x4
 5114 0a92 960A0000 		.4byte	0xa96
 5115 0a96 07       		.uleb128 0x7
 5116 0a97 04       		.byte	0x4
 5117 0a98 D0080000 		.4byte	0x8d0
 5118 0a9c 06       		.uleb128 0x6
 5119 0a9d 56250000 		.4byte	.LASF237
 5120 0aa1 0D       		.byte	0xd
 5121 0aa2 0001     		.2byte	0x100
 5122 0aa4 E6080000 		.4byte	0x8e6
 5123 0aa8 02       		.uleb128 0x2
 5124 0aa9 41000000 		.4byte	.LASF238
ARM GAS  C:\Users\strap\AppData\Local\Temp\ccTzHSZB.s 			page 134


 5125 0aad 0E       		.byte	0xe
 5126 0aae 1E       		.byte	0x1e
 5127 0aaf CE000000 		.4byte	0xce
 5128 0ab3 0B       		.uleb128 0xb
 5129 0ab4 0C       		.byte	0xc
 5130 0ab5 0E       		.byte	0xe
 5131 0ab6 21       		.byte	0x21
 5132 0ab7 E00A0000 		.4byte	0xae0
 5133 0abb 0D       		.uleb128 0xd
 5134 0abc 422F0000 		.4byte	.LASF239
 5135 0ac0 0E       		.byte	0xe
 5136 0ac1 22       		.byte	0x22
 5137 0ac2 FA000000 		.4byte	0xfa
 5138 0ac6 00       		.byte	0
 5139 0ac7 0D       		.uleb128 0xd
 5140 0ac8 70080000 		.4byte	.LASF240
 5141 0acc 0E       		.byte	0xe
 5142 0acd 23       		.byte	0x23
 5143 0ace E00A0000 		.4byte	0xae0
 5144 0ad2 04       		.byte	0x4
 5145 0ad3 0D       		.uleb128 0xd
 5146 0ad4 03010000 		.4byte	.LASF241
 5147 0ad8 0E       		.byte	0xe
 5148 0ad9 24       		.byte	0x24
 5149 0ada E00A0000 		.4byte	0xae0
 5150 0ade 08       		.byte	0x8
 5151 0adf 00       		.byte	0
 5152 0ae0 07       		.uleb128 0x7
 5153 0ae1 04       		.byte	0x4
 5154 0ae2 A80A0000 		.4byte	0xaa8
 5155 0ae6 02       		.uleb128 0x2
 5156 0ae7 A5270000 		.4byte	.LASF242
 5157 0aeb 0E       		.byte	0xe
 5158 0aec 25       		.byte	0x25
 5159 0aed B30A0000 		.4byte	0xab3
 5160 0af1 02       		.uleb128 0x2
 5161 0af2 D72E0000 		.4byte	.LASF243
 5162 0af6 0F       		.byte	0xf
 5163 0af7 29       		.byte	0x29
 5164 0af8 FC0A0000 		.4byte	0xafc
 5165 0afc 07       		.uleb128 0x7
 5166 0afd 04       		.byte	0x4
 5167 0afe 020B0000 		.4byte	0xb02
 5168 0b02 16       		.uleb128 0x16
 5169 0b03 0D0B0000 		.4byte	0xb0d
 5170 0b07 11       		.uleb128 0x11
 5171 0b08 0D0B0000 		.4byte	0xb0d
 5172 0b0c 00       		.byte	0
 5173 0b0d 07       		.uleb128 0x7
 5174 0b0e 04       		.byte	0x4
 5175 0b0f 130B0000 		.4byte	0xb13
 5176 0b13 0E       		.uleb128 0xe
 5177 0b14 740D0000 		.4byte	.LASF244
 5178 0b18 18       		.byte	0x18
 5179 0b19 0F       		.byte	0xf
 5180 0b1a 3C       		.byte	0x3c
 5181 0b1b 6B0B0000 		.4byte	0xb6b
ARM GAS  C:\Users\strap\AppData\Local\Temp\ccTzHSZB.s 			page 135


 5182 0b1f 0D       		.uleb128 0xd
 5183 0b20 22240000 		.4byte	.LASF245
 5184 0b24 0F       		.byte	0xf
 5185 0b25 3D       		.byte	0x3d
 5186 0b26 FA000000 		.4byte	0xfa
 5187 0b2a 00       		.byte	0
 5188 0b2b 0D       		.uleb128 0xd
 5189 0b2c 8F220000 		.4byte	.LASF246
 5190 0b30 0F       		.byte	0xf
 5191 0b31 3E       		.byte	0x3e
 5192 0b32 FA000000 		.4byte	0xfa
 5193 0b36 04       		.byte	0x4
 5194 0b37 0D       		.uleb128 0xd
 5195 0b38 AF0A0000 		.4byte	.LASF247
 5196 0b3c 0F       		.byte	0xf
 5197 0b3d 3F       		.byte	0x3f
 5198 0b3e F10A0000 		.4byte	0xaf1
 5199 0b42 08       		.byte	0x8
 5200 0b43 0D       		.uleb128 0xd
 5201 0b44 272D0000 		.4byte	.LASF74
 5202 0b48 0F       		.byte	0xf
 5203 0b49 41       		.byte	0x41
 5204 0b4a 31010000 		.4byte	0x131
 5205 0b4e 0C       		.byte	0xc
 5206 0b4f 0D       		.uleb128 0xd
 5207 0b50 1F030000 		.4byte	.LASF248
 5208 0b54 0F       		.byte	0xf
 5209 0b55 43       		.byte	0x43
 5210 0b56 EF000000 		.4byte	0xef
 5211 0b5a 10       		.byte	0x10
 5212 0b5b 0F       		.uleb128 0xf
 5213 0b5c 08050000 		.4byte	.LASF249
 5214 0b60 0F       		.byte	0xf
 5215 0b61 44       		.byte	0x44
 5216 0b62 CE000000 		.4byte	0xce
 5217 0b66 01       		.byte	0x1
 5218 0b67 03       		.byte	0x3
 5219 0b68 05       		.byte	0x5
 5220 0b69 14       		.byte	0x14
 5221 0b6a 00       		.byte	0
 5222 0b6b 02       		.uleb128 0x2
 5223 0b6c D1220000 		.4byte	.LASF250
 5224 0b70 0F       		.byte	0xf
 5225 0b71 45       		.byte	0x45
 5226 0b72 130B0000 		.4byte	0xb13
 5227 0b76 0B       		.uleb128 0xb
 5228 0b77 24       		.byte	0x24
 5229 0b78 10       		.byte	0x10
 5230 0b79 2F       		.byte	0x2f
 5231 0b7a F10B0000 		.4byte	0xbf1
 5232 0b7e 0D       		.uleb128 0xd
 5233 0b7f 5E190000 		.4byte	.LASF251
 5234 0b83 10       		.byte	0x10
 5235 0b84 30       		.byte	0x30
 5236 0b85 31010000 		.4byte	0x131
 5237 0b89 00       		.byte	0
 5238 0b8a 0D       		.uleb128 0xd
ARM GAS  C:\Users\strap\AppData\Local\Temp\ccTzHSZB.s 			page 136


 5239 0b8b 63190000 		.4byte	.LASF252
 5240 0b8f 10       		.byte	0x10
 5241 0b90 31       		.byte	0x31
 5242 0b91 31010000 		.4byte	0x131
 5243 0b95 04       		.byte	0x4
 5244 0b96 0D       		.uleb128 0xd
 5245 0b97 01020000 		.4byte	.LASF253
 5246 0b9b 10       		.byte	0x10
 5247 0b9c 34       		.byte	0x34
 5248 0b9d 31010000 		.4byte	0x131
 5249 0ba1 08       		.byte	0x8
 5250 0ba2 0D       		.uleb128 0xd
 5251 0ba3 D91E0000 		.4byte	.LASF254
 5252 0ba7 10       		.byte	0x10
 5253 0ba8 35       		.byte	0x35
 5254 0ba9 FA000000 		.4byte	0xfa
 5255 0bad 0C       		.byte	0xc
 5256 0bae 0D       		.uleb128 0xd
 5257 0baf 1C130000 		.4byte	.LASF255
 5258 0bb3 10       		.byte	0x10
 5259 0bb4 36       		.byte	0x36
 5260 0bb5 15020000 		.4byte	0x215
 5261 0bb9 10       		.byte	0x10
 5262 0bba 0D       		.uleb128 0xd
 5263 0bbb 170F0000 		.4byte	.LASF256
 5264 0bbf 10       		.byte	0x10
 5265 0bc0 38       		.byte	0x38
 5266 0bc1 F10B0000 		.4byte	0xbf1
 5267 0bc5 18       		.byte	0x18
 5268 0bc6 0D       		.uleb128 0xd
 5269 0bc7 210C0000 		.4byte	.LASF257
 5270 0bcb 10       		.byte	0x10
 5271 0bcc 3A       		.byte	0x3a
 5272 0bcd F10B0000 		.4byte	0xbf1
 5273 0bd1 1C       		.byte	0x1c
 5274 0bd2 0F       		.uleb128 0xf
 5275 0bd3 B9280000 		.4byte	.LASF258
 5276 0bd7 10       		.byte	0x10
 5277 0bd8 3B       		.byte	0x3b
 5278 0bd9 F60B0000 		.4byte	0xbf6
 5279 0bdd 04       		.byte	0x4
 5280 0bde 01       		.byte	0x1
 5281 0bdf 1F       		.byte	0x1f
 5282 0be0 20       		.byte	0x20
 5283 0be1 0F       		.uleb128 0xf
 5284 0be2 E5140000 		.4byte	.LASF259
 5285 0be6 10       		.byte	0x10
 5286 0be7 3C       		.byte	0x3c
 5287 0be8 F60B0000 		.4byte	0xbf6
 5288 0bec 04       		.byte	0x4
 5289 0bed 01       		.byte	0x1
 5290 0bee 1E       		.byte	0x1e
 5291 0bef 20       		.byte	0x20
 5292 0bf0 00       		.byte	0
 5293 0bf1 18       		.uleb128 0x18
 5294 0bf2 AA000000 		.4byte	0xaa
 5295 0bf6 18       		.uleb128 0x18
ARM GAS  C:\Users\strap\AppData\Local\Temp\ccTzHSZB.s 			page 137


 5296 0bf7 FA000000 		.4byte	0xfa
 5297 0bfb 02       		.uleb128 0x2
 5298 0bfc 44170000 		.4byte	.LASF260
 5299 0c00 10       		.byte	0x10
 5300 0c01 3D       		.byte	0x3d
 5301 0c02 760B0000 		.4byte	0xb76
 5302 0c06 0E       		.uleb128 0xe
 5303 0c07 23160000 		.4byte	.LASF261
 5304 0c0b 30       		.byte	0x30
 5305 0c0c 10       		.byte	0x10
 5306 0c0d 42       		.byte	0x42
 5307 0c0e D00C0000 		.4byte	0xcd0
 5308 0c12 0D       		.uleb128 0xd
 5309 0c13 2E0B0000 		.4byte	.LASF262
 5310 0c17 10       		.byte	0x10
 5311 0c18 44       		.byte	0x44
 5312 0c19 1B010000 		.4byte	0x11b
 5313 0c1d 00       		.byte	0
 5314 0c1e 0D       		.uleb128 0xd
 5315 0c1f A5050000 		.4byte	.LASF263
 5316 0c23 10       		.byte	0x10
 5317 0c24 45       		.byte	0x45
 5318 0c25 1B010000 		.4byte	0x11b
 5319 0c29 02       		.byte	0x2
 5320 0c2a 0D       		.uleb128 0xd
 5321 0c2b 1B110000 		.4byte	.LASF264
 5322 0c2f 10       		.byte	0x10
 5323 0c30 49       		.byte	0x49
 5324 0c31 D00C0000 		.4byte	0xcd0
 5325 0c35 04       		.byte	0x4
 5326 0c36 0F       		.uleb128 0xf
 5327 0c37 670D0000 		.4byte	.LASF265
 5328 0c3b 10       		.byte	0x10
 5329 0c3c 4C       		.byte	0x4c
 5330 0c3d FA000000 		.4byte	0xfa
 5331 0c41 04       		.byte	0x4
 5332 0c42 01       		.byte	0x1
 5333 0c43 1F       		.byte	0x1f
 5334 0c44 08       		.byte	0x8
 5335 0c45 0F       		.uleb128 0xf
 5336 0c46 A6060000 		.4byte	.LASF266
 5337 0c4a 10       		.byte	0x10
 5338 0c4b 4E       		.byte	0x4e
 5339 0c4c FA000000 		.4byte	0xfa
 5340 0c50 04       		.byte	0x4
 5341 0c51 01       		.byte	0x1
 5342 0c52 1E       		.byte	0x1e
 5343 0c53 08       		.byte	0x8
 5344 0c54 12       		.uleb128 0x12
 5345 0c55 64706900 		.ascii	"dpi\000"
 5346 0c59 10       		.byte	0x10
 5347 0c5a 59       		.byte	0x59
 5348 0c5b FA000000 		.4byte	0xfa
 5349 0c5f 04       		.byte	0x4
 5350 0c60 0A       		.byte	0xa
 5351 0c61 14       		.byte	0x14
 5352 0c62 08       		.byte	0x8
ARM GAS  C:\Users\strap\AppData\Local\Temp\ccTzHSZB.s 			page 138


 5353 0c63 0D       		.uleb128 0xd
 5354 0c64 072D0000 		.4byte	.LASF267
 5355 0c68 10       		.byte	0x10
 5356 0c69 5D       		.byte	0x5d
 5357 0c6a 020D0000 		.4byte	0xd02
 5358 0c6e 0C       		.byte	0xc
 5359 0c6f 0D       		.uleb128 0xd
 5360 0c70 3A240000 		.4byte	.LASF268
 5361 0c74 10       		.byte	0x10
 5362 0c75 61       		.byte	0x61
 5363 0c76 1E0D0000 		.4byte	0xd1e
 5364 0c7a 10       		.byte	0x10
 5365 0c7b 0D       		.uleb128 0xd
 5366 0c7c FF090000 		.4byte	.LASF269
 5367 0c80 10       		.byte	0x10
 5368 0c81 66       		.byte	0x66
 5369 0c82 4D0D0000 		.4byte	0xd4d
 5370 0c86 14       		.byte	0x14
 5371 0c87 0D       		.uleb128 0xd
 5372 0c88 701A0000 		.4byte	.LASF270
 5373 0c8c 10       		.byte	0x10
 5374 0c8d 6B       		.byte	0x6b
 5375 0c8e 680D0000 		.4byte	0xd68
 5376 0c92 18       		.byte	0x18
 5377 0c93 0D       		.uleb128 0xd
 5378 0c94 D1170000 		.4byte	.LASF271
 5379 0c98 10       		.byte	0x10
 5380 0c99 70       		.byte	0x70
 5381 0c9a 790D0000 		.4byte	0xd79
 5382 0c9e 1C       		.byte	0x1c
 5383 0c9f 0D       		.uleb128 0xd
 5384 0ca0 3A220000 		.4byte	.LASF272
 5385 0ca4 10       		.byte	0x10
 5386 0ca5 73       		.byte	0x73
 5387 0ca6 790D0000 		.4byte	0xd79
 5388 0caa 20       		.byte	0x20
 5389 0cab 0D       		.uleb128 0xd
 5390 0cac 62210000 		.4byte	.LASF273
 5391 0cb0 10       		.byte	0x10
 5392 0cb1 76       		.byte	0x76
 5393 0cb2 790D0000 		.4byte	0xd79
 5394 0cb6 24       		.byte	0x24
 5395 0cb7 0D       		.uleb128 0xd
 5396 0cb8 30000000 		.4byte	.LASF274
 5397 0cbc 10       		.byte	0x10
 5398 0cbd 85       		.byte	0x85
 5399 0cbe 68040000 		.4byte	0x468
 5400 0cc2 28       		.byte	0x28
 5401 0cc3 0D       		.uleb128 0xd
 5402 0cc4 272D0000 		.4byte	.LASF74
 5403 0cc8 10       		.byte	0x10
 5404 0cc9 88       		.byte	0x88
 5405 0cca 3E010000 		.4byte	0x13e
 5406 0cce 2C       		.byte	0x2c
 5407 0ccf 00       		.byte	0
 5408 0cd0 07       		.uleb128 0x7
 5409 0cd1 04       		.byte	0x4
ARM GAS  C:\Users\strap\AppData\Local\Temp\ccTzHSZB.s 			page 139


 5410 0cd2 FB0B0000 		.4byte	0xbfb
 5411 0cd6 16       		.uleb128 0x16
 5412 0cd7 EB0C0000 		.4byte	0xceb
 5413 0cdb 11       		.uleb128 0x11
 5414 0cdc EB0C0000 		.4byte	0xceb
 5415 0ce0 11       		.uleb128 0x11
 5416 0ce1 F10C0000 		.4byte	0xcf1
 5417 0ce5 11       		.uleb128 0x11
 5418 0ce6 FC0C0000 		.4byte	0xcfc
 5419 0cea 00       		.byte	0
 5420 0ceb 07       		.uleb128 0x7
 5421 0cec 04       		.byte	0x4
 5422 0ced 060C0000 		.4byte	0xc06
 5423 0cf1 07       		.uleb128 0x7
 5424 0cf2 04       		.byte	0x4
 5425 0cf3 F70C0000 		.4byte	0xcf7
 5426 0cf7 08       		.uleb128 0x8
 5427 0cf8 15020000 		.4byte	0x215
 5428 0cfc 07       		.uleb128 0x7
 5429 0cfd 04       		.byte	0x4
 5430 0cfe 68040000 		.4byte	0x468
 5431 0d02 07       		.uleb128 0x7
 5432 0d03 04       		.byte	0x4
 5433 0d04 D60C0000 		.4byte	0xcd6
 5434 0d08 16       		.uleb128 0x16
 5435 0d09 180D0000 		.4byte	0xd18
 5436 0d0d 11       		.uleb128 0x11
 5437 0d0e EB0C0000 		.4byte	0xceb
 5438 0d12 11       		.uleb128 0x11
 5439 0d13 180D0000 		.4byte	0xd18
 5440 0d17 00       		.byte	0
 5441 0d18 07       		.uleb128 0x7
 5442 0d19 04       		.byte	0x4
 5443 0d1a 15020000 		.4byte	0x215
 5444 0d1e 07       		.uleb128 0x7
 5445 0d1f 04       		.byte	0x4
 5446 0d20 080D0000 		.4byte	0xd08
 5447 0d24 16       		.uleb128 0x16
 5448 0d25 4D0D0000 		.4byte	0xd4d
 5449 0d29 11       		.uleb128 0x11
 5450 0d2a EB0C0000 		.4byte	0xceb
 5451 0d2e 11       		.uleb128 0x11
 5452 0d2f CA080000 		.4byte	0x8ca
 5453 0d33 11       		.uleb128 0x11
 5454 0d34 1B010000 		.4byte	0x11b
 5455 0d38 11       		.uleb128 0x11
 5456 0d39 1B010000 		.4byte	0x11b
 5457 0d3d 11       		.uleb128 0x11
 5458 0d3e 1B010000 		.4byte	0x11b
 5459 0d42 11       		.uleb128 0x11
 5460 0d43 68040000 		.4byte	0x468
 5461 0d47 11       		.uleb128 0x11
 5462 0d48 74040000 		.4byte	0x474
 5463 0d4c 00       		.byte	0
 5464 0d4d 07       		.uleb128 0x7
 5465 0d4e 04       		.byte	0x4
 5466 0d4f 240D0000 		.4byte	0xd24
ARM GAS  C:\Users\strap\AppData\Local\Temp\ccTzHSZB.s 			page 140


 5467 0d53 16       		.uleb128 0x16
 5468 0d54 680D0000 		.4byte	0xd68
 5469 0d58 11       		.uleb128 0x11
 5470 0d59 EB0C0000 		.4byte	0xceb
 5471 0d5d 11       		.uleb128 0x11
 5472 0d5e FA000000 		.4byte	0xfa
 5473 0d62 11       		.uleb128 0x11
 5474 0d63 FA000000 		.4byte	0xfa
 5475 0d67 00       		.byte	0
 5476 0d68 07       		.uleb128 0x7
 5477 0d69 04       		.byte	0x4
 5478 0d6a 530D0000 		.4byte	0xd53
 5479 0d6e 16       		.uleb128 0x16
 5480 0d6f 790D0000 		.4byte	0xd79
 5481 0d73 11       		.uleb128 0x11
 5482 0d74 EB0C0000 		.4byte	0xceb
 5483 0d78 00       		.byte	0
 5484 0d79 07       		.uleb128 0x7
 5485 0d7a 04       		.byte	0x4
 5486 0d7b 6E0D0000 		.4byte	0xd6e
 5487 0d7f 02       		.uleb128 0x2
 5488 0d80 A72A0000 		.4byte	.LASF275
 5489 0d84 10       		.byte	0x10
 5490 0d85 8B       		.byte	0x8b
 5491 0d86 060C0000 		.4byte	0xc06
 5492 0d8a 19       		.uleb128 0x19
 5493 0d8b 731D0000 		.4byte	.LASF276
 5494 0d8f 8001     		.2byte	0x180
 5495 0d91 10       		.byte	0x10
 5496 0d92 93       		.byte	0x93
 5497 0d93 550E0000 		.4byte	0xe55
 5498 0d97 0D       		.uleb128 0xd
 5499 0d98 80260000 		.4byte	.LASF277
 5500 0d9c 10       		.byte	0x10
 5501 0d9d 95       		.byte	0x95
 5502 0d9e 7F0D0000 		.4byte	0xd7f
 5503 0da2 00       		.byte	0
 5504 0da3 0D       		.uleb128 0xd
 5505 0da4 700C0000 		.4byte	.LASF278
 5506 0da8 10       		.byte	0x10
 5507 0da9 98       		.byte	0x98
 5508 0daa 550E0000 		.4byte	0xe55
 5509 0dae 30       		.byte	0x30
 5510 0daf 0D       		.uleb128 0xd
 5511 0db0 0D050000 		.4byte	.LASF279
 5512 0db4 10       		.byte	0x10
 5513 0db5 9B       		.byte	0x9b
 5514 0db6 E60A0000 		.4byte	0xae6
 5515 0dba 34       		.byte	0x34
 5516 0dbb 0D       		.uleb128 0xd
 5517 0dbc 34010000 		.4byte	.LASF280
 5518 0dc0 10       		.byte	0x10
 5519 0dc1 9C       		.byte	0x9c
 5520 0dc2 DC0F0000 		.4byte	0xfdc
 5521 0dc6 40       		.byte	0x40
 5522 0dc7 0D       		.uleb128 0xd
 5523 0dc8 D9260000 		.4byte	.LASF281
ARM GAS  C:\Users\strap\AppData\Local\Temp\ccTzHSZB.s 			page 141


 5524 0dcc 10       		.byte	0x10
 5525 0dcd 9D       		.byte	0x9d
 5526 0dce DC0F0000 		.4byte	0xfdc
 5527 0dd2 44       		.byte	0x44
 5528 0dd3 0D       		.uleb128 0xd
 5529 0dd4 0A0B0000 		.4byte	.LASF282
 5530 0dd8 10       		.byte	0x10
 5531 0dd9 9E       		.byte	0x9e
 5532 0dda DC0F0000 		.4byte	0xfdc
 5533 0dde 48       		.byte	0x48
 5534 0ddf 0D       		.uleb128 0xd
 5535 0de0 DB210000 		.4byte	.LASF283
 5536 0de4 10       		.byte	0x10
 5537 0de5 9F       		.byte	0x9f
 5538 0de6 DC0F0000 		.4byte	0xfdc
 5539 0dea 4C       		.byte	0x4c
 5540 0deb 0F       		.uleb128 0xf
 5541 0dec 09290000 		.4byte	.LASF284
 5542 0df0 10       		.byte	0x10
 5543 0df1 A1       		.byte	0xa1
 5544 0df2 CE000000 		.4byte	0xce
 5545 0df6 01       		.byte	0x1
 5546 0df7 01       		.byte	0x1
 5547 0df8 07       		.byte	0x7
 5548 0df9 50       		.byte	0x50
 5549 0dfa 0D       		.uleb128 0xd
 5550 0dfb EC010000 		.4byte	.LASF285
 5551 0dff 10       		.byte	0x10
 5552 0e00 A4       		.byte	0xa4
 5553 0e01 68040000 		.4byte	0x468
 5554 0e05 52       		.byte	0x52
 5555 0e06 0D       		.uleb128 0xd
 5556 0e07 21290000 		.4byte	.LASF286
 5557 0e0b 10       		.byte	0x10
 5558 0e0c A5       		.byte	0xa5
 5559 0e0d E20F0000 		.4byte	0xfe2
 5560 0e11 54       		.byte	0x54
 5561 0e12 0D       		.uleb128 0xd
 5562 0e13 0D070000 		.4byte	.LASF287
 5563 0e17 10       		.byte	0x10
 5564 0e18 A6       		.byte	0xa6
 5565 0e19 74040000 		.4byte	0x474
 5566 0e1d 58       		.byte	0x58
 5567 0e1e 0D       		.uleb128 0xd
 5568 0e1f 371C0000 		.4byte	.LASF288
 5569 0e23 10       		.byte	0x10
 5570 0e24 A9       		.byte	0xa9
 5571 0e25 E90F0000 		.4byte	0xfe9
 5572 0e29 5A       		.byte	0x5a
 5573 0e2a 1A       		.uleb128 0x1a
 5574 0e2b 440C0000 		.4byte	.LASF289
 5575 0e2f 10       		.byte	0x10
 5576 0e30 AA       		.byte	0xaa
 5577 0e31 F90F0000 		.4byte	0xff9
 5578 0e35 5A01     		.2byte	0x15a
 5579 0e37 1B       		.uleb128 0x1b
 5580 0e38 9F270000 		.4byte	.LASF290
ARM GAS  C:\Users\strap\AppData\Local\Temp\ccTzHSZB.s 			page 142


 5581 0e3c 10       		.byte	0x10
 5582 0e3d AB       		.byte	0xab
 5583 0e3e FA000000 		.4byte	0xfa
 5584 0e42 04       		.byte	0x4
 5585 0e43 0A       		.byte	0xa
 5586 0e44 06       		.byte	0x6
 5587 0e45 7801     		.2byte	0x178
 5588 0e47 1A       		.uleb128 0x1a
 5589 0e48 71060000 		.4byte	.LASF291
 5590 0e4c 10       		.byte	0x10
 5591 0e4d AE       		.byte	0xae
 5592 0e4e FA000000 		.4byte	0xfa
 5593 0e52 7C01     		.2byte	0x17c
 5594 0e54 00       		.byte	0
 5595 0e55 07       		.uleb128 0x7
 5596 0e56 04       		.byte	0x4
 5597 0e57 6B0B0000 		.4byte	0xb6b
 5598 0e5b 0E       		.uleb128 0xe
 5599 0e5c 25260000 		.4byte	.LASF292
 5600 0e60 50       		.byte	0x50
 5601 0e61 11       		.byte	0x11
 5602 0e62 C5       		.byte	0xc5
 5603 0e63 DC0F0000 		.4byte	0xfdc
 5604 0e67 0D       		.uleb128 0xd
 5605 0e68 C2110000 		.4byte	.LASF293
 5606 0e6c 11       		.byte	0x11
 5607 0e6d C6       		.byte	0xc6
 5608 0e6e DC0F0000 		.4byte	0xfdc
 5609 0e72 00       		.byte	0
 5610 0e73 0D       		.uleb128 0xd
 5611 0e74 47190000 		.4byte	.LASF294
 5612 0e78 11       		.byte	0x11
 5613 0e79 C7       		.byte	0xc7
 5614 0e7a E60A0000 		.4byte	0xae6
 5615 0e7e 04       		.byte	0x4
 5616 0e7f 0D       		.uleb128 0xd
 5617 0e80 72280000 		.4byte	.LASF295
 5618 0e84 11       		.byte	0x11
 5619 0e85 C9       		.byte	0xc9
 5620 0e86 15020000 		.4byte	0x215
 5621 0e8a 10       		.byte	0x10
 5622 0e8b 0D       		.uleb128 0xd
 5623 0e8c E4170000 		.4byte	.LASF296
 5624 0e90 11       		.byte	0x11
 5625 0e91 CB       		.byte	0xcb
 5626 0e92 56150000 		.4byte	0x1556
 5627 0e96 18       		.byte	0x18
 5628 0e97 0D       		.uleb128 0xd
 5629 0e98 6E2B0000 		.4byte	.LASF297
 5630 0e9c 11       		.byte	0x11
 5631 0e9d CC       		.byte	0xcc
 5632 0e9e 2B160000 		.4byte	0x162b
 5633 0ea2 1C       		.byte	0x1c
 5634 0ea3 0D       		.uleb128 0xd
 5635 0ea4 630E0000 		.4byte	.LASF298
 5636 0ea8 11       		.byte	0x11
 5637 0ea9 CD       		.byte	0xcd
ARM GAS  C:\Users\strap\AppData\Local\Temp\ccTzHSZB.s 			page 143


 5638 0eaa 8A140000 		.4byte	0x148a
 5639 0eae 20       		.byte	0x20
 5640 0eaf 0D       		.uleb128 0xd
 5641 0eb0 C2040000 		.4byte	.LASF299
 5642 0eb4 11       		.byte	0x11
 5643 0eb5 CF       		.byte	0xcf
 5644 0eb6 31010000 		.4byte	0x131
 5645 0eba 24       		.byte	0x24
 5646 0ebb 0D       		.uleb128 0xd
 5647 0ebc 75080000 		.4byte	.LASF209
 5648 0ec0 11       		.byte	0x11
 5649 0ec1 D0       		.byte	0xd0
 5650 0ec2 9C0A0000 		.4byte	0xa9c
 5651 0ec6 28       		.byte	0x28
 5652 0ec7 0D       		.uleb128 0xd
 5653 0ec8 0F0C0000 		.4byte	.LASF300
 5654 0ecc 11       		.byte	0x11
 5655 0ecd D3       		.byte	0xd3
 5656 0ece CE000000 		.4byte	0xce
 5657 0ed2 30       		.byte	0x30
 5658 0ed3 0D       		.uleb128 0xd
 5659 0ed4 55240000 		.4byte	.LASF301
 5660 0ed8 11       		.byte	0x11
 5661 0ed9 D4       		.byte	0xd4
 5662 0eda CE000000 		.4byte	0xce
 5663 0ede 31       		.byte	0x31
 5664 0edf 0D       		.uleb128 0xd
 5665 0ee0 B8100000 		.4byte	.LASF302
 5666 0ee4 11       		.byte	0x11
 5667 0ee5 D9       		.byte	0xd9
 5668 0ee6 1B010000 		.4byte	0x11b
 5669 0eea 32       		.byte	0x32
 5670 0eeb 0F       		.uleb128 0xf
 5671 0eec 09020000 		.4byte	.LASF303
 5672 0ef0 11       		.byte	0x11
 5673 0ef1 DC       		.byte	0xdc
 5674 0ef2 CE000000 		.4byte	0xce
 5675 0ef6 01       		.byte	0x1
 5676 0ef7 01       		.byte	0x1
 5677 0ef8 07       		.byte	0x7
 5678 0ef9 34       		.byte	0x34
 5679 0efa 0F       		.uleb128 0xf
 5680 0efb 08260000 		.4byte	.LASF304
 5681 0eff 11       		.byte	0x11
 5682 0f00 DD       		.byte	0xdd
 5683 0f01 CE000000 		.4byte	0xce
 5684 0f05 01       		.byte	0x1
 5685 0f06 01       		.byte	0x1
 5686 0f07 06       		.byte	0x6
 5687 0f08 34       		.byte	0x34
 5688 0f09 0F       		.uleb128 0xf
 5689 0f0a 34100000 		.4byte	.LASF305
 5690 0f0e 11       		.byte	0x11
 5691 0f0f DE       		.byte	0xde
 5692 0f10 CE000000 		.4byte	0xce
 5693 0f14 01       		.byte	0x1
 5694 0f15 01       		.byte	0x1
ARM GAS  C:\Users\strap\AppData\Local\Temp\ccTzHSZB.s 			page 144


 5695 0f16 05       		.byte	0x5
 5696 0f17 34       		.byte	0x34
 5697 0f18 0F       		.uleb128 0xf
 5698 0f19 282A0000 		.4byte	.LASF306
 5699 0f1d 11       		.byte	0x11
 5700 0f1e DF       		.byte	0xdf
 5701 0f1f CE000000 		.4byte	0xce
 5702 0f23 01       		.byte	0x1
 5703 0f24 01       		.byte	0x1
 5704 0f25 04       		.byte	0x4
 5705 0f26 34       		.byte	0x34
 5706 0f27 0F       		.uleb128 0xf
 5707 0f28 61060000 		.4byte	.LASF307
 5708 0f2c 11       		.byte	0x11
 5709 0f2d E0       		.byte	0xe0
 5710 0f2e CE000000 		.4byte	0xce
 5711 0f32 01       		.byte	0x1
 5712 0f33 01       		.byte	0x1
 5713 0f34 03       		.byte	0x3
 5714 0f35 34       		.byte	0x34
 5715 0f36 12       		.uleb128 0x12
 5716 0f37 746F7000 		.ascii	"top\000"
 5717 0f3b 11       		.byte	0x11
 5718 0f3c E1       		.byte	0xe1
 5719 0f3d CE000000 		.4byte	0xce
 5720 0f41 01       		.byte	0x1
 5721 0f42 01       		.byte	0x1
 5722 0f43 02       		.byte	0x2
 5723 0f44 34       		.byte	0x34
 5724 0f45 0F       		.uleb128 0xf
 5725 0f46 A3190000 		.4byte	.LASF308
 5726 0f4a 11       		.byte	0x11
 5727 0f4b E2       		.byte	0xe2
 5728 0f4c CE000000 		.4byte	0xce
 5729 0f50 01       		.byte	0x1
 5730 0f51 01       		.byte	0x1
 5731 0f52 01       		.byte	0x1
 5732 0f53 34       		.byte	0x34
 5733 0f54 0F       		.uleb128 0xf
 5734 0f55 EC130000 		.4byte	.LASF309
 5735 0f59 11       		.byte	0x11
 5736 0f5a E3       		.byte	0xe3
 5737 0f5b CE000000 		.4byte	0xce
 5738 0f5f 01       		.byte	0x1
 5739 0f60 01       		.byte	0x1
 5740 0f61 00       		.byte	0
 5741 0f62 34       		.byte	0x34
 5742 0f63 0F       		.uleb128 0xf
 5743 0f64 87290000 		.4byte	.LASF310
 5744 0f68 11       		.byte	0x11
 5745 0f69 E4       		.byte	0xe4
 5746 0f6a CE000000 		.4byte	0xce
 5747 0f6e 01       		.byte	0x1
 5748 0f6f 01       		.byte	0x1
 5749 0f70 07       		.byte	0x7
 5750 0f71 35       		.byte	0x35
 5751 0f72 0F       		.uleb128 0xf
ARM GAS  C:\Users\strap\AppData\Local\Temp\ccTzHSZB.s 			page 145


 5752 0f73 DB0B0000 		.4byte	.LASF311
 5753 0f77 11       		.byte	0x11
 5754 0f78 E5       		.byte	0xe5
 5755 0f79 CE000000 		.4byte	0xce
 5756 0f7d 01       		.byte	0x1
 5757 0f7e 01       		.byte	0x1
 5758 0f7f 06       		.byte	0x6
 5759 0f80 35       		.byte	0x35
 5760 0f81 0F       		.uleb128 0xf
 5761 0f82 520B0000 		.4byte	.LASF312
 5762 0f86 11       		.byte	0x11
 5763 0f87 E7       		.byte	0xe7
 5764 0f88 6F100000 		.4byte	0x106f
 5765 0f8c 01       		.byte	0x1
 5766 0f8d 03       		.byte	0x3
 5767 0f8e 03       		.byte	0x3
 5768 0f8f 35       		.byte	0x35
 5769 0f90 0F       		.uleb128 0xf
 5770 0f91 A4260000 		.4byte	.LASF313
 5771 0f95 11       		.byte	0x11
 5772 0f96 E8       		.byte	0xe8
 5773 0f97 69140000 		.4byte	0x1469
 5774 0f9b 01       		.byte	0x1
 5775 0f9c 02       		.byte	0x2
 5776 0f9d 01       		.byte	0x1
 5777 0f9e 35       		.byte	0x35
 5778 0f9f 0D       		.uleb128 0xd
 5779 0fa0 DC0F0000 		.4byte	.LASF314
 5780 0fa4 11       		.byte	0x11
 5781 0fa5 EB       		.byte	0xeb
 5782 0fa6 31010000 		.4byte	0x131
 5783 0faa 38       		.byte	0x38
 5784 0fab 0D       		.uleb128 0xd
 5785 0fac 56190000 		.4byte	.LASF315
 5786 0fb0 11       		.byte	0x11
 5787 0fb1 EE       		.byte	0xee
 5788 0fb2 CE000000 		.4byte	0xce
 5789 0fb6 3C       		.byte	0x3c
 5790 0fb7 0D       		.uleb128 0xd
 5791 0fb8 11030000 		.4byte	.LASF316
 5792 0fbc 11       		.byte	0x11
 5793 0fbd F0       		.byte	0xf0
 5794 0fbe F9160000 		.4byte	0x16f9
 5795 0fc2 3D       		.byte	0x3d
 5796 0fc3 0D       		.uleb128 0xd
 5797 0fc4 0E120000 		.4byte	.LASF317
 5798 0fc8 11       		.byte	0x11
 5799 0fc9 F3       		.byte	0xf3
 5800 0fca B7160000 		.4byte	0x16b7
 5801 0fce 40       		.byte	0x40
 5802 0fcf 0D       		.uleb128 0xd
 5803 0fd0 272D0000 		.4byte	.LASF74
 5804 0fd4 11       		.byte	0x11
 5805 0fd5 F7       		.byte	0xf7
 5806 0fd6 62010000 		.4byte	0x162
 5807 0fda 4C       		.byte	0x4c
 5808 0fdb 00       		.byte	0
ARM GAS  C:\Users\strap\AppData\Local\Temp\ccTzHSZB.s 			page 146


 5809 0fdc 07       		.uleb128 0x7
 5810 0fdd 04       		.byte	0x4
 5811 0fde 5B0E0000 		.4byte	0xe5b
 5812 0fe2 07       		.uleb128 0x7
 5813 0fe3 04       		.byte	0x4
 5814 0fe4 E80F0000 		.4byte	0xfe8
 5815 0fe8 1C       		.uleb128 0x1c
 5816 0fe9 1D       		.uleb128 0x1d
 5817 0fea 15020000 		.4byte	0x215
 5818 0fee F90F0000 		.4byte	0xff9
 5819 0ff2 1E       		.uleb128 0x1e
 5820 0ff3 75010000 		.4byte	0x175
 5821 0ff7 1F       		.byte	0x1f
 5822 0ff8 00       		.byte	0
 5823 0ff9 1D       		.uleb128 0x1d
 5824 0ffa CE000000 		.4byte	0xce
 5825 0ffe 09100000 		.4byte	0x1009
 5826 1002 1E       		.uleb128 0x1e
 5827 1003 75010000 		.4byte	0x175
 5828 1007 1F       		.byte	0x1f
 5829 1008 00       		.byte	0
 5830 1009 09       		.uleb128 0x9
 5831 100a 01       		.byte	0x1
 5832 100b 42000000 		.4byte	0x42
 5833 100f 12       		.byte	0x12
 5834 1010 27       		.byte	0x27
 5835 1011 34100000 		.4byte	0x1034
 5836 1015 0A       		.uleb128 0xa
 5837 1016 DA2C0000 		.4byte	.LASF318
 5838 101a 00       		.byte	0
 5839 101b 0A       		.uleb128 0xa
 5840 101c 261F0000 		.4byte	.LASF319
 5841 1020 01       		.byte	0x1
 5842 1021 0A       		.uleb128 0xa
 5843 1022 AF230000 		.4byte	.LASF320
 5844 1026 02       		.byte	0x2
 5845 1027 0A       		.uleb128 0xa
 5846 1028 52170000 		.4byte	.LASF321
 5847 102c 03       		.byte	0x3
 5848 102d 0A       		.uleb128 0xa
 5849 102e CE110000 		.4byte	.LASF322
 5850 1032 04       		.byte	0x4
 5851 1033 00       		.byte	0
 5852 1034 02       		.uleb128 0x2
 5853 1035 0D170000 		.4byte	.LASF323
 5854 1039 12       		.byte	0x12
 5855 103a 2F       		.byte	0x2f
 5856 103b CE000000 		.4byte	0xce
 5857 103f 02       		.uleb128 0x2
 5858 1040 6F260000 		.4byte	.LASF324
 5859 1044 12       		.byte	0x12
 5860 1045 33       		.byte	0x33
 5861 1046 CE000000 		.4byte	0xce
 5862 104a 09       		.uleb128 0x9
 5863 104b 01       		.byte	0x1
 5864 104c 42000000 		.4byte	0x42
 5865 1050 12       		.byte	0x12
ARM GAS  C:\Users\strap\AppData\Local\Temp\ccTzHSZB.s 			page 147


 5866 1051 36       		.byte	0x36
 5867 1052 6F100000 		.4byte	0x106f
 5868 1056 0A       		.uleb128 0xa
 5869 1057 A9290000 		.4byte	.LASF325
 5870 105b 01       		.byte	0x1
 5871 105c 0A       		.uleb128 0xa
 5872 105d F81D0000 		.4byte	.LASF326
 5873 1061 02       		.byte	0x2
 5874 1062 0A       		.uleb128 0xa
 5875 1063 C3180000 		.4byte	.LASF327
 5876 1067 03       		.byte	0x3
 5877 1068 0A       		.uleb128 0xa
 5878 1069 03190000 		.4byte	.LASF328
 5879 106d 04       		.byte	0x4
 5880 106e 00       		.byte	0
 5881 106f 02       		.uleb128 0x2
 5882 1070 D92D0000 		.4byte	.LASF329
 5883 1074 12       		.byte	0x12
 5884 1075 3D       		.byte	0x3d
 5885 1076 CE000000 		.4byte	0xce
 5886 107a 02       		.uleb128 0x2
 5887 107b 380E0000 		.4byte	.LASF330
 5888 107f 12       		.byte	0x12
 5889 1080 45       		.byte	0x45
 5890 1081 CE000000 		.4byte	0xce
 5891 1085 0B       		.uleb128 0xb
 5892 1086 10       		.byte	0x10
 5893 1087 12       		.byte	0x12
 5894 1088 48       		.byte	0x48
 5895 1089 CA100000 		.4byte	0x10ca
 5896 108d 0D       		.uleb128 0xd
 5897 108e 14050000 		.4byte	.LASF331
 5898 1092 12       		.byte	0x12
 5899 1093 49       		.byte	0x49
 5900 1094 D5010000 		.4byte	0x1d5
 5901 1098 00       		.byte	0
 5902 1099 0C       		.uleb128 0xc
 5903 109a 6B657900 		.ascii	"key\000"
 5904 109e 12       		.byte	0x12
 5905 109f 4A       		.byte	0x4a
 5906 10a0 FA000000 		.4byte	0xfa
 5907 10a4 04       		.byte	0x4
 5908 10a5 0D       		.uleb128 0xd
 5909 10a6 960C0000 		.4byte	.LASF332
 5910 10aa 12       		.byte	0x12
 5911 10ab 4B       		.byte	0x4b
 5912 10ac FA000000 		.4byte	0xfa
 5913 10b0 08       		.byte	0x8
 5914 10b1 0D       		.uleb128 0xd
 5915 10b2 D81B0000 		.4byte	.LASF333
 5916 10b6 12       		.byte	0x12
 5917 10b7 4C       		.byte	0x4c
 5918 10b8 D9000000 		.4byte	0xd9
 5919 10bc 0C       		.byte	0xc
 5920 10bd 0D       		.uleb128 0xd
 5921 10be 11030000 		.4byte	.LASF316
 5922 10c2 12       		.byte	0x12
ARM GAS  C:\Users\strap\AppData\Local\Temp\ccTzHSZB.s 			page 148


 5923 10c3 4E       		.byte	0x4e
 5924 10c4 3F100000 		.4byte	0x103f
 5925 10c8 0E       		.byte	0xe
 5926 10c9 00       		.byte	0
 5927 10ca 02       		.uleb128 0x2
 5928 10cb F12A0000 		.4byte	.LASF334
 5929 10cf 12       		.byte	0x12
 5930 10d0 4F       		.byte	0x4f
 5931 10d1 85100000 		.4byte	0x1085
 5932 10d5 0E       		.uleb128 0xe
 5933 10d6 CB040000 		.4byte	.LASF335
 5934 10da 20       		.byte	0x20
 5935 10db 12       		.byte	0x12
 5936 10dc 53       		.byte	0x53
 5937 10dd 72110000 		.4byte	0x1172
 5938 10e1 0D       		.uleb128 0xd
 5939 10e2 3C040000 		.4byte	.LASF336
 5940 10e6 12       		.byte	0x12
 5941 10e7 56       		.byte	0x56
 5942 10e8 34100000 		.4byte	0x1034
 5943 10ec 00       		.byte	0
 5944 10ed 0D       		.uleb128 0xd
 5945 10ee 35160000 		.4byte	.LASF337
 5946 10f2 12       		.byte	0x12
 5947 10f3 5B       		.byte	0x5b
 5948 10f4 92110000 		.4byte	0x1192
 5949 10f8 04       		.byte	0x4
 5950 10f9 0D       		.uleb128 0xd
 5951 10fa 2D200000 		.4byte	.LASF338
 5952 10fe 12       		.byte	0x12
 5953 10ff 5F       		.byte	0x5f
 5954 1100 A8110000 		.4byte	0x11a8
 5955 1104 08       		.byte	0x8
 5956 1105 0D       		.uleb128 0xd
 5957 1106 272D0000 		.4byte	.LASF74
 5958 110a 12       		.byte	0x12
 5959 110b 62       		.byte	0x62
 5960 110c 4A010000 		.4byte	0x14a
 5961 1110 0C       		.byte	0xc
 5962 1111 0D       		.uleb128 0xd
 5963 1112 8C1B0000 		.4byte	.LASF339
 5964 1116 12       		.byte	0x12
 5965 1117 66       		.byte	0x66
 5966 1118 AE110000 		.4byte	0x11ae
 5967 111c 10       		.byte	0x10
 5968 111d 0D       		.uleb128 0xd
 5969 111e C51F0000 		.4byte	.LASF340
 5970 1122 12       		.byte	0x12
 5971 1123 69       		.byte	0x69
 5972 1124 550E0000 		.4byte	0xe55
 5973 1128 14       		.byte	0x14
 5974 1129 0D       		.uleb128 0xd
 5975 112a 9C2A0000 		.4byte	.LASF341
 5976 112e 12       		.byte	0x12
 5977 112f 6C       		.byte	0x6c
 5978 1130 CE000000 		.4byte	0xce
 5979 1134 18       		.byte	0x18
ARM GAS  C:\Users\strap\AppData\Local\Temp\ccTzHSZB.s 			page 149


 5980 1135 0D       		.uleb128 0xd
 5981 1136 34100000 		.4byte	.LASF305
 5982 113a 12       		.byte	0x12
 5983 113b 6F       		.byte	0x6f
 5984 113c CE000000 		.4byte	0xce
 5985 1140 19       		.byte	0x19
 5986 1141 0D       		.uleb128 0xd
 5987 1142 342C0000 		.4byte	.LASF342
 5988 1146 12       		.byte	0x12
 5989 1147 72       		.byte	0x72
 5990 1148 CE000000 		.4byte	0xce
 5991 114c 1A       		.byte	0x1a
 5992 114d 0D       		.uleb128 0xd
 5993 114e 9C2E0000 		.4byte	.LASF343
 5994 1152 12       		.byte	0x12
 5995 1153 75       		.byte	0x75
 5996 1154 CE000000 		.4byte	0xce
 5997 1158 1B       		.byte	0x1b
 5998 1159 0D       		.uleb128 0xd
 5999 115a A1210000 		.4byte	.LASF344
 6000 115e 12       		.byte	0x12
 6001 115f 78       		.byte	0x78
 6002 1160 E4000000 		.4byte	0xe4
 6003 1164 1C       		.byte	0x1c
 6004 1165 0D       		.uleb128 0xd
 6005 1166 DD100000 		.4byte	.LASF345
 6006 116a 12       		.byte	0x12
 6007 116b 7B       		.byte	0x7b
 6008 116c E4000000 		.4byte	0xe4
 6009 1170 1E       		.byte	0x1e
 6010 1171 00       		.byte	0
 6011 1172 10       		.uleb128 0x10
 6012 1173 AC030000 		.4byte	0x3ac
 6013 1177 86110000 		.4byte	0x1186
 6014 117b 11       		.uleb128 0x11
 6015 117c 86110000 		.4byte	0x1186
 6016 1180 11       		.uleb128 0x11
 6017 1181 8C110000 		.4byte	0x118c
 6018 1185 00       		.byte	0
 6019 1186 07       		.uleb128 0x7
 6020 1187 04       		.byte	0x4
 6021 1188 D5100000 		.4byte	0x10d5
 6022 118c 07       		.uleb128 0x7
 6023 118d 04       		.byte	0x4
 6024 118e CA100000 		.4byte	0x10ca
 6025 1192 07       		.uleb128 0x7
 6026 1193 04       		.byte	0x4
 6027 1194 72110000 		.4byte	0x1172
 6028 1198 16       		.uleb128 0x16
 6029 1199 A8110000 		.4byte	0x11a8
 6030 119d 11       		.uleb128 0x11
 6031 119e 86110000 		.4byte	0x1186
 6032 11a2 11       		.uleb128 0x11
 6033 11a3 CE000000 		.4byte	0xce
 6034 11a7 00       		.byte	0
 6035 11a8 07       		.uleb128 0x7
 6036 11a9 04       		.byte	0x4
ARM GAS  C:\Users\strap\AppData\Local\Temp\ccTzHSZB.s 			page 150


 6037 11aa 98110000 		.4byte	0x1198
 6038 11ae 07       		.uleb128 0x7
 6039 11af 04       		.byte	0x4
 6040 11b0 8A0D0000 		.4byte	0xd8a
 6041 11b4 02       		.uleb128 0x2
 6042 11b5 F9250000 		.4byte	.LASF346
 6043 11b9 12       		.byte	0x12
 6044 11ba 7C       		.byte	0x7c
 6045 11bb D5100000 		.4byte	0x10d5
 6046 11bf 0B       		.uleb128 0xb
 6047 11c0 28       		.byte	0x28
 6048 11c1 12       		.byte	0x12
 6049 11c2 84       		.byte	0x84
 6050 11c3 7C120000 		.4byte	0x127c
 6051 11c7 0D       		.uleb128 0xd
 6052 11c8 9F160000 		.4byte	.LASF347
 6053 11cc 12       		.byte	0x12
 6054 11cd 86       		.byte	0x86
 6055 11ce D5010000 		.4byte	0x1d5
 6056 11d2 00       		.byte	0
 6057 11d3 0D       		.uleb128 0xd
 6058 11d4 81190000 		.4byte	.LASF348
 6059 11d8 12       		.byte	0x12
 6060 11d9 87       		.byte	0x87
 6061 11da D5010000 		.4byte	0x1d5
 6062 11de 04       		.byte	0x4
 6063 11df 0D       		.uleb128 0xd
 6064 11e0 DE1E0000 		.4byte	.LASF349
 6065 11e4 12       		.byte	0x12
 6066 11e5 88       		.byte	0x88
 6067 11e6 D5010000 		.4byte	0x1d5
 6068 11ea 08       		.byte	0x8
 6069 11eb 0D       		.uleb128 0xd
 6070 11ec 071F0000 		.4byte	.LASF350
 6071 11f0 12       		.byte	0x12
 6072 11f1 89       		.byte	0x89
 6073 11f2 D5010000 		.4byte	0x1d5
 6074 11f6 0C       		.byte	0xc
 6075 11f7 0D       		.uleb128 0xd
 6076 11f8 230D0000 		.4byte	.LASF351
 6077 11fc 12       		.byte	0x12
 6078 11fd 8A       		.byte	0x8a
 6079 11fe D5010000 		.4byte	0x1d5
 6080 1202 10       		.byte	0x10
 6081 1203 0D       		.uleb128 0xd
 6082 1204 8C190000 		.4byte	.LASF352
 6083 1208 12       		.byte	0x12
 6084 1209 8B       		.byte	0x8b
 6085 120a DC0F0000 		.4byte	0xfdc
 6086 120e 14       		.byte	0x14
 6087 120f 0D       		.uleb128 0xd
 6088 1210 EC160000 		.4byte	.LASF353
 6089 1214 12       		.byte	0x12
 6090 1215 8C       		.byte	0x8c
 6091 1216 DC0F0000 		.4byte	0xfdc
 6092 121a 18       		.byte	0x18
 6093 121b 0D       		.uleb128 0xd
ARM GAS  C:\Users\strap\AppData\Local\Temp\ccTzHSZB.s 			page 151


 6094 121c E9240000 		.4byte	.LASF354
 6095 1220 12       		.byte	0x12
 6096 1221 8E       		.byte	0x8e
 6097 1222 DC0F0000 		.4byte	0xfdc
 6098 1226 1C       		.byte	0x1c
 6099 1227 0D       		.uleb128 0xd
 6100 1228 9E250000 		.4byte	.LASF355
 6101 122c 12       		.byte	0x12
 6102 122d 90       		.byte	0x90
 6103 122e 7A100000 		.4byte	0x107a
 6104 1232 20       		.byte	0x20
 6105 1233 0D       		.uleb128 0xd
 6106 1234 6E090000 		.4byte	.LASF356
 6107 1238 12       		.byte	0x12
 6108 1239 91       		.byte	0x91
 6109 123a D5010000 		.4byte	0x1d5
 6110 123e 22       		.byte	0x22
 6111 123f 0F       		.uleb128 0xf
 6112 1240 83250000 		.4byte	.LASF357
 6113 1244 12       		.byte	0x12
 6114 1245 93       		.byte	0x93
 6115 1246 CE000000 		.4byte	0xce
 6116 124a 01       		.byte	0x1
 6117 124b 01       		.byte	0x1
 6118 124c 07       		.byte	0x7
 6119 124d 26       		.byte	0x26
 6120 124e 0F       		.uleb128 0xf
 6121 124f 99240000 		.4byte	.LASF358
 6122 1253 12       		.byte	0x12
 6123 1254 94       		.byte	0x94
 6124 1255 CE000000 		.4byte	0xce
 6125 1259 01       		.byte	0x1
 6126 125a 01       		.byte	0x1
 6127 125b 06       		.byte	0x6
 6128 125c 26       		.byte	0x26
 6129 125d 0F       		.uleb128 0xf
 6130 125e 520B0000 		.4byte	.LASF312
 6131 1262 12       		.byte	0x12
 6132 1263 95       		.byte	0x95
 6133 1264 6F100000 		.4byte	0x106f
 6134 1268 01       		.byte	0x1
 6135 1269 03       		.byte	0x3
 6136 126a 03       		.byte	0x3
 6137 126b 26       		.byte	0x26
 6138 126c 0F       		.uleb128 0xf
 6139 126d DD250000 		.4byte	.LASF359
 6140 1271 12       		.byte	0x12
 6141 1272 96       		.byte	0x96
 6142 1273 CE000000 		.4byte	0xce
 6143 1277 01       		.byte	0x1
 6144 1278 01       		.byte	0x1
 6145 1279 02       		.byte	0x2
 6146 127a 26       		.byte	0x26
 6147 127b 00       		.byte	0
 6148 127c 0B       		.uleb128 0xb
 6149 127d 08       		.byte	0x8
 6150 127e 12       		.byte	0x12
ARM GAS  C:\Users\strap\AppData\Local\Temp\ccTzHSZB.s 			page 152


 6151 127f 98       		.byte	0x98
 6152 1280 9D120000 		.4byte	0x129d
 6153 1284 0D       		.uleb128 0xd
 6154 1285 DD060000 		.4byte	.LASF360
 6155 1289 12       		.byte	0x12
 6156 128a 9A       		.byte	0x9a
 6157 128b 3F100000 		.4byte	0x103f
 6158 128f 00       		.byte	0
 6159 1290 0D       		.uleb128 0xd
 6160 1291 2F130000 		.4byte	.LASF361
 6161 1295 12       		.byte	0x12
 6162 1296 9B       		.byte	0x9b
 6163 1297 FA000000 		.4byte	0xfa
 6164 129b 04       		.byte	0x4
 6165 129c 00       		.byte	0
 6166 129d 13       		.uleb128 0x13
 6167 129e 28       		.byte	0x28
 6168 129f 12       		.byte	0x12
 6169 12a0 83       		.byte	0x83
 6170 12a1 BC120000 		.4byte	0x12bc
 6171 12a5 15       		.uleb128 0x15
 6172 12a6 C30F0000 		.4byte	.LASF362
 6173 12aa 12       		.byte	0x12
 6174 12ab 97       		.byte	0x97
 6175 12ac BF110000 		.4byte	0x11bf
 6176 12b0 15       		.uleb128 0x15
 6177 12b1 2D2C0000 		.4byte	.LASF363
 6178 12b5 12       		.byte	0x12
 6179 12b6 9C       		.byte	0x9c
 6180 12b7 7C120000 		.4byte	0x127c
 6181 12bb 00       		.byte	0
 6182 12bc 0E       		.uleb128 0xe
 6183 12bd 1F210000 		.4byte	.LASF364
 6184 12c1 38       		.byte	0x38
 6185 12c2 12       		.byte	0x12
 6186 12c3 81       		.byte	0x81
 6187 12c4 35130000 		.4byte	0x1335
 6188 12c8 0D       		.uleb128 0xd
 6189 12c9 11030000 		.4byte	.LASF316
 6190 12cd 12       		.byte	0x12
 6191 12ce 82       		.byte	0x82
 6192 12cf 3F100000 		.4byte	0x103f
 6193 12d3 00       		.byte	0
 6194 12d4 0D       		.uleb128 0xd
 6195 12d5 312F0000 		.4byte	.LASF365
 6196 12d9 12       		.byte	0x12
 6197 12da 9D       		.byte	0x9d
 6198 12db 9D120000 		.4byte	0x129d
 6199 12df 04       		.byte	0x4
 6200 12e0 0D       		.uleb128 0xd
 6201 12e1 3C1F0000 		.4byte	.LASF366
 6202 12e5 12       		.byte	0x12
 6203 12e6 9F       		.byte	0x9f
 6204 12e7 FA000000 		.4byte	0xfa
 6205 12eb 2C       		.byte	0x2c
 6206 12ec 0D       		.uleb128 0xd
 6207 12ed 71240000 		.4byte	.LASF367
ARM GAS  C:\Users\strap\AppData\Local\Temp\ccTzHSZB.s 			page 153


 6208 12f1 12       		.byte	0x12
 6209 12f2 A0       		.byte	0xa0
 6210 12f3 FA000000 		.4byte	0xfa
 6211 12f7 30       		.byte	0x30
 6212 12f8 0F       		.uleb128 0xf
 6213 12f9 072E0000 		.4byte	.LASF368
 6214 12fd 12       		.byte	0x12
 6215 12fe A3       		.byte	0xa3
 6216 12ff CE000000 		.4byte	0xce
 6217 1303 01       		.byte	0x1
 6218 1304 01       		.byte	0x1
 6219 1305 07       		.byte	0x7
 6220 1306 34       		.byte	0x34
 6221 1307 0F       		.uleb128 0xf
 6222 1308 BD220000 		.4byte	.LASF369
 6223 130c 12       		.byte	0x12
 6224 130d A4       		.byte	0xa4
 6225 130e CE000000 		.4byte	0xce
 6226 1312 01       		.byte	0x1
 6227 1313 01       		.byte	0x1
 6228 1314 06       		.byte	0x6
 6229 1315 34       		.byte	0x34
 6230 1316 0F       		.uleb128 0xf
 6231 1317 9D130000 		.4byte	.LASF370
 6232 131b 12       		.byte	0x12
 6233 131c A5       		.byte	0xa5
 6234 131d CE000000 		.4byte	0xce
 6235 1321 01       		.byte	0x1
 6236 1322 01       		.byte	0x1
 6237 1323 05       		.byte	0x5
 6238 1324 34       		.byte	0x34
 6239 1325 0F       		.uleb128 0xf
 6240 1326 E5120000 		.4byte	.LASF371
 6241 132a 12       		.byte	0x12
 6242 132b A6       		.byte	0xa6
 6243 132c CE000000 		.4byte	0xce
 6244 1330 01       		.byte	0x1
 6245 1331 01       		.byte	0x1
 6246 1332 04       		.byte	0x4
 6247 1333 34       		.byte	0x34
 6248 1334 00       		.byte	0
 6249 1335 02       		.uleb128 0x2
 6250 1336 B9290000 		.4byte	.LASF372
 6251 133a 12       		.byte	0x12
 6252 133b A7       		.byte	0xa7
 6253 133c BC120000 		.4byte	0x12bc
 6254 1340 0E       		.uleb128 0xe
 6255 1341 92250000 		.4byte	.LASF373
 6256 1345 64       		.byte	0x64
 6257 1346 12       		.byte	0x12
 6258 1347 AE       		.byte	0xae
 6259 1348 89130000 		.4byte	0x1389
 6260 134c 0D       		.uleb128 0xd
 6261 134d 80260000 		.4byte	.LASF277
 6262 1351 12       		.byte	0x12
 6263 1352 AF       		.byte	0xaf
 6264 1353 B4110000 		.4byte	0x11b4
ARM GAS  C:\Users\strap\AppData\Local\Temp\ccTzHSZB.s 			page 154


 6265 1357 00       		.byte	0
 6266 1358 0D       		.uleb128 0xd
 6267 1359 330E0000 		.4byte	.LASF374
 6268 135d 12       		.byte	0x12
 6269 135e B0       		.byte	0xb0
 6270 135f 35130000 		.4byte	0x1335
 6271 1363 20       		.byte	0x20
 6272 1364 0D       		.uleb128 0xd
 6273 1365 492F0000 		.4byte	.LASF375
 6274 1369 12       		.byte	0x12
 6275 136a B1       		.byte	0xb1
 6276 136b DC0F0000 		.4byte	0xfdc
 6277 136f 58       		.byte	0x58
 6278 1370 0D       		.uleb128 0xd
 6279 1371 2F160000 		.4byte	.LASF376
 6280 1375 12       		.byte	0x12
 6281 1376 B2       		.byte	0xb2
 6282 1377 11140000 		.4byte	0x1411
 6283 137b 5C       		.byte	0x5c
 6284 137c 0D       		.uleb128 0xd
 6285 137d 3F020000 		.4byte	.LASF377
 6286 1381 12       		.byte	0x12
 6287 1382 B3       		.byte	0xb3
 6288 1383 17140000 		.4byte	0x1417
 6289 1387 60       		.byte	0x60
 6290 1388 00       		.byte	0
 6291 1389 0E       		.uleb128 0xe
 6292 138a 502F0000 		.4byte	.LASF378
 6293 138e 1C       		.byte	0x1c
 6294 138f 13       		.byte	0x13
 6295 1390 36       		.byte	0x36
 6296 1391 11140000 		.4byte	0x1411
 6297 1395 0D       		.uleb128 0xd
 6298 1396 012C0000 		.4byte	.LASF379
 6299 139a 13       		.byte	0x13
 6300 139b 37       		.byte	0x37
 6301 139c E60A0000 		.4byte	0xae6
 6302 13a0 00       		.byte	0
 6303 13a1 0D       		.uleb128 0xd
 6304 13a2 BC2F0000 		.4byte	.LASF380
 6305 13a6 13       		.byte	0x13
 6306 13a7 38       		.byte	0x38
 6307 13a8 71180000 		.4byte	0x1871
 6308 13ac 0C       		.byte	0xc
 6309 13ad 0D       		.uleb128 0xd
 6310 13ae 201E0000 		.4byte	.LASF381
 6311 13b2 13       		.byte	0x13
 6312 13b3 3A       		.byte	0x3a
 6313 13b4 55180000 		.4byte	0x1855
 6314 13b8 10       		.byte	0x10
 6315 13b9 0D       		.uleb128 0xd
 6316 13ba 272D0000 		.4byte	.LASF74
 6317 13be 13       		.byte	0x13
 6318 13bf 3C       		.byte	0x3c
 6319 13c0 33010000 		.4byte	0x133
 6320 13c4 14       		.byte	0x14
 6321 13c5 0F       		.uleb128 0xf
ARM GAS  C:\Users\strap\AppData\Local\Temp\ccTzHSZB.s 			page 155


 6322 13c6 67090000 		.4byte	.LASF382
 6323 13ca 13       		.byte	0x13
 6324 13cb 3F       		.byte	0x3f
 6325 13cc CE000000 		.4byte	0xce
 6326 13d0 01       		.byte	0x1
 6327 13d1 01       		.byte	0x1
 6328 13d2 07       		.byte	0x7
 6329 13d3 18       		.byte	0x18
 6330 13d4 0F       		.uleb128 0xf
 6331 13d5 30210000 		.4byte	.LASF383
 6332 13d9 13       		.byte	0x13
 6333 13da 40       		.byte	0x40
 6334 13db CE000000 		.4byte	0xce
 6335 13df 01       		.byte	0x1
 6336 13e0 01       		.byte	0x1
 6337 13e1 06       		.byte	0x6
 6338 13e2 18       		.byte	0x18
 6339 13e3 0F       		.uleb128 0xf
 6340 13e4 CF0B0000 		.4byte	.LASF384
 6341 13e8 13       		.byte	0x13
 6342 13e9 41       		.byte	0x41
 6343 13ea CE000000 		.4byte	0xce
 6344 13ee 01       		.byte	0x1
 6345 13ef 01       		.byte	0x1
 6346 13f0 05       		.byte	0x5
 6347 13f1 18       		.byte	0x18
 6348 13f2 0F       		.uleb128 0xf
 6349 13f3 F82D0000 		.4byte	.LASF385
 6350 13f7 13       		.byte	0x13
 6351 13f8 43       		.byte	0x43
 6352 13f9 CE000000 		.4byte	0xce
 6353 13fd 01       		.byte	0x1
 6354 13fe 01       		.byte	0x1
 6355 13ff 04       		.byte	0x4
 6356 1400 18       		.byte	0x18
 6357 1401 0F       		.uleb128 0xf
 6358 1402 98220000 		.4byte	.LASF386
 6359 1406 13       		.byte	0x13
 6360 1407 45       		.byte	0x45
 6361 1408 CE000000 		.4byte	0xce
 6362 140c 01       		.byte	0x1
 6363 140d 01       		.byte	0x1
 6364 140e 03       		.byte	0x3
 6365 140f 18       		.byte	0x18
 6366 1410 00       		.byte	0
 6367 1411 07       		.uleb128 0x7
 6368 1412 04       		.byte	0x4
 6369 1413 89130000 		.4byte	0x1389
 6370 1417 07       		.uleb128 0x7
 6371 1418 04       		.byte	0x4
 6372 1419 1D140000 		.4byte	0x141d
 6373 141d 08       		.uleb128 0x8
 6374 141e D5010000 		.4byte	0x1d5
 6375 1422 02       		.uleb128 0x2
 6376 1423 78120000 		.4byte	.LASF387
 6377 1427 12       		.byte	0x12
 6378 1428 B5       		.byte	0xb5
ARM GAS  C:\Users\strap\AppData\Local\Temp\ccTzHSZB.s 			page 156


 6379 1429 40130000 		.4byte	0x1340
 6380 142d 07       		.uleb128 0x7
 6381 142e 04       		.byte	0x4
 6382 142f 33140000 		.4byte	0x1433
 6383 1433 08       		.uleb128 0x8
 6384 1434 EF030000 		.4byte	0x3ef
 6385 1438 09       		.uleb128 0x9
 6386 1439 01       		.byte	0x1
 6387 143a 42000000 		.4byte	0x42
 6388 143e 14       		.byte	0x14
 6389 143f 20       		.byte	0x20
 6390 1440 69140000 		.4byte	0x1469
 6391 1444 0A       		.uleb128 0xa
 6392 1445 E0200000 		.4byte	.LASF388
 6393 1449 00       		.byte	0
 6394 144a 0A       		.uleb128 0xa
 6395 144b 012B0000 		.4byte	.LASF389
 6396 144f 01       		.byte	0x1
 6397 1450 0A       		.uleb128 0xa
 6398 1451 00250000 		.4byte	.LASF390
 6399 1455 02       		.byte	0x2
 6400 1456 0A       		.uleb128 0xa
 6401 1457 59110000 		.4byte	.LASF391
 6402 145b 03       		.byte	0x3
 6403 145c 0A       		.uleb128 0xa
 6404 145d E5220000 		.4byte	.LASF392
 6405 1461 20       		.byte	0x20
 6406 1462 0A       		.uleb128 0xa
 6407 1463 DC000000 		.4byte	.LASF393
 6408 1467 21       		.byte	0x21
 6409 1468 00       		.byte	0
 6410 1469 02       		.uleb128 0x2
 6411 146a 99100000 		.4byte	.LASF394
 6412 146e 14       		.byte	0x14
 6413 146f 2B       		.byte	0x2b
 6414 1470 CE000000 		.4byte	0xce
 6415 1474 02       		.uleb128 0x2
 6416 1475 641F0000 		.4byte	.LASF395
 6417 1479 11       		.byte	0x11
 6418 147a 42       		.byte	0x42
 6419 147b CE000000 		.4byte	0xce
 6420 147f 02       		.uleb128 0x2
 6421 1480 95020000 		.4byte	.LASF396
 6422 1484 11       		.byte	0x11
 6423 1485 4C       		.byte	0x4c
 6424 1486 CE000000 		.4byte	0xce
 6425 148a 02       		.uleb128 0x2
 6426 148b 832F0000 		.4byte	.LASF397
 6427 148f 11       		.byte	0x11
 6428 1490 52       		.byte	0x52
 6429 1491 95140000 		.4byte	0x1495
 6430 1495 07       		.uleb128 0x7
 6431 1496 04       		.byte	0x4
 6432 1497 9B140000 		.4byte	0x149b
 6433 149b 10       		.uleb128 0x10
 6434 149c 7F140000 		.4byte	0x147f
 6435 14a0 B4140000 		.4byte	0x14b4
ARM GAS  C:\Users\strap\AppData\Local\Temp\ccTzHSZB.s 			page 157


 6436 14a4 11       		.uleb128 0x11
 6437 14a5 DC0F0000 		.4byte	0xfdc
 6438 14a9 11       		.uleb128 0x11
 6439 14aa F10C0000 		.4byte	0xcf1
 6440 14ae 11       		.uleb128 0x11
 6441 14af 74140000 		.4byte	0x1474
 6442 14b3 00       		.byte	0
 6443 14b4 09       		.uleb128 0x9
 6444 14b5 01       		.byte	0x1
 6445 14b6 42000000 		.4byte	0x42
 6446 14ba 11       		.byte	0x11
 6447 14bb 54       		.byte	0x54
 6448 14bc 4B150000 		.4byte	0x154b
 6449 14c0 0A       		.uleb128 0xa
 6450 14c1 531B0000 		.4byte	.LASF398
 6451 14c5 00       		.byte	0
 6452 14c6 0A       		.uleb128 0xa
 6453 14c7 611D0000 		.4byte	.LASF399
 6454 14cb 01       		.byte	0x1
 6455 14cc 0A       		.uleb128 0xa
 6456 14cd 312D0000 		.4byte	.LASF400
 6457 14d1 02       		.byte	0x2
 6458 14d2 0A       		.uleb128 0xa
 6459 14d3 B71D0000 		.4byte	.LASF401
 6460 14d7 03       		.byte	0x3
 6461 14d8 0A       		.uleb128 0xa
 6462 14d9 66040000 		.4byte	.LASF402
 6463 14dd 04       		.byte	0x4
 6464 14de 0A       		.uleb128 0xa
 6465 14df DB1D0000 		.4byte	.LASF403
 6466 14e3 05       		.byte	0x5
 6467 14e4 0A       		.uleb128 0xa
 6468 14e5 6D110000 		.4byte	.LASF404
 6469 14e9 06       		.byte	0x6
 6470 14ea 0A       		.uleb128 0xa
 6471 14eb 5C2F0000 		.4byte	.LASF405
 6472 14ef 07       		.byte	0x7
 6473 14f0 0A       		.uleb128 0xa
 6474 14f1 E40F0000 		.4byte	.LASF406
 6475 14f5 08       		.byte	0x8
 6476 14f6 0A       		.uleb128 0xa
 6477 14f7 7B1F0000 		.4byte	.LASF407
 6478 14fb 09       		.byte	0x9
 6479 14fc 0A       		.uleb128 0xa
 6480 14fd 43120000 		.4byte	.LASF408
 6481 1501 0A       		.byte	0xa
 6482 1502 0A       		.uleb128 0xa
 6483 1503 55040000 		.4byte	.LASF409
 6484 1507 0B       		.byte	0xb
 6485 1508 0A       		.uleb128 0xa
 6486 1509 A72C0000 		.4byte	.LASF410
 6487 150d 0C       		.byte	0xc
 6488 150e 0A       		.uleb128 0xa
 6489 150f E72D0000 		.4byte	.LASF411
 6490 1513 0D       		.byte	0xd
 6491 1514 0A       		.uleb128 0xa
 6492 1515 96290000 		.4byte	.LASF412
ARM GAS  C:\Users\strap\AppData\Local\Temp\ccTzHSZB.s 			page 158


 6493 1519 0E       		.byte	0xe
 6494 151a 0A       		.uleb128 0xa
 6495 151b DD130000 		.4byte	.LASF413
 6496 151f 0F       		.byte	0xf
 6497 1520 0A       		.uleb128 0xa
 6498 1521 201C0000 		.4byte	.LASF414
 6499 1525 10       		.byte	0x10
 6500 1526 0A       		.uleb128 0xa
 6501 1527 81010000 		.4byte	.LASF415
 6502 152b 11       		.byte	0x11
 6503 152c 0A       		.uleb128 0xa
 6504 152d D9150000 		.4byte	.LASF416
 6505 1531 12       		.byte	0x12
 6506 1532 0A       		.uleb128 0xa
 6507 1533 FF110000 		.4byte	.LASF417
 6508 1537 13       		.byte	0x13
 6509 1538 0A       		.uleb128 0xa
 6510 1539 9B200000 		.4byte	.LASF418
 6511 153d 14       		.byte	0x14
 6512 153e 0A       		.uleb128 0xa
 6513 153f FA1A0000 		.4byte	.LASF419
 6514 1543 15       		.byte	0x15
 6515 1544 0A       		.uleb128 0xa
 6516 1545 12290000 		.4byte	.LASF420
 6517 1549 16       		.byte	0x16
 6518 154a 00       		.byte	0
 6519 154b 02       		.uleb128 0x2
 6520 154c CF020000 		.4byte	.LASF421
 6521 1550 11       		.byte	0x11
 6522 1551 6E       		.byte	0x6e
 6523 1552 CE000000 		.4byte	0xce
 6524 1556 02       		.uleb128 0x2
 6525 1557 1E2E0000 		.4byte	.LASF422
 6526 155b 11       		.byte	0x11
 6527 155c 75       		.byte	0x75
 6528 155d 61150000 		.4byte	0x1561
 6529 1561 07       		.uleb128 0x7
 6530 1562 04       		.byte	0x4
 6531 1563 67150000 		.4byte	0x1567
 6532 1567 16       		.uleb128 0x16
 6533 1568 77150000 		.4byte	0x1577
 6534 156c 11       		.uleb128 0x11
 6535 156d DC0F0000 		.4byte	0xfdc
 6536 1571 11       		.uleb128 0x11
 6537 1572 4B150000 		.4byte	0x154b
 6538 1576 00       		.byte	0
 6539 1577 09       		.uleb128 0x9
 6540 1578 01       		.byte	0x1
 6541 1579 42000000 		.4byte	0x42
 6542 157d 11       		.byte	0x11
 6543 157e 7A       		.byte	0x7a
 6544 157f 20160000 		.4byte	0x1620
 6545 1583 0A       		.uleb128 0xa
 6546 1584 B0190000 		.4byte	.LASF423
 6547 1588 00       		.byte	0
 6548 1589 0A       		.uleb128 0xa
 6549 158a 2A1B0000 		.4byte	.LASF424
ARM GAS  C:\Users\strap\AppData\Local\Temp\ccTzHSZB.s 			page 159


 6550 158e 01       		.byte	0x1
 6551 158f 0A       		.uleb128 0xa
 6552 1590 062F0000 		.4byte	.LASF425
 6553 1594 02       		.byte	0x2
 6554 1595 0A       		.uleb128 0xa
 6555 1596 81200000 		.4byte	.LASF426
 6556 159a 03       		.byte	0x3
 6557 159b 0A       		.uleb128 0xa
 6558 159c 20010000 		.4byte	.LASF427
 6559 15a0 04       		.byte	0x4
 6560 15a1 0A       		.uleb128 0xa
 6561 15a2 562A0000 		.4byte	.LASF428
 6562 15a6 05       		.byte	0x5
 6563 15a7 0A       		.uleb128 0xa
 6564 15a8 360B0000 		.4byte	.LASF429
 6565 15ac 06       		.byte	0x6
 6566 15ad 0A       		.uleb128 0xa
 6567 15ae 150A0000 		.4byte	.LASF430
 6568 15b2 07       		.byte	0x7
 6569 15b3 0A       		.uleb128 0xa
 6570 15b4 B1130000 		.4byte	.LASF431
 6571 15b8 08       		.byte	0x8
 6572 15b9 0A       		.uleb128 0xa
 6573 15ba 16060000 		.4byte	.LASF432
 6574 15be 09       		.byte	0x9
 6575 15bf 0A       		.uleb128 0xa
 6576 15c0 200E0000 		.4byte	.LASF433
 6577 15c4 0A       		.byte	0xa
 6578 15c5 0A       		.uleb128 0xa
 6579 15c6 19040000 		.4byte	.LASF434
 6580 15ca 0B       		.byte	0xb
 6581 15cb 0A       		.uleb128 0xa
 6582 15cc A41D0000 		.4byte	.LASF435
 6583 15d0 0C       		.byte	0xc
 6584 15d1 0A       		.uleb128 0xa
 6585 15d2 E81F0000 		.4byte	.LASF436
 6586 15d6 0D       		.byte	0xd
 6587 15d7 0A       		.uleb128 0xa
 6588 15d8 CD200000 		.4byte	.LASF437
 6589 15dc 0E       		.byte	0xe
 6590 15dd 0A       		.uleb128 0xa
 6591 15de D7010000 		.4byte	.LASF438
 6592 15e2 0F       		.byte	0xf
 6593 15e3 0A       		.uleb128 0xa
 6594 15e4 960A0000 		.4byte	.LASF439
 6595 15e8 10       		.byte	0x10
 6596 15e9 0A       		.uleb128 0xa
 6597 15ea 65020000 		.4byte	.LASF440
 6598 15ee 11       		.byte	0x11
 6599 15ef 0A       		.uleb128 0xa
 6600 15f0 7A020000 		.4byte	.LASF441
 6601 15f4 12       		.byte	0x12
 6602 15f5 0A       		.uleb128 0xa
 6603 15f6 39200000 		.4byte	.LASF442
 6604 15fa 13       		.byte	0x13
 6605 15fb 0A       		.uleb128 0xa
 6606 15fc 75180000 		.4byte	.LASF443
ARM GAS  C:\Users\strap\AppData\Local\Temp\ccTzHSZB.s 			page 160


 6607 1600 14       		.byte	0x14
 6608 1601 0A       		.uleb128 0xa
 6609 1602 F9030000 		.4byte	.LASF444
 6610 1606 15       		.byte	0x15
 6611 1607 0A       		.uleb128 0xa
 6612 1608 7B150000 		.4byte	.LASF445
 6613 160c 16       		.byte	0x16
 6614 160d 0A       		.uleb128 0xa
 6615 160e 200F0000 		.4byte	.LASF446
 6616 1612 17       		.byte	0x17
 6617 1613 0A       		.uleb128 0xa
 6618 1614 EA180000 		.4byte	.LASF447
 6619 1618 18       		.byte	0x18
 6620 1619 0A       		.uleb128 0xa
 6621 161a 1D170000 		.4byte	.LASF448
 6622 161e 19       		.byte	0x19
 6623 161f 00       		.byte	0
 6624 1620 02       		.uleb128 0x2
 6625 1621 AB1C0000 		.4byte	.LASF449
 6626 1625 11       		.byte	0x11
 6627 1626 9B       		.byte	0x9b
 6628 1627 CE000000 		.4byte	0xce
 6629 162b 02       		.uleb128 0x2
 6630 162c 350C0000 		.4byte	.LASF450
 6631 1630 11       		.byte	0x11
 6632 1631 9D       		.byte	0x9d
 6633 1632 36160000 		.4byte	0x1636
 6634 1636 07       		.uleb128 0x7
 6635 1637 04       		.byte	0x4
 6636 1638 3C160000 		.4byte	0x163c
 6637 163c 10       		.uleb128 0x10
 6638 163d AD010000 		.4byte	0x1ad
 6639 1641 55160000 		.4byte	0x1655
 6640 1645 11       		.uleb128 0x11
 6641 1646 DC0F0000 		.4byte	0xfdc
 6642 164a 11       		.uleb128 0x11
 6643 164b 20160000 		.4byte	0x1620
 6644 164f 11       		.uleb128 0x11
 6645 1650 31010000 		.4byte	0x131
 6646 1654 00       		.byte	0
 6647 1655 0B       		.uleb128 0xb
 6648 1656 0C       		.byte	0xc
 6649 1657 11       		.byte	0x11
 6650 1658 A0       		.byte	0xa0
 6651 1659 AC160000 		.4byte	0x16ac
 6652 165d 0D       		.uleb128 0xd
 6653 165e 5E270000 		.4byte	.LASF451
 6654 1662 11       		.byte	0x11
 6655 1663 A1       		.byte	0xa1
 6656 1664 AC160000 		.4byte	0x16ac
 6657 1668 00       		.byte	0
 6658 1669 0D       		.uleb128 0xd
 6659 166a F51A0000 		.4byte	.LASF452
 6660 166e 11       		.byte	0x11
 6661 166f A2       		.byte	0xa2
 6662 1670 1B010000 		.4byte	0x11b
 6663 1674 04       		.byte	0x4
ARM GAS  C:\Users\strap\AppData\Local\Temp\ccTzHSZB.s 			page 161


 6664 1675 0D       		.uleb128 0xd
 6665 1676 B8220000 		.4byte	.LASF453
 6666 167a 11       		.byte	0x11
 6667 167b A3       		.byte	0xa3
 6668 167c 1B010000 		.4byte	0x11b
 6669 1680 06       		.byte	0x6
 6670 1681 0D       		.uleb128 0xd
 6671 1682 3C1A0000 		.4byte	.LASF454
 6672 1686 11       		.byte	0x11
 6673 1687 A4       		.byte	0xa4
 6674 1688 AB020000 		.4byte	0x2ab
 6675 168c 08       		.byte	0x8
 6676 168d 0F       		.uleb128 0xf
 6677 168e CE1C0000 		.4byte	.LASF455
 6678 1692 11       		.byte	0x11
 6679 1693 A5       		.byte	0xa5
 6680 1694 CE000000 		.4byte	0xce
 6681 1698 01       		.byte	0x1
 6682 1699 01       		.byte	0x1
 6683 169a 07       		.byte	0x7
 6684 169b 09       		.byte	0x9
 6685 169c 0F       		.uleb128 0xf
 6686 169d DB220000 		.4byte	.LASF456
 6687 16a1 11       		.byte	0x11
 6688 16a2 A6       		.byte	0xa6
 6689 16a3 CE000000 		.4byte	0xce
 6690 16a7 01       		.byte	0x1
 6691 16a8 01       		.byte	0x1
 6692 16a9 06       		.byte	0x6
 6693 16aa 09       		.byte	0x9
 6694 16ab 00       		.byte	0
 6695 16ac 07       		.uleb128 0x7
 6696 16ad 04       		.byte	0x4
 6697 16ae B2160000 		.4byte	0x16b2
 6698 16b2 08       		.uleb128 0x8
 6699 16b3 5B0E0000 		.4byte	0xe5b
 6700 16b7 02       		.uleb128 0x2
 6701 16b8 38210000 		.4byte	.LASF457
 6702 16bc 11       		.byte	0x11
 6703 16bd A8       		.byte	0xa8
 6704 16be 55160000 		.4byte	0x1655
 6705 16c2 09       		.uleb128 0x9
 6706 16c3 01       		.byte	0x1
 6707 16c4 42000000 		.4byte	0x42
 6708 16c8 11       		.byte	0x11
 6709 16c9 B9       		.byte	0xb9
 6710 16ca F9160000 		.4byte	0x16f9
 6711 16ce 0A       		.uleb128 0xa
 6712 16cf F9260000 		.4byte	.LASF458
 6713 16d3 00       		.byte	0
 6714 16d4 0A       		.uleb128 0xa
 6715 16d5 A8280000 		.4byte	.LASF459
 6716 16d9 01       		.byte	0x1
 6717 16da 0A       		.uleb128 0xa
 6718 16db 2C2E0000 		.4byte	.LASF460
 6719 16df 02       		.byte	0x2
 6720 16e0 0A       		.uleb128 0xa
ARM GAS  C:\Users\strap\AppData\Local\Temp\ccTzHSZB.s 			page 162


 6721 16e1 F00E0000 		.4byte	.LASF461
 6722 16e5 04       		.byte	0x4
 6723 16e6 0A       		.uleb128 0xa
 6724 16e7 E8060000 		.4byte	.LASF462
 6725 16eb 08       		.byte	0x8
 6726 16ec 0A       		.uleb128 0xa
 6727 16ed 4E1E0000 		.4byte	.LASF463
 6728 16f1 10       		.byte	0x10
 6729 16f2 0A       		.uleb128 0xa
 6730 16f3 C7150000 		.4byte	.LASF464
 6731 16f7 20       		.byte	0x20
 6732 16f8 00       		.byte	0
 6733 16f9 02       		.uleb128 0x2
 6734 16fa 2F070000 		.4byte	.LASF465
 6735 16fe 11       		.byte	0x11
 6736 16ff C3       		.byte	0xc3
 6737 1700 CE000000 		.4byte	0xce
 6738 1704 02       		.uleb128 0x2
 6739 1705 C1250000 		.4byte	.LASF466
 6740 1709 11       		.byte	0x11
 6741 170a FA       		.byte	0xfa
 6742 170b 5B0E0000 		.4byte	0xe5b
 6743 170f 09       		.uleb128 0x9
 6744 1710 01       		.byte	0x1
 6745 1711 42000000 		.4byte	0x42
 6746 1715 11       		.byte	0x11
 6747 1716 FC       		.byte	0xfc
 6748 1717 34170000 		.4byte	0x1734
 6749 171b 0A       		.uleb128 0xa
 6750 171c C6160000 		.4byte	.LASF467
 6751 1720 00       		.byte	0
 6752 1721 0A       		.uleb128 0xa
 6753 1722 91070000 		.4byte	.LASF468
 6754 1726 01       		.byte	0x1
 6755 1727 0A       		.uleb128 0xa
 6756 1728 AD1B0000 		.4byte	.LASF469
 6757 172c 40       		.byte	0x40
 6758 172d 0A       		.uleb128 0xa
 6759 172e 5F260000 		.4byte	.LASF470
 6760 1732 FF       		.byte	0xff
 6761 1733 00       		.byte	0
 6762 1734 1F       		.uleb128 0x1f
 6763 1735 08       		.byte	0x8
 6764 1736 11       		.byte	0x11
 6765 1737 1001     		.2byte	0x110
 6766 1739 58170000 		.4byte	0x1758
 6767 173d 20       		.uleb128 0x20
 6768 173e A22C0000 		.4byte	.LASF471
 6769 1742 11       		.byte	0x11
 6770 1743 1101     		.2byte	0x111
 6771 1745 CE000000 		.4byte	0xce
 6772 1749 00       		.byte	0
 6773 174a 20       		.uleb128 0x20
 6774 174b C1050000 		.4byte	.LASF472
 6775 174f 11       		.byte	0x11
 6776 1750 1201     		.2byte	0x112
 6777 1752 58170000 		.4byte	0x1758
ARM GAS  C:\Users\strap\AppData\Local\Temp\ccTzHSZB.s 			page 163


 6778 1756 04       		.byte	0x4
 6779 1757 00       		.byte	0
 6780 1758 07       		.uleb128 0x7
 6781 1759 04       		.byte	0x4
 6782 175a 9C0A0000 		.4byte	0xa9c
 6783 175e 06       		.uleb128 0x6
 6784 175f C30C0000 		.4byte	.LASF473
 6785 1763 11       		.byte	0x11
 6786 1764 1301     		.2byte	0x113
 6787 1766 34170000 		.4byte	0x1734
 6788 176a 1F       		.uleb128 0x1f
 6789 176b 02       		.byte	0x2
 6790 176c 11       		.byte	0x11
 6791 176d 1501     		.2byte	0x115
 6792 176f 8E170000 		.4byte	0x178e
 6793 1773 20       		.uleb128 0x20
 6794 1774 A22C0000 		.4byte	.LASF471
 6795 1778 11       		.byte	0x11
 6796 1779 1601     		.2byte	0x116
 6797 177b CE000000 		.4byte	0xce
 6798 177f 00       		.byte	0
 6799 1780 20       		.uleb128 0x20
 6800 1781 C1050000 		.4byte	.LASF472
 6801 1785 11       		.byte	0x11
 6802 1786 1701     		.2byte	0x117
 6803 1788 F9160000 		.4byte	0x16f9
 6804 178c 01       		.byte	0x1
 6805 178d 00       		.byte	0
 6806 178e 06       		.uleb128 0x6
 6807 178f 88000000 		.4byte	.LASF474
 6808 1793 11       		.byte	0x11
 6809 1794 1801     		.2byte	0x118
 6810 1796 6A170000 		.4byte	0x176a
 6811 179a 09       		.uleb128 0x9
 6812 179b 01       		.byte	0x1
 6813 179c 42000000 		.4byte	0x42
 6814 17a0 07       		.byte	0x7
 6815 17a1 1F       		.byte	0x1f
 6816 17a2 F5170000 		.4byte	0x17f5
 6817 17a6 0A       		.uleb128 0xa
 6818 17a7 BE140000 		.4byte	.LASF475
 6819 17ab 00       		.byte	0
 6820 17ac 0A       		.uleb128 0xa
 6821 17ad 7C140000 		.4byte	.LASF476
 6822 17b1 01       		.byte	0x1
 6823 17b2 0A       		.uleb128 0xa
 6824 17b3 ED170000 		.4byte	.LASF477
 6825 17b7 02       		.byte	0x2
 6826 17b8 0A       		.uleb128 0xa
 6827 17b9 362B0000 		.4byte	.LASF478
 6828 17bd 03       		.byte	0x3
 6829 17be 0A       		.uleb128 0xa
 6830 17bf 9B0F0000 		.4byte	.LASF479
 6831 17c3 04       		.byte	0x4
 6832 17c4 0A       		.uleb128 0xa
 6833 17c5 2D020000 		.4byte	.LASF480
 6834 17c9 05       		.byte	0x5
ARM GAS  C:\Users\strap\AppData\Local\Temp\ccTzHSZB.s 			page 164


 6835 17ca 0A       		.uleb128 0xa
 6836 17cb 4B150000 		.4byte	.LASF481
 6837 17cf 06       		.byte	0x6
 6838 17d0 0A       		.uleb128 0xa
 6839 17d1 3A070000 		.4byte	.LASF482
 6840 17d5 07       		.byte	0x7
 6841 17d6 0A       		.uleb128 0xa
 6842 17d7 E80B0000 		.4byte	.LASF483
 6843 17db 08       		.byte	0x8
 6844 17dc 0A       		.uleb128 0xa
 6845 17dd 391E0000 		.4byte	.LASF484
 6846 17e1 09       		.byte	0x9
 6847 17e2 0A       		.uleb128 0xa
 6848 17e3 E92B0000 		.4byte	.LASF485
 6849 17e7 0A       		.byte	0xa
 6850 17e8 0A       		.uleb128 0xa
 6851 17e9 EA250000 		.4byte	.LASF486
 6852 17ed 0B       		.byte	0xb
 6853 17ee 0A       		.uleb128 0xa
 6854 17ef 860A0000 		.4byte	.LASF487
 6855 17f3 0C       		.byte	0xc
 6856 17f4 00       		.byte	0
 6857 17f5 02       		.uleb128 0x2
 6858 17f6 C9290000 		.4byte	.LASF488
 6859 17fa 07       		.byte	0x7
 6860 17fb 55       		.byte	0x55
 6861 17fc CE000000 		.4byte	0xce
 6862 1800 09       		.uleb128 0x9
 6863 1801 01       		.byte	0x1
 6864 1802 42000000 		.4byte	0x42
 6865 1806 07       		.byte	0x7
 6866 1807 5A       		.byte	0x5a
 6867 1808 2B180000 		.4byte	0x182b
 6868 180c 0A       		.uleb128 0xa
 6869 180d D5290000 		.4byte	.LASF489
 6870 1811 00       		.byte	0
 6871 1812 0A       		.uleb128 0xa
 6872 1813 612B0000 		.4byte	.LASF490
 6873 1817 01       		.byte	0x1
 6874 1818 0A       		.uleb128 0xa
 6875 1819 21130000 		.4byte	.LASF491
 6876 181d 02       		.byte	0x2
 6877 181e 0A       		.uleb128 0xa
 6878 181f AB070000 		.4byte	.LASF492
 6879 1823 03       		.byte	0x3
 6880 1824 0A       		.uleb128 0xa
 6881 1825 2F1A0000 		.4byte	.LASF493
 6882 1829 04       		.byte	0x4
 6883 182a 00       		.byte	0
 6884 182b 02       		.uleb128 0x2
 6885 182c 26230000 		.4byte	.LASF494
 6886 1830 07       		.byte	0x7
 6887 1831 62       		.byte	0x62
 6888 1832 CE000000 		.4byte	0xce
 6889 1836 09       		.uleb128 0x9
 6890 1837 01       		.byte	0x1
 6891 1838 42000000 		.4byte	0x42
ARM GAS  C:\Users\strap\AppData\Local\Temp\ccTzHSZB.s 			page 165


 6892 183c 07       		.byte	0x7
 6893 183d 6F       		.byte	0x6f
 6894 183e 55180000 		.4byte	0x1855
 6895 1842 0A       		.uleb128 0xa
 6896 1843 FD0B0000 		.4byte	.LASF495
 6897 1847 00       		.byte	0
 6898 1848 0A       		.uleb128 0xa
 6899 1849 062A0000 		.4byte	.LASF496
 6900 184d 01       		.byte	0x1
 6901 184e 0A       		.uleb128 0xa
 6902 184f 3A280000 		.4byte	.LASF497
 6903 1853 40       		.byte	0x40
 6904 1854 00       		.byte	0
 6905 1855 02       		.uleb128 0x2
 6906 1856 18220000 		.4byte	.LASF498
 6907 185a 13       		.byte	0x13
 6908 185b 30       		.byte	0x30
 6909 185c 60180000 		.4byte	0x1860
 6910 1860 07       		.uleb128 0x7
 6911 1861 04       		.byte	0x4
 6912 1862 66180000 		.4byte	0x1866
 6913 1866 16       		.uleb128 0x16
 6914 1867 71180000 		.4byte	0x1871
 6915 186b 11       		.uleb128 0x11
 6916 186c 11140000 		.4byte	0x1411
 6917 1870 00       		.byte	0
 6918 1871 07       		.uleb128 0x7
 6919 1872 04       		.byte	0x4
 6920 1873 77180000 		.4byte	0x1877
 6921 1877 07       		.uleb128 0x7
 6922 1878 04       		.byte	0x4
 6923 1879 04170000 		.4byte	0x1704
 6924 187d 09       		.uleb128 0x9
 6925 187e 01       		.byte	0x1
 6926 187f 42000000 		.4byte	0x42
 6927 1883 06       		.byte	0x6
 6928 1884 26       		.byte	0x26
 6929 1885 AE180000 		.4byte	0x18ae
 6930 1889 0A       		.uleb128 0xa
 6931 188a 421A0000 		.4byte	.LASF499
 6932 188e 00       		.byte	0
 6933 188f 0A       		.uleb128 0xa
 6934 1890 6C030000 		.4byte	.LASF500
 6935 1894 01       		.byte	0x1
 6936 1895 0A       		.uleb128 0xa
 6937 1896 87180000 		.4byte	.LASF501
 6938 189a 02       		.byte	0x2
 6939 189b 0A       		.uleb128 0xa
 6940 189c BF0A0000 		.4byte	.LASF502
 6941 18a0 03       		.byte	0x3
 6942 18a1 0A       		.uleb128 0xa
 6943 18a2 0A270000 		.4byte	.LASF503
 6944 18a6 04       		.byte	0x4
 6945 18a7 0A       		.uleb128 0xa
 6946 18a8 492C0000 		.4byte	.LASF504
 6947 18ac 08       		.byte	0x8
 6948 18ad 00       		.byte	0
ARM GAS  C:\Users\strap\AppData\Local\Temp\ccTzHSZB.s 			page 166


 6949 18ae 09       		.uleb128 0x9
 6950 18af 01       		.byte	0x1
 6951 18b0 42000000 		.4byte	0x42
 6952 18b4 06       		.byte	0x6
 6953 18b5 56       		.byte	0x56
 6954 18b6 DF180000 		.4byte	0x18df
 6955 18ba 0A       		.uleb128 0xa
 6956 18bb 140B0000 		.4byte	.LASF505
 6957 18bf 00       		.byte	0
 6958 18c0 0A       		.uleb128 0xa
 6959 18c1 B71C0000 		.4byte	.LASF506
 6960 18c5 01       		.byte	0x1
 6961 18c6 0A       		.uleb128 0xa
 6962 18c7 8B150000 		.4byte	.LASF507
 6963 18cb 02       		.byte	0x2
 6964 18cc 0A       		.uleb128 0xa
 6965 18cd 74220000 		.4byte	.LASF508
 6966 18d1 03       		.byte	0x3
 6967 18d2 0A       		.uleb128 0xa
 6968 18d3 BF010000 		.4byte	.LASF509
 6969 18d7 40       		.byte	0x40
 6970 18d8 0A       		.uleb128 0xa
 6971 18d9 F81B0000 		.4byte	.LASF510
 6972 18dd 41       		.byte	0x41
 6973 18de 00       		.byte	0
 6974 18df 09       		.uleb128 0x9
 6975 18e0 01       		.byte	0x1
 6976 18e1 42000000 		.4byte	0x42
 6977 18e5 15       		.byte	0x15
 6978 18e6 2A       		.byte	0x2a
 6979 18e7 0A190000 		.4byte	0x190a
 6980 18eb 0A       		.uleb128 0xa
 6981 18ec F5160000 		.4byte	.LASF511
 6982 18f0 00       		.byte	0
 6983 18f1 0A       		.uleb128 0xa
 6984 18f2 34270000 		.4byte	.LASF512
 6985 18f6 01       		.byte	0x1
 6986 18f7 0A       		.uleb128 0xa
 6987 18f8 EF280000 		.4byte	.LASF513
 6988 18fc 02       		.byte	0x2
 6989 18fd 0A       		.uleb128 0xa
 6990 18fe 9A090000 		.4byte	.LASF514
 6991 1902 03       		.byte	0x3
 6992 1903 0A       		.uleb128 0xa
 6993 1904 2E190000 		.4byte	.LASF515
 6994 1908 04       		.byte	0x4
 6995 1909 00       		.byte	0
 6996 190a 02       		.uleb128 0x2
 6997 190b 49260000 		.4byte	.LASF516
 6998 190f 15       		.byte	0x15
 6999 1910 31       		.byte	0x31
 7000 1911 CE000000 		.4byte	0xce
 7001 1915 0B       		.uleb128 0xb
 7002 1916 1C       		.byte	0x1c
 7003 1917 15       		.byte	0x15
 7004 1918 34       		.byte	0x34
 7005 1919 8D190000 		.4byte	0x198d
ARM GAS  C:\Users\strap\AppData\Local\Temp\ccTzHSZB.s 			page 167


 7006 191d 0D       		.uleb128 0xd
 7007 191e 461D0000 		.4byte	.LASF517
 7008 1922 15       		.byte	0x15
 7009 1923 37       		.byte	0x37
 7010 1924 77180000 		.4byte	0x1877
 7011 1928 00       		.byte	0
 7012 1929 0D       		.uleb128 0xd
 7013 192a 50190000 		.4byte	.LASF518
 7014 192e 15       		.byte	0x15
 7015 192f 38       		.byte	0x38
 7016 1930 77180000 		.4byte	0x1877
 7017 1934 04       		.byte	0x4
 7018 1935 0D       		.uleb128 0xd
 7019 1936 262B0000 		.4byte	.LASF519
 7020 193a 15       		.byte	0x15
 7021 193b 39       		.byte	0x39
 7022 193c 77180000 		.4byte	0x1877
 7023 1940 08       		.byte	0x8
 7024 1941 0D       		.uleb128 0xd
 7025 1942 CB1B0000 		.4byte	.LASF520
 7026 1946 15       		.byte	0x15
 7027 1947 3A       		.byte	0x3a
 7028 1948 8D190000 		.4byte	0x198d
 7029 194c 0C       		.byte	0xc
 7030 194d 0D       		.uleb128 0xd
 7031 194e B6050000 		.4byte	.LASF521
 7032 1952 15       		.byte	0x15
 7033 1953 3B       		.byte	0x3b
 7034 1954 D5010000 		.4byte	0x1d5
 7035 1958 10       		.byte	0x10
 7036 1959 0D       		.uleb128 0xd
 7037 195a B70A0000 		.4byte	.LASF522
 7038 195e 15       		.byte	0x15
 7039 195f 3C       		.byte	0x3c
 7040 1960 E4000000 		.4byte	0xe4
 7041 1964 14       		.byte	0x14
 7042 1965 0D       		.uleb128 0xd
 7043 1966 79010000 		.4byte	.LASF523
 7044 196a 15       		.byte	0x15
 7045 196b 3D       		.byte	0x3d
 7046 196c E4000000 		.4byte	0xe4
 7047 1970 16       		.byte	0x16
 7048 1971 0D       		.uleb128 0xd
 7049 1972 190D0000 		.4byte	.LASF524
 7050 1976 15       		.byte	0x15
 7051 1977 3F       		.byte	0x3f
 7052 1978 E4000000 		.4byte	0xe4
 7053 197c 18       		.byte	0x18
 7054 197d 0F       		.uleb128 0xf
 7055 197e 2F050000 		.4byte	.LASF525
 7056 1982 15       		.byte	0x15
 7057 1983 41       		.byte	0x41
 7058 1984 0A190000 		.4byte	0x190a
 7059 1988 01       		.byte	0x1
 7060 1989 03       		.byte	0x3
 7061 198a 05       		.byte	0x5
 7062 198b 1A       		.byte	0x1a
ARM GAS  C:\Users\strap\AppData\Local\Temp\ccTzHSZB.s 			page 168


 7063 198c 00       		.byte	0
 7064 198d 07       		.uleb128 0x7
 7065 198e 04       		.byte	0x4
 7066 198f 89010000 		.4byte	0x189
 7067 1993 02       		.uleb128 0x2
 7068 1994 C50D0000 		.4byte	.LASF526
 7069 1998 15       		.byte	0x15
 7070 1999 42       		.byte	0x42
 7071 199a 15190000 		.4byte	0x1915
 7072 199e 09       		.uleb128 0x9
 7073 199f 01       		.byte	0x1
 7074 19a0 42000000 		.4byte	0x42
 7075 19a4 15       		.byte	0x15
 7076 19a5 44       		.byte	0x44
 7077 19a6 D5190000 		.4byte	0x19d5
 7078 19aa 0A       		.uleb128 0xa
 7079 19ab FD1F0000 		.4byte	.LASF527
 7080 19af 00       		.byte	0
 7081 19b0 0A       		.uleb128 0xa
 7082 19b1 A1010000 		.4byte	.LASF528
 7083 19b5 01       		.byte	0x1
 7084 19b6 0A       		.uleb128 0xa
 7085 19b7 87260000 		.4byte	.LASF529
 7086 19bb 40       		.byte	0x40
 7087 19bc 0A       		.uleb128 0xa
 7088 19bd EA020000 		.4byte	.LASF530
 7089 19c1 41       		.byte	0x41
 7090 19c2 0A       		.uleb128 0xa
 7091 19c3 9E180000 		.4byte	.LASF531
 7092 19c7 42       		.byte	0x42
 7093 19c8 0A       		.uleb128 0xa
 7094 19c9 52280000 		.4byte	.LASF532
 7095 19cd 43       		.byte	0x43
 7096 19ce 0A       		.uleb128 0xa
 7097 19cf 6C2E0000 		.4byte	.LASF533
 7098 19d3 44       		.byte	0x44
 7099 19d4 00       		.byte	0
 7100 19d5 09       		.uleb128 0x9
 7101 19d6 02       		.byte	0x2
 7102 19d7 66000000 		.4byte	0x66
 7103 19db 16       		.byte	0x16
 7104 19dc 26       		.byte	0x26
 7105 19dd 071A0000 		.4byte	0x1a07
 7106 19e1 0A       		.uleb128 0xa
 7107 19e2 921C0000 		.4byte	.LASF534
 7108 19e6 08       		.byte	0x8
 7109 19e7 0A       		.uleb128 0xa
 7110 19e8 14140000 		.4byte	.LASF535
 7111 19ec 10       		.byte	0x10
 7112 19ed 0A       		.uleb128 0xa
 7113 19ee C61A0000 		.4byte	.LASF536
 7114 19f2 20       		.byte	0x20
 7115 19f3 0A       		.uleb128 0xa
 7116 19f4 BB2E0000 		.4byte	.LASF537
 7117 19f8 40       		.byte	0x40
 7118 19f9 0A       		.uleb128 0xa
 7119 19fa 4F070000 		.4byte	.LASF538
ARM GAS  C:\Users\strap\AppData\Local\Temp\ccTzHSZB.s 			page 169


 7120 19fe 80       		.byte	0x80
 7121 19ff 17       		.uleb128 0x17
 7122 1a00 45210000 		.4byte	.LASF539
 7123 1a04 0001     		.2byte	0x100
 7124 1a06 00       		.byte	0
 7125 1a07 02       		.uleb128 0x2
 7126 1a08 4F180000 		.4byte	.LASF540
 7127 1a0c 16       		.byte	0x16
 7128 1a0d 2E       		.byte	0x2e
 7129 1a0e E4000000 		.4byte	0xe4
 7130 1a12 0B       		.uleb128 0xb
 7131 1a13 20       		.byte	0x20
 7132 1a14 16       		.byte	0x16
 7133 1a15 31       		.byte	0x31
 7134 1a16 A81A0000 		.4byte	0x1aa8
 7135 1a1a 0D       		.uleb128 0xd
 7136 1a1b 76140000 		.4byte	.LASF541
 7137 1a1f 16       		.byte	0x16
 7138 1a20 34       		.byte	0x34
 7139 1a21 8D190000 		.4byte	0x198d
 7140 1a25 00       		.byte	0
 7141 1a26 0D       		.uleb128 0xd
 7142 1a27 98050000 		.4byte	.LASF542
 7143 1a2b 16       		.byte	0x16
 7144 1a2c 35       		.byte	0x35
 7145 1a2d 180D0000 		.4byte	0xd18
 7146 1a31 04       		.byte	0x4
 7147 1a32 0D       		.uleb128 0xd
 7148 1a33 68280000 		.4byte	.LASF543
 7149 1a37 16       		.byte	0x16
 7150 1a38 36       		.byte	0x36
 7151 1a39 A81A0000 		.4byte	0x1aa8
 7152 1a3d 08       		.byte	0x8
 7153 1a3e 0D       		.uleb128 0xd
 7154 1a3f 7A090000 		.4byte	.LASF544
 7155 1a43 16       		.byte	0x16
 7156 1a44 37       		.byte	0x37
 7157 1a45 9C0A0000 		.4byte	0xa9c
 7158 1a49 0C       		.byte	0xc
 7159 1a4a 0D       		.uleb128 0xd
 7160 1a4b F7110000 		.4byte	.LASF545
 7161 1a4f 16       		.byte	0x16
 7162 1a50 38       		.byte	0x38
 7163 1a51 E4000000 		.4byte	0xe4
 7164 1a55 14       		.byte	0x14
 7165 1a56 0D       		.uleb128 0xd
 7166 1a57 DB140000 		.4byte	.LASF546
 7167 1a5b 16       		.byte	0x16
 7168 1a5c 39       		.byte	0x39
 7169 1a5d E4000000 		.4byte	0xe4
 7170 1a61 16       		.byte	0x16
 7171 1a62 0D       		.uleb128 0xd
 7172 1a63 E42E0000 		.4byte	.LASF547
 7173 1a67 16       		.byte	0x16
 7174 1a68 3A       		.byte	0x3a
 7175 1a69 E4000000 		.4byte	0xe4
 7176 1a6d 18       		.byte	0x18
ARM GAS  C:\Users\strap\AppData\Local\Temp\ccTzHSZB.s 			page 170


 7177 1a6e 0D       		.uleb128 0xd
 7178 1a6f B62B0000 		.4byte	.LASF548
 7179 1a73 16       		.byte	0x16
 7180 1a74 3B       		.byte	0x3b
 7181 1a75 E4000000 		.4byte	0xe4
 7182 1a79 1A       		.byte	0x1a
 7183 1a7a 0F       		.uleb128 0xf
 7184 1a7b 3C010000 		.4byte	.LASF549
 7185 1a7f 16       		.byte	0x16
 7186 1a80 3C       		.byte	0x3c
 7187 1a81 CE000000 		.4byte	0xce
 7188 1a85 01       		.byte	0x1
 7189 1a86 01       		.byte	0x1
 7190 1a87 07       		.byte	0x7
 7191 1a88 1C       		.byte	0x1c
 7192 1a89 0F       		.uleb128 0xf
 7193 1a8a 71150000 		.4byte	.LASF550
 7194 1a8e 16       		.byte	0x16
 7195 1a8f 3D       		.byte	0x3d
 7196 1a90 CE000000 		.4byte	0xce
 7197 1a94 01       		.byte	0x1
 7198 1a95 01       		.byte	0x1
 7199 1a96 06       		.byte	0x6
 7200 1a97 1C       		.byte	0x1c
 7201 1a98 0F       		.uleb128 0xf
 7202 1a99 3C1A0000 		.4byte	.LASF454
 7203 1a9d 16       		.byte	0x16
 7204 1a9e 3E       		.byte	0x3e
 7205 1a9f CE000000 		.4byte	0xce
 7206 1aa3 01       		.byte	0x1
 7207 1aa4 02       		.byte	0x2
 7208 1aa5 04       		.byte	0x4
 7209 1aa6 1C       		.byte	0x1c
 7210 1aa7 00       		.byte	0
 7211 1aa8 07       		.uleb128 0x7
 7212 1aa9 04       		.byte	0x4
 7213 1aaa 071A0000 		.4byte	0x1a07
 7214 1aae 02       		.uleb128 0x2
 7215 1aaf E1190000 		.4byte	.LASF551
 7216 1ab3 16       		.byte	0x16
 7217 1ab4 3F       		.byte	0x3f
 7218 1ab5 121A0000 		.4byte	0x1a12
 7219 1ab9 09       		.uleb128 0x9
 7220 1aba 01       		.byte	0x1
 7221 1abb 42000000 		.4byte	0x42
 7222 1abf 16       		.byte	0x16
 7223 1ac0 41       		.byte	0x41
 7224 1ac1 D21A0000 		.4byte	0x1ad2
 7225 1ac5 0A       		.uleb128 0xa
 7226 1ac6 780E0000 		.4byte	.LASF552
 7227 1aca 00       		.byte	0
 7228 1acb 0A       		.uleb128 0xa
 7229 1acc 7B170000 		.4byte	.LASF553
 7230 1ad0 01       		.byte	0x1
 7231 1ad1 00       		.byte	0
 7232 1ad2 09       		.uleb128 0x9
 7233 1ad3 02       		.byte	0x2
ARM GAS  C:\Users\strap\AppData\Local\Temp\ccTzHSZB.s 			page 171


 7234 1ad4 66000000 		.4byte	0x66
 7235 1ad8 17       		.byte	0x17
 7236 1ad9 22       		.byte	0x22
 7237 1ada 5E1B0000 		.4byte	0x1b5e
 7238 1ade 0A       		.uleb128 0xa
 7239 1adf 152C0000 		.4byte	.LASF554
 7240 1ae3 00       		.byte	0
 7241 1ae4 0A       		.uleb128 0xa
 7242 1ae5 B42D0000 		.4byte	.LASF555
 7243 1ae9 01       		.byte	0x1
 7244 1aea 0A       		.uleb128 0xa
 7245 1aeb E0040000 		.4byte	.LASF556
 7246 1aef 02       		.byte	0x2
 7247 1af0 0A       		.uleb128 0xa
 7248 1af1 9A030000 		.4byte	.LASF557
 7249 1af5 03       		.byte	0x3
 7250 1af6 0A       		.uleb128 0xa
 7251 1af7 64230000 		.4byte	.LASF558
 7252 1afb 04       		.byte	0x4
 7253 1afc 0A       		.uleb128 0xa
 7254 1afd A3150000 		.4byte	.LASF559
 7255 1b01 05       		.byte	0x5
 7256 1b02 0A       		.uleb128 0xa
 7257 1b03 7E110000 		.4byte	.LASF560
 7258 1b07 06       		.byte	0x6
 7259 1b08 0A       		.uleb128 0xa
 7260 1b09 47110000 		.4byte	.LASF561
 7261 1b0d 07       		.byte	0x7
 7262 1b0e 0A       		.uleb128 0xa
 7263 1b0f AA170000 		.4byte	.LASF562
 7264 1b13 08       		.byte	0x8
 7265 1b14 0A       		.uleb128 0xa
 7266 1b15 DB1C0000 		.4byte	.LASF563
 7267 1b19 09       		.byte	0x9
 7268 1b1a 0A       		.uleb128 0xa
 7269 1b1b 2C220000 		.4byte	.LASF564
 7270 1b1f 0A       		.byte	0xa
 7271 1b20 0A       		.uleb128 0xa
 7272 1b21 28290000 		.4byte	.LASF565
 7273 1b25 0B       		.byte	0xb
 7274 1b26 0A       		.uleb128 0xa
 7275 1b27 482A0000 		.4byte	.LASF566
 7276 1b2b 0C       		.byte	0xc
 7277 1b2c 0A       		.uleb128 0xa
 7278 1b2d 44010000 		.4byte	.LASF567
 7279 1b31 0D       		.byte	0xd
 7280 1b32 0A       		.uleb128 0xa
 7281 1b33 94080000 		.4byte	.LASF568
 7282 1b37 0E       		.byte	0xe
 7283 1b38 0A       		.uleb128 0xa
 7284 1b39 F8140000 		.4byte	.LASF569
 7285 1b3d 0F       		.byte	0xf
 7286 1b3e 0A       		.uleb128 0xa
 7287 1b3f 13000000 		.4byte	.LASF570
 7288 1b43 10       		.byte	0x10
 7289 1b44 0A       		.uleb128 0xa
 7290 1b45 091D0000 		.4byte	.LASF571
ARM GAS  C:\Users\strap\AppData\Local\Temp\ccTzHSZB.s 			page 172


 7291 1b49 11       		.byte	0x11
 7292 1b4a 0A       		.uleb128 0xa
 7293 1b4b 1B1D0000 		.4byte	.LASF572
 7294 1b4f 12       		.byte	0x12
 7295 1b50 0A       		.uleb128 0xa
 7296 1b51 AF000000 		.4byte	.LASF573
 7297 1b55 12       		.byte	0x12
 7298 1b56 17       		.uleb128 0x17
 7299 1b57 3D2E0000 		.4byte	.LASF574
 7300 1b5b FFFF     		.2byte	0xffff
 7301 1b5d 00       		.byte	0
 7302 1b5e 21       		.uleb128 0x21
 7303 1b5f 66250000 		.4byte	.LASF588
 7304 1b63 07       		.byte	0x7
 7305 1b64 9E       		.byte	0x9e
 7306 1b65 03       		.byte	0x3
 7307 1b66 8C1B0000 		.4byte	0x1b8c
 7308 1b6a 22       		.uleb128 0x22
 7309 1b6b DB040000 		.4byte	.LASF575
 7310 1b6f 07       		.byte	0x7
 7311 1b70 9E       		.byte	0x9e
 7312 1b71 77180000 		.4byte	0x1877
 7313 1b75 23       		.uleb128 0x23
 7314 1b76 686F7200 		.ascii	"hor\000"
 7315 1b7a 07       		.byte	0x7
 7316 1b7b 9E       		.byte	0x9e
 7317 1b7c 2B180000 		.4byte	0x182b
 7318 1b80 23       		.uleb128 0x23
 7319 1b81 76657200 		.ascii	"ver\000"
 7320 1b85 07       		.byte	0x7
 7321 1b86 9E       		.byte	0x9e
 7322 1b87 2B180000 		.4byte	0x182b
 7323 1b8b 00       		.byte	0
 7324 1b8c 24       		.uleb128 0x24
 7325 1b8d 14070000 		.4byte	.LASF576
 7326 1b91 02       		.byte	0x2
 7327 1b92 A8       		.byte	0xa8
 7328 1b93 2D140000 		.4byte	0x142d
 7329 1b97 03       		.byte	0x3
 7330 1b98 B31B0000 		.4byte	0x1bb3
 7331 1b9c 23       		.uleb128 0x23
 7332 1b9d 6F626A00 		.ascii	"obj\000"
 7333 1ba1 02       		.byte	0x2
 7334 1ba2 A8       		.byte	0xa8
 7335 1ba3 B31B0000 		.4byte	0x1bb3
 7336 1ba7 22       		.uleb128 0x22
 7337 1ba8 A22C0000 		.4byte	.LASF471
 7338 1bac 02       		.byte	0x2
 7339 1bad A8       		.byte	0xa8
 7340 1bae CE000000 		.4byte	0xce
 7341 1bb2 00       		.byte	0
 7342 1bb3 07       		.uleb128 0x7
 7343 1bb4 04       		.byte	0x4
 7344 1bb5 B91B0000 		.4byte	0x1bb9
 7345 1bb9 08       		.uleb128 0x8
 7346 1bba 04170000 		.4byte	0x1704
 7347 1bbe 24       		.uleb128 0x24
ARM GAS  C:\Users\strap\AppData\Local\Temp\ccTzHSZB.s 			page 173


 7348 1bbf 9E1F0000 		.4byte	.LASF577
 7349 1bc3 02       		.byte	0x2
 7350 1bc4 6F       		.byte	0x6f
 7351 1bc5 DB080000 		.4byte	0x8db
 7352 1bc9 03       		.byte	0x3
 7353 1bca E51B0000 		.4byte	0x1be5
 7354 1bce 23       		.uleb128 0x23
 7355 1bcf 6F626A00 		.ascii	"obj\000"
 7356 1bd3 02       		.byte	0x2
 7357 1bd4 6F       		.byte	0x6f
 7358 1bd5 B31B0000 		.4byte	0x1bb3
 7359 1bd9 22       		.uleb128 0x22
 7360 1bda A22C0000 		.4byte	.LASF471
 7361 1bde 02       		.byte	0x2
 7362 1bdf 6F       		.byte	0x6f
 7363 1be0 CE000000 		.4byte	0xce
 7364 1be4 00       		.byte	0
 7365 1be5 24       		.uleb128 0x24
 7366 1be6 532E0000 		.4byte	.LASF578
 7367 1bea 02       		.byte	0x2
 7368 1beb 6E       		.byte	0x6e
 7369 1bec DB080000 		.4byte	0x8db
 7370 1bf0 03       		.byte	0x3
 7371 1bf1 0C1C0000 		.4byte	0x1c0c
 7372 1bf5 23       		.uleb128 0x23
 7373 1bf6 6F626A00 		.ascii	"obj\000"
 7374 1bfa 02       		.byte	0x2
 7375 1bfb 6E       		.byte	0x6e
 7376 1bfc B31B0000 		.4byte	0x1bb3
 7377 1c00 22       		.uleb128 0x22
 7378 1c01 A22C0000 		.4byte	.LASF471
 7379 1c05 02       		.byte	0x2
 7380 1c06 6E       		.byte	0x6e
 7381 1c07 CE000000 		.4byte	0xce
 7382 1c0b 00       		.byte	0
 7383 1c0c 24       		.uleb128 0x24
 7384 1c0d 491F0000 		.4byte	.LASF579
 7385 1c11 02       		.byte	0x2
 7386 1c12 71       		.byte	0x71
 7387 1c13 DB080000 		.4byte	0x8db
 7388 1c17 03       		.byte	0x3
 7389 1c18 331C0000 		.4byte	0x1c33
 7390 1c1c 23       		.uleb128 0x23
 7391 1c1d 6F626A00 		.ascii	"obj\000"
 7392 1c21 02       		.byte	0x2
 7393 1c22 71       		.byte	0x71
 7394 1c23 B31B0000 		.4byte	0x1bb3
 7395 1c27 22       		.uleb128 0x22
 7396 1c28 A22C0000 		.4byte	.LASF471
 7397 1c2c 02       		.byte	0x2
 7398 1c2d 71       		.byte	0x71
 7399 1c2e CE000000 		.4byte	0xce
 7400 1c32 00       		.byte	0
 7401 1c33 24       		.uleb128 0x24
 7402 1c34 54000000 		.4byte	.LASF580
 7403 1c38 02       		.byte	0x2
 7404 1c39 70       		.byte	0x70
ARM GAS  C:\Users\strap\AppData\Local\Temp\ccTzHSZB.s 			page 174


 7405 1c3a DB080000 		.4byte	0x8db
 7406 1c3e 03       		.byte	0x3
 7407 1c3f 5A1C0000 		.4byte	0x1c5a
 7408 1c43 23       		.uleb128 0x23
 7409 1c44 6F626A00 		.ascii	"obj\000"
 7410 1c48 02       		.byte	0x2
 7411 1c49 70       		.byte	0x70
 7412 1c4a B31B0000 		.4byte	0x1bb3
 7413 1c4e 22       		.uleb128 0x22
 7414 1c4f A22C0000 		.4byte	.LASF471
 7415 1c53 02       		.byte	0x2
 7416 1c54 70       		.byte	0x70
 7417 1c55 CE000000 		.4byte	0xce
 7418 1c59 00       		.byte	0
 7419 1c5a 24       		.uleb128 0x24
 7420 1c5b 08010000 		.4byte	.LASF581
 7421 1c5f 03       		.byte	0x3
 7422 1c60 7B       		.byte	0x7b
 7423 1c61 1B010000 		.4byte	0x11b
 7424 1c65 03       		.byte	0x3
 7425 1c66 761C0000 		.4byte	0x1c76
 7426 1c6a 22       		.uleb128 0x22
 7427 1c6b FA230000 		.4byte	.LASF582
 7428 1c6f 03       		.byte	0x3
 7429 1c70 7B       		.byte	0x7b
 7430 1c71 2D140000 		.4byte	0x142d
 7431 1c75 00       		.byte	0
 7432 1c76 24       		.uleb128 0x24
 7433 1c77 C1030000 		.4byte	.LASF583
 7434 1c7b 02       		.byte	0x2
 7435 1c7c 68       		.byte	0x68
 7436 1c7d DB080000 		.4byte	0x8db
 7437 1c81 03       		.byte	0x3
 7438 1c82 9D1C0000 		.4byte	0x1c9d
 7439 1c86 23       		.uleb128 0x23
 7440 1c87 6F626A00 		.ascii	"obj\000"
 7441 1c8b 02       		.byte	0x2
 7442 1c8c 68       		.byte	0x68
 7443 1c8d B31B0000 		.4byte	0x1bb3
 7444 1c91 22       		.uleb128 0x22
 7445 1c92 A22C0000 		.4byte	.LASF471
 7446 1c96 02       		.byte	0x2
 7447 1c97 68       		.byte	0x68
 7448 1c98 CE000000 		.4byte	0xce
 7449 1c9c 00       		.byte	0
 7450 1c9d 24       		.uleb128 0x24
 7451 1c9e E1290000 		.4byte	.LASF584
 7452 1ca2 04       		.byte	0x4
 7453 1ca3 6E       		.byte	0x6e
 7454 1ca4 1B010000 		.4byte	0x11b
 7455 1ca8 03       		.byte	0x3
 7456 1ca9 B91C0000 		.4byte	0x1cb9
 7457 1cad 22       		.uleb128 0x22
 7458 1cae BB070000 		.4byte	.LASF585
 7459 1cb2 04       		.byte	0x4
 7460 1cb3 6E       		.byte	0x6e
 7461 1cb4 F10C0000 		.4byte	0xcf1
ARM GAS  C:\Users\strap\AppData\Local\Temp\ccTzHSZB.s 			page 175


 7462 1cb8 00       		.byte	0
 7463 1cb9 24       		.uleb128 0x24
 7464 1cba F9220000 		.4byte	.LASF586
 7465 1cbe 04       		.byte	0x4
 7466 1cbf 78       		.byte	0x78
 7467 1cc0 1B010000 		.4byte	0x11b
 7468 1cc4 03       		.byte	0x3
 7469 1cc5 D51C0000 		.4byte	0x1cd5
 7470 1cc9 22       		.uleb128 0x22
 7471 1cca BB070000 		.4byte	.LASF585
 7472 1cce 04       		.byte	0x4
 7473 1ccf 78       		.byte	0x78
 7474 1cd0 F10C0000 		.4byte	0xcf1
 7475 1cd4 00       		.byte	0
 7476 1cd5 24       		.uleb128 0x24
 7477 1cd6 B42C0000 		.4byte	.LASF587
 7478 1cda 02       		.byte	0x2
 7479 1cdb 72       		.byte	0x72
 7480 1cdc DB080000 		.4byte	0x8db
 7481 1ce0 03       		.byte	0x3
 7482 1ce1 FC1C0000 		.4byte	0x1cfc
 7483 1ce5 23       		.uleb128 0x23
 7484 1ce6 6F626A00 		.ascii	"obj\000"
 7485 1cea 02       		.byte	0x2
 7486 1ceb 72       		.byte	0x72
 7487 1cec B31B0000 		.4byte	0x1bb3
 7488 1cf0 22       		.uleb128 0x22
 7489 1cf1 A22C0000 		.4byte	.LASF471
 7490 1cf5 02       		.byte	0x2
 7491 1cf6 72       		.byte	0x72
 7492 1cf7 CE000000 		.4byte	0xce
 7493 1cfb 00       		.byte	0
 7494 1cfc 21       		.uleb128 0x21
 7495 1cfd 3D160000 		.4byte	.LASF589
 7496 1d01 05       		.byte	0x5
 7497 1d02 97       		.byte	0x97
 7498 1d03 03       		.byte	0x3
 7499 1d04 1D1D0000 		.4byte	0x1d1d
 7500 1d08 23       		.uleb128 0x23
 7501 1d09 6100     		.ascii	"a\000"
 7502 1d0b 05       		.byte	0x5
 7503 1d0c 97       		.byte	0x97
 7504 1d0d 1D1D0000 		.4byte	0x1d1d
 7505 1d11 22       		.uleb128 0x22
 7506 1d12 3C0A0000 		.4byte	.LASF590
 7507 1d16 05       		.byte	0x5
 7508 1d17 97       		.byte	0x97
 7509 1d18 FA000000 		.4byte	0xfa
 7510 1d1c 00       		.byte	0
 7511 1d1d 07       		.uleb128 0x7
 7512 1d1e 04       		.byte	0x4
 7513 1d1f 61060000 		.4byte	0x661
 7514 1d23 21       		.uleb128 0x21
 7515 1d24 CA250000 		.4byte	.LASF591
 7516 1d28 05       		.byte	0x5
 7517 1d29 AC       		.byte	0xac
 7518 1d2a 03       		.byte	0x3
ARM GAS  C:\Users\strap\AppData\Local\Temp\ccTzHSZB.s 			page 176


 7519 1d2b 4F1D0000 		.4byte	0x1d4f
 7520 1d2f 23       		.uleb128 0x23
 7521 1d30 6100     		.ascii	"a\000"
 7522 1d32 05       		.byte	0x5
 7523 1d33 AC       		.byte	0xac
 7524 1d34 1D1D0000 		.4byte	0x1d1d
 7525 1d38 22       		.uleb128 0x22
 7526 1d39 77000000 		.4byte	.LASF97
 7527 1d3d 05       		.byte	0x5
 7528 1d3e AC       		.byte	0xac
 7529 1d3f A4040000 		.4byte	0x4a4
 7530 1d43 23       		.uleb128 0x23
 7531 1d44 656E6400 		.ascii	"end\000"
 7532 1d48 05       		.byte	0x5
 7533 1d49 AC       		.byte	0xac
 7534 1d4a A4040000 		.4byte	0x4a4
 7535 1d4e 00       		.byte	0
 7536 1d4f 21       		.uleb128 0x21
 7537 1d50 882A0000 		.4byte	.LASF592
 7538 1d54 05       		.byte	0x5
 7539 1d55 8D       		.byte	0x8d
 7540 1d56 03       		.byte	0x3
 7541 1d57 701D0000 		.4byte	0x1d70
 7542 1d5b 23       		.uleb128 0x23
 7543 1d5c 6100     		.ascii	"a\000"
 7544 1d5e 05       		.byte	0x5
 7545 1d5f 8D       		.byte	0x8d
 7546 1d60 1D1D0000 		.4byte	0x1d1d
 7547 1d64 22       		.uleb128 0x22
 7548 1d65 92230000 		.4byte	.LASF93
 7549 1d69 05       		.byte	0x5
 7550 1d6a 8D       		.byte	0x8d
 7551 1d6b 13060000 		.4byte	0x613
 7552 1d6f 00       		.byte	0
 7553 1d70 21       		.uleb128 0x21
 7554 1d71 01030000 		.4byte	.LASF593
 7555 1d75 05       		.byte	0x5
 7556 1d76 81       		.byte	0x81
 7557 1d77 03       		.byte	0x3
 7558 1d78 911D0000 		.4byte	0x1d91
 7559 1d7c 23       		.uleb128 0x23
 7560 1d7d 6100     		.ascii	"a\000"
 7561 1d7f 05       		.byte	0x5
 7562 1d80 81       		.byte	0x81
 7563 1d81 1D1D0000 		.4byte	0x1d1d
 7564 1d85 23       		.uleb128 0x23
 7565 1d86 76617200 		.ascii	"var\000"
 7566 1d8a 05       		.byte	0x5
 7567 1d8b 81       		.byte	0x81
 7568 1d8c 31010000 		.4byte	0x131
 7569 1d90 00       		.byte	0
 7570 1d91 21       		.uleb128 0x21
 7571 1d92 D40E0000 		.4byte	.LASF594
 7572 1d96 06       		.byte	0x6
 7573 1d97 AD       		.byte	0xad
 7574 1d98 03       		.byte	0x3
 7575 1d99 D51D0000 		.4byte	0x1dd5
ARM GAS  C:\Users\strap\AppData\Local\Temp\ccTzHSZB.s 			page 177


 7576 1d9d 22       		.uleb128 0x22
 7577 1d9e E4090000 		.4byte	.LASF595
 7578 1da2 06       		.byte	0x6
 7579 1da3 AD       		.byte	0xad
 7580 1da4 77180000 		.4byte	0x1877
 7581 1da8 22       		.uleb128 0x22
 7582 1da9 C9110000 		.4byte	.LASF596
 7583 1dad 06       		.byte	0x6
 7584 1dae AD       		.byte	0xad
 7585 1daf 2B180000 		.4byte	0x182b
 7586 1db3 22       		.uleb128 0x22
 7587 1db4 03180000 		.4byte	.LASF597
 7588 1db8 06       		.byte	0x6
 7589 1db9 AD       		.byte	0xad
 7590 1dba 2B180000 		.4byte	0x182b
 7591 1dbe 23       		.uleb128 0x23
 7592 1dbf 746F7000 		.ascii	"top\000"
 7593 1dc3 06       		.byte	0x6
 7594 1dc4 AD       		.byte	0xad
 7595 1dc5 2B180000 		.4byte	0x182b
 7596 1dc9 22       		.uleb128 0x22
 7597 1dca FC180000 		.4byte	.LASF598
 7598 1dce 06       		.byte	0x6
 7599 1dcf AE       		.byte	0xae
 7600 1dd0 2B180000 		.4byte	0x182b
 7601 1dd4 00       		.byte	0
 7602 1dd5 21       		.uleb128 0x21
 7603 1dd6 4E160000 		.4byte	.LASF599
 7604 1dda 06       		.byte	0x6
 7605 1ddb E3       		.byte	0xe3
 7606 1ddc 03       		.byte	0x3
 7607 1ddd F81D0000 		.4byte	0x1df8
 7608 1de1 22       		.uleb128 0x22
 7609 1de2 E4090000 		.4byte	.LASF595
 7610 1de6 06       		.byte	0x6
 7611 1de7 E3       		.byte	0xe3
 7612 1de8 77180000 		.4byte	0x1877
 7613 1dec 22       		.uleb128 0x22
 7614 1ded 94190000 		.4byte	.LASF600
 7615 1df1 06       		.byte	0x6
 7616 1df2 E3       		.byte	0xe3
 7617 1df3 F5170000 		.4byte	0x17f5
 7618 1df7 00       		.byte	0
 7619 1df8 25       		.uleb128 0x25
 7620 1df9 3E1B0000 		.4byte	.LASF651
 7621 1dfd 01       		.byte	0x1
 7622 1dfe 0F03     		.2byte	0x30f
 7623 1e00 58170000 		.4byte	0x1758
 7624 1e04 00000000 		.4byte	.LFB371
 7625 1e08 6C000000 		.4byte	.LFE371-.LFB371
 7626 1e0c 01       		.uleb128 0x1
 7627 1e0d 9C       		.byte	0x9c
 7628 1e0e DB1E0000 		.4byte	0x1edb
 7629 1e12 26       		.uleb128 0x26
 7630 1e13 9B190000 		.4byte	.LASF601
 7631 1e17 01       		.byte	0x1
 7632 1e18 0F03     		.2byte	0x30f
ARM GAS  C:\Users\strap\AppData\Local\Temp\ccTzHSZB.s 			page 178


 7633 1e1a 77180000 		.4byte	0x1877
 7634 1e1e 00000000 		.4byte	.LLST0
 7635 1e22 26       		.uleb128 0x26
 7636 1e23 A22C0000 		.4byte	.LASF471
 7637 1e27 01       		.byte	0x1
 7638 1e28 0F03     		.2byte	0x30f
 7639 1e2a CE000000 		.4byte	0xce
 7640 1e2e 2C000000 		.4byte	.LLST1
 7641 1e32 27       		.uleb128 0x27
 7642 1e33 65787400 		.ascii	"ext\000"
 7643 1e37 01       		.byte	0x1
 7644 1e38 1303     		.2byte	0x313
 7645 1e3a DB1E0000 		.4byte	0x1edb
 7646 1e3e 4D000000 		.4byte	.LLST2
 7647 1e42 28       		.uleb128 0x28
 7648 1e43 51200000 		.4byte	.LASF602
 7649 1e47 01       		.byte	0x1
 7650 1e48 1403     		.2byte	0x314
 7651 1e4a 58170000 		.4byte	0x1758
 7652 1e4e 97000000 		.4byte	.LLST3
 7653 1e52 29       		.uleb128 0x29
 7654 1e53 0A000000 		.4byte	.LVL1
 7655 1e57 85460000 		.4byte	0x4685
 7656 1e5b 661E0000 		.4byte	0x1e66
 7657 1e5f 2A       		.uleb128 0x2a
 7658 1e60 01       		.uleb128 0x1
 7659 1e61 50       		.byte	0x50
 7660 1e62 02       		.uleb128 0x2
 7661 1e63 74       		.byte	0x74
 7662 1e64 00       		.sleb128 0
 7663 1e65 00       		.byte	0
 7664 1e66 29       		.uleb128 0x29
 7665 1e67 16000000 		.4byte	.LVL2
 7666 1e6b 90460000 		.4byte	0x4690
 7667 1e6f 7D1E0000 		.4byte	0x1e7d
 7668 1e73 2A       		.uleb128 0x2a
 7669 1e74 01       		.uleb128 0x1
 7670 1e75 50       		.byte	0x50
 7671 1e76 05       		.uleb128 0x5
 7672 1e77 03       		.byte	0x3
 7673 1e78 00000000 		.4byte	.LC0
 7674 1e7c 00       		.byte	0
 7675 1e7d 29       		.uleb128 0x29
 7676 1e7e 1E000000 		.4byte	.LVL3
 7677 1e82 9B460000 		.4byte	0x469b
 7678 1e86 911E0000 		.4byte	0x1e91
 7679 1e8a 2A       		.uleb128 0x2a
 7680 1e8b 01       		.uleb128 0x1
 7681 1e8c 50       		.byte	0x50
 7682 1e8d 02       		.uleb128 0x2
 7683 1e8e 74       		.byte	0x74
 7684 1e8f 00       		.sleb128 0
 7685 1e90 00       		.byte	0
 7686 1e91 29       		.uleb128 0x29
 7687 1e92 44000000 		.4byte	.LVL7
 7688 1e96 A7460000 		.4byte	0x46a7
 7689 1e9a A51E0000 		.4byte	0x1ea5
ARM GAS  C:\Users\strap\AppData\Local\Temp\ccTzHSZB.s 			page 179


 7690 1e9e 2A       		.uleb128 0x2a
 7691 1e9f 01       		.uleb128 0x1
 7692 1ea0 51       		.byte	0x51
 7693 1ea1 02       		.uleb128 0x2
 7694 1ea2 08       		.byte	0x8
 7695 1ea3 40       		.byte	0x40
 7696 1ea4 00       		.byte	0
 7697 1ea5 29       		.uleb128 0x29
 7698 1ea6 4E000000 		.4byte	.LVL10
 7699 1eaa A7460000 		.4byte	0x46a7
 7700 1eae B81E0000 		.4byte	0x1eb8
 7701 1eb2 2A       		.uleb128 0x2a
 7702 1eb3 01       		.uleb128 0x1
 7703 1eb4 51       		.byte	0x51
 7704 1eb5 01       		.uleb128 0x1
 7705 1eb6 30       		.byte	0x30
 7706 1eb7 00       		.byte	0
 7707 1eb8 29       		.uleb128 0x29
 7708 1eb9 58000000 		.4byte	.LVL13
 7709 1ebd A7460000 		.4byte	0x46a7
 7710 1ec1 CB1E0000 		.4byte	0x1ecb
 7711 1ec5 2A       		.uleb128 0x2a
 7712 1ec6 01       		.uleb128 0x1
 7713 1ec7 51       		.byte	0x51
 7714 1ec8 01       		.uleb128 0x1
 7715 1ec9 31       		.byte	0x31
 7716 1eca 00       		.byte	0
 7717 1ecb 2B       		.uleb128 0x2b
 7718 1ecc 62000000 		.4byte	.LVL16
 7719 1ed0 A7460000 		.4byte	0x46a7
 7720 1ed4 2A       		.uleb128 0x2a
 7721 1ed5 01       		.uleb128 0x1
 7722 1ed6 51       		.byte	0x51
 7723 1ed7 01       		.uleb128 0x1
 7724 1ed8 30       		.byte	0x30
 7725 1ed9 00       		.byte	0
 7726 1eda 00       		.byte	0
 7727 1edb 07       		.uleb128 0x7
 7728 1edc 04       		.byte	0x4
 7729 1edd 93190000 		.4byte	0x1993
 7730 1ee1 2C       		.uleb128 0x2c
 7731 1ee2 16120000 		.4byte	.LASF614
 7732 1ee6 01       		.byte	0x1
 7733 1ee7 9303     		.2byte	0x393
 7734 1ee9 00000000 		.4byte	.LFB375
 7735 1eed FA000000 		.4byte	.LFE375-.LFB375
 7736 1ef1 01       		.uleb128 0x1
 7737 1ef2 9C       		.byte	0x9c
 7738 1ef3 C0220000 		.4byte	0x22c0
 7739 1ef7 26       		.uleb128 0x26
 7740 1ef8 9B190000 		.4byte	.LASF601
 7741 1efc 01       		.byte	0x1
 7742 1efd 9303     		.2byte	0x393
 7743 1eff 77180000 		.4byte	0x1877
 7744 1f03 E1000000 		.4byte	.LLST4
 7745 1f07 27       		.uleb128 0x27
 7746 1f08 65787400 		.ascii	"ext\000"
ARM GAS  C:\Users\strap\AppData\Local\Temp\ccTzHSZB.s 			page 180


 7747 1f0c 01       		.byte	0x1
 7748 1f0d 9503     		.2byte	0x395
 7749 1f0f DB1E0000 		.4byte	0x1edb
 7750 1f13 FF000000 		.4byte	.LLST5
 7751 1f17 2D       		.uleb128 0x2d
 7752 1f18 F80F0000 		.4byte	.LASF603
 7753 1f1c 01       		.byte	0x1
 7754 1f1d 9703     		.2byte	0x397
 7755 1f1f DB080000 		.4byte	0x8db
 7756 1f23 2D       		.uleb128 0x2d
 7757 1f24 B6180000 		.4byte	.LASF604
 7758 1f28 01       		.byte	0x1
 7759 1f29 9803     		.2byte	0x398
 7760 1f2b DB080000 		.4byte	0x8db
 7761 1f2f 2D       		.uleb128 0x2d
 7762 1f30 E31E0000 		.4byte	.LASF605
 7763 1f34 01       		.byte	0x1
 7764 1f35 9903     		.2byte	0x399
 7765 1f37 DB080000 		.4byte	0x8db
 7766 1f3b 2D       		.uleb128 0x2d
 7767 1f3c 17180000 		.4byte	.LASF606
 7768 1f40 01       		.byte	0x1
 7769 1f41 9A03     		.2byte	0x39a
 7770 1f43 DB080000 		.4byte	0x8db
 7771 1f47 2D       		.uleb128 0x2d
 7772 1f48 30140000 		.4byte	.LASF607
 7773 1f4c 01       		.byte	0x1
 7774 1f4d 9C03     		.2byte	0x39c
 7775 1f4f DB080000 		.4byte	0x8db
 7776 1f53 2D       		.uleb128 0x2d
 7777 1f54 240B0000 		.4byte	.LASF608
 7778 1f58 01       		.byte	0x1
 7779 1f59 9D03     		.2byte	0x39d
 7780 1f5b DB080000 		.4byte	0x8db
 7781 1f5f 2D       		.uleb128 0x2d
 7782 1f60 B5150000 		.4byte	.LASF609
 7783 1f64 01       		.byte	0x1
 7784 1f65 9E03     		.2byte	0x39e
 7785 1f67 DB080000 		.4byte	0x8db
 7786 1f6b 2D       		.uleb128 0x2d
 7787 1f6c 7D000000 		.4byte	.LASF610
 7788 1f70 01       		.byte	0x1
 7789 1f71 9F03     		.2byte	0x39f
 7790 1f73 DB080000 		.4byte	0x8db
 7791 1f77 2D       		.uleb128 0x2d
 7792 1f78 44260000 		.4byte	.LASF611
 7793 1f7c 01       		.byte	0x1
 7794 1f7d A103     		.2byte	0x3a1
 7795 1f7f 2D140000 		.4byte	0x142d
 7796 1f83 28       		.uleb128 0x28
 7797 1f84 2A2F0000 		.4byte	.LASF612
 7798 1f88 01       		.byte	0x1
 7799 1f89 A403     		.2byte	0x3a4
 7800 1f8b 1B010000 		.4byte	0x11b
 7801 1f8f 1D010000 		.4byte	.LLST6
 7802 1f93 28       		.uleb128 0x28
 7803 1f94 AA2E0000 		.4byte	.LASF613
ARM GAS  C:\Users\strap\AppData\Local\Temp\ccTzHSZB.s 			page 181


 7804 1f98 01       		.byte	0x1
 7805 1f99 A503     		.2byte	0x3a5
 7806 1f9b 1B010000 		.4byte	0x11b
 7807 1f9f 47010000 		.4byte	.LLST7
 7808 1fa3 2E       		.uleb128 0x2e
 7809 1fa4 331C0000 		.4byte	0x1c33
 7810 1fa8 0E000000 		.4byte	.LBB85
 7811 1fac 0C000000 		.4byte	.LBE85-.LBB85
 7812 1fb0 01       		.byte	0x1
 7813 1fb1 9703     		.2byte	0x397
 7814 1fb3 E51F0000 		.4byte	0x1fe5
 7815 1fb7 2F       		.uleb128 0x2f
 7816 1fb8 4E1C0000 		.4byte	0x1c4e
 7817 1fbc 71010000 		.4byte	.LLST8
 7818 1fc0 2F       		.uleb128 0x2f
 7819 1fc1 431C0000 		.4byte	0x1c43
 7820 1fc5 86010000 		.4byte	.LLST9
 7821 1fc9 2B       		.uleb128 0x2b
 7822 1fca 18000000 		.4byte	.LVL24
 7823 1fce B3460000 		.4byte	0x46b3
 7824 1fd2 2A       		.uleb128 0x2a
 7825 1fd3 01       		.uleb128 0x1
 7826 1fd4 50       		.byte	0x50
 7827 1fd5 02       		.uleb128 0x2
 7828 1fd6 74       		.byte	0x74
 7829 1fd7 00       		.sleb128 0
 7830 1fd8 2A       		.uleb128 0x2a
 7831 1fd9 01       		.uleb128 0x1
 7832 1fda 51       		.byte	0x51
 7833 1fdb 02       		.uleb128 0x2
 7834 1fdc 08       		.byte	0x8
 7835 1fdd 41       		.byte	0x41
 7836 1fde 2A       		.uleb128 0x2a
 7837 1fdf 01       		.uleb128 0x1
 7838 1fe0 52       		.byte	0x52
 7839 1fe1 01       		.uleb128 0x1
 7840 1fe2 42       		.byte	0x42
 7841 1fe3 00       		.byte	0
 7842 1fe4 00       		.byte	0
 7843 1fe5 2E       		.uleb128 0x2e
 7844 1fe6 0C1C0000 		.4byte	0x1c0c
 7845 1fea 1A000000 		.4byte	.LBB87
 7846 1fee 0C000000 		.4byte	.LBE87-.LBB87
 7847 1ff2 01       		.byte	0x1
 7848 1ff3 9803     		.2byte	0x398
 7849 1ff5 27200000 		.4byte	0x2027
 7850 1ff9 2F       		.uleb128 0x2f
 7851 1ffa 271C0000 		.4byte	0x1c27
 7852 1ffe 99010000 		.4byte	.LLST10
 7853 2002 2F       		.uleb128 0x2f
 7854 2003 1C1C0000 		.4byte	0x1c1c
 7855 2007 AE010000 		.4byte	.LLST11
 7856 200b 2B       		.uleb128 0x2b
 7857 200c 24000000 		.4byte	.LVL26
 7858 2010 B3460000 		.4byte	0x46b3
 7859 2014 2A       		.uleb128 0x2a
 7860 2015 01       		.uleb128 0x1
ARM GAS  C:\Users\strap\AppData\Local\Temp\ccTzHSZB.s 			page 182


 7861 2016 50       		.byte	0x50
 7862 2017 02       		.uleb128 0x2
 7863 2018 74       		.byte	0x74
 7864 2019 00       		.sleb128 0
 7865 201a 2A       		.uleb128 0x2a
 7866 201b 01       		.uleb128 0x1
 7867 201c 51       		.byte	0x51
 7868 201d 02       		.uleb128 0x2
 7869 201e 08       		.byte	0x8
 7870 201f 41       		.byte	0x41
 7871 2020 2A       		.uleb128 0x2a
 7872 2021 01       		.uleb128 0x1
 7873 2022 52       		.byte	0x52
 7874 2023 01       		.uleb128 0x1
 7875 2024 43       		.byte	0x43
 7876 2025 00       		.byte	0
 7877 2026 00       		.byte	0
 7878 2027 2E       		.uleb128 0x2e
 7879 2028 E51B0000 		.4byte	0x1be5
 7880 202c 26000000 		.4byte	.LBB89
 7881 2030 0C000000 		.4byte	.LBE89-.LBB89
 7882 2034 01       		.byte	0x1
 7883 2035 9903     		.2byte	0x399
 7884 2037 69200000 		.4byte	0x2069
 7885 203b 2F       		.uleb128 0x2f
 7886 203c 001C0000 		.4byte	0x1c00
 7887 2040 C1010000 		.4byte	.LLST12
 7888 2044 2F       		.uleb128 0x2f
 7889 2045 F51B0000 		.4byte	0x1bf5
 7890 2049 D6010000 		.4byte	.LLST13
 7891 204d 2B       		.uleb128 0x2b
 7892 204e 30000000 		.4byte	.LVL28
 7893 2052 B3460000 		.4byte	0x46b3
 7894 2056 2A       		.uleb128 0x2a
 7895 2057 01       		.uleb128 0x1
 7896 2058 50       		.byte	0x50
 7897 2059 02       		.uleb128 0x2
 7898 205a 74       		.byte	0x74
 7899 205b 00       		.sleb128 0
 7900 205c 2A       		.uleb128 0x2a
 7901 205d 01       		.uleb128 0x1
 7902 205e 51       		.byte	0x51
 7903 205f 02       		.uleb128 0x2
 7904 2060 08       		.byte	0x8
 7905 2061 41       		.byte	0x41
 7906 2062 2A       		.uleb128 0x2a
 7907 2063 01       		.uleb128 0x1
 7908 2064 52       		.byte	0x52
 7909 2065 01       		.uleb128 0x1
 7910 2066 40       		.byte	0x40
 7911 2067 00       		.byte	0
 7912 2068 00       		.byte	0
 7913 2069 2E       		.uleb128 0x2e
 7914 206a BE1B0000 		.4byte	0x1bbe
 7915 206e 32000000 		.4byte	.LBB91
 7916 2072 0C000000 		.4byte	.LBE91-.LBB91
 7917 2076 01       		.byte	0x1
ARM GAS  C:\Users\strap\AppData\Local\Temp\ccTzHSZB.s 			page 183


 7918 2077 9A03     		.2byte	0x39a
 7919 2079 AB200000 		.4byte	0x20ab
 7920 207d 2F       		.uleb128 0x2f
 7921 207e D91B0000 		.4byte	0x1bd9
 7922 2082 E9010000 		.4byte	.LLST14
 7923 2086 2F       		.uleb128 0x2f
 7924 2087 CE1B0000 		.4byte	0x1bce
 7925 208b FE010000 		.4byte	.LLST15
 7926 208f 2B       		.uleb128 0x2b
 7927 2090 3C000000 		.4byte	.LVL30
 7928 2094 B3460000 		.4byte	0x46b3
 7929 2098 2A       		.uleb128 0x2a
 7930 2099 01       		.uleb128 0x1
 7931 209a 50       		.byte	0x50
 7932 209b 02       		.uleb128 0x2
 7933 209c 74       		.byte	0x74
 7934 209d 00       		.sleb128 0
 7935 209e 2A       		.uleb128 0x2a
 7936 209f 01       		.uleb128 0x1
 7937 20a0 51       		.byte	0x51
 7938 20a1 02       		.uleb128 0x2
 7939 20a2 08       		.byte	0x8
 7940 20a3 41       		.byte	0x41
 7941 20a4 2A       		.uleb128 0x2a
 7942 20a5 01       		.uleb128 0x1
 7943 20a6 52       		.byte	0x52
 7944 20a7 01       		.uleb128 0x1
 7945 20a8 41       		.byte	0x41
 7946 20a9 00       		.byte	0
 7947 20aa 00       		.byte	0
 7948 20ab 2E       		.uleb128 0x2e
 7949 20ac 331C0000 		.4byte	0x1c33
 7950 20b0 3E000000 		.4byte	.LBB93
 7951 20b4 0C000000 		.4byte	.LBE93-.LBB93
 7952 20b8 01       		.byte	0x1
 7953 20b9 9C03     		.2byte	0x39c
 7954 20bb ED200000 		.4byte	0x20ed
 7955 20bf 2F       		.uleb128 0x2f
 7956 20c0 4E1C0000 		.4byte	0x1c4e
 7957 20c4 11020000 		.4byte	.LLST16
 7958 20c8 2F       		.uleb128 0x2f
 7959 20c9 431C0000 		.4byte	0x1c43
 7960 20cd 26020000 		.4byte	.LLST17
 7961 20d1 2B       		.uleb128 0x2b
 7962 20d2 48000000 		.4byte	.LVL32
 7963 20d6 B3460000 		.4byte	0x46b3
 7964 20da 2A       		.uleb128 0x2a
 7965 20db 01       		.uleb128 0x1
 7966 20dc 50       		.byte	0x50
 7967 20dd 02       		.uleb128 0x2
 7968 20de 74       		.byte	0x74
 7969 20df 00       		.sleb128 0
 7970 20e0 2A       		.uleb128 0x2a
 7971 20e1 01       		.uleb128 0x1
 7972 20e2 51       		.byte	0x51
 7973 20e3 02       		.uleb128 0x2
 7974 20e4 08       		.byte	0x8
ARM GAS  C:\Users\strap\AppData\Local\Temp\ccTzHSZB.s 			page 184


 7975 20e5 42       		.byte	0x42
 7976 20e6 2A       		.uleb128 0x2a
 7977 20e7 01       		.uleb128 0x1
 7978 20e8 52       		.byte	0x52
 7979 20e9 01       		.uleb128 0x1
 7980 20ea 42       		.byte	0x42
 7981 20eb 00       		.byte	0
 7982 20ec 00       		.byte	0
 7983 20ed 2E       		.uleb128 0x2e
 7984 20ee 0C1C0000 		.4byte	0x1c0c
 7985 20f2 4A000000 		.4byte	.LBB95
 7986 20f6 0C000000 		.4byte	.LBE95-.LBB95
 7987 20fa 01       		.byte	0x1
 7988 20fb 9D03     		.2byte	0x39d
 7989 20fd 2F210000 		.4byte	0x212f
 7990 2101 2F       		.uleb128 0x2f
 7991 2102 271C0000 		.4byte	0x1c27
 7992 2106 39020000 		.4byte	.LLST18
 7993 210a 2F       		.uleb128 0x2f
 7994 210b 1C1C0000 		.4byte	0x1c1c
 7995 210f 4E020000 		.4byte	.LLST19
 7996 2113 2B       		.uleb128 0x2b
 7997 2114 54000000 		.4byte	.LVL34
 7998 2118 B3460000 		.4byte	0x46b3
 7999 211c 2A       		.uleb128 0x2a
 8000 211d 01       		.uleb128 0x1
 8001 211e 50       		.byte	0x50
 8002 211f 02       		.uleb128 0x2
 8003 2120 74       		.byte	0x74
 8004 2121 00       		.sleb128 0
 8005 2122 2A       		.uleb128 0x2a
 8006 2123 01       		.uleb128 0x1
 8007 2124 51       		.byte	0x51
 8008 2125 02       		.uleb128 0x2
 8009 2126 08       		.byte	0x8
 8010 2127 42       		.byte	0x42
 8011 2128 2A       		.uleb128 0x2a
 8012 2129 01       		.uleb128 0x1
 8013 212a 52       		.byte	0x52
 8014 212b 01       		.uleb128 0x1
 8015 212c 43       		.byte	0x43
 8016 212d 00       		.byte	0
 8017 212e 00       		.byte	0
 8018 212f 2E       		.uleb128 0x2e
 8019 2130 E51B0000 		.4byte	0x1be5
 8020 2134 56000000 		.4byte	.LBB97
 8021 2138 0C000000 		.4byte	.LBE97-.LBB97
 8022 213c 01       		.byte	0x1
 8023 213d 9E03     		.2byte	0x39e
 8024 213f 71210000 		.4byte	0x2171
 8025 2143 2F       		.uleb128 0x2f
 8026 2144 001C0000 		.4byte	0x1c00
 8027 2148 61020000 		.4byte	.LLST20
 8028 214c 2F       		.uleb128 0x2f
 8029 214d F51B0000 		.4byte	0x1bf5
 8030 2151 76020000 		.4byte	.LLST21
 8031 2155 2B       		.uleb128 0x2b
ARM GAS  C:\Users\strap\AppData\Local\Temp\ccTzHSZB.s 			page 185


 8032 2156 60000000 		.4byte	.LVL36
 8033 215a B3460000 		.4byte	0x46b3
 8034 215e 2A       		.uleb128 0x2a
 8035 215f 01       		.uleb128 0x1
 8036 2160 50       		.byte	0x50
 8037 2161 02       		.uleb128 0x2
 8038 2162 74       		.byte	0x74
 8039 2163 00       		.sleb128 0
 8040 2164 2A       		.uleb128 0x2a
 8041 2165 01       		.uleb128 0x1
 8042 2166 51       		.byte	0x51
 8043 2167 02       		.uleb128 0x2
 8044 2168 08       		.byte	0x8
 8045 2169 42       		.byte	0x42
 8046 216a 2A       		.uleb128 0x2a
 8047 216b 01       		.uleb128 0x1
 8048 216c 52       		.byte	0x52
 8049 216d 01       		.uleb128 0x1
 8050 216e 40       		.byte	0x40
 8051 216f 00       		.byte	0
 8052 2170 00       		.byte	0
 8053 2171 2E       		.uleb128 0x2e
 8054 2172 BE1B0000 		.4byte	0x1bbe
 8055 2176 62000000 		.4byte	.LBB99
 8056 217a 0C000000 		.4byte	.LBE99-.LBB99
 8057 217e 01       		.byte	0x1
 8058 217f 9F03     		.2byte	0x39f
 8059 2181 B3210000 		.4byte	0x21b3
 8060 2185 2F       		.uleb128 0x2f
 8061 2186 D91B0000 		.4byte	0x1bd9
 8062 218a 89020000 		.4byte	.LLST22
 8063 218e 2F       		.uleb128 0x2f
 8064 218f CE1B0000 		.4byte	0x1bce
 8065 2193 9E020000 		.4byte	.LLST23
 8066 2197 2B       		.uleb128 0x2b
 8067 2198 6C000000 		.4byte	.LVL38
 8068 219c B3460000 		.4byte	0x46b3
 8069 21a0 2A       		.uleb128 0x2a
 8070 21a1 01       		.uleb128 0x1
 8071 21a2 50       		.byte	0x50
 8072 21a3 02       		.uleb128 0x2
 8073 21a4 74       		.byte	0x74
 8074 21a5 00       		.sleb128 0
 8075 21a6 2A       		.uleb128 0x2a
 8076 21a7 01       		.uleb128 0x1
 8077 21a8 51       		.byte	0x51
 8078 21a9 02       		.uleb128 0x2
 8079 21aa 08       		.byte	0x8
 8080 21ab 42       		.byte	0x42
 8081 21ac 2A       		.uleb128 0x2a
 8082 21ad 01       		.uleb128 0x1
 8083 21ae 52       		.byte	0x52
 8084 21af 01       		.uleb128 0x1
 8085 21b0 41       		.byte	0x41
 8086 21b1 00       		.byte	0
 8087 21b2 00       		.byte	0
 8088 21b3 2E       		.uleb128 0x2e
ARM GAS  C:\Users\strap\AppData\Local\Temp\ccTzHSZB.s 			page 186


 8089 21b4 8C1B0000 		.4byte	0x1b8c
 8090 21b8 6E000000 		.4byte	.LBB101
 8091 21bc 0E000000 		.4byte	.LBE101-.LBB101
 8092 21c0 01       		.byte	0x1
 8093 21c1 A103     		.2byte	0x3a1
 8094 21c3 F7210000 		.4byte	0x21f7
 8095 21c7 2F       		.uleb128 0x2f
 8096 21c8 A71B0000 		.4byte	0x1ba7
 8097 21cc B1020000 		.4byte	.LLST24
 8098 21d0 2F       		.uleb128 0x2f
 8099 21d1 9C1B0000 		.4byte	0x1b9c
 8100 21d5 C6020000 		.4byte	.LLST25
 8101 21d9 2B       		.uleb128 0x2b
 8102 21da 7A000000 		.4byte	.LVL40
 8103 21de BF460000 		.4byte	0x46bf
 8104 21e2 2A       		.uleb128 0x2a
 8105 21e3 01       		.uleb128 0x1
 8106 21e4 50       		.byte	0x50
 8107 21e5 02       		.uleb128 0x2
 8108 21e6 74       		.byte	0x74
 8109 21e7 00       		.sleb128 0
 8110 21e8 2A       		.uleb128 0x2a
 8111 21e9 01       		.uleb128 0x1
 8112 21ea 51       		.byte	0x51
 8113 21eb 02       		.uleb128 0x2
 8114 21ec 08       		.byte	0x8
 8115 21ed 42       		.byte	0x42
 8116 21ee 2A       		.uleb128 0x2a
 8117 21ef 01       		.uleb128 0x1
 8118 21f0 52       		.byte	0x52
 8119 21f1 03       		.uleb128 0x3
 8120 21f2 0B       		.byte	0xb
 8121 21f3 8E80     		.2byte	0x808e
 8122 21f5 00       		.byte	0
 8123 21f6 00       		.byte	0
 8124 21f7 2E       		.uleb128 0x2e
 8125 21f8 5A1C0000 		.4byte	0x1c5a
 8126 21fc A6000000 		.4byte	.LBB103
 8127 2200 04000000 		.4byte	.LBE103-.LBB103
 8128 2204 01       		.byte	0x1
 8129 2205 B103     		.2byte	0x3b1
 8130 2207 15220000 		.4byte	0x2215
 8131 220b 2F       		.uleb128 0x2f
 8132 220c 6A1C0000 		.4byte	0x1c6a
 8133 2210 D9020000 		.4byte	.LLST26
 8134 2214 00       		.byte	0
 8135 2215 29       		.uleb128 0x29
 8136 2216 0C000000 		.4byte	.LVL21
 8137 221a 9B460000 		.4byte	0x469b
 8138 221e 29220000 		.4byte	0x2229
 8139 2222 2A       		.uleb128 0x2a
 8140 2223 01       		.uleb128 0x1
 8141 2224 50       		.byte	0x50
 8142 2225 02       		.uleb128 0x2
 8143 2226 74       		.byte	0x74
 8144 2227 00       		.sleb128 0
 8145 2228 00       		.byte	0
ARM GAS  C:\Users\strap\AppData\Local\Temp\ccTzHSZB.s 			page 187


 8146 2229 29       		.uleb128 0x29
 8147 222a 98000000 		.4byte	.LVL43
 8148 222e CB460000 		.4byte	0x46cb
 8149 2232 3C220000 		.4byte	0x223c
 8150 2236 2A       		.uleb128 0x2a
 8151 2237 01       		.uleb128 0x1
 8152 2238 51       		.byte	0x51
 8153 2239 01       		.uleb128 0x1
 8154 223a 31       		.byte	0x31
 8155 223b 00       		.byte	0
 8156 223c 29       		.uleb128 0x29
 8157 223d A6000000 		.4byte	.LVL45
 8158 2241 CB460000 		.4byte	0x46cb
 8159 2245 4F220000 		.4byte	0x224f
 8160 2249 2A       		.uleb128 0x2a
 8161 224a 01       		.uleb128 0x1
 8162 224b 51       		.byte	0x51
 8163 224c 01       		.uleb128 0x1
 8164 224d 30       		.byte	0x30
 8165 224e 00       		.byte	0
 8166 224f 29       		.uleb128 0x29
 8167 2250 BA000000 		.4byte	.LVL48
 8168 2254 D7460000 		.4byte	0x46d7
 8169 2258 63220000 		.4byte	0x2263
 8170 225c 2A       		.uleb128 0x2a
 8171 225d 01       		.uleb128 0x1
 8172 225e 50       		.byte	0x50
 8173 225f 02       		.uleb128 0x2
 8174 2260 74       		.byte	0x74
 8175 2261 00       		.sleb128 0
 8176 2262 00       		.byte	0
 8177 2263 29       		.uleb128 0x29
 8178 2264 C6000000 		.4byte	.LVL51
 8179 2268 CB460000 		.4byte	0x46cb
 8180 226c 76220000 		.4byte	0x2276
 8181 2270 2A       		.uleb128 0x2a
 8182 2271 01       		.uleb128 0x1
 8183 2272 51       		.byte	0x51
 8184 2273 01       		.uleb128 0x1
 8185 2274 30       		.byte	0x30
 8186 2275 00       		.byte	0
 8187 2276 29       		.uleb128 0x29
 8188 2277 D0000000 		.4byte	.LVL52
 8189 227b E3460000 		.4byte	0x46e3
 8190 227f 95220000 		.4byte	0x2295
 8191 2283 2A       		.uleb128 0x2a
 8192 2284 01       		.uleb128 0x1
 8193 2285 50       		.byte	0x50
 8194 2286 02       		.uleb128 0x2
 8195 2287 7B       		.byte	0x7b
 8196 2288 00       		.sleb128 0
 8197 2289 2A       		.uleb128 0x2a
 8198 228a 01       		.uleb128 0x1
 8199 228b 51       		.byte	0x51
 8200 228c 02       		.uleb128 0x2
 8201 228d 08       		.byte	0x8
 8202 228e 41       		.byte	0x41
ARM GAS  C:\Users\strap\AppData\Local\Temp\ccTzHSZB.s 			page 188


 8203 228f 2A       		.uleb128 0x2a
 8204 2290 01       		.uleb128 0x1
 8205 2291 52       		.byte	0x52
 8206 2292 01       		.uleb128 0x1
 8207 2293 30       		.byte	0x30
 8208 2294 00       		.byte	0
 8209 2295 29       		.uleb128 0x29
 8210 2296 E8000000 		.4byte	.LVL54
 8211 229a EE460000 		.4byte	0x46ee
 8212 229e A9220000 		.4byte	0x22a9
 8213 22a2 2A       		.uleb128 0x2a
 8214 22a3 01       		.uleb128 0x1
 8215 22a4 50       		.byte	0x50
 8216 22a5 02       		.uleb128 0x2
 8217 22a6 74       		.byte	0x74
 8218 22a7 00       		.sleb128 0
 8219 22a8 00       		.byte	0
 8220 22a9 2B       		.uleb128 0x2b
 8221 22aa F4000000 		.4byte	.LVL56
 8222 22ae FA460000 		.4byte	0x46fa
 8223 22b2 2A       		.uleb128 0x2a
 8224 22b3 01       		.uleb128 0x1
 8225 22b4 51       		.byte	0x51
 8226 22b5 02       		.uleb128 0x2
 8227 22b6 77       		.byte	0x77
 8228 22b7 00       		.sleb128 0
 8229 22b8 2A       		.uleb128 0x2a
 8230 22b9 01       		.uleb128 0x1
 8231 22ba 52       		.byte	0x52
 8232 22bb 02       		.uleb128 0x2
 8233 22bc 75       		.byte	0x75
 8234 22bd 00       		.sleb128 0
 8235 22be 00       		.byte	0
 8236 22bf 00       		.byte	0
 8237 22c0 2C       		.uleb128 0x2c
 8238 22c1 A22D0000 		.4byte	.LASF615
 8239 22c5 01       		.byte	0x1
 8240 22c6 C103     		.2byte	0x3c1
 8241 22c8 00000000 		.4byte	.LFB376
 8242 22cc D0000000 		.4byte	.LFE376-.LFB376
 8243 22d0 01       		.uleb128 0x1
 8244 22d1 9C       		.byte	0x9c
 8245 22d2 F7240000 		.4byte	0x24f7
 8246 22d6 26       		.uleb128 0x26
 8247 22d7 9B190000 		.4byte	.LASF601
 8248 22db 01       		.byte	0x1
 8249 22dc C103     		.2byte	0x3c1
 8250 22de 77180000 		.4byte	0x1877
 8251 22e2 EC020000 		.4byte	.LLST27
 8252 22e6 27       		.uleb128 0x27
 8253 22e7 65787400 		.ascii	"ext\000"
 8254 22eb 01       		.byte	0x1
 8255 22ec C303     		.2byte	0x3c3
 8256 22ee DB1E0000 		.4byte	0x1edb
 8257 22f2 18030000 		.4byte	.LLST28
 8258 22f6 28       		.uleb128 0x28
 8259 22f7 C41B0000 		.4byte	.LASF616
ARM GAS  C:\Users\strap\AppData\Local\Temp\ccTzHSZB.s 			page 189


 8260 22fb 01       		.byte	0x1
 8261 22fc C403     		.2byte	0x3c4
 8262 22fe 1B010000 		.4byte	0x11b
 8263 2302 62030000 		.4byte	.LLST29
 8264 2306 28       		.uleb128 0x28
 8265 2307 911B0000 		.4byte	.LASF617
 8266 230b 01       		.byte	0x1
 8267 230c C503     		.2byte	0x3c5
 8268 230e 1B010000 		.4byte	0x11b
 8269 2312 8B030000 		.4byte	.LLST30
 8270 2316 2D       		.uleb128 0x2d
 8271 2317 5A060000 		.4byte	.LASF618
 8272 231b 01       		.byte	0x1
 8273 231c DC03     		.2byte	0x3dc
 8274 231e DB080000 		.4byte	0x8db
 8275 2322 2D       		.uleb128 0x2d
 8276 2323 142E0000 		.4byte	.LASF619
 8277 2327 01       		.byte	0x1
 8278 2328 DD03     		.2byte	0x3dd
 8279 232a DB080000 		.4byte	0x8db
 8280 232e 28       		.uleb128 0x28
 8281 232f 6A1C0000 		.4byte	.LASF620
 8282 2333 01       		.byte	0x1
 8283 2334 DF03     		.2byte	0x3df
 8284 2336 77180000 		.4byte	0x1877
 8285 233a BF030000 		.4byte	.LLST31
 8286 233e 28       		.uleb128 0x28
 8287 233f 2E100000 		.4byte	.LASF621
 8288 2343 01       		.byte	0x1
 8289 2344 E003     		.2byte	0x3e0
 8290 2346 77180000 		.4byte	0x1877
 8291 234a DD030000 		.4byte	.LLST32
 8292 234e 2E       		.uleb128 0x2e
 8293 234f E51B0000 		.4byte	0x1be5
 8294 2353 72000000 		.4byte	.LBB105
 8295 2357 0C000000 		.4byte	.LBE105-.LBB105
 8296 235b 01       		.byte	0x1
 8297 235c DC03     		.2byte	0x3dc
 8298 235e 90230000 		.4byte	0x2390
 8299 2362 2F       		.uleb128 0x2f
 8300 2363 001C0000 		.4byte	0x1c00
 8301 2367 06040000 		.4byte	.LLST33
 8302 236b 2F       		.uleb128 0x2f
 8303 236c F51B0000 		.4byte	0x1bf5
 8304 2370 1B040000 		.4byte	.LLST34
 8305 2374 2B       		.uleb128 0x2b
 8306 2375 7C000000 		.4byte	.LVL80
 8307 2379 B3460000 		.4byte	0x46b3
 8308 237d 2A       		.uleb128 0x2a
 8309 237e 01       		.uleb128 0x1
 8310 237f 50       		.byte	0x50
 8311 2380 02       		.uleb128 0x2
 8312 2381 76       		.byte	0x76
 8313 2382 00       		.sleb128 0
 8314 2383 2A       		.uleb128 0x2a
 8315 2384 01       		.uleb128 0x1
 8316 2385 51       		.byte	0x51
ARM GAS  C:\Users\strap\AppData\Local\Temp\ccTzHSZB.s 			page 190


 8317 2386 02       		.uleb128 0x2
 8318 2387 08       		.byte	0x8
 8319 2388 40       		.byte	0x40
 8320 2389 2A       		.uleb128 0x2a
 8321 238a 01       		.uleb128 0x1
 8322 238b 52       		.byte	0x52
 8323 238c 01       		.uleb128 0x1
 8324 238d 40       		.byte	0x40
 8325 238e 00       		.byte	0
 8326 238f 00       		.byte	0
 8327 2390 2E       		.uleb128 0x2e
 8328 2391 BE1B0000 		.4byte	0x1bbe
 8329 2395 7E000000 		.4byte	.LBB107
 8330 2399 0A000000 		.4byte	.LBE107-.LBB107
 8331 239d 01       		.byte	0x1
 8332 239e DD03     		.2byte	0x3dd
 8333 23a0 D2230000 		.4byte	0x23d2
 8334 23a4 2F       		.uleb128 0x2f
 8335 23a5 D91B0000 		.4byte	0x1bd9
 8336 23a9 2E040000 		.4byte	.LLST35
 8337 23ad 2F       		.uleb128 0x2f
 8338 23ae CE1B0000 		.4byte	0x1bce
 8339 23b2 43040000 		.4byte	.LLST36
 8340 23b6 2B       		.uleb128 0x2b
 8341 23b7 88000000 		.4byte	.LVL82
 8342 23bb B3460000 		.4byte	0x46b3
 8343 23bf 2A       		.uleb128 0x2a
 8344 23c0 01       		.uleb128 0x1
 8345 23c1 50       		.byte	0x50
 8346 23c2 02       		.uleb128 0x2
 8347 23c3 76       		.byte	0x76
 8348 23c4 00       		.sleb128 0
 8349 23c5 2A       		.uleb128 0x2a
 8350 23c6 01       		.uleb128 0x1
 8351 23c7 51       		.byte	0x51
 8352 23c8 02       		.uleb128 0x2
 8353 23c9 08       		.byte	0x8
 8354 23ca 40       		.byte	0x40
 8355 23cb 2A       		.uleb128 0x2a
 8356 23cc 01       		.uleb128 0x1
 8357 23cd 52       		.byte	0x52
 8358 23ce 01       		.uleb128 0x1
 8359 23cf 41       		.byte	0x41
 8360 23d0 00       		.byte	0
 8361 23d1 00       		.byte	0
 8362 23d2 29       		.uleb128 0x29
 8363 23d3 0A000000 		.4byte	.LVL58
 8364 23d7 9B460000 		.4byte	0x469b
 8365 23db E6230000 		.4byte	0x23e6
 8366 23df 2A       		.uleb128 0x2a
 8367 23e0 01       		.uleb128 0x1
 8368 23e1 50       		.byte	0x50
 8369 23e2 02       		.uleb128 0x2
 8370 23e3 76       		.byte	0x76
 8371 23e4 00       		.sleb128 0
 8372 23e5 00       		.byte	0
 8373 23e6 29       		.uleb128 0x29
ARM GAS  C:\Users\strap\AppData\Local\Temp\ccTzHSZB.s 			page 191


 8374 23e7 26000000 		.4byte	.LVL61
 8375 23eb D7460000 		.4byte	0x46d7
 8376 23ef FA230000 		.4byte	0x23fa
 8377 23f3 2A       		.uleb128 0x2a
 8378 23f4 01       		.uleb128 0x1
 8379 23f5 50       		.byte	0x50
 8380 23f6 02       		.uleb128 0x2
 8381 23f7 76       		.byte	0x76
 8382 23f8 00       		.sleb128 0
 8383 23f9 00       		.byte	0
 8384 23fa 29       		.uleb128 0x29
 8385 23fb 2E000000 		.4byte	.LVL63
 8386 23ff EE460000 		.4byte	0x46ee
 8387 2403 0E240000 		.4byte	0x240e
 8388 2407 2A       		.uleb128 0x2a
 8389 2408 01       		.uleb128 0x1
 8390 2409 50       		.byte	0x50
 8391 240a 02       		.uleb128 0x2
 8392 240b 76       		.byte	0x76
 8393 240c 00       		.sleb128 0
 8394 240d 00       		.byte	0
 8395 240e 29       		.uleb128 0x29
 8396 240f 38000000 		.4byte	.LVL67
 8397 2413 D7460000 		.4byte	0x46d7
 8398 2417 22240000 		.4byte	0x2422
 8399 241b 2A       		.uleb128 0x2a
 8400 241c 01       		.uleb128 0x1
 8401 241d 50       		.byte	0x50
 8402 241e 02       		.uleb128 0x2
 8403 241f 76       		.byte	0x76
 8404 2420 00       		.sleb128 0
 8405 2421 00       		.byte	0
 8406 2422 29       		.uleb128 0x29
 8407 2423 40000000 		.4byte	.LVL69
 8408 2427 EE460000 		.4byte	0x46ee
 8409 242b 36240000 		.4byte	0x2436
 8410 242f 2A       		.uleb128 0x2a
 8411 2430 01       		.uleb128 0x1
 8412 2431 50       		.byte	0x50
 8413 2432 02       		.uleb128 0x2
 8414 2433 76       		.byte	0x76
 8415 2434 00       		.sleb128 0
 8416 2435 00       		.byte	0
 8417 2436 30       		.uleb128 0x30
 8418 2437 48000000 		.4byte	.LVL70
 8419 243b EE460000 		.4byte	0x46ee
 8420 243f 29       		.uleb128 0x29
 8421 2440 54000000 		.4byte	.LVL74
 8422 2444 D7460000 		.4byte	0x46d7
 8423 2448 53240000 		.4byte	0x2453
 8424 244c 2A       		.uleb128 0x2a
 8425 244d 01       		.uleb128 0x1
 8426 244e 50       		.byte	0x50
 8427 244f 02       		.uleb128 0x2
 8428 2450 76       		.byte	0x76
 8429 2451 00       		.sleb128 0
 8430 2452 00       		.byte	0
ARM GAS  C:\Users\strap\AppData\Local\Temp\ccTzHSZB.s 			page 192


 8431 2453 30       		.uleb128 0x30
 8432 2454 5C000000 		.4byte	.LVL75
 8433 2458 D7460000 		.4byte	0x46d7
 8434 245c 29       		.uleb128 0x29
 8435 245d 66000000 		.4byte	.LVL77
 8436 2461 EE460000 		.4byte	0x46ee
 8437 2465 70240000 		.4byte	0x2470
 8438 2469 2A       		.uleb128 0x2a
 8439 246a 01       		.uleb128 0x1
 8440 246b 50       		.byte	0x50
 8441 246c 02       		.uleb128 0x2
 8442 246d 76       		.byte	0x76
 8443 246e 00       		.sleb128 0
 8444 246f 00       		.byte	0
 8445 2470 29       		.uleb128 0x29
 8446 2471 72000000 		.4byte	.LVL79
 8447 2475 FA460000 		.4byte	0x46fa
 8448 2479 8A240000 		.4byte	0x248a
 8449 247d 2A       		.uleb128 0x2a
 8450 247e 01       		.uleb128 0x1
 8451 247f 51       		.byte	0x51
 8452 2480 02       		.uleb128 0x2
 8453 2481 77       		.byte	0x77
 8454 2482 00       		.sleb128 0
 8455 2483 2A       		.uleb128 0x2a
 8456 2484 01       		.uleb128 0x1
 8457 2485 52       		.byte	0x52
 8458 2486 02       		.uleb128 0x2
 8459 2487 74       		.byte	0x74
 8460 2488 00       		.sleb128 0
 8461 2489 00       		.byte	0
 8462 248a 30       		.uleb128 0x30
 8463 248b 94000000 		.4byte	.LVL85
 8464 248f 06470000 		.4byte	0x4706
 8465 2493 29       		.uleb128 0x29
 8466 2494 9C000000 		.4byte	.LVL87
 8467 2498 11470000 		.4byte	0x4711
 8468 249c AC240000 		.4byte	0x24ac
 8469 24a0 2A       		.uleb128 0x2a
 8470 24a1 01       		.uleb128 0x1
 8471 24a2 50       		.byte	0x50
 8472 24a3 02       		.uleb128 0x2
 8473 24a4 75       		.byte	0x75
 8474 24a5 00       		.sleb128 0
 8475 24a6 2A       		.uleb128 0x2a
 8476 24a7 01       		.uleb128 0x1
 8477 24a8 51       		.byte	0x51
 8478 24a9 01       		.uleb128 0x1
 8479 24aa 30       		.byte	0x30
 8480 24ab 00       		.byte	0
 8481 24ac 29       		.uleb128 0x29
 8482 24ad A6000000 		.4byte	.LVL90
 8483 24b1 1D470000 		.4byte	0x471d
 8484 24b5 C0240000 		.4byte	0x24c0
 8485 24b9 2A       		.uleb128 0x2a
 8486 24ba 01       		.uleb128 0x1
 8487 24bb 50       		.byte	0x50
ARM GAS  C:\Users\strap\AppData\Local\Temp\ccTzHSZB.s 			page 193


 8488 24bc 02       		.uleb128 0x2
 8489 24bd 74       		.byte	0x74
 8490 24be 00       		.sleb128 0
 8491 24bf 00       		.byte	0
 8492 24c0 29       		.uleb128 0x29
 8493 24c1 B8000000 		.4byte	.LVL91
 8494 24c5 FA460000 		.4byte	0x46fa
 8495 24c9 E0240000 		.4byte	0x24e0
 8496 24cd 2A       		.uleb128 0x2a
 8497 24ce 01       		.uleb128 0x1
 8498 24cf 50       		.byte	0x50
 8499 24d0 02       		.uleb128 0x2
 8500 24d1 74       		.byte	0x74
 8501 24d2 00       		.sleb128 0
 8502 24d3 2A       		.uleb128 0x2a
 8503 24d4 01       		.uleb128 0x1
 8504 24d5 51       		.byte	0x51
 8505 24d6 02       		.uleb128 0x2
 8506 24d7 77       		.byte	0x77
 8507 24d8 00       		.sleb128 0
 8508 24d9 2A       		.uleb128 0x2a
 8509 24da 01       		.uleb128 0x1
 8510 24db 52       		.byte	0x52
 8511 24dc 02       		.uleb128 0x2
 8512 24dd 76       		.byte	0x76
 8513 24de 00       		.sleb128 0
 8514 24df 00       		.byte	0
 8515 24e0 2B       		.uleb128 0x2b
 8516 24e1 C0000000 		.4byte	.LVL92
 8517 24e5 11470000 		.4byte	0x4711
 8518 24e9 2A       		.uleb128 0x2a
 8519 24ea 01       		.uleb128 0x1
 8520 24eb 50       		.byte	0x50
 8521 24ec 02       		.uleb128 0x2
 8522 24ed 75       		.byte	0x75
 8523 24ee 00       		.sleb128 0
 8524 24ef 2A       		.uleb128 0x2a
 8525 24f0 01       		.uleb128 0x1
 8526 24f1 51       		.byte	0x51
 8527 24f2 02       		.uleb128 0x2
 8528 24f3 74       		.byte	0x74
 8529 24f4 00       		.sleb128 0
 8530 24f5 00       		.byte	0
 8531 24f6 00       		.byte	0
 8532 24f7 2C       		.uleb128 0x2c
 8533 24f8 E12A0000 		.4byte	.LASF622
 8534 24fc 01       		.byte	0x1
 8535 24fd 6203     		.2byte	0x362
 8536 24ff 00000000 		.4byte	.LFB374
 8537 2503 9A000000 		.4byte	.LFE374-.LFB374
 8538 2507 01       		.uleb128 0x1
 8539 2508 9C       		.byte	0x9c
 8540 2509 62260000 		.4byte	0x2662
 8541 250d 26       		.uleb128 0x26
 8542 250e 9B190000 		.4byte	.LASF601
 8543 2512 01       		.byte	0x1
 8544 2513 6203     		.2byte	0x362
ARM GAS  C:\Users\strap\AppData\Local\Temp\ccTzHSZB.s 			page 194


 8545 2515 77180000 		.4byte	0x1877
 8546 2519 56040000 		.4byte	.LLST37
 8547 251d 27       		.uleb128 0x27
 8548 251e 65787400 		.ascii	"ext\000"
 8549 2522 01       		.byte	0x1
 8550 2523 6403     		.2byte	0x364
 8551 2525 DB1E0000 		.4byte	0x1edb
 8552 2529 E6040000 		.4byte	.LLST38
 8553 252d 28       		.uleb128 0x28
 8554 252e AD050000 		.4byte	.LASF623
 8555 2532 01       		.byte	0x1
 8556 2533 6503     		.2byte	0x365
 8557 2535 62260000 		.4byte	0x2662
 8558 2539 04050000 		.4byte	.LLST39
 8559 253d 2D       		.uleb128 0x2d
 8560 253e F8000000 		.4byte	.LASF624
 8561 2542 01       		.byte	0x1
 8562 2543 6703     		.2byte	0x367
 8563 2545 1B010000 		.4byte	0x11b
 8564 2549 28       		.uleb128 0x28
 8565 254a FB210000 		.4byte	.LASF625
 8566 254e 01       		.byte	0x1
 8567 254f 6A03     		.2byte	0x36a
 8568 2551 1B010000 		.4byte	0x11b
 8569 2555 22050000 		.4byte	.LLST40
 8570 2559 28       		.uleb128 0x28
 8571 255a 25200000 		.4byte	.LASF626
 8572 255e 01       		.byte	0x1
 8573 255f 6B03     		.2byte	0x36b
 8574 2561 1B010000 		.4byte	0x11b
 8575 2565 4C050000 		.4byte	.LLST41
 8576 2569 2E       		.uleb128 0x2e
 8577 256a 761C0000 		.4byte	0x1c76
 8578 256e 12000000 		.4byte	.LBB109
 8579 2572 0C000000 		.4byte	.LBE109-.LBB109
 8580 2576 01       		.byte	0x1
 8581 2577 6703     		.2byte	0x367
 8582 2579 AB250000 		.4byte	0x25ab
 8583 257d 2F       		.uleb128 0x2f
 8584 257e 911C0000 		.4byte	0x1c91
 8585 2582 76050000 		.4byte	.LLST42
 8586 2586 2F       		.uleb128 0x2f
 8587 2587 861C0000 		.4byte	0x1c86
 8588 258b 8B050000 		.4byte	.LLST43
 8589 258f 2B       		.uleb128 0x2b
 8590 2590 1C000000 		.4byte	.LVL102
 8591 2594 B3460000 		.4byte	0x46b3
 8592 2598 2A       		.uleb128 0x2a
 8593 2599 01       		.uleb128 0x1
 8594 259a 50       		.byte	0x50
 8595 259b 02       		.uleb128 0x2
 8596 259c 75       		.byte	0x75
 8597 259d 00       		.sleb128 0
 8598 259e 2A       		.uleb128 0x2a
 8599 259f 01       		.uleb128 0x1
 8600 25a0 51       		.byte	0x51
 8601 25a1 02       		.uleb128 0x2
ARM GAS  C:\Users\strap\AppData\Local\Temp\ccTzHSZB.s 			page 195


 8602 25a2 08       		.byte	0x8
 8603 25a3 43       		.byte	0x43
 8604 25a4 2A       		.uleb128 0x2a
 8605 25a5 01       		.uleb128 0x1
 8606 25a6 52       		.byte	0x52
 8607 25a7 01       		.uleb128 0x1
 8608 25a8 33       		.byte	0x33
 8609 25a9 00       		.byte	0
 8610 25aa 00       		.byte	0
 8611 25ab 2E       		.uleb128 0x2e
 8612 25ac 9D1C0000 		.4byte	0x1c9d
 8613 25b0 4E000000 		.4byte	.LBB111
 8614 25b4 0C000000 		.4byte	.LBE111-.LBB111
 8615 25b8 01       		.byte	0x1
 8616 25b9 7903     		.2byte	0x379
 8617 25bb C9250000 		.4byte	0x25c9
 8618 25bf 2F       		.uleb128 0x2f
 8619 25c0 AD1C0000 		.4byte	0x1cad
 8620 25c4 9E050000 		.4byte	.LLST44
 8621 25c8 00       		.byte	0
 8622 25c9 2E       		.uleb128 0x2e
 8623 25ca B91C0000 		.4byte	0x1cb9
 8624 25ce 6E000000 		.4byte	.LBB113
 8625 25d2 0E000000 		.4byte	.LBE113-.LBB113
 8626 25d6 01       		.byte	0x1
 8627 25d7 8503     		.2byte	0x385
 8628 25d9 E7250000 		.4byte	0x25e7
 8629 25dd 2F       		.uleb128 0x2f
 8630 25de C91C0000 		.4byte	0x1cc9
 8631 25e2 BD050000 		.4byte	.LLST45
 8632 25e6 00       		.byte	0
 8633 25e7 29       		.uleb128 0x29
 8634 25e8 08000000 		.4byte	.LVL96
 8635 25ec 9B460000 		.4byte	0x469b
 8636 25f0 FB250000 		.4byte	0x25fb
 8637 25f4 2A       		.uleb128 0x2a
 8638 25f5 01       		.uleb128 0x1
 8639 25f6 50       		.byte	0x50
 8640 25f7 02       		.uleb128 0x2
 8641 25f8 75       		.byte	0x75
 8642 25f9 00       		.sleb128 0
 8643 25fa 00       		.byte	0
 8644 25fb 30       		.uleb128 0x30
 8645 25fc 10000000 		.4byte	.LVL99
 8646 2600 9B460000 		.4byte	0x469b
 8647 2604 29       		.uleb128 0x29
 8648 2605 3A000000 		.4byte	.LVL104
 8649 2609 CB460000 		.4byte	0x46cb
 8650 260d 17260000 		.4byte	0x2617
 8651 2611 2A       		.uleb128 0x2a
 8652 2612 01       		.uleb128 0x1
 8653 2613 51       		.byte	0x51
 8654 2614 01       		.uleb128 0x1
 8655 2615 31       		.byte	0x31
 8656 2616 00       		.byte	0
 8657 2617 29       		.uleb128 0x29
 8658 2618 48000000 		.4byte	.LVL107
ARM GAS  C:\Users\strap\AppData\Local\Temp\ccTzHSZB.s 			page 196


 8659 261c CB460000 		.4byte	0x46cb
 8660 2620 2A260000 		.4byte	0x262a
 8661 2624 2A       		.uleb128 0x2a
 8662 2625 01       		.uleb128 0x1
 8663 2626 51       		.byte	0x51
 8664 2627 01       		.uleb128 0x1
 8665 2628 30       		.byte	0x30
 8666 2629 00       		.byte	0
 8667 262a 29       		.uleb128 0x29
 8668 262b 68000000 		.4byte	.LVL115
 8669 262f CB460000 		.4byte	0x46cb
 8670 2633 3D260000 		.4byte	0x263d
 8671 2637 2A       		.uleb128 0x2a
 8672 2638 01       		.uleb128 0x1
 8673 2639 51       		.byte	0x51
 8674 263a 01       		.uleb128 0x1
 8675 263b 30       		.byte	0x30
 8676 263c 00       		.byte	0
 8677 263d 29       		.uleb128 0x29
 8678 263e 90000000 		.4byte	.LVL125
 8679 2642 29470000 		.4byte	0x4729
 8680 2646 51260000 		.4byte	0x2651
 8681 264a 2A       		.uleb128 0x2a
 8682 264b 01       		.uleb128 0x1
 8683 264c 51       		.byte	0x51
 8684 264d 02       		.uleb128 0x2
 8685 264e 76       		.byte	0x76
 8686 264f 00       		.sleb128 0
 8687 2650 00       		.byte	0
 8688 2651 2B       		.uleb128 0x2b
 8689 2652 98000000 		.4byte	.LVL126
 8690 2656 35470000 		.4byte	0x4735
 8691 265a 2A       		.uleb128 0x2a
 8692 265b 01       		.uleb128 0x1
 8693 265c 51       		.byte	0x51
 8694 265d 02       		.uleb128 0x2
 8695 265e 75       		.byte	0x75
 8696 265f 00       		.sleb128 0
 8697 2660 00       		.byte	0
 8698 2661 00       		.byte	0
 8699 2662 07       		.uleb128 0x7
 8700 2663 04       		.byte	0x4
 8701 2664 AE1A0000 		.4byte	0x1aae
 8702 2668 2C       		.uleb128 0x2c
 8703 2669 0A1B0000 		.4byte	.LASF627
 8704 266d 01       		.byte	0x1
 8705 266e EA03     		.2byte	0x3ea
 8706 2670 00000000 		.4byte	.LFB377
 8707 2674 F2000000 		.4byte	.LFE377-.LFB377
 8708 2678 01       		.uleb128 0x1
 8709 2679 9C       		.byte	0x9c
 8710 267a 7F280000 		.4byte	0x287f
 8711 267e 26       		.uleb128 0x26
 8712 267f 9B190000 		.4byte	.LASF601
 8713 2683 01       		.byte	0x1
 8714 2684 EA03     		.2byte	0x3ea
 8715 2686 77180000 		.4byte	0x1877
ARM GAS  C:\Users\strap\AppData\Local\Temp\ccTzHSZB.s 			page 197


 8716 268a D0050000 		.4byte	.LLST46
 8717 268e 27       		.uleb128 0x27
 8718 268f 65787400 		.ascii	"ext\000"
 8719 2693 01       		.byte	0x1
 8720 2694 EC03     		.2byte	0x3ec
 8721 2696 DB1E0000 		.4byte	0x1edb
 8722 269a EE050000 		.4byte	.LLST47
 8723 269e 29       		.uleb128 0x29
 8724 269f 0A000000 		.4byte	.LVL128
 8725 26a3 9B460000 		.4byte	0x469b
 8726 26a7 B2260000 		.4byte	0x26b2
 8727 26ab 2A       		.uleb128 0x2a
 8728 26ac 01       		.uleb128 0x1
 8729 26ad 50       		.byte	0x50
 8730 26ae 02       		.uleb128 0x2
 8731 26af 76       		.byte	0x76
 8732 26b0 00       		.sleb128 0
 8733 26b1 00       		.byte	0
 8734 26b2 29       		.uleb128 0x29
 8735 26b3 2E000000 		.4byte	.LVL131
 8736 26b7 41470000 		.4byte	0x4741
 8737 26bb D5260000 		.4byte	0x26d5
 8738 26bf 2A       		.uleb128 0x2a
 8739 26c0 01       		.uleb128 0x1
 8740 26c1 51       		.byte	0x51
 8741 26c2 01       		.uleb128 0x1
 8742 26c3 30       		.byte	0x30
 8743 26c4 2A       		.uleb128 0x2a
 8744 26c5 01       		.uleb128 0x1
 8745 26c6 52       		.byte	0x52
 8746 26c7 01       		.uleb128 0x1
 8747 26c8 31       		.byte	0x31
 8748 26c9 2A       		.uleb128 0x2a
 8749 26ca 01       		.uleb128 0x1
 8750 26cb 53       		.byte	0x53
 8751 26cc 01       		.uleb128 0x1
 8752 26cd 30       		.byte	0x30
 8753 26ce 2A       		.uleb128 0x2a
 8754 26cf 02       		.uleb128 0x2
 8755 26d0 7D       		.byte	0x7d
 8756 26d1 00       		.sleb128 0
 8757 26d2 01       		.uleb128 0x1
 8758 26d3 30       		.byte	0x30
 8759 26d4 00       		.byte	0
 8760 26d5 29       		.uleb128 0x29
 8761 26d6 40000000 		.4byte	.LVL134
 8762 26da 41470000 		.4byte	0x4741
 8763 26de FB260000 		.4byte	0x26fb
 8764 26e2 2A       		.uleb128 0x2a
 8765 26e3 01       		.uleb128 0x1
 8766 26e4 51       		.byte	0x51
 8767 26e5 02       		.uleb128 0x2
 8768 26e6 75       		.byte	0x75
 8769 26e7 00       		.sleb128 0
 8770 26e8 2A       		.uleb128 0x2a
 8771 26e9 01       		.uleb128 0x1
 8772 26ea 52       		.byte	0x52
ARM GAS  C:\Users\strap\AppData\Local\Temp\ccTzHSZB.s 			page 198


 8773 26eb 01       		.uleb128 0x1
 8774 26ec 31       		.byte	0x31
 8775 26ed 2A       		.uleb128 0x2a
 8776 26ee 01       		.uleb128 0x1
 8777 26ef 53       		.byte	0x53
 8778 26f0 02       		.uleb128 0x2
 8779 26f1 75       		.byte	0x75
 8780 26f2 00       		.sleb128 0
 8781 26f3 2A       		.uleb128 0x2a
 8782 26f4 02       		.uleb128 0x2
 8783 26f5 7D       		.byte	0x7d
 8784 26f6 00       		.sleb128 0
 8785 26f7 02       		.uleb128 0x2
 8786 26f8 75       		.byte	0x75
 8787 26f9 00       		.sleb128 0
 8788 26fa 00       		.byte	0
 8789 26fb 29       		.uleb128 0x29
 8790 26fc 4E000000 		.4byte	.LVL135
 8791 2700 41470000 		.4byte	0x4741
 8792 2704 1B270000 		.4byte	0x271b
 8793 2708 2A       		.uleb128 0x2a
 8794 2709 01       		.uleb128 0x1
 8795 270a 52       		.byte	0x52
 8796 270b 01       		.uleb128 0x1
 8797 270c 3C       		.byte	0x3c
 8798 270d 2A       		.uleb128 0x2a
 8799 270e 01       		.uleb128 0x1
 8800 270f 53       		.byte	0x53
 8801 2710 02       		.uleb128 0x2
 8802 2711 75       		.byte	0x75
 8803 2712 00       		.sleb128 0
 8804 2713 2A       		.uleb128 0x2a
 8805 2714 02       		.uleb128 0x2
 8806 2715 7D       		.byte	0x7d
 8807 2716 00       		.sleb128 0
 8808 2717 02       		.uleb128 0x2
 8809 2718 75       		.byte	0x75
 8810 2719 00       		.sleb128 0
 8811 271a 00       		.byte	0
 8812 271b 29       		.uleb128 0x29
 8813 271c 5C000000 		.4byte	.LVL136
 8814 2720 41470000 		.4byte	0x4741
 8815 2724 3B270000 		.4byte	0x273b
 8816 2728 2A       		.uleb128 0x2a
 8817 2729 01       		.uleb128 0x1
 8818 272a 52       		.byte	0x52
 8819 272b 01       		.uleb128 0x1
 8820 272c 34       		.byte	0x34
 8821 272d 2A       		.uleb128 0x2a
 8822 272e 01       		.uleb128 0x1
 8823 272f 53       		.byte	0x53
 8824 2730 02       		.uleb128 0x2
 8825 2731 75       		.byte	0x75
 8826 2732 00       		.sleb128 0
 8827 2733 2A       		.uleb128 0x2a
 8828 2734 02       		.uleb128 0x2
 8829 2735 7D       		.byte	0x7d
ARM GAS  C:\Users\strap\AppData\Local\Temp\ccTzHSZB.s 			page 199


 8830 2736 00       		.sleb128 0
 8831 2737 02       		.uleb128 0x2
 8832 2738 75       		.byte	0x75
 8833 2739 00       		.sleb128 0
 8834 273a 00       		.byte	0
 8835 273b 29       		.uleb128 0x29
 8836 273c 6E000000 		.4byte	.LVL139
 8837 2740 41470000 		.4byte	0x4741
 8838 2744 61270000 		.4byte	0x2761
 8839 2748 2A       		.uleb128 0x2a
 8840 2749 01       		.uleb128 0x1
 8841 274a 51       		.byte	0x51
 8842 274b 02       		.uleb128 0x2
 8843 274c 75       		.byte	0x75
 8844 274d 00       		.sleb128 0
 8845 274e 2A       		.uleb128 0x2a
 8846 274f 01       		.uleb128 0x1
 8847 2750 52       		.byte	0x52
 8848 2751 01       		.uleb128 0x1
 8849 2752 31       		.byte	0x31
 8850 2753 2A       		.uleb128 0x2a
 8851 2754 01       		.uleb128 0x1
 8852 2755 53       		.byte	0x53
 8853 2756 02       		.uleb128 0x2
 8854 2757 75       		.byte	0x75
 8855 2758 00       		.sleb128 0
 8856 2759 2A       		.uleb128 0x2a
 8857 275a 02       		.uleb128 0x2
 8858 275b 7D       		.byte	0x7d
 8859 275c 00       		.sleb128 0
 8860 275d 02       		.uleb128 0x2
 8861 275e 75       		.byte	0x75
 8862 275f 00       		.sleb128 0
 8863 2760 00       		.byte	0
 8864 2761 29       		.uleb128 0x29
 8865 2762 7C000000 		.4byte	.LVL140
 8866 2766 41470000 		.4byte	0x4741
 8867 276a 81270000 		.4byte	0x2781
 8868 276e 2A       		.uleb128 0x2a
 8869 276f 01       		.uleb128 0x1
 8870 2770 52       		.byte	0x52
 8871 2771 01       		.uleb128 0x1
 8872 2772 3C       		.byte	0x3c
 8873 2773 2A       		.uleb128 0x2a
 8874 2774 01       		.uleb128 0x1
 8875 2775 53       		.byte	0x53
 8876 2776 02       		.uleb128 0x2
 8877 2777 75       		.byte	0x75
 8878 2778 00       		.sleb128 0
 8879 2779 2A       		.uleb128 0x2a
 8880 277a 02       		.uleb128 0x2
 8881 277b 7D       		.byte	0x7d
 8882 277c 00       		.sleb128 0
 8883 277d 02       		.uleb128 0x2
 8884 277e 75       		.byte	0x75
 8885 277f 00       		.sleb128 0
 8886 2780 00       		.byte	0
ARM GAS  C:\Users\strap\AppData\Local\Temp\ccTzHSZB.s 			page 200


 8887 2781 29       		.uleb128 0x29
 8888 2782 8A000000 		.4byte	.LVL141
 8889 2786 41470000 		.4byte	0x4741
 8890 278a A1270000 		.4byte	0x27a1
 8891 278e 2A       		.uleb128 0x2a
 8892 278f 01       		.uleb128 0x1
 8893 2790 52       		.byte	0x52
 8894 2791 01       		.uleb128 0x1
 8895 2792 31       		.byte	0x31
 8896 2793 2A       		.uleb128 0x2a
 8897 2794 01       		.uleb128 0x1
 8898 2795 53       		.byte	0x53
 8899 2796 02       		.uleb128 0x2
 8900 2797 75       		.byte	0x75
 8901 2798 00       		.sleb128 0
 8902 2799 2A       		.uleb128 0x2a
 8903 279a 02       		.uleb128 0x2
 8904 279b 7D       		.byte	0x7d
 8905 279c 00       		.sleb128 0
 8906 279d 02       		.uleb128 0x2
 8907 279e 75       		.byte	0x75
 8908 279f 00       		.sleb128 0
 8909 27a0 00       		.byte	0
 8910 27a1 29       		.uleb128 0x29
 8911 27a2 9C000000 		.4byte	.LVL144
 8912 27a6 41470000 		.4byte	0x4741
 8913 27aa C7270000 		.4byte	0x27c7
 8914 27ae 2A       		.uleb128 0x2a
 8915 27af 01       		.uleb128 0x1
 8916 27b0 51       		.byte	0x51
 8917 27b1 02       		.uleb128 0x2
 8918 27b2 75       		.byte	0x75
 8919 27b3 00       		.sleb128 0
 8920 27b4 2A       		.uleb128 0x2a
 8921 27b5 01       		.uleb128 0x1
 8922 27b6 52       		.byte	0x52
 8923 27b7 01       		.uleb128 0x1
 8924 27b8 31       		.byte	0x31
 8925 27b9 2A       		.uleb128 0x2a
 8926 27ba 01       		.uleb128 0x1
 8927 27bb 53       		.byte	0x53
 8928 27bc 02       		.uleb128 0x2
 8929 27bd 75       		.byte	0x75
 8930 27be 00       		.sleb128 0
 8931 27bf 2A       		.uleb128 0x2a
 8932 27c0 02       		.uleb128 0x2
 8933 27c1 7D       		.byte	0x7d
 8934 27c2 00       		.sleb128 0
 8935 27c3 02       		.uleb128 0x2
 8936 27c4 75       		.byte	0x75
 8937 27c5 00       		.sleb128 0
 8938 27c6 00       		.byte	0
 8939 27c7 30       		.uleb128 0x30
 8940 27c8 A4000000 		.4byte	.LVL145
 8941 27cc D7460000 		.4byte	0x46d7
 8942 27d0 29       		.uleb128 0x29
 8943 27d1 B2000000 		.4byte	.LVL146
ARM GAS  C:\Users\strap\AppData\Local\Temp\ccTzHSZB.s 			page 201


 8944 27d5 41470000 		.4byte	0x4741
 8945 27d9 F6270000 		.4byte	0x27f6
 8946 27dd 2A       		.uleb128 0x2a
 8947 27de 01       		.uleb128 0x1
 8948 27df 50       		.byte	0x50
 8949 27e0 02       		.uleb128 0x2
 8950 27e1 77       		.byte	0x77
 8951 27e2 00       		.sleb128 0
 8952 27e3 2A       		.uleb128 0x2a
 8953 27e4 01       		.uleb128 0x1
 8954 27e5 51       		.byte	0x51
 8955 27e6 02       		.uleb128 0x2
 8956 27e7 76       		.byte	0x76
 8957 27e8 00       		.sleb128 0
 8958 27e9 2A       		.uleb128 0x2a
 8959 27ea 01       		.uleb128 0x1
 8960 27eb 52       		.byte	0x52
 8961 27ec 01       		.uleb128 0x1
 8962 27ed 31       		.byte	0x31
 8963 27ee 2A       		.uleb128 0x2a
 8964 27ef 02       		.uleb128 0x2
 8965 27f0 7D       		.byte	0x7d
 8966 27f1 00       		.sleb128 0
 8967 27f2 02       		.uleb128 0x2
 8968 27f3 75       		.byte	0x75
 8969 27f4 00       		.sleb128 0
 8970 27f5 00       		.byte	0
 8971 27f6 29       		.uleb128 0x29
 8972 27f7 C0000000 		.4byte	.LVL147
 8973 27fb 41470000 		.4byte	0x4741
 8974 27ff 16280000 		.4byte	0x2816
 8975 2803 2A       		.uleb128 0x2a
 8976 2804 01       		.uleb128 0x1
 8977 2805 52       		.byte	0x52
 8978 2806 01       		.uleb128 0x1
 8979 2807 33       		.byte	0x33
 8980 2808 2A       		.uleb128 0x2a
 8981 2809 01       		.uleb128 0x1
 8982 280a 53       		.byte	0x53
 8983 280b 02       		.uleb128 0x2
 8984 280c 75       		.byte	0x75
 8985 280d 00       		.sleb128 0
 8986 280e 2A       		.uleb128 0x2a
 8987 280f 02       		.uleb128 0x2
 8988 2810 7D       		.byte	0x7d
 8989 2811 00       		.sleb128 0
 8990 2812 02       		.uleb128 0x2
 8991 2813 75       		.byte	0x75
 8992 2814 00       		.sleb128 0
 8993 2815 00       		.byte	0
 8994 2816 29       		.uleb128 0x29
 8995 2817 D2000000 		.4byte	.LVL150
 8996 281b 41470000 		.4byte	0x4741
 8997 281f 3C280000 		.4byte	0x283c
 8998 2823 2A       		.uleb128 0x2a
 8999 2824 01       		.uleb128 0x1
 9000 2825 51       		.byte	0x51
ARM GAS  C:\Users\strap\AppData\Local\Temp\ccTzHSZB.s 			page 202


 9001 2826 02       		.uleb128 0x2
 9002 2827 75       		.byte	0x75
 9003 2828 00       		.sleb128 0
 9004 2829 2A       		.uleb128 0x2a
 9005 282a 01       		.uleb128 0x1
 9006 282b 52       		.byte	0x52
 9007 282c 01       		.uleb128 0x1
 9008 282d 33       		.byte	0x33
 9009 282e 2A       		.uleb128 0x2a
 9010 282f 01       		.uleb128 0x1
 9011 2830 53       		.byte	0x53
 9012 2831 02       		.uleb128 0x2
 9013 2832 75       		.byte	0x75
 9014 2833 00       		.sleb128 0
 9015 2834 2A       		.uleb128 0x2a
 9016 2835 02       		.uleb128 0x2
 9017 2836 7D       		.byte	0x7d
 9018 2837 00       		.sleb128 0
 9019 2838 02       		.uleb128 0x2
 9020 2839 75       		.byte	0x75
 9021 283a 00       		.sleb128 0
 9022 283b 00       		.byte	0
 9023 283c 29       		.uleb128 0x29
 9024 283d E0000000 		.4byte	.LVL151
 9025 2841 41470000 		.4byte	0x4741
 9026 2845 62280000 		.4byte	0x2862
 9027 2849 2A       		.uleb128 0x2a
 9028 284a 01       		.uleb128 0x1
 9029 284b 51       		.byte	0x51
 9030 284c 02       		.uleb128 0x2
 9031 284d 76       		.byte	0x76
 9032 284e 00       		.sleb128 0
 9033 284f 2A       		.uleb128 0x2a
 9034 2850 01       		.uleb128 0x1
 9035 2851 52       		.byte	0x52
 9036 2852 01       		.uleb128 0x1
 9037 2853 31       		.byte	0x31
 9038 2854 2A       		.uleb128 0x2a
 9039 2855 01       		.uleb128 0x1
 9040 2856 53       		.byte	0x53
 9041 2857 02       		.uleb128 0x2
 9042 2858 75       		.byte	0x75
 9043 2859 00       		.sleb128 0
 9044 285a 2A       		.uleb128 0x2a
 9045 285b 02       		.uleb128 0x2
 9046 285c 7D       		.byte	0x7d
 9047 285d 00       		.sleb128 0
 9048 285e 02       		.uleb128 0x2
 9049 285f 75       		.byte	0x75
 9050 2860 00       		.sleb128 0
 9051 2861 00       		.byte	0
 9052 2862 2B       		.uleb128 0x2b
 9053 2863 EE000000 		.4byte	.LVL152
 9054 2867 41470000 		.4byte	0x4741
 9055 286b 2A       		.uleb128 0x2a
 9056 286c 01       		.uleb128 0x1
 9057 286d 52       		.byte	0x52
ARM GAS  C:\Users\strap\AppData\Local\Temp\ccTzHSZB.s 			page 203


 9058 286e 01       		.uleb128 0x1
 9059 286f 31       		.byte	0x31
 9060 2870 2A       		.uleb128 0x2a
 9061 2871 01       		.uleb128 0x1
 9062 2872 53       		.byte	0x53
 9063 2873 02       		.uleb128 0x2
 9064 2874 75       		.byte	0x75
 9065 2875 00       		.sleb128 0
 9066 2876 2A       		.uleb128 0x2a
 9067 2877 02       		.uleb128 0x2
 9068 2878 7D       		.byte	0x7d
 9069 2879 00       		.sleb128 0
 9070 287a 02       		.uleb128 0x2
 9071 287b 75       		.byte	0x75
 9072 287c 00       		.sleb128 0
 9073 287d 00       		.byte	0
 9074 287e 00       		.byte	0
 9075 287f 31       		.uleb128 0x31
 9076 2880 D7230000 		.4byte	.LASF629
 9077 2884 01       		.byte	0x1
 9078 2885 2401     		.2byte	0x124
 9079 2887 00000000 		.4byte	.LFB359
 9080 288b 28000000 		.4byte	.LFE359-.LFB359
 9081 288f 01       		.uleb128 0x1
 9082 2890 9C       		.byte	0x9c
 9083 2891 FE280000 		.4byte	0x28fe
 9084 2895 32       		.uleb128 0x32
 9085 2896 74616200 		.ascii	"tab\000"
 9086 289a 01       		.byte	0x1
 9087 289b 2401     		.2byte	0x124
 9088 289d 77180000 		.4byte	0x1877
 9089 28a1 64060000 		.4byte	.LLST48
 9090 28a5 28       		.uleb128 0x28
 9091 28a6 7C0A0000 		.4byte	.LASF628
 9092 28aa 01       		.byte	0x1
 9093 28ab 2801     		.2byte	0x128
 9094 28ad 77180000 		.4byte	0x1877
 9095 28b1 90060000 		.4byte	.LLST49
 9096 28b5 29       		.uleb128 0x29
 9097 28b6 08000000 		.4byte	.LVL154
 9098 28ba 85460000 		.4byte	0x4685
 9099 28be C9280000 		.4byte	0x28c9
 9100 28c2 2A       		.uleb128 0x2a
 9101 28c3 01       		.uleb128 0x1
 9102 28c4 50       		.byte	0x50
 9103 28c5 02       		.uleb128 0x2
 9104 28c6 74       		.byte	0x74
 9105 28c7 00       		.sleb128 0
 9106 28c8 00       		.byte	0
 9107 28c9 29       		.uleb128 0x29
 9108 28ca 14000000 		.4byte	.LVL155
 9109 28ce 90460000 		.4byte	0x4690
 9110 28d2 E0280000 		.4byte	0x28e0
 9111 28d6 2A       		.uleb128 0x2a
 9112 28d7 01       		.uleb128 0x1
 9113 28d8 50       		.byte	0x50
 9114 28d9 05       		.uleb128 0x5
ARM GAS  C:\Users\strap\AppData\Local\Temp\ccTzHSZB.s 			page 204


 9115 28da 03       		.byte	0x3
 9116 28db 00000000 		.4byte	.LC0
 9117 28df 00       		.byte	0
 9118 28e0 29       		.uleb128 0x29
 9119 28e1 1C000000 		.4byte	.LVL156
 9120 28e5 06470000 		.4byte	0x4706
 9121 28e9 F4280000 		.4byte	0x28f4
 9122 28ed 2A       		.uleb128 0x2a
 9123 28ee 01       		.uleb128 0x1
 9124 28ef 50       		.byte	0x50
 9125 28f0 02       		.uleb128 0x2
 9126 28f1 74       		.byte	0x74
 9127 28f2 00       		.sleb128 0
 9128 28f3 00       		.byte	0
 9129 28f4 30       		.uleb128 0x30
 9130 28f5 20000000 		.4byte	.LVL157
 9131 28f9 4D470000 		.4byte	0x474d
 9132 28fd 00       		.byte	0
 9133 28fe 31       		.uleb128 0x31
 9134 28ff 22110000 		.4byte	.LASF630
 9135 2903 01       		.byte	0x1
 9136 2904 BB01     		.2byte	0x1bb
 9137 2906 00000000 		.4byte	.LFB361
 9138 290a 70000000 		.4byte	.LFE361-.LFB361
 9139 290e 01       		.uleb128 0x1
 9140 290f 9C       		.byte	0x9c
 9141 2910 232A0000 		.4byte	0x2a23
 9142 2914 26       		.uleb128 0x26
 9143 2915 9B190000 		.4byte	.LASF601
 9144 2919 01       		.byte	0x1
 9145 291a BB01     		.2byte	0x1bb
 9146 291c 77180000 		.4byte	0x1877
 9147 2920 A3060000 		.4byte	.LLST50
 9148 2924 32       		.uleb128 0x32
 9149 2925 696400   		.ascii	"id\000"
 9150 2928 01       		.byte	0x1
 9151 2929 BB01     		.2byte	0x1bb
 9152 292b E4000000 		.4byte	0xe4
 9153 292f CF060000 		.4byte	.LLST51
 9154 2933 26       		.uleb128 0x26
 9155 2934 330D0000 		.4byte	.LASF631
 9156 2938 01       		.byte	0x1
 9157 2939 BB01     		.2byte	0x1bb
 9158 293b 7C010000 		.4byte	0x17c
 9159 293f F0060000 		.4byte	.LLST52
 9160 2943 27       		.uleb128 0x27
 9161 2944 65787400 		.ascii	"ext\000"
 9162 2948 01       		.byte	0x1
 9163 2949 C001     		.2byte	0x1c0
 9164 294b DB1E0000 		.4byte	0x1edb
 9165 294f 1C070000 		.4byte	.LLST53
 9166 2953 33       		.uleb128 0x33
 9167 2954 28000000 		.4byte	.LBB115
 9168 2958 48000000 		.4byte	.LBE115-.LBB115
 9169 295c E7290000 		.4byte	0x29e7
 9170 2960 27       		.uleb128 0x27
 9171 2961 73747200 		.ascii	"str\000"
ARM GAS  C:\Users\strap\AppData\Local\Temp\ccTzHSZB.s 			page 205


 9172 2965 01       		.byte	0x1
 9173 2966 C501     		.2byte	0x1c5
 9174 2968 7C010000 		.4byte	0x17c
 9175 296c 3A070000 		.4byte	.LLST54
 9176 2970 29       		.uleb128 0x29
 9177 2971 34000000 		.4byte	.LVL165
 9178 2975 59470000 		.4byte	0x4759
 9179 2979 84290000 		.4byte	0x2984
 9180 297d 2A       		.uleb128 0x2a
 9181 297e 01       		.uleb128 0x1
 9182 297f 50       		.byte	0x50
 9183 2980 02       		.uleb128 0x2
 9184 2981 77       		.byte	0x77
 9185 2982 00       		.sleb128 0
 9186 2983 00       		.byte	0
 9187 2984 29       		.uleb128 0x29
 9188 2985 3C000000 		.4byte	.LVL166
 9189 2989 64470000 		.4byte	0x4764
 9190 298d 98290000 		.4byte	0x2998
 9191 2991 2A       		.uleb128 0x2a
 9192 2992 01       		.uleb128 0x1
 9193 2993 50       		.byte	0x50
 9194 2994 02       		.uleb128 0x2
 9195 2995 76       		.byte	0x76
 9196 2996 00       		.sleb128 0
 9197 2997 00       		.byte	0
 9198 2998 29       		.uleb128 0x29
 9199 2999 42000000 		.4byte	.LVL168
 9200 299d 85460000 		.4byte	0x4685
 9201 29a1 AC290000 		.4byte	0x29ac
 9202 29a5 2A       		.uleb128 0x2a
 9203 29a6 01       		.uleb128 0x1
 9204 29a7 50       		.byte	0x50
 9205 29a8 02       		.uleb128 0x2
 9206 29a9 76       		.byte	0x76
 9207 29aa 00       		.sleb128 0
 9208 29ab 00       		.byte	0
 9209 29ac 29       		.uleb128 0x29
 9210 29ad 4E000000 		.4byte	.LVL169
 9211 29b1 90460000 		.4byte	0x4690
 9212 29b5 C3290000 		.4byte	0x29c3
 9213 29b9 2A       		.uleb128 0x2a
 9214 29ba 01       		.uleb128 0x1
 9215 29bb 50       		.byte	0x50
 9216 29bc 05       		.uleb128 0x5
 9217 29bd 03       		.byte	0x3
 9218 29be 10000000 		.4byte	.LC1
 9219 29c2 00       		.byte	0
 9220 29c3 29       		.uleb128 0x29
 9221 29c4 58000000 		.4byte	.LVL170
 9222 29c8 6F470000 		.4byte	0x476f
 9223 29cc DD290000 		.4byte	0x29dd
 9224 29d0 2A       		.uleb128 0x2a
 9225 29d1 01       		.uleb128 0x1
 9226 29d2 50       		.byte	0x50
 9227 29d3 02       		.uleb128 0x2
 9228 29d4 76       		.byte	0x76
ARM GAS  C:\Users\strap\AppData\Local\Temp\ccTzHSZB.s 			page 206


 9229 29d5 00       		.sleb128 0
 9230 29d6 2A       		.uleb128 0x2a
 9231 29d7 01       		.uleb128 0x1
 9232 29d8 51       		.byte	0x51
 9233 29d9 02       		.uleb128 0x2
 9234 29da 77       		.byte	0x77
 9235 29db 00       		.sleb128 0
 9236 29dc 00       		.byte	0
 9237 29dd 30       		.uleb128 0x30
 9238 29de 64000000 		.4byte	.LVL171
 9239 29e2 7A470000 		.4byte	0x477a
 9240 29e6 00       		.byte	0
 9241 29e7 29       		.uleb128 0x29
 9242 29e8 0C000000 		.4byte	.LVL160
 9243 29ec 85460000 		.4byte	0x4685
 9244 29f0 FB290000 		.4byte	0x29fb
 9245 29f4 2A       		.uleb128 0x2a
 9246 29f5 01       		.uleb128 0x1
 9247 29f6 50       		.byte	0x50
 9248 29f7 02       		.uleb128 0x2
 9249 29f8 74       		.byte	0x74
 9250 29f9 00       		.sleb128 0
 9251 29fa 00       		.byte	0
 9252 29fb 29       		.uleb128 0x29
 9253 29fc 18000000 		.4byte	.LVL161
 9254 2a00 90460000 		.4byte	0x4690
 9255 2a04 122A0000 		.4byte	0x2a12
 9256 2a08 2A       		.uleb128 0x2a
 9257 2a09 01       		.uleb128 0x1
 9258 2a0a 50       		.byte	0x50
 9259 2a0b 05       		.uleb128 0x5
 9260 2a0c 03       		.byte	0x3
 9261 2a0d 00000000 		.4byte	.LC0
 9262 2a11 00       		.byte	0
 9263 2a12 2B       		.uleb128 0x2b
 9264 2a13 20000000 		.4byte	.LVL162
 9265 2a17 9B460000 		.4byte	0x469b
 9266 2a1b 2A       		.uleb128 0x2a
 9267 2a1c 01       		.uleb128 0x1
 9268 2a1d 50       		.byte	0x50
 9269 2a1e 02       		.uleb128 0x2
 9270 2a1f 74       		.byte	0x74
 9271 2a20 00       		.sleb128 0
 9272 2a21 00       		.byte	0
 9273 2a22 00       		.byte	0
 9274 2a23 31       		.uleb128 0x31
 9275 2a24 66160000 		.4byte	.LASF632
 9276 2a28 01       		.byte	0x1
 9277 2a29 D701     		.2byte	0x1d7
 9278 2a2b 00000000 		.4byte	.LFB362
 9279 2a2f 28000000 		.4byte	.LFE362-.LFB362
 9280 2a33 01       		.uleb128 0x1
 9281 2a34 9C       		.byte	0x9c
 9282 2a35 A32A0000 		.4byte	0x2aa3
 9283 2a39 26       		.uleb128 0x26
 9284 2a3a 9B190000 		.4byte	.LASF601
 9285 2a3e 01       		.byte	0x1
ARM GAS  C:\Users\strap\AppData\Local\Temp\ccTzHSZB.s 			page 207


 9286 2a3f D701     		.2byte	0x1d7
 9287 2a41 77180000 		.4byte	0x1877
 9288 2a45 58070000 		.4byte	.LLST55
 9289 2a49 26       		.uleb128 0x26
 9290 2a4a 190D0000 		.4byte	.LASF524
 9291 2a4e 01       		.byte	0x1
 9292 2a4f D701     		.2byte	0x1d7
 9293 2a51 E4000000 		.4byte	0xe4
 9294 2a55 84070000 		.4byte	.LLST56
 9295 2a59 34       		.uleb128 0x34
 9296 2a5a 65787400 		.ascii	"ext\000"
 9297 2a5e 01       		.byte	0x1
 9298 2a5f DC01     		.2byte	0x1dc
 9299 2a61 DB1E0000 		.4byte	0x1edb
 9300 2a65 01       		.uleb128 0x1
 9301 2a66 50       		.byte	0x50
 9302 2a67 29       		.uleb128 0x29
 9303 2a68 0A000000 		.4byte	.LVL174
 9304 2a6c 85460000 		.4byte	0x4685
 9305 2a70 7B2A0000 		.4byte	0x2a7b
 9306 2a74 2A       		.uleb128 0x2a
 9307 2a75 01       		.uleb128 0x1
 9308 2a76 50       		.byte	0x50
 9309 2a77 02       		.uleb128 0x2
 9310 2a78 74       		.byte	0x74
 9311 2a79 00       		.sleb128 0
 9312 2a7a 00       		.byte	0
 9313 2a7b 29       		.uleb128 0x29
 9314 2a7c 16000000 		.4byte	.LVL175
 9315 2a80 90460000 		.4byte	0x4690
 9316 2a84 922A0000 		.4byte	0x2a92
 9317 2a88 2A       		.uleb128 0x2a
 9318 2a89 01       		.uleb128 0x1
 9319 2a8a 50       		.byte	0x50
 9320 2a8b 05       		.uleb128 0x5
 9321 2a8c 03       		.byte	0x3
 9322 2a8d 00000000 		.4byte	.LC0
 9323 2a91 00       		.byte	0
 9324 2a92 2B       		.uleb128 0x2b
 9325 2a93 1E000000 		.4byte	.LVL176
 9326 2a97 9B460000 		.4byte	0x469b
 9327 2a9b 2A       		.uleb128 0x2a
 9328 2a9c 01       		.uleb128 0x1
 9329 2a9d 50       		.byte	0x50
 9330 2a9e 02       		.uleb128 0x2
 9331 2a9f 74       		.byte	0x74
 9332 2aa0 00       		.sleb128 0
 9333 2aa1 00       		.byte	0
 9334 2aa2 00       		.byte	0
 9335 2aa3 35       		.uleb128 0x35
 9336 2aa4 7F0C0000 		.4byte	.LASF633
 9337 2aa8 01       		.byte	0x1
 9338 2aa9 0402     		.2byte	0x204
 9339 2aab E4000000 		.4byte	0xe4
 9340 2aaf 00000000 		.4byte	.LFB364
 9341 2ab3 24000000 		.4byte	.LFE364-.LFB364
 9342 2ab7 01       		.uleb128 0x1
ARM GAS  C:\Users\strap\AppData\Local\Temp\ccTzHSZB.s 			page 208


 9343 2ab8 9C       		.byte	0x9c
 9344 2ab9 192B0000 		.4byte	0x2b19
 9345 2abd 26       		.uleb128 0x26
 9346 2abe 9B190000 		.4byte	.LASF601
 9347 2ac2 01       		.byte	0x1
 9348 2ac3 0402     		.2byte	0x204
 9349 2ac5 B31B0000 		.4byte	0x1bb3
 9350 2ac9 A5070000 		.4byte	.LLST57
 9351 2acd 27       		.uleb128 0x27
 9352 2ace 65787400 		.ascii	"ext\000"
 9353 2ad2 01       		.byte	0x1
 9354 2ad3 0802     		.2byte	0x208
 9355 2ad5 DB1E0000 		.4byte	0x1edb
 9356 2ad9 D1070000 		.4byte	.LLST58
 9357 2add 29       		.uleb128 0x29
 9358 2ade 08000000 		.4byte	.LVL179
 9359 2ae2 85460000 		.4byte	0x4685
 9360 2ae6 F12A0000 		.4byte	0x2af1
 9361 2aea 2A       		.uleb128 0x2a
 9362 2aeb 01       		.uleb128 0x1
 9363 2aec 50       		.byte	0x50
 9364 2aed 02       		.uleb128 0x2
 9365 2aee 74       		.byte	0x74
 9366 2aef 00       		.sleb128 0
 9367 2af0 00       		.byte	0
 9368 2af1 29       		.uleb128 0x29
 9369 2af2 14000000 		.4byte	.LVL180
 9370 2af6 90460000 		.4byte	0x4690
 9371 2afa 082B0000 		.4byte	0x2b08
 9372 2afe 2A       		.uleb128 0x2a
 9373 2aff 01       		.uleb128 0x1
 9374 2b00 50       		.byte	0x50
 9375 2b01 05       		.uleb128 0x5
 9376 2b02 03       		.byte	0x3
 9377 2b03 00000000 		.4byte	.LC0
 9378 2b07 00       		.byte	0
 9379 2b08 2B       		.uleb128 0x2b
 9380 2b09 1C000000 		.4byte	.LVL181
 9381 2b0d 9B460000 		.4byte	0x469b
 9382 2b11 2A       		.uleb128 0x2a
 9383 2b12 01       		.uleb128 0x1
 9384 2b13 50       		.byte	0x50
 9385 2b14 02       		.uleb128 0x2
 9386 2b15 74       		.byte	0x74
 9387 2b16 00       		.sleb128 0
 9388 2b17 00       		.byte	0
 9389 2b18 00       		.byte	0
 9390 2b19 35       		.uleb128 0x35
 9391 2b1a 81030000 		.4byte	.LASF634
 9392 2b1e 01       		.byte	0x1
 9393 2b1f 1102     		.2byte	0x211
 9394 2b21 E4000000 		.4byte	0xe4
 9395 2b25 00000000 		.4byte	.LFB365
 9396 2b29 24000000 		.4byte	.LFE365-.LFB365
 9397 2b2d 01       		.uleb128 0x1
 9398 2b2e 9C       		.byte	0x9c
 9399 2b2f 8F2B0000 		.4byte	0x2b8f
ARM GAS  C:\Users\strap\AppData\Local\Temp\ccTzHSZB.s 			page 209


 9400 2b33 26       		.uleb128 0x26
 9401 2b34 9B190000 		.4byte	.LASF601
 9402 2b38 01       		.byte	0x1
 9403 2b39 1102     		.2byte	0x211
 9404 2b3b B31B0000 		.4byte	0x1bb3
 9405 2b3f E4070000 		.4byte	.LLST59
 9406 2b43 27       		.uleb128 0x27
 9407 2b44 65787400 		.ascii	"ext\000"
 9408 2b48 01       		.byte	0x1
 9409 2b49 1502     		.2byte	0x215
 9410 2b4b DB1E0000 		.4byte	0x1edb
 9411 2b4f 10080000 		.4byte	.LLST60
 9412 2b53 29       		.uleb128 0x29
 9413 2b54 08000000 		.4byte	.LVL185
 9414 2b58 85460000 		.4byte	0x4685
 9415 2b5c 672B0000 		.4byte	0x2b67
 9416 2b60 2A       		.uleb128 0x2a
 9417 2b61 01       		.uleb128 0x1
 9418 2b62 50       		.byte	0x50
 9419 2b63 02       		.uleb128 0x2
 9420 2b64 74       		.byte	0x74
 9421 2b65 00       		.sleb128 0
 9422 2b66 00       		.byte	0
 9423 2b67 29       		.uleb128 0x29
 9424 2b68 14000000 		.4byte	.LVL186
 9425 2b6c 90460000 		.4byte	0x4690
 9426 2b70 7E2B0000 		.4byte	0x2b7e
 9427 2b74 2A       		.uleb128 0x2a
 9428 2b75 01       		.uleb128 0x1
 9429 2b76 50       		.byte	0x50
 9430 2b77 05       		.uleb128 0x5
 9431 2b78 03       		.byte	0x3
 9432 2b79 00000000 		.4byte	.LC0
 9433 2b7d 00       		.byte	0
 9434 2b7e 2B       		.uleb128 0x2b
 9435 2b7f 1C000000 		.4byte	.LVL187
 9436 2b83 9B460000 		.4byte	0x469b
 9437 2b87 2A       		.uleb128 0x2a
 9438 2b88 01       		.uleb128 0x1
 9439 2b89 50       		.byte	0x50
 9440 2b8a 02       		.uleb128 0x2
 9441 2b8b 74       		.byte	0x74
 9442 2b8c 00       		.sleb128 0
 9443 2b8d 00       		.byte	0
 9444 2b8e 00       		.byte	0
 9445 2b8f 35       		.uleb128 0x35
 9446 2b90 9E0D0000 		.4byte	.LASF635
 9447 2b94 01       		.byte	0x1
 9448 2b95 1F02     		.2byte	0x21f
 9449 2b97 77180000 		.4byte	0x1877
 9450 2b9b 00000000 		.4byte	.LFB366
 9451 2b9f 68000000 		.4byte	.LFE366-.LFB366
 9452 2ba3 01       		.uleb128 0x1
 9453 2ba4 9C       		.byte	0x9c
 9454 2ba5 922C0000 		.4byte	0x2c92
 9455 2ba9 26       		.uleb128 0x26
 9456 2baa 9B190000 		.4byte	.LASF601
ARM GAS  C:\Users\strap\AppData\Local\Temp\ccTzHSZB.s 			page 210


 9457 2bae 01       		.byte	0x1
 9458 2baf 1F02     		.2byte	0x21f
 9459 2bb1 B31B0000 		.4byte	0x1bb3
 9460 2bb5 23080000 		.4byte	.LLST61
 9461 2bb9 32       		.uleb128 0x32
 9462 2bba 696400   		.ascii	"id\000"
 9463 2bbd 01       		.byte	0x1
 9464 2bbe 1F02     		.2byte	0x21f
 9465 2bc0 E4000000 		.4byte	0xe4
 9466 2bc4 4F080000 		.4byte	.LLST62
 9467 2bc8 27       		.uleb128 0x27
 9468 2bc9 65787400 		.ascii	"ext\000"
 9469 2bcd 01       		.byte	0x1
 9470 2bce 2302     		.2byte	0x223
 9471 2bd0 DB1E0000 		.4byte	0x1edb
 9472 2bd4 70080000 		.4byte	.LLST63
 9473 2bd8 28       		.uleb128 0x28
 9474 2bd9 6A1C0000 		.4byte	.LASF620
 9475 2bdd 01       		.byte	0x1
 9476 2bde 2402     		.2byte	0x224
 9477 2be0 77180000 		.4byte	0x1877
 9478 2be4 83080000 		.4byte	.LLST64
 9479 2be8 27       		.uleb128 0x27
 9480 2be9 6900     		.ascii	"i\000"
 9481 2beb 01       		.byte	0x1
 9482 2bec 2502     		.2byte	0x225
 9483 2bee E4000000 		.4byte	0xe4
 9484 2bf2 A1080000 		.4byte	.LLST65
 9485 2bf6 28       		.uleb128 0x28
 9486 2bf7 E4090000 		.4byte	.LASF595
 9487 2bfb 01       		.byte	0x1
 9488 2bfc 2602     		.2byte	0x226
 9489 2bfe 77180000 		.4byte	0x1877
 9490 2c02 CB080000 		.4byte	.LLST66
 9491 2c06 29       		.uleb128 0x29
 9492 2c07 0A000000 		.4byte	.LVL191
 9493 2c0b 85460000 		.4byte	0x4685
 9494 2c0f 1A2C0000 		.4byte	0x2c1a
 9495 2c13 2A       		.uleb128 0x2a
 9496 2c14 01       		.uleb128 0x1
 9497 2c15 50       		.byte	0x50
 9498 2c16 02       		.uleb128 0x2
 9499 2c17 74       		.byte	0x74
 9500 2c18 00       		.sleb128 0
 9501 2c19 00       		.byte	0
 9502 2c1a 29       		.uleb128 0x29
 9503 2c1b 16000000 		.4byte	.LVL192
 9504 2c1f 90460000 		.4byte	0x4690
 9505 2c23 312C0000 		.4byte	0x2c31
 9506 2c27 2A       		.uleb128 0x2a
 9507 2c28 01       		.uleb128 0x1
 9508 2c29 50       		.byte	0x50
 9509 2c2a 05       		.uleb128 0x5
 9510 2c2b 03       		.byte	0x3
 9511 2c2c 00000000 		.4byte	.LC0
 9512 2c30 00       		.byte	0
 9513 2c31 29       		.uleb128 0x29
ARM GAS  C:\Users\strap\AppData\Local\Temp\ccTzHSZB.s 			page 211


 9514 2c32 1E000000 		.4byte	.LVL193
 9515 2c36 9B460000 		.4byte	0x469b
 9516 2c3a 452C0000 		.4byte	0x2c45
 9517 2c3e 2A       		.uleb128 0x2a
 9518 2c3f 01       		.uleb128 0x1
 9519 2c40 50       		.byte	0x50
 9520 2c41 02       		.uleb128 0x2
 9521 2c42 74       		.byte	0x74
 9522 2c43 00       		.sleb128 0
 9523 2c44 00       		.byte	0
 9524 2c45 30       		.uleb128 0x30
 9525 2c46 24000000 		.4byte	.LVL195
 9526 2c4a 06470000 		.4byte	0x4706
 9527 2c4e 29       		.uleb128 0x29
 9528 2c4f 2C000000 		.4byte	.LVL197
 9529 2c53 86470000 		.4byte	0x4786
 9530 2c57 672C0000 		.4byte	0x2c67
 9531 2c5b 2A       		.uleb128 0x2a
 9532 2c5c 01       		.uleb128 0x1
 9533 2c5d 50       		.byte	0x50
 9534 2c5e 02       		.uleb128 0x2
 9535 2c5f 77       		.byte	0x77
 9536 2c60 00       		.sleb128 0
 9537 2c61 2A       		.uleb128 0x2a
 9538 2c62 01       		.uleb128 0x1
 9539 2c63 51       		.byte	0x51
 9540 2c64 01       		.uleb128 0x1
 9541 2c65 30       		.byte	0x30
 9542 2c66 00       		.byte	0
 9543 2c67 29       		.uleb128 0x29
 9544 2c68 38000000 		.4byte	.LVL201
 9545 2c6c 1D470000 		.4byte	0x471d
 9546 2c70 7B2C0000 		.4byte	0x2c7b
 9547 2c74 2A       		.uleb128 0x2a
 9548 2c75 01       		.uleb128 0x1
 9549 2c76 50       		.byte	0x50
 9550 2c77 02       		.uleb128 0x2
 9551 2c78 74       		.byte	0x74
 9552 2c79 00       		.sleb128 0
 9553 2c7a 00       		.byte	0
 9554 2c7b 2B       		.uleb128 0x2b
 9555 2c7c 4C000000 		.4byte	.LVL204
 9556 2c80 86470000 		.4byte	0x4786
 9557 2c84 2A       		.uleb128 0x2a
 9558 2c85 01       		.uleb128 0x1
 9559 2c86 50       		.byte	0x50
 9560 2c87 02       		.uleb128 0x2
 9561 2c88 77       		.byte	0x77
 9562 2c89 00       		.sleb128 0
 9563 2c8a 2A       		.uleb128 0x2a
 9564 2c8b 01       		.uleb128 0x1
 9565 2c8c 51       		.byte	0x51
 9566 2c8d 02       		.uleb128 0x2
 9567 2c8e 74       		.byte	0x74
 9568 2c8f 00       		.sleb128 0
 9569 2c90 00       		.byte	0
 9570 2c91 00       		.byte	0
ARM GAS  C:\Users\strap\AppData\Local\Temp\ccTzHSZB.s 			page 212


 9571 2c92 35       		.uleb128 0x35
 9572 2c93 AE060000 		.4byte	.LASF636
 9573 2c97 01       		.byte	0x1
 9574 2c98 3702     		.2byte	0x237
 9575 2c9a E4000000 		.4byte	0xe4
 9576 2c9e 00000000 		.4byte	.LFB367
 9577 2ca2 24000000 		.4byte	.LFE367-.LFB367
 9578 2ca6 01       		.uleb128 0x1
 9579 2ca7 9C       		.byte	0x9c
 9580 2ca8 082D0000 		.4byte	0x2d08
 9581 2cac 26       		.uleb128 0x26
 9582 2cad 9B190000 		.4byte	.LASF601
 9583 2cb1 01       		.byte	0x1
 9584 2cb2 3702     		.2byte	0x237
 9585 2cb4 B31B0000 		.4byte	0x1bb3
 9586 2cb8 20090000 		.4byte	.LLST67
 9587 2cbc 27       		.uleb128 0x27
 9588 2cbd 65787400 		.ascii	"ext\000"
 9589 2cc1 01       		.byte	0x1
 9590 2cc2 3C02     		.2byte	0x23c
 9591 2cc4 DB1E0000 		.4byte	0x1edb
 9592 2cc8 4C090000 		.4byte	.LLST68
 9593 2ccc 29       		.uleb128 0x29
 9594 2ccd 08000000 		.4byte	.LVL211
 9595 2cd1 85460000 		.4byte	0x4685
 9596 2cd5 E02C0000 		.4byte	0x2ce0
 9597 2cd9 2A       		.uleb128 0x2a
 9598 2cda 01       		.uleb128 0x1
 9599 2cdb 50       		.byte	0x50
 9600 2cdc 02       		.uleb128 0x2
 9601 2cdd 74       		.byte	0x74
 9602 2cde 00       		.sleb128 0
 9603 2cdf 00       		.byte	0
 9604 2ce0 29       		.uleb128 0x29
 9605 2ce1 14000000 		.4byte	.LVL212
 9606 2ce5 90460000 		.4byte	0x4690
 9607 2ce9 F72C0000 		.4byte	0x2cf7
 9608 2ced 2A       		.uleb128 0x2a
 9609 2cee 01       		.uleb128 0x1
 9610 2cef 50       		.byte	0x50
 9611 2cf0 05       		.uleb128 0x5
 9612 2cf1 03       		.byte	0x3
 9613 2cf2 00000000 		.4byte	.LC0
 9614 2cf6 00       		.byte	0
 9615 2cf7 2B       		.uleb128 0x2b
 9616 2cf8 1C000000 		.4byte	.LVL213
 9617 2cfc 9B460000 		.4byte	0x469b
 9618 2d00 2A       		.uleb128 0x2a
 9619 2d01 01       		.uleb128 0x1
 9620 2d02 50       		.byte	0x50
 9621 2d03 02       		.uleb128 0x2
 9622 2d04 74       		.byte	0x74
 9623 2d05 00       		.sleb128 0
 9624 2d06 00       		.byte	0
 9625 2d07 00       		.byte	0
 9626 2d08 31       		.uleb128 0x31
 9627 2d09 000F0000 		.4byte	.LASF637
ARM GAS  C:\Users\strap\AppData\Local\Temp\ccTzHSZB.s 			page 213


 9628 2d0d 01       		.byte	0x1
 9629 2d0e 3601     		.2byte	0x136
 9630 2d10 00000000 		.4byte	.LFB360
 9631 2d14 E8010000 		.4byte	.LFE360-.LFB360
 9632 2d18 01       		.uleb128 0x1
 9633 2d19 9C       		.byte	0x9c
 9634 2d1a AB320000 		.4byte	0x32ab
 9635 2d1e 26       		.uleb128 0x26
 9636 2d1f 9B190000 		.4byte	.LASF601
 9637 2d23 01       		.byte	0x1
 9638 2d24 3601     		.2byte	0x136
 9639 2d26 77180000 		.4byte	0x1877
 9640 2d2a 5F090000 		.4byte	.LLST69
 9641 2d2e 32       		.uleb128 0x32
 9642 2d2f 696400   		.ascii	"id\000"
 9643 2d32 01       		.byte	0x1
 9644 2d33 3601     		.2byte	0x136
 9645 2d35 E4000000 		.4byte	0xe4
 9646 2d39 A4090000 		.4byte	.LLST70
 9647 2d3d 26       		.uleb128 0x26
 9648 2d3e 77230000 		.4byte	.LASF638
 9649 2d42 01       		.byte	0x1
 9650 2d43 3601     		.2byte	0x136
 9651 2d45 99040000 		.4byte	0x499
 9652 2d49 DB090000 		.4byte	.LLST71
 9653 2d4d 27       		.uleb128 0x27
 9654 2d4e 65787400 		.ascii	"ext\000"
 9655 2d52 01       		.byte	0x1
 9656 2d53 3D01     		.2byte	0x13d
 9657 2d55 DB1E0000 		.4byte	0x1edb
 9658 2d59 FC090000 		.4byte	.LLST72
 9659 2d5d 28       		.uleb128 0x28
 9660 2d5e 860F0000 		.4byte	.LASF639
 9661 2d62 01       		.byte	0x1
 9662 2d63 4901     		.2byte	0x149
 9663 2d65 1B010000 		.4byte	0x11b
 9664 2d69 1A0A0000 		.4byte	.LLST73
 9665 2d6d 2D       		.uleb128 0x2d
 9666 2d6e 6D0E0000 		.4byte	.LASF640
 9667 2d72 01       		.byte	0x1
 9668 2d73 4A01     		.2byte	0x14a
 9669 2d75 DB080000 		.4byte	0x8db
 9670 2d79 2D       		.uleb128 0x2d
 9671 2d7a 01240000 		.4byte	.LASF641
 9672 2d7e 01       		.byte	0x1
 9673 2d7f 4B01     		.2byte	0x14b
 9674 2d81 DB080000 		.4byte	0x8db
 9675 2d85 28       		.uleb128 0x28
 9676 2d86 F8000000 		.4byte	.LASF624
 9677 2d8a 01       		.byte	0x1
 9678 2d8b 6A01     		.2byte	0x16a
 9679 2d8d 1B010000 		.4byte	0x11b
 9680 2d91 4E0A0000 		.4byte	.LLST74
 9681 2d95 28       		.uleb128 0x28
 9682 2d96 660C0000 		.4byte	.LASF642
 9683 2d9a 01       		.byte	0x1
 9684 2d9b 6B01     		.2byte	0x16b
ARM GAS  C:\Users\strap\AppData\Local\Temp\ccTzHSZB.s 			page 214


 9685 2d9d 1B010000 		.4byte	0x11b
 9686 2da1 6C0A0000 		.4byte	.LLST75
 9687 2da5 28       		.uleb128 0x28
 9688 2da6 8D0F0000 		.4byte	.LASF643
 9689 2daa 01       		.byte	0x1
 9690 2dab 6D01     		.2byte	0x16d
 9691 2dad DB080000 		.4byte	0x8db
 9692 2db1 B90A0000 		.4byte	.LLST76
 9693 2db5 28       		.uleb128 0x28
 9694 2db6 E81C0000 		.4byte	.LASF644
 9695 2dba 01       		.byte	0x1
 9696 2dbb 6E01     		.2byte	0x16e
 9697 2dbd DB080000 		.4byte	0x8db
 9698 2dc1 E50A0000 		.4byte	.LLST77
 9699 2dc5 28       		.uleb128 0x28
 9700 2dc6 AB200000 		.4byte	.LASF645
 9701 2dca 01       		.byte	0x1
 9702 2dcb 6F01     		.2byte	0x16f
 9703 2dcd DB080000 		.4byte	0x8db
 9704 2dd1 050B0000 		.4byte	.LLST78
 9705 2dd5 2E       		.uleb128 0x2e
 9706 2dd6 D51C0000 		.4byte	0x1cd5
 9707 2dda 50000000 		.4byte	.LBB116
 9708 2dde 0C000000 		.4byte	.LBE116-.LBB116
 9709 2de2 01       		.byte	0x1
 9710 2de3 4A01     		.2byte	0x14a
 9711 2de5 112E0000 		.4byte	0x2e11
 9712 2de9 2F       		.uleb128 0x2f
 9713 2dea F01C0000 		.4byte	0x1cf0
 9714 2dee 250B0000 		.4byte	.LLST79
 9715 2df2 2F       		.uleb128 0x2f
 9716 2df3 E51C0000 		.4byte	0x1ce5
 9717 2df7 3A0B0000 		.4byte	.LLST80
 9718 2dfb 2B       		.uleb128 0x2b
 9719 2dfc 5A000000 		.4byte	.LVL227
 9720 2e00 B3460000 		.4byte	0x46b3
 9721 2e04 2A       		.uleb128 0x2a
 9722 2e05 01       		.uleb128 0x1
 9723 2e06 51       		.byte	0x51
 9724 2e07 02       		.uleb128 0x2
 9725 2e08 08       		.byte	0x8
 9726 2e09 40       		.byte	0x40
 9727 2e0a 2A       		.uleb128 0x2a
 9728 2e0b 01       		.uleb128 0x1
 9729 2e0c 52       		.byte	0x52
 9730 2e0d 01       		.uleb128 0x1
 9731 2e0e 44       		.byte	0x44
 9732 2e0f 00       		.byte	0
 9733 2e10 00       		.byte	0
 9734 2e11 2E       		.uleb128 0x2e
 9735 2e12 331C0000 		.4byte	0x1c33
 9736 2e16 5C000000 		.4byte	.LBB118
 9737 2e1a 0C000000 		.4byte	.LBE118-.LBB118
 9738 2e1e 01       		.byte	0x1
 9739 2e1f 4B01     		.2byte	0x14b
 9740 2e21 4D2E0000 		.4byte	0x2e4d
 9741 2e25 2F       		.uleb128 0x2f
ARM GAS  C:\Users\strap\AppData\Local\Temp\ccTzHSZB.s 			page 215


 9742 2e26 4E1C0000 		.4byte	0x1c4e
 9743 2e2a 4E0B0000 		.4byte	.LLST81
 9744 2e2e 2F       		.uleb128 0x2f
 9745 2e2f 431C0000 		.4byte	0x1c43
 9746 2e33 630B0000 		.4byte	.LLST82
 9747 2e37 2B       		.uleb128 0x2b
 9748 2e38 66000000 		.4byte	.LVL229
 9749 2e3c B3460000 		.4byte	0x46b3
 9750 2e40 2A       		.uleb128 0x2a
 9751 2e41 01       		.uleb128 0x1
 9752 2e42 51       		.byte	0x51
 9753 2e43 02       		.uleb128 0x2
 9754 2e44 08       		.byte	0x8
 9755 2e45 40       		.byte	0x40
 9756 2e46 2A       		.uleb128 0x2a
 9757 2e47 01       		.uleb128 0x1
 9758 2e48 52       		.byte	0x52
 9759 2e49 01       		.uleb128 0x1
 9760 2e4a 42       		.byte	0x42
 9761 2e4b 00       		.byte	0
 9762 2e4c 00       		.byte	0
 9763 2e4d 33       		.uleb128 0x33
 9764 2e4e BE000000 		.4byte	.LBB120
 9765 2e52 2C000000 		.4byte	.LBE120-.LBB120
 9766 2e56 492F0000 		.4byte	0x2f49
 9767 2e5a 34       		.uleb128 0x34
 9768 2e5b 6100     		.ascii	"a\000"
 9769 2e5d 01       		.byte	0x1
 9770 2e5e 5F01     		.2byte	0x15f
 9771 2e60 61060000 		.4byte	0x661
 9772 2e64 03       		.uleb128 0x3
 9773 2e65 91       		.byte	0x91
 9774 2e66 987F     		.sleb128 -104
 9775 2e68 2E       		.uleb128 0x2e
 9776 2e69 701D0000 		.4byte	0x1d70
 9777 2e6d CA000000 		.4byte	.LBB121
 9778 2e71 02000000 		.4byte	.LBE121-.LBB121
 9779 2e75 01       		.byte	0x1
 9780 2e76 6101     		.2byte	0x161
 9781 2e78 8F2E0000 		.4byte	0x2e8f
 9782 2e7c 2F       		.uleb128 0x2f
 9783 2e7d 851D0000 		.4byte	0x1d85
 9784 2e81 770B0000 		.4byte	.LLST83
 9785 2e85 2F       		.uleb128 0x2f
 9786 2e86 7C1D0000 		.4byte	0x1d7c
 9787 2e8a 8A0B0000 		.4byte	.LLST84
 9788 2e8e 00       		.byte	0
 9789 2e8f 2E       		.uleb128 0x2e
 9790 2e90 4F1D0000 		.4byte	0x1d4f
 9791 2e94 CC000000 		.4byte	.LBB123
 9792 2e98 04000000 		.4byte	.LBE123-.LBB123
 9793 2e9c 01       		.byte	0x1
 9794 2e9d 6201     		.2byte	0x162
 9795 2e9f B22E0000 		.4byte	0x2eb2
 9796 2ea3 36       		.uleb128 0x36
 9797 2ea4 641D0000 		.4byte	0x1d64
 9798 2ea8 2F       		.uleb128 0x2f
ARM GAS  C:\Users\strap\AppData\Local\Temp\ccTzHSZB.s 			page 216


 9799 2ea9 5B1D0000 		.4byte	0x1d5b
 9800 2ead 9D0B0000 		.4byte	.LLST85
 9801 2eb1 00       		.byte	0
 9802 2eb2 2E       		.uleb128 0x2e
 9803 2eb3 231D0000 		.4byte	0x1d23
 9804 2eb7 DA000000 		.4byte	.LBB125
 9805 2ebb 06000000 		.4byte	.LBE125-.LBB125
 9806 2ebf 01       		.byte	0x1
 9807 2ec0 6301     		.2byte	0x163
 9808 2ec2 E22E0000 		.4byte	0x2ee2
 9809 2ec6 2F       		.uleb128 0x2f
 9810 2ec7 431D0000 		.4byte	0x1d43
 9811 2ecb B00B0000 		.4byte	.LLST86
 9812 2ecf 2F       		.uleb128 0x2f
 9813 2ed0 381D0000 		.4byte	0x1d38
 9814 2ed4 C30B0000 		.4byte	.LLST87
 9815 2ed8 2F       		.uleb128 0x2f
 9816 2ed9 2F1D0000 		.4byte	0x1d2f
 9817 2edd D60B0000 		.4byte	.LLST88
 9818 2ee1 00       		.byte	0
 9819 2ee2 2E       		.uleb128 0x2e
 9820 2ee3 FC1C0000 		.4byte	0x1cfc
 9821 2ee7 E2000000 		.4byte	.LBB127
 9822 2eeb 02000000 		.4byte	.LBE127-.LBB127
 9823 2eef 01       		.byte	0x1
 9824 2ef0 6401     		.2byte	0x164
 9825 2ef2 092F0000 		.4byte	0x2f09
 9826 2ef6 2F       		.uleb128 0x2f
 9827 2ef7 111D0000 		.4byte	0x1d11
 9828 2efb E90B0000 		.4byte	.LLST89
 9829 2eff 2F       		.uleb128 0x2f
 9830 2f00 081D0000 		.4byte	0x1d08
 9831 2f04 020C0000 		.4byte	.LLST90
 9832 2f08 00       		.byte	0
 9833 2f09 29       		.uleb128 0x29
 9834 2f0a C4000000 		.4byte	.LVL240
 9835 2f0e 92470000 		.4byte	0x4792
 9836 2f12 1D2F0000 		.4byte	0x2f1d
 9837 2f16 2A       		.uleb128 0x2a
 9838 2f17 01       		.uleb128 0x1
 9839 2f18 50       		.byte	0x50
 9840 2f19 02       		.uleb128 0x2
 9841 2f1a 7D       		.byte	0x7d
 9842 2f1b 00       		.sleb128 0
 9843 2f1c 00       		.byte	0
 9844 2f1d 30       		.uleb128 0x30
 9845 2f1e CA000000 		.4byte	.LVL241
 9846 2f22 06470000 		.4byte	0x4706
 9847 2f26 30       		.uleb128 0x30
 9848 2f27 D6000000 		.4byte	.LVL244
 9849 2f2b 06470000 		.4byte	0x4706
 9850 2f2f 30       		.uleb128 0x30
 9851 2f30 DA000000 		.4byte	.LVL245
 9852 2f34 9D470000 		.4byte	0x479d
 9853 2f38 2B       		.uleb128 0x2b
 9854 2f39 EA000000 		.4byte	.LVL249
 9855 2f3d A9470000 		.4byte	0x47a9
ARM GAS  C:\Users\strap\AppData\Local\Temp\ccTzHSZB.s 			page 217


 9856 2f41 2A       		.uleb128 0x2a
 9857 2f42 01       		.uleb128 0x1
 9858 2f43 50       		.byte	0x50
 9859 2f44 02       		.uleb128 0x2
 9860 2f45 7D       		.byte	0x7d
 9861 2f46 00       		.sleb128 0
 9862 2f47 00       		.byte	0
 9863 2f48 00       		.byte	0
 9864 2f49 2E       		.uleb128 0x2e
 9865 2f4a D51C0000 		.4byte	0x1cd5
 9866 2f4e FE000000 		.4byte	.LBB129
 9867 2f52 0C000000 		.4byte	.LBE129-.LBB129
 9868 2f56 01       		.byte	0x1
 9869 2f57 7701     		.2byte	0x177
 9870 2f59 8B2F0000 		.4byte	0x2f8b
 9871 2f5d 2F       		.uleb128 0x2f
 9872 2f5e F01C0000 		.4byte	0x1cf0
 9873 2f62 150C0000 		.4byte	.LLST91
 9874 2f66 2F       		.uleb128 0x2f
 9875 2f67 E51C0000 		.4byte	0x1ce5
 9876 2f6b 2A0C0000 		.4byte	.LLST92
 9877 2f6f 2B       		.uleb128 0x2b
 9878 2f70 08010000 		.4byte	.LVL251
 9879 2f74 B3460000 		.4byte	0x46b3
 9880 2f78 2A       		.uleb128 0x2a
 9881 2f79 01       		.uleb128 0x1
 9882 2f7a 50       		.byte	0x50
 9883 2f7b 02       		.uleb128 0x2
 9884 2f7c 77       		.byte	0x77
 9885 2f7d 00       		.sleb128 0
 9886 2f7e 2A       		.uleb128 0x2a
 9887 2f7f 01       		.uleb128 0x1
 9888 2f80 51       		.byte	0x51
 9889 2f81 02       		.uleb128 0x2
 9890 2f82 08       		.byte	0x8
 9891 2f83 41       		.byte	0x41
 9892 2f84 2A       		.uleb128 0x2a
 9893 2f85 01       		.uleb128 0x1
 9894 2f86 52       		.byte	0x52
 9895 2f87 01       		.uleb128 0x1
 9896 2f88 44       		.byte	0x44
 9897 2f89 00       		.byte	0
 9898 2f8a 00       		.byte	0
 9899 2f8b 2E       		.uleb128 0x2e
 9900 2f8c 331C0000 		.4byte	0x1c33
 9901 2f90 0A010000 		.4byte	.LBB131
 9902 2f94 0C000000 		.4byte	.LBE131-.LBB131
 9903 2f98 01       		.byte	0x1
 9904 2f99 7801     		.2byte	0x178
 9905 2f9b CD2F0000 		.4byte	0x2fcd
 9906 2f9f 2F       		.uleb128 0x2f
 9907 2fa0 4E1C0000 		.4byte	0x1c4e
 9908 2fa4 3D0C0000 		.4byte	.LLST93
 9909 2fa8 2F       		.uleb128 0x2f
 9910 2fa9 431C0000 		.4byte	0x1c43
 9911 2fad 520C0000 		.4byte	.LLST94
 9912 2fb1 2B       		.uleb128 0x2b
ARM GAS  C:\Users\strap\AppData\Local\Temp\ccTzHSZB.s 			page 218


 9913 2fb2 14010000 		.4byte	.LVL253
 9914 2fb6 B3460000 		.4byte	0x46b3
 9915 2fba 2A       		.uleb128 0x2a
 9916 2fbb 01       		.uleb128 0x1
 9917 2fbc 50       		.byte	0x50
 9918 2fbd 02       		.uleb128 0x2
 9919 2fbe 77       		.byte	0x77
 9920 2fbf 00       		.sleb128 0
 9921 2fc0 2A       		.uleb128 0x2a
 9922 2fc1 01       		.uleb128 0x1
 9923 2fc2 51       		.byte	0x51
 9924 2fc3 02       		.uleb128 0x2
 9925 2fc4 08       		.byte	0x8
 9926 2fc5 41       		.byte	0x41
 9927 2fc6 2A       		.uleb128 0x2a
 9928 2fc7 01       		.uleb128 0x1
 9929 2fc8 52       		.byte	0x52
 9930 2fc9 01       		.uleb128 0x1
 9931 2fca 42       		.byte	0x42
 9932 2fcb 00       		.byte	0
 9933 2fcc 00       		.byte	0
 9934 2fcd 2E       		.uleb128 0x2e
 9935 2fce D51C0000 		.4byte	0x1cd5
 9936 2fd2 26010000 		.4byte	.LBB133
 9937 2fd6 0C000000 		.4byte	.LBE133-.LBB133
 9938 2fda 01       		.byte	0x1
 9939 2fdb 7E01     		.2byte	0x17e
 9940 2fdd 0F300000 		.4byte	0x300f
 9941 2fe1 2F       		.uleb128 0x2f
 9942 2fe2 F01C0000 		.4byte	0x1cf0
 9943 2fe6 650C0000 		.4byte	.LLST95
 9944 2fea 2F       		.uleb128 0x2f
 9945 2feb E51C0000 		.4byte	0x1ce5
 9946 2fef 7A0C0000 		.4byte	.LLST96
 9947 2ff3 2B       		.uleb128 0x2b
 9948 2ff4 30010000 		.4byte	.LVL259
 9949 2ff8 B3460000 		.4byte	0x46b3
 9950 2ffc 2A       		.uleb128 0x2a
 9951 2ffd 01       		.uleb128 0x1
 9952 2ffe 50       		.byte	0x50
 9953 2fff 02       		.uleb128 0x2
 9954 3000 77       		.byte	0x77
 9955 3001 00       		.sleb128 0
 9956 3002 2A       		.uleb128 0x2a
 9957 3003 01       		.uleb128 0x1
 9958 3004 51       		.byte	0x51
 9959 3005 02       		.uleb128 0x2
 9960 3006 08       		.byte	0x8
 9961 3007 41       		.byte	0x41
 9962 3008 2A       		.uleb128 0x2a
 9963 3009 01       		.uleb128 0x1
 9964 300a 52       		.byte	0x52
 9965 300b 01       		.uleb128 0x1
 9966 300c 44       		.byte	0x44
 9967 300d 00       		.byte	0
 9968 300e 00       		.byte	0
 9969 300f 2E       		.uleb128 0x2e
ARM GAS  C:\Users\strap\AppData\Local\Temp\ccTzHSZB.s 			page 219


 9970 3010 E51B0000 		.4byte	0x1be5
 9971 3014 32010000 		.4byte	.LBB135
 9972 3018 0C000000 		.4byte	.LBE135-.LBB135
 9973 301c 01       		.byte	0x1
 9974 301d 7F01     		.2byte	0x17f
 9975 301f 51300000 		.4byte	0x3051
 9976 3023 2F       		.uleb128 0x2f
 9977 3024 001C0000 		.4byte	0x1c00
 9978 3028 8D0C0000 		.4byte	.LLST97
 9979 302c 2F       		.uleb128 0x2f
 9980 302d F51B0000 		.4byte	0x1bf5
 9981 3031 A20C0000 		.4byte	.LLST98
 9982 3035 2B       		.uleb128 0x2b
 9983 3036 3C010000 		.4byte	.LVL261
 9984 303a B3460000 		.4byte	0x46b3
 9985 303e 2A       		.uleb128 0x2a
 9986 303f 01       		.uleb128 0x1
 9987 3040 50       		.byte	0x50
 9988 3041 02       		.uleb128 0x2
 9989 3042 77       		.byte	0x77
 9990 3043 00       		.sleb128 0
 9991 3044 2A       		.uleb128 0x2a
 9992 3045 01       		.uleb128 0x1
 9993 3046 51       		.byte	0x51
 9994 3047 02       		.uleb128 0x2
 9995 3048 08       		.byte	0x8
 9996 3049 41       		.byte	0x41
 9997 304a 2A       		.uleb128 0x2a
 9998 304b 01       		.uleb128 0x1
 9999 304c 52       		.byte	0x52
 10000 304d 01       		.uleb128 0x1
 10001 304e 40       		.byte	0x40
 10002 304f 00       		.byte	0
 10003 3050 00       		.byte	0
 10004 3051 33       		.uleb128 0x33
 10005 3052 82010000 		.4byte	.LBB137
 10006 3056 4A000000 		.4byte	.LBE137-.LBB137
 10007 305a 97310000 		.4byte	0x3197
 10008 305e 34       		.uleb128 0x34
 10009 305f 6100     		.ascii	"a\000"
 10010 3061 01       		.byte	0x1
 10011 3062 9901     		.2byte	0x199
 10012 3064 61060000 		.4byte	0x661
 10013 3068 03       		.uleb128 0x3
 10014 3069 91       		.byte	0x91
 10015 306a 987F     		.sleb128 -104
 10016 306c 2E       		.uleb128 0x2e
 10017 306d 701D0000 		.4byte	0x1d70
 10018 3071 8A010000 		.4byte	.LBB138
 10019 3075 02000000 		.4byte	.LBE138-.LBB138
 10020 3079 01       		.byte	0x1
 10021 307a 9B01     		.2byte	0x19b
 10022 307c 93300000 		.4byte	0x3093
 10023 3080 2F       		.uleb128 0x2f
 10024 3081 851D0000 		.4byte	0x1d85
 10025 3085 B50C0000 		.4byte	.LLST99
 10026 3089 2F       		.uleb128 0x2f
ARM GAS  C:\Users\strap\AppData\Local\Temp\ccTzHSZB.s 			page 220


 10027 308a 7C1D0000 		.4byte	0x1d7c
 10028 308e C80C0000 		.4byte	.LLST100
 10029 3092 00       		.byte	0
 10030 3093 2E       		.uleb128 0x2e
 10031 3094 FC1C0000 		.4byte	0x1cfc
 10032 3098 8E010000 		.4byte	.LBB140
 10033 309c 02000000 		.4byte	.LBE140-.LBB140
 10034 30a0 01       		.byte	0x1
 10035 30a1 9C01     		.2byte	0x19c
 10036 30a3 BA300000 		.4byte	0x30ba
 10037 30a7 2F       		.uleb128 0x2f
 10038 30a8 111D0000 		.4byte	0x1d11
 10039 30ac DB0C0000 		.4byte	.LLST101
 10040 30b0 2F       		.uleb128 0x2f
 10041 30b1 081D0000 		.4byte	0x1d08
 10042 30b5 F40C0000 		.4byte	.LLST102
 10043 30b9 00       		.byte	0
 10044 30ba 2E       		.uleb128 0x2e
 10045 30bb 4F1D0000 		.4byte	0x1d4f
 10046 30bf A4010000 		.4byte	.LBB142
 10047 30c3 04000000 		.4byte	.LBE142-.LBB142
 10048 30c7 01       		.byte	0x1
 10049 30c8 A401     		.2byte	0x1a4
 10050 30ca DD300000 		.4byte	0x30dd
 10051 30ce 36       		.uleb128 0x36
 10052 30cf 641D0000 		.4byte	0x1d64
 10053 30d3 2F       		.uleb128 0x2f
 10054 30d4 5B1D0000 		.4byte	0x1d5b
 10055 30d8 070D0000 		.4byte	.LLST103
 10056 30dc 00       		.byte	0
 10057 30dd 2E       		.uleb128 0x2e
 10058 30de 231D0000 		.4byte	0x1d23
 10059 30e2 AE010000 		.4byte	.LBB144
 10060 30e6 08000000 		.4byte	.LBE144-.LBB144
 10061 30ea 01       		.byte	0x1
 10062 30eb A501     		.2byte	0x1a5
 10063 30ed 0D310000 		.4byte	0x310d
 10064 30f1 2F       		.uleb128 0x2f
 10065 30f2 431D0000 		.4byte	0x1d43
 10066 30f6 1A0D0000 		.4byte	.LLST104
 10067 30fa 2F       		.uleb128 0x2f
 10068 30fb 381D0000 		.4byte	0x1d38
 10069 30ff 2D0D0000 		.4byte	.LLST105
 10070 3103 2F       		.uleb128 0x2f
 10071 3104 2F1D0000 		.4byte	0x1d2f
 10072 3108 400D0000 		.4byte	.LLST106
 10073 310c 00       		.byte	0
 10074 310d 2E       		.uleb128 0x2e
 10075 310e 4F1D0000 		.4byte	0x1d4f
 10076 3112 B6010000 		.4byte	.LBB146
 10077 3116 04000000 		.4byte	.LBE146-.LBB146
 10078 311a 01       		.byte	0x1
 10079 311b A901     		.2byte	0x1a9
 10080 311d 30310000 		.4byte	0x3130
 10081 3121 36       		.uleb128 0x36
 10082 3122 641D0000 		.4byte	0x1d64
 10083 3126 2F       		.uleb128 0x2f
ARM GAS  C:\Users\strap\AppData\Local\Temp\ccTzHSZB.s 			page 221


 10084 3127 5B1D0000 		.4byte	0x1d5b
 10085 312b 530D0000 		.4byte	.LLST107
 10086 312f 00       		.byte	0
 10087 3130 2E       		.uleb128 0x2e
 10088 3131 231D0000 		.4byte	0x1d23
 10089 3135 C0010000 		.4byte	.LBB148
 10090 3139 06000000 		.4byte	.LBE148-.LBB148
 10091 313d 01       		.byte	0x1
 10092 313e AA01     		.2byte	0x1aa
 10093 3140 60310000 		.4byte	0x3160
 10094 3144 2F       		.uleb128 0x2f
 10095 3145 431D0000 		.4byte	0x1d43
 10096 3149 660D0000 		.4byte	.LLST108
 10097 314d 2F       		.uleb128 0x2f
 10098 314e 381D0000 		.4byte	0x1d38
 10099 3152 790D0000 		.4byte	.LLST109
 10100 3156 2F       		.uleb128 0x2f
 10101 3157 2F1D0000 		.4byte	0x1d2f
 10102 315b 8C0D0000 		.4byte	.LLST110
 10103 315f 00       		.byte	0
 10104 3160 29       		.uleb128 0x29
 10105 3161 88010000 		.4byte	.LVL270
 10106 3165 92470000 		.4byte	0x4792
 10107 3169 74310000 		.4byte	0x3174
 10108 316d 2A       		.uleb128 0x2a
 10109 316e 01       		.uleb128 0x1
 10110 316f 50       		.byte	0x50
 10111 3170 02       		.uleb128 0x2
 10112 3171 7D       		.byte	0x7d
 10113 3172 00       		.sleb128 0
 10114 3173 00       		.byte	0
 10115 3174 30       		.uleb128 0x30
 10116 3175 AE010000 		.4byte	.LVL277
 10117 3179 9D470000 		.4byte	0x479d
 10118 317d 30       		.uleb128 0x30
 10119 317e C0010000 		.4byte	.LVL280
 10120 3182 B5470000 		.4byte	0x47b5
 10121 3186 2B       		.uleb128 0x2b
 10122 3187 CC010000 		.4byte	.LVL282
 10123 318b A9470000 		.4byte	0x47a9
 10124 318f 2A       		.uleb128 0x2a
 10125 3190 01       		.uleb128 0x1
 10126 3191 50       		.byte	0x50
 10127 3192 02       		.uleb128 0x2
 10128 3193 7D       		.byte	0x7d
 10129 3194 00       		.sleb128 0
 10130 3195 00       		.byte	0
 10131 3196 00       		.byte	0
 10132 3197 29       		.uleb128 0x29
 10133 3198 10000000 		.4byte	.LVL217
 10134 319c 85460000 		.4byte	0x4685
 10135 31a0 AB310000 		.4byte	0x31ab
 10136 31a4 2A       		.uleb128 0x2a
 10137 31a5 01       		.uleb128 0x1
 10138 31a6 50       		.byte	0x50
 10139 31a7 02       		.uleb128 0x2
 10140 31a8 77       		.byte	0x77
ARM GAS  C:\Users\strap\AppData\Local\Temp\ccTzHSZB.s 			page 222


 10141 31a9 00       		.sleb128 0
 10142 31aa 00       		.byte	0
 10143 31ab 29       		.uleb128 0x29
 10144 31ac 1C000000 		.4byte	.LVL218
 10145 31b0 90460000 		.4byte	0x4690
 10146 31b4 C2310000 		.4byte	0x31c2
 10147 31b8 2A       		.uleb128 0x2a
 10148 31b9 01       		.uleb128 0x1
 10149 31ba 50       		.byte	0x50
 10150 31bb 05       		.uleb128 0x5
 10151 31bc 03       		.byte	0x3
 10152 31bd 00000000 		.4byte	.LC0
 10153 31c1 00       		.byte	0
 10154 31c2 29       		.uleb128 0x29
 10155 31c3 24000000 		.4byte	.LVL219
 10156 31c7 9B460000 		.4byte	0x469b
 10157 31cb D6310000 		.4byte	0x31d6
 10158 31cf 2A       		.uleb128 0x2a
 10159 31d0 01       		.uleb128 0x1
 10160 31d1 50       		.byte	0x50
 10161 31d2 02       		.uleb128 0x2
 10162 31d3 77       		.byte	0x77
 10163 31d4 00       		.sleb128 0
 10164 31d5 00       		.byte	0
 10165 31d6 29       		.uleb128 0x29
 10166 31d7 3A000000 		.4byte	.LVL223
 10167 31db C1470000 		.4byte	0x47c1
 10168 31df EA310000 		.4byte	0x31ea
 10169 31e3 2A       		.uleb128 0x2a
 10170 31e4 01       		.uleb128 0x1
 10171 31e5 52       		.byte	0x52
 10172 31e6 02       		.uleb128 0x2
 10173 31e7 08       		.byte	0x8
 10174 31e8 80       		.byte	0x80
 10175 31e9 00       		.byte	0
 10176 31ea 29       		.uleb128 0x29
 10177 31eb 42000000 		.4byte	.LVL224
 10178 31ef CC470000 		.4byte	0x47cc
 10179 31f3 FE310000 		.4byte	0x31fe
 10180 31f7 2A       		.uleb128 0x2a
 10181 31f8 01       		.uleb128 0x1
 10182 31f9 50       		.byte	0x50
 10183 31fa 02       		.uleb128 0x2
 10184 31fb 77       		.byte	0x77
 10185 31fc 00       		.sleb128 0
 10186 31fd 00       		.byte	0
 10187 31fe 29       		.uleb128 0x29
 10188 31ff 7A000000 		.4byte	.LVL231
 10189 3203 D7460000 		.4byte	0x46d7
 10190 3207 12320000 		.4byte	0x3212
 10191 320b 2A       		.uleb128 0x2a
 10192 320c 01       		.uleb128 0x1
 10193 320d 50       		.byte	0x50
 10194 320e 02       		.uleb128 0x2
 10195 320f 77       		.byte	0x77
 10196 3210 00       		.sleb128 0
 10197 3211 00       		.byte	0
ARM GAS  C:\Users\strap\AppData\Local\Temp\ccTzHSZB.s 			page 223


 10198 3212 29       		.uleb128 0x29
 10199 3213 8C000000 		.4byte	.LVL234
 10200 3217 D7460000 		.4byte	0x46d7
 10201 321b 26320000 		.4byte	0x3226
 10202 321f 2A       		.uleb128 0x2a
 10203 3220 01       		.uleb128 0x1
 10204 3221 50       		.byte	0x50
 10205 3222 02       		.uleb128 0x2
 10206 3223 77       		.byte	0x77
 10207 3224 00       		.sleb128 0
 10208 3225 00       		.byte	0
 10209 3226 30       		.uleb128 0x30
 10210 3227 94000000 		.4byte	.LVL235
 10211 322b D7460000 		.4byte	0x46d7
 10212 322f 29       		.uleb128 0x29
 10213 3230 AE000000 		.4byte	.LVL237
 10214 3234 922C0000 		.4byte	0x2c92
 10215 3238 43320000 		.4byte	0x3243
 10216 323c 2A       		.uleb128 0x2a
 10217 323d 01       		.uleb128 0x1
 10218 323e 50       		.byte	0x50
 10219 323f 02       		.uleb128 0x2
 10220 3240 77       		.byte	0x77
 10221 3241 00       		.sleb128 0
 10222 3242 00       		.byte	0
 10223 3243 30       		.uleb128 0x30
 10224 3244 B6000000 		.4byte	.LVL238
 10225 3248 06470000 		.4byte	0x4706
 10226 324c 29       		.uleb128 0x29
 10227 324d BC000000 		.4byte	.LVL239
 10228 3251 D8470000 		.4byte	0x47d8
 10229 3255 60320000 		.4byte	0x3260
 10230 3259 2A       		.uleb128 0x2a
 10231 325a 01       		.uleb128 0x1
 10232 325b 51       		.byte	0x51
 10233 325c 02       		.uleb128 0x2
 10234 325d 75       		.byte	0x75
 10235 325e 00       		.sleb128 0
 10236 325f 00       		.byte	0
 10237 3260 30       		.uleb128 0x30
 10238 3261 1C010000 		.4byte	.LVL255
 10239 3265 D7460000 		.4byte	0x46d7
 10240 3269 30       		.uleb128 0x30
 10241 326a 44010000 		.4byte	.LVL263
 10242 326e EE460000 		.4byte	0x46ee
 10243 3272 29       		.uleb128 0x29
 10244 3273 76010000 		.4byte	.LVL268
 10245 3277 D8470000 		.4byte	0x47d8
 10246 327b 86320000 		.4byte	0x3286
 10247 327f 2A       		.uleb128 0x2a
 10248 3280 01       		.uleb128 0x1
 10249 3281 51       		.byte	0x51
 10250 3282 02       		.uleb128 0x2
 10251 3283 75       		.byte	0x75
 10252 3284 00       		.sleb128 0
 10253 3285 00       		.byte	0
 10254 3286 29       		.uleb128 0x29
ARM GAS  C:\Users\strap\AppData\Local\Temp\ccTzHSZB.s 			page 224


 10255 3287 80010000 		.4byte	.LVL269
 10256 328b E4470000 		.4byte	0x47e4
 10257 328f 9A320000 		.4byte	0x329a
 10258 3293 2A       		.uleb128 0x2a
 10259 3294 01       		.uleb128 0x1
 10260 3295 51       		.byte	0x51
 10261 3296 02       		.uleb128 0x2
 10262 3297 75       		.byte	0x75
 10263 3298 00       		.sleb128 0
 10264 3299 00       		.byte	0
 10265 329a 2B       		.uleb128 0x2b
 10266 329b D6010000 		.4byte	.LVL283
 10267 329f F0470000 		.4byte	0x47f0
 10268 32a3 2A       		.uleb128 0x2a
 10269 32a4 01       		.uleb128 0x1
 10270 32a5 52       		.byte	0x52
 10271 32a6 02       		.uleb128 0x2
 10272 32a7 08       		.byte	0x8
 10273 32a8 80       		.byte	0x80
 10274 32a9 00       		.byte	0
 10275 32aa 00       		.byte	0
 10276 32ab 2C       		.uleb128 0x2c
 10277 32ac 63180000 		.4byte	.LASF646
 10278 32b0 01       		.byte	0x1
 10279 32b1 3303     		.2byte	0x333
 10280 32b3 00000000 		.4byte	.LFB372
 10281 32b7 82000000 		.4byte	.LFE372-.LFB372
 10282 32bb 01       		.uleb128 0x1
 10283 32bc 9C       		.byte	0x9c
 10284 32bd 4E340000 		.4byte	0x344e
 10285 32c1 26       		.uleb128 0x26
 10286 32c2 FE1E0000 		.4byte	.LASF647
 10287 32c6 01       		.byte	0x1
 10288 32c7 3303     		.2byte	0x333
 10289 32c9 77180000 		.4byte	0x1877
 10290 32cd 9F0D0000 		.4byte	.LLST111
 10291 32d1 26       		.uleb128 0x26
 10292 32d2 C01A0000 		.4byte	.LASF648
 10293 32d6 01       		.byte	0x1
 10294 32d7 3303     		.2byte	0x333
 10295 32d9 4B150000 		.4byte	0x154b
 10296 32dd D60D0000 		.4byte	.LLST112
 10297 32e1 28       		.uleb128 0x28
 10298 32e2 960C0000 		.4byte	.LASF332
 10299 32e6 01       		.byte	0x1
 10300 32e7 3703     		.2byte	0x337
 10301 32e9 E4000000 		.4byte	0xe4
 10302 32ed 020E0000 		.4byte	.LLST113
 10303 32f1 28       		.uleb128 0x28
 10304 32f2 9B190000 		.4byte	.LASF601
 10305 32f6 01       		.byte	0x1
 10306 32f7 3F03     		.2byte	0x33f
 10307 32f9 77180000 		.4byte	0x1877
 10308 32fd 150E0000 		.4byte	.LLST114
 10309 3301 28       		.uleb128 0x28
 10310 3302 17030000 		.4byte	.LASF649
 10311 3306 01       		.byte	0x1
ARM GAS  C:\Users\strap\AppData\Local\Temp\ccTzHSZB.s 			page 225


 10312 3307 4103     		.2byte	0x341
 10313 3309 FA000000 		.4byte	0xfa
 10314 330d 330E0000 		.4byte	.LLST115
 10315 3311 37       		.uleb128 0x37
 10316 3312 61010000 		.4byte	.LASF650
 10317 3316 01       		.byte	0x1
 10318 3317 4303     		.2byte	0x343
 10319 3319 FA000000 		.4byte	0xfa
 10320 331d 02       		.uleb128 0x2
 10321 331e 91       		.byte	0x91
 10322 331f 6C       		.sleb128 -20
 10323 3320 27       		.uleb128 0x27
 10324 3321 72657300 		.ascii	"res\000"
 10325 3325 01       		.byte	0x1
 10326 3326 4503     		.2byte	0x345
 10327 3328 AD010000 		.4byte	0x1ad
 10328 332c 510E0000 		.4byte	.LLST116
 10329 3330 29       		.uleb128 0x29
 10330 3331 0E000000 		.4byte	.LVL286
 10331 3335 FB470000 		.4byte	0x47fb
 10332 3339 44330000 		.4byte	0x3344
 10333 333d 2A       		.uleb128 0x2a
 10334 333e 01       		.uleb128 0x1
 10335 333f 50       		.byte	0x50
 10336 3340 02       		.uleb128 0x2
 10337 3341 74       		.byte	0x74
 10338 3342 00       		.sleb128 0
 10339 3343 00       		.byte	0
 10340 3344 29       		.uleb128 0x29
 10341 3345 22000000 		.4byte	.LVL289
 10342 3349 06480000 		.4byte	0x4806
 10343 334d 64330000 		.4byte	0x3364
 10344 3351 2A       		.uleb128 0x2a
 10345 3352 01       		.uleb128 0x1
 10346 3353 50       		.byte	0x50
 10347 3354 02       		.uleb128 0x2
 10348 3355 74       		.byte	0x74
 10349 3356 00       		.sleb128 0
 10350 3357 2A       		.uleb128 0x2a
 10351 3358 01       		.uleb128 0x1
 10352 3359 51       		.byte	0x51
 10353 335a 02       		.uleb128 0x2
 10354 335b 75       		.byte	0x75
 10355 335c 00       		.sleb128 0
 10356 335d 2A       		.uleb128 0x2a
 10357 335e 01       		.uleb128 0x1
 10358 335f 52       		.byte	0x52
 10359 3360 02       		.uleb128 0x2
 10360 3361 08       		.byte	0x8
 10361 3362 20       		.byte	0x20
 10362 3363 00       		.byte	0
 10363 3364 29       		.uleb128 0x29
 10364 3365 2C000000 		.4byte	.LVL290
 10365 3369 11480000 		.4byte	0x4811
 10366 336d 7E330000 		.4byte	0x337e
 10367 3371 2A       		.uleb128 0x2a
 10368 3372 01       		.uleb128 0x1
ARM GAS  C:\Users\strap\AppData\Local\Temp\ccTzHSZB.s 			page 226


 10369 3373 50       		.byte	0x50
 10370 3374 02       		.uleb128 0x2
 10371 3375 74       		.byte	0x74
 10372 3376 00       		.sleb128 0
 10373 3377 2A       		.uleb128 0x2a
 10374 3378 01       		.uleb128 0x1
 10375 3379 51       		.byte	0x51
 10376 337a 02       		.uleb128 0x2
 10377 337b 08       		.byte	0x8
 10378 337c 80       		.byte	0x80
 10379 337d 00       		.byte	0
 10380 337e 29       		.uleb128 0x29
 10381 337f 36000000 		.4byte	.LVL291
 10382 3383 F0470000 		.4byte	0x47f0
 10383 3387 9E330000 		.4byte	0x339e
 10384 338b 2A       		.uleb128 0x2a
 10385 338c 01       		.uleb128 0x1
 10386 338d 50       		.byte	0x50
 10387 338e 02       		.uleb128 0x2
 10388 338f 74       		.byte	0x74
 10389 3390 00       		.sleb128 0
 10390 3391 2A       		.uleb128 0x2a
 10391 3392 01       		.uleb128 0x1
 10392 3393 51       		.byte	0x51
 10393 3394 02       		.uleb128 0x2
 10394 3395 75       		.byte	0x75
 10395 3396 00       		.sleb128 0
 10396 3397 2A       		.uleb128 0x2a
 10397 3398 01       		.uleb128 0x1
 10398 3399 52       		.byte	0x52
 10399 339a 02       		.uleb128 0x2
 10400 339b 08       		.byte	0x8
 10401 339c 80       		.byte	0x80
 10402 339d 00       		.byte	0
 10403 339e 29       		.uleb128 0x29
 10404 339f 3C000000 		.4byte	.LVL292
 10405 33a3 1C480000 		.4byte	0x481c
 10406 33a7 B2330000 		.4byte	0x33b2
 10407 33ab 2A       		.uleb128 0x2a
 10408 33ac 01       		.uleb128 0x1
 10409 33ad 50       		.byte	0x50
 10410 33ae 02       		.uleb128 0x2
 10411 33af 74       		.byte	0x74
 10412 33b0 00       		.sleb128 0
 10413 33b1 00       		.byte	0
 10414 33b2 29       		.uleb128 0x29
 10415 33b3 42000000 		.4byte	.LVL294
 10416 33b7 A32A0000 		.4byte	0x2aa3
 10417 33bb C6330000 		.4byte	0x33c6
 10418 33bf 2A       		.uleb128 0x2a
 10419 33c0 01       		.uleb128 0x1
 10420 33c1 50       		.byte	0x50
 10421 33c2 02       		.uleb128 0x2
 10422 33c3 74       		.byte	0x74
 10423 33c4 00       		.sleb128 0
 10424 33c5 00       		.byte	0
 10425 33c6 29       		.uleb128 0x29
ARM GAS  C:\Users\strap\AppData\Local\Temp\ccTzHSZB.s 			page 227


 10426 33c7 4E000000 		.4byte	.LVL297
 10427 33cb 082D0000 		.4byte	0x2d08
 10428 33cf E5330000 		.4byte	0x33e5
 10429 33d3 2A       		.uleb128 0x2a
 10430 33d4 01       		.uleb128 0x1
 10431 33d5 50       		.byte	0x50
 10432 33d6 02       		.uleb128 0x2
 10433 33d7 74       		.byte	0x74
 10434 33d8 00       		.sleb128 0
 10435 33d9 2A       		.uleb128 0x2a
 10436 33da 01       		.uleb128 0x1
 10437 33db 51       		.byte	0x51
 10438 33dc 02       		.uleb128 0x2
 10439 33dd 75       		.byte	0x75
 10440 33de 00       		.sleb128 0
 10441 33df 2A       		.uleb128 0x2a
 10442 33e0 01       		.uleb128 0x1
 10443 33e1 52       		.byte	0x52
 10444 33e2 01       		.uleb128 0x1
 10445 33e3 31       		.byte	0x31
 10446 33e4 00       		.byte	0
 10447 33e5 29       		.uleb128 0x29
 10448 33e6 54000000 		.4byte	.LVL298
 10449 33ea A32A0000 		.4byte	0x2aa3
 10450 33ee F9330000 		.4byte	0x33f9
 10451 33f2 2A       		.uleb128 0x2a
 10452 33f3 01       		.uleb128 0x1
 10453 33f4 50       		.byte	0x50
 10454 33f5 02       		.uleb128 0x2
 10455 33f6 74       		.byte	0x74
 10456 33f7 00       		.sleb128 0
 10457 33f8 00       		.byte	0
 10458 33f9 29       		.uleb128 0x29
 10459 33fa 64000000 		.4byte	.LVL300
 10460 33fe 28480000 		.4byte	0x4828
 10461 3402 18340000 		.4byte	0x3418
 10462 3406 2A       		.uleb128 0x2a
 10463 3407 01       		.uleb128 0x1
 10464 3408 50       		.byte	0x50
 10465 3409 02       		.uleb128 0x2
 10466 340a 74       		.byte	0x74
 10467 340b 00       		.sleb128 0
 10468 340c 2A       		.uleb128 0x2a
 10469 340d 01       		.uleb128 0x1
 10470 340e 51       		.byte	0x51
 10471 340f 01       		.uleb128 0x1
 10472 3410 40       		.byte	0x40
 10473 3411 2A       		.uleb128 0x2a
 10474 3412 01       		.uleb128 0x1
 10475 3413 52       		.byte	0x52
 10476 3414 02       		.uleb128 0x2
 10477 3415 91       		.byte	0x91
 10478 3416 6C       		.sleb128 -20
 10479 3417 00       		.byte	0
 10480 3418 30       		.uleb128 0x30
 10481 3419 68000000 		.4byte	.LVL301
 10482 341d 34480000 		.4byte	0x4834
ARM GAS  C:\Users\strap\AppData\Local\Temp\ccTzHSZB.s 			page 228


 10483 3421 30       		.uleb128 0x30
 10484 3422 6C000000 		.4byte	.LVL302
 10485 3426 3F480000 		.4byte	0x483f
 10486 342a 29       		.uleb128 0x29
 10487 342b 76000000 		.4byte	.LVL303
 10488 342f 4A480000 		.4byte	0x484a
 10489 3433 3E340000 		.4byte	0x343e
 10490 3437 2A       		.uleb128 0x2a
 10491 3438 01       		.uleb128 0x1
 10492 3439 50       		.byte	0x50
 10493 343a 02       		.uleb128 0x2
 10494 343b 74       		.byte	0x74
 10495 343c 00       		.sleb128 0
 10496 343d 00       		.byte	0
 10497 343e 2B       		.uleb128 0x2b
 10498 343f 7C000000 		.4byte	.LVL304
 10499 3443 56480000 		.4byte	0x4856
 10500 3447 2A       		.uleb128 0x2a
 10501 3448 01       		.uleb128 0x1
 10502 3449 51       		.byte	0x51
 10503 344a 01       		.uleb128 0x1
 10504 344b 30       		.byte	0x30
 10505 344c 00       		.byte	0
 10506 344d 00       		.byte	0
 10507 344e 25       		.uleb128 0x25
 10508 344f 1E150000 		.4byte	.LASF652
 10509 3453 01       		.byte	0x1
 10510 3454 CD02     		.2byte	0x2cd
 10511 3456 AD010000 		.4byte	0x1ad
 10512 345a 00000000 		.4byte	.LFB370
 10513 345e 60010000 		.4byte	.LFE370-.LFB370
 10514 3462 01       		.uleb128 0x1
 10515 3463 9C       		.byte	0x9c
 10516 3464 11370000 		.4byte	0x3711
 10517 3468 26       		.uleb128 0x26
 10518 3469 25280000 		.4byte	.LASF653
 10519 346d 01       		.byte	0x1
 10520 346e CD02     		.2byte	0x2cd
 10521 3470 77180000 		.4byte	0x1877
 10522 3474 650E0000 		.4byte	.LLST117
 10523 3478 26       		.uleb128 0x26
 10524 3479 CA020000 		.4byte	.LASF654
 10525 347d 01       		.byte	0x1
 10526 347e CD02     		.2byte	0x2cd
 10527 3480 20160000 		.4byte	0x1620
 10528 3484 AA0E0000 		.4byte	.LLST118
 10529 3488 26       		.uleb128 0x26
 10530 3489 002F0000 		.4byte	.LASF655
 10531 348d 01       		.byte	0x1
 10532 348e CD02     		.2byte	0x2cd
 10533 3490 31010000 		.4byte	0x131
 10534 3494 CB0E0000 		.4byte	.LLST119
 10535 3498 27       		.uleb128 0x27
 10536 3499 72657300 		.ascii	"res\000"
 10537 349d 01       		.byte	0x1
 10538 349e CF02     		.2byte	0x2cf
 10539 34a0 AD010000 		.4byte	0x1ad
ARM GAS  C:\Users\strap\AppData\Local\Temp\ccTzHSZB.s 			page 229


 10540 34a4 100F0000 		.4byte	.LLST120
 10541 34a8 28       		.uleb128 0x28
 10542 34a9 DB040000 		.4byte	.LASF575
 10543 34ad 01       		.byte	0x1
 10544 34ae D602     		.2byte	0x2d6
 10545 34b0 77180000 		.4byte	0x1877
 10546 34b4 650F0000 		.4byte	.LLST121
 10547 34b8 28       		.uleb128 0x28
 10548 34b9 9B190000 		.4byte	.LASF601
 10549 34bd 01       		.byte	0x1
 10550 34be D702     		.2byte	0x2d7
 10551 34c0 77180000 		.4byte	0x1877
 10552 34c4 780F0000 		.4byte	.LLST122
 10553 34c8 33       		.uleb128 0x33
 10554 34c9 3A000000 		.4byte	.LBB150
 10555 34cd 12010000 		.4byte	.LBE150-.LBB150
 10556 34d1 BA360000 		.4byte	0x36ba
 10557 34d5 27       		.uleb128 0x27
 10558 34d6 65787400 		.ascii	"ext\000"
 10559 34da 01       		.byte	0x1
 10560 34db DA02     		.2byte	0x2da
 10561 34dd DB1E0000 		.4byte	0x1edb
 10562 34e1 A10F0000 		.4byte	.LLST123
 10563 34e5 28       		.uleb128 0x28
 10564 34e6 95280000 		.4byte	.LASF656
 10565 34ea 01       		.byte	0x1
 10566 34eb DC02     		.2byte	0x2dc
 10567 34ed 11370000 		.4byte	0x3711
 10568 34f1 BF0F0000 		.4byte	.LLST124
 10569 34f5 37       		.uleb128 0x37
 10570 34f6 A5110000 		.4byte	.LASF657
 10571 34fa 01       		.byte	0x1
 10572 34fb DD02     		.2byte	0x2dd
 10573 34fd D5010000 		.4byte	0x1d5
 10574 3501 02       		.uleb128 0x2
 10575 3502 91       		.byte	0x91
 10576 3503 54       		.sleb128 -44
 10577 3504 37       		.uleb128 0x37
 10578 3505 DE1E0000 		.4byte	.LASF349
 10579 3509 01       		.byte	0x1
 10580 350a DF02     		.2byte	0x2df
 10581 350c D5010000 		.4byte	0x1d5
 10582 3510 02       		.uleb128 0x2
 10583 3511 91       		.byte	0x91
 10584 3512 58       		.sleb128 -40
 10585 3513 28       		.uleb128 0x28
 10586 3514 AA250000 		.4byte	.LASF658
 10587 3518 01       		.byte	0x1
 10588 3519 E102     		.2byte	0x2e1
 10589 351b 1B010000 		.4byte	0x11b
 10590 351f DD0F0000 		.4byte	.LLST125
 10591 3523 28       		.uleb128 0x28
 10592 3524 43230000 		.4byte	.LASF659
 10593 3528 01       		.byte	0x1
 10594 3529 EA02     		.2byte	0x2ea
 10595 352b 77180000 		.4byte	0x1877
 10596 352f 12100000 		.4byte	.LLST126
ARM GAS  C:\Users\strap\AppData\Local\Temp\ccTzHSZB.s 			page 230


 10597 3533 28       		.uleb128 0x28
 10598 3534 B81A0000 		.4byte	.LASF660
 10599 3538 01       		.byte	0x1
 10600 3539 EC02     		.2byte	0x2ec
 10601 353b 1B010000 		.4byte	0x11b
 10602 353f 30100000 		.4byte	.LLST127
 10603 3543 28       		.uleb128 0x28
 10604 3544 C9220000 		.4byte	.LASF661
 10605 3548 01       		.byte	0x1
 10606 3549 ED02     		.2byte	0x2ed
 10607 354b 1B010000 		.4byte	0x11b
 10608 354f 4E100000 		.4byte	.LLST128
 10609 3553 28       		.uleb128 0x28
 10610 3554 E6280000 		.4byte	.LASF662
 10611 3558 01       		.byte	0x1
 10612 3559 EE02     		.2byte	0x2ee
 10613 355b 1B010000 		.4byte	0x11b
 10614 355f 6C100000 		.4byte	.LLST129
 10615 3563 28       		.uleb128 0x28
 10616 3564 A4260000 		.4byte	.LASF313
 10617 3568 01       		.byte	0x1
 10618 3569 F002     		.2byte	0x2f0
 10619 356b 69140000 		.4byte	0x1469
 10620 356f 8A100000 		.4byte	.LLST130
 10621 3573 28       		.uleb128 0x28
 10622 3574 B70A0000 		.4byte	.LASF522
 10623 3578 01       		.byte	0x1
 10624 3579 F102     		.2byte	0x2f1
 10625 357b D9000000 		.4byte	0xd9
 10626 357f 9D100000 		.4byte	.LLST131
 10627 3583 37       		.uleb128 0x37
 10628 3584 17030000 		.4byte	.LASF649
 10629 3588 01       		.byte	0x1
 10630 3589 FE02     		.2byte	0x2fe
 10631 358b FA000000 		.4byte	0xfa
 10632 358f 02       		.uleb128 0x2
 10633 3590 91       		.byte	0x91
 10634 3591 5C       		.sleb128 -36
 10635 3592 28       		.uleb128 0x28
 10636 3593 61010000 		.4byte	.LASF650
 10637 3597 01       		.byte	0x1
 10638 3598 0003     		.2byte	0x300
 10639 359a FA000000 		.4byte	0xfa
 10640 359e BB100000 		.4byte	.LLST132
 10641 35a2 29       		.uleb128 0x29
 10642 35a3 3E000000 		.4byte	.LVL316
 10643 35a7 9B460000 		.4byte	0x469b
 10644 35ab B6350000 		.4byte	0x35b6
 10645 35af 2A       		.uleb128 0x2a
 10646 35b0 01       		.uleb128 0x1
 10647 35b1 50       		.byte	0x50
 10648 35b2 02       		.uleb128 0x2
 10649 35b3 76       		.byte	0x76
 10650 35b4 00       		.sleb128 0
 10651 35b5 00       		.byte	0
 10652 35b6 30       		.uleb128 0x30
 10653 35b7 44000000 		.4byte	.LVL318
ARM GAS  C:\Users\strap\AppData\Local\Temp\ccTzHSZB.s 			page 231


 10654 35bb 34480000 		.4byte	0x4834
 10655 35bf 29       		.uleb128 0x29
 10656 35c0 4C000000 		.4byte	.LVL320
 10657 35c4 61480000 		.4byte	0x4861
 10658 35c8 D9350000 		.4byte	0x35d9
 10659 35cc 2A       		.uleb128 0x2a
 10660 35cd 01       		.uleb128 0x1
 10661 35ce 50       		.byte	0x50
 10662 35cf 02       		.uleb128 0x2
 10663 35d0 74       		.byte	0x74
 10664 35d1 00       		.sleb128 0
 10665 35d2 2A       		.uleb128 0x2a
 10666 35d3 01       		.uleb128 0x1
 10667 35d4 51       		.byte	0x51
 10668 35d5 02       		.uleb128 0x2
 10669 35d6 91       		.byte	0x91
 10670 35d7 54       		.sleb128 -44
 10671 35d8 00       		.byte	0
 10672 35d9 29       		.uleb128 0x29
 10673 35da 54000000 		.4byte	.LVL321
 10674 35de 6C480000 		.4byte	0x486c
 10675 35e2 F3350000 		.4byte	0x35f3
 10676 35e6 2A       		.uleb128 0x2a
 10677 35e7 01       		.uleb128 0x1
 10678 35e8 50       		.byte	0x50
 10679 35e9 02       		.uleb128 0x2
 10680 35ea 74       		.byte	0x74
 10681 35eb 00       		.sleb128 0
 10682 35ec 2A       		.uleb128 0x2a
 10683 35ed 01       		.uleb128 0x1
 10684 35ee 51       		.byte	0x51
 10685 35ef 02       		.uleb128 0x2
 10686 35f0 91       		.byte	0x91
 10687 35f1 58       		.sleb128 -40
 10688 35f2 00       		.byte	0
 10689 35f3 29       		.uleb128 0x29
 10690 35f4 80000000 		.4byte	.LVL326
 10691 35f8 77480000 		.4byte	0x4877
 10692 35fc 07360000 		.4byte	0x3607
 10693 3600 2A       		.uleb128 0x2a
 10694 3601 01       		.uleb128 0x1
 10695 3602 50       		.byte	0x50
 10696 3603 02       		.uleb128 0x2
 10697 3604 74       		.byte	0x74
 10698 3605 00       		.sleb128 0
 10699 3606 00       		.byte	0
 10700 3607 29       		.uleb128 0x29
 10701 3608 8E000000 		.4byte	.LVL329
 10702 360c 8F2B0000 		.4byte	0x2b8f
 10703 3610 1B360000 		.4byte	0x361b
 10704 3614 2A       		.uleb128 0x2a
 10705 3615 01       		.uleb128 0x1
 10706 3616 50       		.byte	0x50
 10707 3617 02       		.uleb128 0x2
 10708 3618 76       		.byte	0x76
 10709 3619 00       		.sleb128 0
 10710 361a 00       		.byte	0
ARM GAS  C:\Users\strap\AppData\Local\Temp\ccTzHSZB.s 			page 232


 10711 361b 29       		.uleb128 0x29
 10712 361c AA000000 		.4byte	.LVL333
 10713 3620 D7460000 		.4byte	0x46d7
 10714 3624 2F360000 		.4byte	0x362f
 10715 3628 2A       		.uleb128 0x2a
 10716 3629 01       		.uleb128 0x1
 10717 362a 50       		.byte	0x50
 10718 362b 02       		.uleb128 0x2
 10719 362c 76       		.byte	0x76
 10720 362d 00       		.sleb128 0
 10721 362e 00       		.byte	0
 10722 362f 29       		.uleb128 0x29
 10723 3630 B4000000 		.4byte	.LVL335
 10724 3634 D7460000 		.4byte	0x46d7
 10725 3638 43360000 		.4byte	0x3643
 10726 363c 2A       		.uleb128 0x2a
 10727 363d 01       		.uleb128 0x1
 10728 363e 50       		.byte	0x50
 10729 363f 02       		.uleb128 0x2
 10730 3640 76       		.byte	0x76
 10731 3641 00       		.sleb128 0
 10732 3642 00       		.byte	0
 10733 3643 29       		.uleb128 0x29
 10734 3644 C2000000 		.4byte	.LVL337
 10735 3648 CC470000 		.4byte	0x47cc
 10736 364c 57360000 		.4byte	0x3657
 10737 3650 2A       		.uleb128 0x2a
 10738 3651 01       		.uleb128 0x1
 10739 3652 50       		.byte	0x50
 10740 3653 02       		.uleb128 0x2
 10741 3654 76       		.byte	0x76
 10742 3655 00       		.sleb128 0
 10743 3656 00       		.byte	0
 10744 3657 29       		.uleb128 0x29
 10745 3658 12010000 		.4byte	.LVL346
 10746 365c A32A0000 		.4byte	0x2aa3
 10747 3660 6B360000 		.4byte	0x366b
 10748 3664 2A       		.uleb128 0x2a
 10749 3665 01       		.uleb128 0x1
 10750 3666 50       		.byte	0x50
 10751 3667 02       		.uleb128 0x2
 10752 3668 76       		.byte	0x76
 10753 3669 00       		.sleb128 0
 10754 366a 00       		.byte	0
 10755 366b 29       		.uleb128 0x29
 10756 366c 20010000 		.4byte	.LVL347
 10757 3670 082D0000 		.4byte	0x2d08
 10758 3674 8A360000 		.4byte	0x368a
 10759 3678 2A       		.uleb128 0x2a
 10760 3679 01       		.uleb128 0x1
 10761 367a 50       		.byte	0x50
 10762 367b 02       		.uleb128 0x2
 10763 367c 76       		.byte	0x76
 10764 367d 00       		.sleb128 0
 10765 367e 2A       		.uleb128 0x2a
 10766 367f 01       		.uleb128 0x1
 10767 3680 51       		.byte	0x51
ARM GAS  C:\Users\strap\AppData\Local\Temp\ccTzHSZB.s 			page 233


 10768 3681 02       		.uleb128 0x2
 10769 3682 78       		.byte	0x78
 10770 3683 00       		.sleb128 0
 10771 3684 2A       		.uleb128 0x2a
 10772 3685 01       		.uleb128 0x1
 10773 3686 52       		.byte	0x52
 10774 3687 01       		.uleb128 0x1
 10775 3688 31       		.byte	0x31
 10776 3689 00       		.byte	0
 10777 368a 29       		.uleb128 0x29
 10778 368b 26010000 		.4byte	.LVL348
 10779 368f A32A0000 		.4byte	0x2aa3
 10780 3693 9E360000 		.4byte	0x369e
 10781 3697 2A       		.uleb128 0x2a
 10782 3698 01       		.uleb128 0x1
 10783 3699 50       		.byte	0x50
 10784 369a 02       		.uleb128 0x2
 10785 369b 76       		.byte	0x76
 10786 369c 00       		.sleb128 0
 10787 369d 00       		.byte	0
 10788 369e 2B       		.uleb128 0x2b
 10789 369f 36010000 		.4byte	.LVL350
 10790 36a3 28480000 		.4byte	0x4828
 10791 36a7 2A       		.uleb128 0x2a
 10792 36a8 01       		.uleb128 0x1
 10793 36a9 50       		.byte	0x50
 10794 36aa 02       		.uleb128 0x2
 10795 36ab 76       		.byte	0x76
 10796 36ac 00       		.sleb128 0
 10797 36ad 2A       		.uleb128 0x2a
 10798 36ae 01       		.uleb128 0x1
 10799 36af 51       		.byte	0x51
 10800 36b0 01       		.uleb128 0x1
 10801 36b1 40       		.byte	0x40
 10802 36b2 2A       		.uleb128 0x2a
 10803 36b3 01       		.uleb128 0x1
 10804 36b4 52       		.byte	0x52
 10805 36b5 02       		.uleb128 0x2
 10806 36b6 91       		.byte	0x91
 10807 36b7 5C       		.sleb128 -36
 10808 36b8 00       		.byte	0
 10809 36b9 00       		.byte	0
 10810 36ba 38       		.uleb128 0x38
 10811 36bb 12000000 		.4byte	.LVL307
 10812 36bf D6360000 		.4byte	0x36d6
 10813 36c3 2A       		.uleb128 0x2a
 10814 36c4 01       		.uleb128 0x1
 10815 36c5 50       		.byte	0x50
 10816 36c6 02       		.uleb128 0x2
 10817 36c7 76       		.byte	0x76
 10818 36c8 00       		.sleb128 0
 10819 36c9 2A       		.uleb128 0x2a
 10820 36ca 01       		.uleb128 0x1
 10821 36cb 51       		.byte	0x51
 10822 36cc 02       		.uleb128 0x2
 10823 36cd 75       		.byte	0x75
 10824 36ce 00       		.sleb128 0
ARM GAS  C:\Users\strap\AppData\Local\Temp\ccTzHSZB.s 			page 234


 10825 36cf 2A       		.uleb128 0x2a
 10826 36d0 01       		.uleb128 0x1
 10827 36d1 52       		.byte	0x52
 10828 36d2 02       		.uleb128 0x2
 10829 36d3 77       		.byte	0x77
 10830 36d4 00       		.sleb128 0
 10831 36d5 00       		.byte	0
 10832 36d6 29       		.uleb128 0x29
 10833 36d7 26000000 		.4byte	.LVL310
 10834 36db 82480000 		.4byte	0x4882
 10835 36df F3360000 		.4byte	0x36f3
 10836 36e3 2A       		.uleb128 0x2a
 10837 36e4 01       		.uleb128 0x1
 10838 36e5 50       		.byte	0x50
 10839 36e6 02       		.uleb128 0x2
 10840 36e7 77       		.byte	0x77
 10841 36e8 00       		.sleb128 0
 10842 36e9 2A       		.uleb128 0x2a
 10843 36ea 01       		.uleb128 0x1
 10844 36eb 51       		.byte	0x51
 10845 36ec 05       		.uleb128 0x5
 10846 36ed 03       		.byte	0x3
 10847 36ee 20000000 		.4byte	.LC2
 10848 36f2 00       		.byte	0
 10849 36f3 29       		.uleb128 0x29
 10850 36f4 2E000000 		.4byte	.LVL313
 10851 36f8 1C480000 		.4byte	0x481c
 10852 36fc 07370000 		.4byte	0x3707
 10853 3700 2A       		.uleb128 0x2a
 10854 3701 01       		.uleb128 0x1
 10855 3702 50       		.byte	0x50
 10856 3703 02       		.uleb128 0x2
 10857 3704 76       		.byte	0x76
 10858 3705 00       		.sleb128 0
 10859 3706 00       		.byte	0
 10860 3707 30       		.uleb128 0x30
 10861 3708 32000000 		.4byte	.LVL314
 10862 370c 1C480000 		.4byte	0x481c
 10863 3710 00       		.byte	0
 10864 3711 07       		.uleb128 0x7
 10865 3712 04       		.byte	0x4
 10866 3713 22140000 		.4byte	0x1422
 10867 3717 2C       		.uleb128 0x2c
 10868 3718 45240000 		.4byte	.LASF663
 10869 371c 01       		.byte	0x1
 10870 371d 5503     		.2byte	0x355
 10871 371f 00000000 		.4byte	.LFB373
 10872 3723 2E000000 		.4byte	.LFE373-.LFB373
 10873 3727 01       		.uleb128 0x1
 10874 3728 9C       		.byte	0x9c
 10875 3729 C7370000 		.4byte	0x37c7
 10876 372d 26       		.uleb128 0x26
 10877 372e 9B190000 		.4byte	.LASF601
 10878 3732 01       		.byte	0x1
 10879 3733 5503     		.2byte	0x355
 10880 3735 77180000 		.4byte	0x1877
 10881 3739 CE100000 		.4byte	.LLST133
ARM GAS  C:\Users\strap\AppData\Local\Temp\ccTzHSZB.s 			page 235


 10882 373d 27       		.uleb128 0x27
 10883 373e 65787400 		.ascii	"ext\000"
 10884 3742 01       		.byte	0x1
 10885 3743 5703     		.2byte	0x357
 10886 3745 DB1E0000 		.4byte	0x1edb
 10887 3749 EC100000 		.4byte	.LLST134
 10888 374d 29       		.uleb128 0x29
 10889 374e 08000000 		.4byte	.LVL360
 10890 3752 9B460000 		.4byte	0x469b
 10891 3756 61370000 		.4byte	0x3761
 10892 375a 2A       		.uleb128 0x2a
 10893 375b 01       		.uleb128 0x1
 10894 375c 50       		.byte	0x50
 10895 375d 02       		.uleb128 0x2
 10896 375e 74       		.byte	0x74
 10897 375f 00       		.sleb128 0
 10898 3760 00       		.byte	0
 10899 3761 29       		.uleb128 0x29
 10900 3762 10000000 		.4byte	.LVL363
 10901 3766 E11E0000 		.4byte	0x1ee1
 10902 376a 75370000 		.4byte	0x3775
 10903 376e 2A       		.uleb128 0x2a
 10904 376f 01       		.uleb128 0x1
 10905 3770 50       		.byte	0x50
 10906 3771 02       		.uleb128 0x2
 10907 3772 74       		.byte	0x74
 10908 3773 00       		.sleb128 0
 10909 3774 00       		.byte	0
 10910 3775 29       		.uleb128 0x29
 10911 3776 16000000 		.4byte	.LVL364
 10912 377a C0220000 		.4byte	0x22c0
 10913 377e 89370000 		.4byte	0x3789
 10914 3782 2A       		.uleb128 0x2a
 10915 3783 01       		.uleb128 0x1
 10916 3784 50       		.byte	0x50
 10917 3785 02       		.uleb128 0x2
 10918 3786 74       		.byte	0x74
 10919 3787 00       		.sleb128 0
 10920 3788 00       		.byte	0
 10921 3789 29       		.uleb128 0x29
 10922 378a 1C000000 		.4byte	.LVL365
 10923 378e F7240000 		.4byte	0x24f7
 10924 3792 9D370000 		.4byte	0x379d
 10925 3796 2A       		.uleb128 0x2a
 10926 3797 01       		.uleb128 0x1
 10927 3798 50       		.byte	0x50
 10928 3799 02       		.uleb128 0x2
 10929 379a 74       		.byte	0x74
 10930 379b 00       		.sleb128 0
 10931 379c 00       		.byte	0
 10932 379d 29       		.uleb128 0x29
 10933 379e 22000000 		.4byte	.LVL366
 10934 37a2 68260000 		.4byte	0x2668
 10935 37a6 B1370000 		.4byte	0x37b1
 10936 37aa 2A       		.uleb128 0x2a
 10937 37ab 01       		.uleb128 0x1
 10938 37ac 50       		.byte	0x50
ARM GAS  C:\Users\strap\AppData\Local\Temp\ccTzHSZB.s 			page 236


 10939 37ad 02       		.uleb128 0x2
 10940 37ae 74       		.byte	0x74
 10941 37af 00       		.sleb128 0
 10942 37b0 00       		.byte	0
 10943 37b1 2B       		.uleb128 0x2b
 10944 37b2 2C000000 		.4byte	.LVL367
 10945 37b6 082D0000 		.4byte	0x2d08
 10946 37ba 2A       		.uleb128 0x2a
 10947 37bb 01       		.uleb128 0x1
 10948 37bc 50       		.byte	0x50
 10949 37bd 02       		.uleb128 0x2
 10950 37be 74       		.byte	0x74
 10951 37bf 00       		.sleb128 0
 10952 37c0 2A       		.uleb128 0x2a
 10953 37c1 01       		.uleb128 0x1
 10954 37c2 52       		.byte	0x52
 10955 37c3 01       		.uleb128 0x1
 10956 37c4 30       		.byte	0x30
 10957 37c5 00       		.byte	0
 10958 37c6 00       		.byte	0
 10959 37c7 39       		.uleb128 0x39
 10960 37c8 D7240000 		.4byte	.LASF664
 10961 37cc 01       		.byte	0x1
 10962 37cd 5B02     		.2byte	0x25b
 10963 37cf AD010000 		.4byte	0x1ad
 10964 37d3 00000000 		.4byte	.LFB369
 10965 37d7 40020000 		.4byte	.LFE369-.LFB369
 10966 37db 01       		.uleb128 0x1
 10967 37dc 9C       		.byte	0x9c
 10968 37dd 723B0000 		.4byte	0x3b72
 10969 37e1 26       		.uleb128 0x26
 10970 37e2 9B190000 		.4byte	.LASF601
 10971 37e6 01       		.byte	0x1
 10972 37e7 5B02     		.2byte	0x25b
 10973 37e9 77180000 		.4byte	0x1877
 10974 37ed 0A110000 		.4byte	.LLST135
 10975 37f1 26       		.uleb128 0x26
 10976 37f2 CA020000 		.4byte	.LASF654
 10977 37f6 01       		.byte	0x1
 10978 37f7 5B02     		.2byte	0x25b
 10979 37f9 20160000 		.4byte	0x1620
 10980 37fd 62110000 		.4byte	.LLST136
 10981 3801 26       		.uleb128 0x26
 10982 3802 002F0000 		.4byte	.LASF655
 10983 3806 01       		.byte	0x1
 10984 3807 5B02     		.2byte	0x25b
 10985 3809 31010000 		.4byte	0x131
 10986 380d B5110000 		.4byte	.LLST137
 10987 3811 27       		.uleb128 0x27
 10988 3812 72657300 		.ascii	"res\000"
 10989 3816 01       		.byte	0x1
 10990 3817 5D02     		.2byte	0x25d
 10991 3819 AD010000 		.4byte	0x1ad
 10992 381d 0D120000 		.4byte	.LLST138
 10993 3821 27       		.uleb128 0x27
 10994 3822 65787400 		.ascii	"ext\000"
 10995 3826 01       		.byte	0x1
ARM GAS  C:\Users\strap\AppData\Local\Temp\ccTzHSZB.s 			page 237


 10996 3827 7402     		.2byte	0x274
 10997 3829 DB1E0000 		.4byte	0x1edb
 10998 382d 36120000 		.4byte	.LLST139
 10999 3831 3A       		.uleb128 0x3a
 11000 3832 00000000 		.4byte	.Ldebug_ranges0+0
 11001 3836 77380000 		.4byte	0x3877
 11002 383a 28       		.uleb128 0x28
 11003 383b 4C200000 		.4byte	.LASF665
 11004 383f 01       		.byte	0x1
 11005 3840 5F02     		.2byte	0x25f
 11006 3842 723B0000 		.4byte	0x3b72
 11007 3846 CD120000 		.4byte	.LLST140
 11008 384a 29       		.uleb128 0x29
 11009 384b 14000000 		.4byte	.LVL371
 11010 384f F81D0000 		.4byte	0x1df8
 11011 3853 5E380000 		.4byte	0x385e
 11012 3857 2A       		.uleb128 0x2a
 11013 3858 01       		.uleb128 0x1
 11014 3859 50       		.byte	0x50
 11015 385a 02       		.uleb128 0x2
 11016 385b 78       		.byte	0x78
 11017 385c 00       		.sleb128 0
 11018 385d 00       		.byte	0
 11019 385e 3B       		.uleb128 0x3b
 11020 385f 28000000 		.4byte	.LVL372
 11021 3863 2A       		.uleb128 0x2a
 11022 3864 01       		.uleb128 0x1
 11023 3865 50       		.byte	0x50
 11024 3866 02       		.uleb128 0x2
 11025 3867 78       		.byte	0x78
 11026 3868 00       		.sleb128 0
 11027 3869 2A       		.uleb128 0x2a
 11028 386a 01       		.uleb128 0x1
 11029 386b 51       		.byte	0x51
 11030 386c 02       		.uleb128 0x2
 11031 386d 75       		.byte	0x75
 11032 386e 00       		.sleb128 0
 11033 386f 2A       		.uleb128 0x2a
 11034 3870 01       		.uleb128 0x1
 11035 3871 52       		.byte	0x52
 11036 3872 02       		.uleb128 0x2
 11037 3873 77       		.byte	0x77
 11038 3874 00       		.sleb128 0
 11039 3875 00       		.byte	0
 11040 3876 00       		.byte	0
 11041 3877 3A       		.uleb128 0x3a
 11042 3878 18000000 		.4byte	.Ldebug_ranges0+0x18
 11043 387c F3380000 		.4byte	0x38f3
 11044 3880 27       		.uleb128 0x27
 11045 3881 65787400 		.ascii	"ext\000"
 11046 3885 01       		.byte	0x1
 11047 3886 6502     		.2byte	0x265
 11048 3888 DB1E0000 		.4byte	0x1edb
 11049 388c F6120000 		.4byte	.LLST141
 11050 3890 28       		.uleb128 0x28
 11051 3891 4C200000 		.4byte	.LASF665
 11052 3895 01       		.byte	0x1
ARM GAS  C:\Users\strap\AppData\Local\Temp\ccTzHSZB.s 			page 238


 11053 3896 6602     		.2byte	0x266
 11054 3898 783B0000 		.4byte	0x3b78
 11055 389c 35130000 		.4byte	.LLST142
 11056 38a0 30       		.uleb128 0x30
 11057 38a1 34000000 		.4byte	.LVL374
 11058 38a5 9B460000 		.4byte	0x469b
 11059 38a9 29       		.uleb128 0x29
 11060 38aa 42000000 		.4byte	.LVL376
 11061 38ae 8E480000 		.4byte	0x488e
 11062 38b2 BC380000 		.4byte	0x38bc
 11063 38b6 2A       		.uleb128 0x2a
 11064 38b7 01       		.uleb128 0x1
 11065 38b8 51       		.byte	0x51
 11066 38b9 01       		.uleb128 0x1
 11067 38ba 30       		.byte	0x30
 11068 38bb 00       		.byte	0
 11069 38bc 29       		.uleb128 0x29
 11070 38bd 56000000 		.4byte	.LVL379
 11071 38c1 8E480000 		.4byte	0x488e
 11072 38c5 CF380000 		.4byte	0x38cf
 11073 38c9 2A       		.uleb128 0x2a
 11074 38ca 01       		.uleb128 0x1
 11075 38cb 51       		.byte	0x51
 11076 38cc 01       		.uleb128 0x1
 11077 38cd 31       		.byte	0x31
 11078 38ce 00       		.byte	0
 11079 38cf 29       		.uleb128 0x29
 11080 38d0 6A000000 		.4byte	.LVL382
 11081 38d4 8E480000 		.4byte	0x488e
 11082 38d8 E2380000 		.4byte	0x38e2
 11083 38dc 2A       		.uleb128 0x2a
 11084 38dd 01       		.uleb128 0x1
 11085 38de 51       		.byte	0x51
 11086 38df 01       		.uleb128 0x1
 11087 38e0 30       		.byte	0x30
 11088 38e1 00       		.byte	0
 11089 38e2 2B       		.uleb128 0x2b
 11090 38e3 80000000 		.4byte	.LVL385
 11091 38e7 8E480000 		.4byte	0x488e
 11092 38eb 2A       		.uleb128 0x2a
 11093 38ec 01       		.uleb128 0x1
 11094 38ed 51       		.byte	0x51
 11095 38ee 02       		.uleb128 0x2
 11096 38ef 08       		.byte	0x8
 11097 38f0 40       		.byte	0x40
 11098 38f1 00       		.byte	0
 11099 38f2 00       		.byte	0
 11100 38f3 3A       		.uleb128 0x3a
 11101 38f4 30000000 		.4byte	.Ldebug_ranges0+0x30
 11102 38f8 1D390000 		.4byte	0x391d
 11103 38fc 27       		.uleb128 0x27
 11104 38fd 6900     		.ascii	"i\000"
 11105 38ff 01       		.byte	0x1
 11106 3900 7602     		.2byte	0x276
 11107 3902 CE000000 		.4byte	0xce
 11108 3906 53130000 		.4byte	.LLST143
 11109 390a 30       		.uleb128 0x30
ARM GAS  C:\Users\strap\AppData\Local\Temp\ccTzHSZB.s 			page 239


 11110 390b B6000000 		.4byte	.LVL396
 11111 390f 9A480000 		.4byte	0x489a
 11112 3913 30       		.uleb128 0x30
 11113 3914 D4000000 		.4byte	.LVL401
 11114 3918 9A480000 		.4byte	0x489a
 11115 391c 00       		.byte	0
 11116 391d 2E       		.uleb128 0x2e
 11117 391e 9D1C0000 		.4byte	0x1c9d
 11118 3922 08010000 		.4byte	.LBB155
 11119 3926 0E000000 		.4byte	.LBE155-.LBB155
 11120 392a 01       		.byte	0x1
 11121 392b 8502     		.2byte	0x285
 11122 392d 3B390000 		.4byte	0x393b
 11123 3931 2F       		.uleb128 0x2f
 11124 3932 AD1C0000 		.4byte	0x1cad
 11125 3936 7C130000 		.4byte	.LLST144
 11126 393a 00       		.byte	0
 11127 393b 2E       		.uleb128 0x2e
 11128 393c B91C0000 		.4byte	0x1cb9
 11129 3940 20010000 		.4byte	.LBB157
 11130 3944 0E000000 		.4byte	.LBE157-.LBB157
 11131 3948 01       		.byte	0x1
 11132 3949 8602     		.2byte	0x286
 11133 394b 59390000 		.4byte	0x3959
 11134 394f 2F       		.uleb128 0x2f
 11135 3950 C91C0000 		.4byte	0x1cc9
 11136 3954 8F130000 		.4byte	.LLST145
 11137 3958 00       		.byte	0
 11138 3959 33       		.uleb128 0x33
 11139 395a 3E010000 		.4byte	.LBB159
 11140 395e 30000000 		.4byte	.LBE159-.LBB159
 11141 3962 D4390000 		.4byte	0x39d4
 11142 3966 28       		.uleb128 0x28
 11143 3967 95280000 		.4byte	.LASF656
 11144 396b 01       		.byte	0x1
 11145 396c 8E02     		.2byte	0x28e
 11146 396e 11370000 		.4byte	0x3711
 11147 3972 A2130000 		.4byte	.LLST146
 11148 3976 28       		.uleb128 0x28
 11149 3977 AD1A0000 		.4byte	.LASF666
 11150 397b 01       		.byte	0x1
 11151 397c 8F02     		.2byte	0x28f
 11152 397e 34100000 		.4byte	0x1034
 11153 3982 B5130000 		.4byte	.LLST147
 11154 3986 30       		.uleb128 0x30
 11155 3987 42010000 		.4byte	.LVL414
 11156 398b 34480000 		.4byte	0x4834
 11157 398f 30       		.uleb128 0x30
 11158 3990 46010000 		.4byte	.LVL415
 11159 3994 3F480000 		.4byte	0x483f
 11160 3998 29       		.uleb128 0x29
 11161 3999 54010000 		.4byte	.LVL417
 11162 399d 4A480000 		.4byte	0x484a
 11163 39a1 AC390000 		.4byte	0x39ac
 11164 39a5 2A       		.uleb128 0x2a
 11165 39a6 01       		.uleb128 0x1
 11166 39a7 50       		.byte	0x50
ARM GAS  C:\Users\strap\AppData\Local\Temp\ccTzHSZB.s 			page 240


 11167 39a8 02       		.uleb128 0x2
 11168 39a9 78       		.byte	0x78
 11169 39aa 00       		.sleb128 0
 11170 39ab 00       		.byte	0
 11171 39ac 30       		.uleb128 0x30
 11172 39ad 58010000 		.4byte	.LVL418
 11173 39b1 A5480000 		.4byte	0x48a5
 11174 39b5 30       		.uleb128 0x30
 11175 39b6 62010000 		.4byte	.LVL419
 11176 39ba B0480000 		.4byte	0x48b0
 11177 39be 2B       		.uleb128 0x2b
 11178 39bf 6C010000 		.4byte	.LVL420
 11179 39c3 28480000 		.4byte	0x4828
 11180 39c7 2A       		.uleb128 0x2a
 11181 39c8 01       		.uleb128 0x1
 11182 39c9 50       		.byte	0x50
 11183 39ca 02       		.uleb128 0x2
 11184 39cb 74       		.byte	0x74
 11185 39cc 00       		.sleb128 0
 11186 39cd 2A       		.uleb128 0x2a
 11187 39ce 01       		.uleb128 0x1
 11188 39cf 51       		.byte	0x51
 11189 39d0 01       		.uleb128 0x1
 11190 39d1 36       		.byte	0x36
 11191 39d2 00       		.byte	0
 11192 39d3 00       		.byte	0
 11193 39d4 33       		.uleb128 0x33
 11194 39d5 72010000 		.4byte	.LBB160
 11195 39d9 04000000 		.4byte	.LBE160-.LBB160
 11196 39dd F2390000 		.4byte	0x39f2
 11197 39e1 28       		.uleb128 0x28
 11198 39e2 EF140000 		.4byte	.LASF667
 11199 39e6 01       		.byte	0x1
 11200 39e7 9802     		.2byte	0x298
 11201 39e9 7E3B0000 		.4byte	0x3b7e
 11202 39ed C8130000 		.4byte	.LLST148
 11203 39f1 00       		.byte	0
 11204 39f2 3A       		.uleb128 0x3a
 11205 39f3 48000000 		.4byte	.Ldebug_ranges0+0x48
 11206 39f7 B93A0000 		.4byte	0x3ab9
 11207 39fb 28       		.uleb128 0x28
 11208 39fc 11030000 		.4byte	.LASF316
 11209 3a00 01       		.byte	0x1
 11210 3a01 AD02     		.2byte	0x2ad
 11211 3a03 F9160000 		.4byte	0x16f9
 11212 3a07 DB130000 		.4byte	.LLST149
 11213 3a0b 29       		.uleb128 0x29
 11214 3a0c B0010000 		.4byte	.LVL426
 11215 3a10 8E480000 		.4byte	0x488e
 11216 3a14 243A0000 		.4byte	0x3a24
 11217 3a18 2A       		.uleb128 0x2a
 11218 3a19 01       		.uleb128 0x1
 11219 3a1a 50       		.byte	0x50
 11220 3a1b 02       		.uleb128 0x2
 11221 3a1c 78       		.byte	0x78
 11222 3a1d 00       		.sleb128 0
 11223 3a1e 2A       		.uleb128 0x2a
ARM GAS  C:\Users\strap\AppData\Local\Temp\ccTzHSZB.s 			page 241


 11224 3a1f 01       		.uleb128 0x1
 11225 3a20 51       		.byte	0x51
 11226 3a21 01       		.uleb128 0x1
 11227 3a22 30       		.byte	0x30
 11228 3a23 00       		.byte	0
 11229 3a24 29       		.uleb128 0x29
 11230 3a25 C2010000 		.4byte	.LVL429
 11231 3a29 BC480000 		.4byte	0x48bc
 11232 3a2d 373A0000 		.4byte	0x3a37
 11233 3a31 2A       		.uleb128 0x2a
 11234 3a32 01       		.uleb128 0x1
 11235 3a33 51       		.byte	0x51
 11236 3a34 01       		.uleb128 0x1
 11237 3a35 32       		.byte	0x32
 11238 3a36 00       		.byte	0
 11239 3a37 29       		.uleb128 0x29
 11240 3a38 CC010000 		.4byte	.LVL430
 11241 3a3c BC480000 		.4byte	0x48bc
 11242 3a40 4A3A0000 		.4byte	0x3a4a
 11243 3a44 2A       		.uleb128 0x2a
 11244 3a45 01       		.uleb128 0x1
 11245 3a46 51       		.byte	0x51
 11246 3a47 01       		.uleb128 0x1
 11247 3a48 32       		.byte	0x32
 11248 3a49 00       		.byte	0
 11249 3a4a 29       		.uleb128 0x29
 11250 3a4b D8010000 		.4byte	.LVL433
 11251 3a4f C8480000 		.4byte	0x48c8
 11252 3a53 5D3A0000 		.4byte	0x3a5d
 11253 3a57 2A       		.uleb128 0x2a
 11254 3a58 01       		.uleb128 0x1
 11255 3a59 51       		.byte	0x51
 11256 3a5a 01       		.uleb128 0x1
 11257 3a5b 32       		.byte	0x32
 11258 3a5c 00       		.byte	0
 11259 3a5d 29       		.uleb128 0x29
 11260 3a5e E2010000 		.4byte	.LVL434
 11261 3a62 C8480000 		.4byte	0x48c8
 11262 3a66 703A0000 		.4byte	0x3a70
 11263 3a6a 2A       		.uleb128 0x2a
 11264 3a6b 01       		.uleb128 0x1
 11265 3a6c 51       		.byte	0x51
 11266 3a6d 01       		.uleb128 0x1
 11267 3a6e 32       		.byte	0x32
 11268 3a6f 00       		.byte	0
 11269 3a70 29       		.uleb128 0x29
 11270 3a71 F2010000 		.4byte	.LVL435
 11271 3a75 BC480000 		.4byte	0x48bc
 11272 3a79 833A0000 		.4byte	0x3a83
 11273 3a7d 2A       		.uleb128 0x2a
 11274 3a7e 01       		.uleb128 0x1
 11275 3a7f 51       		.byte	0x51
 11276 3a80 01       		.uleb128 0x1
 11277 3a81 34       		.byte	0x34
 11278 3a82 00       		.byte	0
 11279 3a83 29       		.uleb128 0x29
 11280 3a84 FC010000 		.4byte	.LVL436
ARM GAS  C:\Users\strap\AppData\Local\Temp\ccTzHSZB.s 			page 242


 11281 3a88 BC480000 		.4byte	0x48bc
 11282 3a8c 963A0000 		.4byte	0x3a96
 11283 3a90 2A       		.uleb128 0x2a
 11284 3a91 01       		.uleb128 0x1
 11285 3a92 51       		.byte	0x51
 11286 3a93 01       		.uleb128 0x1
 11287 3a94 34       		.byte	0x34
 11288 3a95 00       		.byte	0
 11289 3a96 29       		.uleb128 0x29
 11290 3a97 0C020000 		.4byte	.LVL438
 11291 3a9b C8480000 		.4byte	0x48c8
 11292 3a9f A93A0000 		.4byte	0x3aa9
 11293 3aa3 2A       		.uleb128 0x2a
 11294 3aa4 01       		.uleb128 0x1
 11295 3aa5 51       		.byte	0x51
 11296 3aa6 01       		.uleb128 0x1
 11297 3aa7 34       		.byte	0x34
 11298 3aa8 00       		.byte	0
 11299 3aa9 2B       		.uleb128 0x2b
 11300 3aaa 16020000 		.4byte	.LVL439
 11301 3aae C8480000 		.4byte	0x48c8
 11302 3ab2 2A       		.uleb128 0x2a
 11303 3ab3 01       		.uleb128 0x1
 11304 3ab4 51       		.byte	0x51
 11305 3ab5 01       		.uleb128 0x1
 11306 3ab6 34       		.byte	0x34
 11307 3ab7 00       		.byte	0
 11308 3ab8 00       		.byte	0
 11309 3ab9 29       		.uleb128 0x29
 11310 3aba A2000000 		.4byte	.LVL390
 11311 3abe 82480000 		.4byte	0x4882
 11312 3ac2 D63A0000 		.4byte	0x3ad6
 11313 3ac6 2A       		.uleb128 0x2a
 11314 3ac7 01       		.uleb128 0x1
 11315 3ac8 50       		.byte	0x50
 11316 3ac9 02       		.uleb128 0x2
 11317 3aca 77       		.byte	0x77
 11318 3acb 00       		.sleb128 0
 11319 3acc 2A       		.uleb128 0x2a
 11320 3acd 01       		.uleb128 0x1
 11321 3ace 51       		.byte	0x51
 11322 3acf 05       		.uleb128 0x5
 11323 3ad0 03       		.byte	0x3
 11324 3ad1 24000000 		.4byte	.LC3
 11325 3ad5 00       		.byte	0
 11326 3ad6 29       		.uleb128 0x29
 11327 3ad7 AC000000 		.4byte	.LVL393
 11328 3adb 9B460000 		.4byte	0x469b
 11329 3adf EA3A0000 		.4byte	0x3aea
 11330 3ae3 2A       		.uleb128 0x2a
 11331 3ae4 01       		.uleb128 0x1
 11332 3ae5 50       		.byte	0x50
 11333 3ae6 02       		.uleb128 0x2
 11334 3ae7 78       		.byte	0x78
 11335 3ae8 00       		.sleb128 0
 11336 3ae9 00       		.byte	0
 11337 3aea 29       		.uleb128 0x29
ARM GAS  C:\Users\strap\AppData\Local\Temp\ccTzHSZB.s 			page 243


 11338 3aeb F2000000 		.4byte	.LVL404
 11339 3aef D4480000 		.4byte	0x48d4
 11340 3af3 023B0000 		.4byte	0x3b02
 11341 3af7 2A       		.uleb128 0x2a
 11342 3af8 01       		.uleb128 0x1
 11343 3af9 51       		.byte	0x51
 11344 3afa 01       		.uleb128 0x1
 11345 3afb 34       		.byte	0x34
 11346 3afc 2A       		.uleb128 0x2a
 11347 3afd 01       		.uleb128 0x1
 11348 3afe 52       		.byte	0x52
 11349 3aff 01       		.uleb128 0x1
 11350 3b00 30       		.byte	0x30
 11351 3b01 00       		.byte	0
 11352 3b02 29       		.uleb128 0x29
 11353 3b03 F8000000 		.4byte	.LVL405
 11354 3b07 17370000 		.4byte	0x3717
 11355 3b0b 163B0000 		.4byte	0x3b16
 11356 3b0f 2A       		.uleb128 0x2a
 11357 3b10 01       		.uleb128 0x1
 11358 3b11 50       		.byte	0x50
 11359 3b12 02       		.uleb128 0x2
 11360 3b13 78       		.byte	0x78
 11361 3b14 00       		.sleb128 0
 11362 3b15 00       		.byte	0
 11363 3b16 29       		.uleb128 0x29
 11364 3b17 08010000 		.4byte	.LVL408
 11365 3b1b D7460000 		.4byte	0x46d7
 11366 3b1f 2A3B0000 		.4byte	0x3b2a
 11367 3b23 2A       		.uleb128 0x2a
 11368 3b24 01       		.uleb128 0x1
 11369 3b25 50       		.byte	0x50
 11370 3b26 02       		.uleb128 0x2
 11371 3b27 78       		.byte	0x78
 11372 3b28 00       		.sleb128 0
 11373 3b29 00       		.byte	0
 11374 3b2a 29       		.uleb128 0x29
 11375 3b2b 20010000 		.4byte	.LVL410
 11376 3b2f EE460000 		.4byte	0x46ee
 11377 3b33 3E3B0000 		.4byte	0x3b3e
 11378 3b37 2A       		.uleb128 0x2a
 11379 3b38 01       		.uleb128 0x1
 11380 3b39 50       		.byte	0x50
 11381 3b3a 02       		.uleb128 0x2
 11382 3b3b 78       		.byte	0x78
 11383 3b3c 00       		.sleb128 0
 11384 3b3d 00       		.byte	0
 11385 3b3e 29       		.uleb128 0x29
 11386 3b3f 38010000 		.4byte	.LVL412
 11387 3b43 17370000 		.4byte	0x3717
 11388 3b47 523B0000 		.4byte	0x3b52
 11389 3b4b 2A       		.uleb128 0x2a
 11390 3b4c 01       		.uleb128 0x1
 11391 3b4d 50       		.byte	0x50
 11392 3b4e 02       		.uleb128 0x2
 11393 3b4f 78       		.byte	0x78
 11394 3b50 00       		.sleb128 0
ARM GAS  C:\Users\strap\AppData\Local\Temp\ccTzHSZB.s 			page 244


 11395 3b51 00       		.byte	0
 11396 3b52 38       		.uleb128 0x38
 11397 3b53 94010000 		.4byte	.LVL424
 11398 3b57 683B0000 		.4byte	0x3b68
 11399 3b5b 2A       		.uleb128 0x2a
 11400 3b5c 01       		.uleb128 0x1
 11401 3b5d 51       		.byte	0x51
 11402 3b5e 02       		.uleb128 0x2
 11403 3b5f 75       		.byte	0x75
 11404 3b60 00       		.sleb128 0
 11405 3b61 2A       		.uleb128 0x2a
 11406 3b62 01       		.uleb128 0x1
 11407 3b63 52       		.byte	0x52
 11408 3b64 02       		.uleb128 0x2
 11409 3b65 77       		.byte	0x77
 11410 3b66 00       		.sleb128 0
 11411 3b67 00       		.byte	0
 11412 3b68 30       		.uleb128 0x30
 11413 3b69 A4010000 		.4byte	.LVL425
 11414 3b6d E0480000 		.4byte	0x48e0
 11415 3b71 00       		.byte	0
 11416 3b72 07       		.uleb128 0x7
 11417 3b73 04       		.byte	0x4
 11418 3b74 5E170000 		.4byte	0x175e
 11419 3b78 07       		.uleb128 0x7
 11420 3b79 04       		.byte	0x4
 11421 3b7a 8E170000 		.4byte	0x178e
 11422 3b7e 07       		.uleb128 0x7
 11423 3b7f 04       		.byte	0x4
 11424 3b80 AC030000 		.4byte	0x3ac
 11425 3b84 31       		.uleb128 0x31
 11426 3b85 081E0000 		.4byte	.LASF668
 11427 3b89 01       		.byte	0x1
 11428 3b8a E901     		.2byte	0x1e9
 11429 3b8c 00000000 		.4byte	.LFB363
 11430 3b90 38000000 		.4byte	.LFE363-.LFB363
 11431 3b94 01       		.uleb128 0x1
 11432 3b95 9C       		.byte	0x9c
 11433 3b96 1A3C0000 		.4byte	0x3c1a
 11434 3b9a 26       		.uleb128 0x26
 11435 3b9b 9B190000 		.4byte	.LASF601
 11436 3b9f 01       		.byte	0x1
 11437 3ba0 E901     		.2byte	0x1e9
 11438 3ba2 77180000 		.4byte	0x1877
 11439 3ba6 F9130000 		.4byte	.LLST150
 11440 3baa 26       		.uleb128 0x26
 11441 3bab 2F050000 		.4byte	.LASF525
 11442 3baf 01       		.byte	0x1
 11443 3bb0 E901     		.2byte	0x1e9
 11444 3bb2 0A190000 		.4byte	0x190a
 11445 3bb6 22140000 		.4byte	.LLST151
 11446 3bba 27       		.uleb128 0x27
 11447 3bbb 65787400 		.ascii	"ext\000"
 11448 3bbf 01       		.byte	0x1
 11449 3bc0 F501     		.2byte	0x1f5
 11450 3bc2 DB1E0000 		.4byte	0x1edb
 11451 3bc6 4E140000 		.4byte	.LLST152
ARM GAS  C:\Users\strap\AppData\Local\Temp\ccTzHSZB.s 			page 245


 11452 3bca 29       		.uleb128 0x29
 11453 3bcb 0E000000 		.4byte	.LVL448
 11454 3bcf 85460000 		.4byte	0x4685
 11455 3bd3 DE3B0000 		.4byte	0x3bde
 11456 3bd7 2A       		.uleb128 0x2a
 11457 3bd8 01       		.uleb128 0x1
 11458 3bd9 50       		.byte	0x50
 11459 3bda 02       		.uleb128 0x2
 11460 3bdb 74       		.byte	0x74
 11461 3bdc 00       		.sleb128 0
 11462 3bdd 00       		.byte	0
 11463 3bde 29       		.uleb128 0x29
 11464 3bdf 1A000000 		.4byte	.LVL449
 11465 3be3 90460000 		.4byte	0x4690
 11466 3be7 F53B0000 		.4byte	0x3bf5
 11467 3beb 2A       		.uleb128 0x2a
 11468 3bec 01       		.uleb128 0x1
 11469 3bed 50       		.byte	0x50
 11470 3bee 05       		.uleb128 0x5
 11471 3bef 03       		.byte	0x3
 11472 3bf0 00000000 		.4byte	.LC0
 11473 3bf4 00       		.byte	0
 11474 3bf5 29       		.uleb128 0x29
 11475 3bf6 22000000 		.4byte	.LVL450
 11476 3bfa 9B460000 		.4byte	0x469b
 11477 3bfe 093C0000 		.4byte	0x3c09
 11478 3c02 2A       		.uleb128 0x2a
 11479 3c03 01       		.uleb128 0x1
 11480 3c04 50       		.byte	0x50
 11481 3c05 02       		.uleb128 0x2
 11482 3c06 74       		.byte	0x74
 11483 3c07 00       		.sleb128 0
 11484 3c08 00       		.byte	0
 11485 3c09 2B       		.uleb128 0x2b
 11486 3c0a 30000000 		.4byte	.LVL452
 11487 3c0e 17370000 		.4byte	0x3717
 11488 3c12 2A       		.uleb128 0x2a
 11489 3c13 01       		.uleb128 0x1
 11490 3c14 50       		.byte	0x50
 11491 3c15 02       		.uleb128 0x2
 11492 3c16 74       		.byte	0x74
 11493 3c17 00       		.sleb128 0
 11494 3c18 00       		.byte	0
 11495 3c19 00       		.byte	0
 11496 3c1a 3C       		.uleb128 0x3c
 11497 3c1b F4190000 		.4byte	.LASF669
 11498 3c1f 01       		.byte	0x1
 11499 3c20 CF       		.byte	0xcf
 11500 3c21 77180000 		.4byte	0x1877
 11501 3c25 00000000 		.4byte	.LFB358
 11502 3c29 C0010000 		.4byte	.LFE358-.LFB358
 11503 3c2d 01       		.uleb128 0x1
 11504 3c2e 9C       		.byte	0x9c
 11505 3c2f 163F0000 		.4byte	0x3f16
 11506 3c33 3D       		.uleb128 0x3d
 11507 3c34 9B190000 		.4byte	.LASF601
 11508 3c38 01       		.byte	0x1
ARM GAS  C:\Users\strap\AppData\Local\Temp\ccTzHSZB.s 			page 246


 11509 3c39 CF       		.byte	0xcf
 11510 3c3a 77180000 		.4byte	0x1877
 11511 3c3e 61140000 		.4byte	.LLST153
 11512 3c42 3D       		.uleb128 0x3d
 11513 3c43 330D0000 		.4byte	.LASF631
 11514 3c47 01       		.byte	0x1
 11515 3c48 CF       		.byte	0xcf
 11516 3c49 89010000 		.4byte	0x189
 11517 3c4d 8D140000 		.4byte	.LLST154
 11518 3c51 3E       		.uleb128 0x3e
 11519 3c52 65787400 		.ascii	"ext\000"
 11520 3c56 01       		.byte	0x1
 11521 3c57 D4       		.byte	0xd4
 11522 3c58 DB1E0000 		.4byte	0x1edb
 11523 3c5c B9140000 		.4byte	.LLST155
 11524 3c60 3E       		.uleb128 0x3e
 11525 3c61 6800     		.ascii	"h\000"
 11526 3c63 01       		.byte	0x1
 11527 3c64 D7       		.byte	0xd7
 11528 3c65 77180000 		.4byte	0x1877
 11529 3c69 D7140000 		.4byte	.LLST156
 11530 3c6d 3F       		.uleb128 0x3f
 11531 3c6e 221B0000 		.4byte	.LASF670
 11532 3c72 01       		.byte	0x1
 11533 3c73 E1       		.byte	0xe1
 11534 3c74 7C010000 		.4byte	0x17c
 11535 3c78 F5140000 		.4byte	.LLST157
 11536 3c7c 28       		.uleb128 0x28
 11537 3c7d AD050000 		.4byte	.LASF623
 11538 3c81 01       		.byte	0x1
 11539 3c82 1001     		.2byte	0x110
 11540 3c84 62260000 		.4byte	0x2662
 11541 3c88 13150000 		.4byte	.LLST158
 11542 3c8c 40       		.uleb128 0x40
 11543 3c8d 911D0000 		.4byte	0x1d91
 11544 3c91 6A000000 		.4byte	.LBB165
 11545 3c95 12000000 		.4byte	.LBE165-.LBB165
 11546 3c99 01       		.byte	0x1
 11547 3c9a DB       		.byte	0xdb
 11548 3c9b 003D0000 		.4byte	0x3d00
 11549 3c9f 2F       		.uleb128 0x2f
 11550 3ca0 C91D0000 		.4byte	0x1dc9
 11551 3ca4 26150000 		.4byte	.LLST159
 11552 3ca8 2F       		.uleb128 0x2f
 11553 3ca9 BE1D0000 		.4byte	0x1dbe
 11554 3cad 3A150000 		.4byte	.LLST160
 11555 3cb1 2F       		.uleb128 0x2f
 11556 3cb2 B31D0000 		.4byte	0x1db3
 11557 3cb6 26150000 		.4byte	.LLST159
 11558 3cba 2F       		.uleb128 0x2f
 11559 3cbb A81D0000 		.4byte	0x1da8
 11560 3cbf 3A150000 		.4byte	.LLST160
 11561 3cc3 2F       		.uleb128 0x2f
 11562 3cc4 9D1D0000 		.4byte	0x1d9d
 11563 3cc8 4E150000 		.4byte	.LLST163
 11564 3ccc 29       		.uleb128 0x29
 11565 3ccd 70000000 		.4byte	.LVL470
ARM GAS  C:\Users\strap\AppData\Local\Temp\ccTzHSZB.s 			page 247


 11566 3cd1 06470000 		.4byte	0x4706
 11567 3cd5 E03C0000 		.4byte	0x3ce0
 11568 3cd9 2A       		.uleb128 0x2a
 11569 3cda 01       		.uleb128 0x1
 11570 3cdb 50       		.byte	0x50
 11571 3cdc 02       		.uleb128 0x2
 11572 3cdd 75       		.byte	0x75
 11573 3cde 00       		.sleb128 0
 11574 3cdf 00       		.byte	0
 11575 3ce0 2B       		.uleb128 0x2b
 11576 3ce1 7C000000 		.4byte	.LVL471
 11577 3ce5 EB480000 		.4byte	0x48eb
 11578 3ce9 2A       		.uleb128 0x2a
 11579 3cea 01       		.uleb128 0x1
 11580 3ceb 51       		.byte	0x51
 11581 3cec 01       		.uleb128 0x1
 11582 3ced 30       		.byte	0x30
 11583 3cee 2A       		.uleb128 0x2a
 11584 3cef 01       		.uleb128 0x1
 11585 3cf0 52       		.byte	0x52
 11586 3cf1 01       		.uleb128 0x1
 11587 3cf2 33       		.byte	0x33
 11588 3cf3 2A       		.uleb128 0x2a
 11589 3cf4 01       		.uleb128 0x1
 11590 3cf5 53       		.byte	0x53
 11591 3cf6 01       		.uleb128 0x1
 11592 3cf7 30       		.byte	0x30
 11593 3cf8 2A       		.uleb128 0x2a
 11594 3cf9 02       		.uleb128 0x2
 11595 3cfa 7D       		.byte	0x7d
 11596 3cfb 00       		.sleb128 0
 11597 3cfc 01       		.uleb128 0x1
 11598 3cfd 33       		.byte	0x33
 11599 3cfe 00       		.byte	0
 11600 3cff 00       		.byte	0
 11601 3d00 29       		.uleb128 0x29
 11602 3d01 0E000000 		.4byte	.LVL455
 11603 3d05 85460000 		.4byte	0x4685
 11604 3d09 143D0000 		.4byte	0x3d14
 11605 3d0d 2A       		.uleb128 0x2a
 11606 3d0e 01       		.uleb128 0x1
 11607 3d0f 50       		.byte	0x50
 11608 3d10 02       		.uleb128 0x2
 11609 3d11 77       		.byte	0x77
 11610 3d12 00       		.sleb128 0
 11611 3d13 00       		.byte	0
 11612 3d14 29       		.uleb128 0x29
 11613 3d15 1A000000 		.4byte	.LVL456
 11614 3d19 90460000 		.4byte	0x4690
 11615 3d1d 2B3D0000 		.4byte	0x3d2b
 11616 3d21 2A       		.uleb128 0x2a
 11617 3d22 01       		.uleb128 0x1
 11618 3d23 50       		.byte	0x50
 11619 3d24 05       		.uleb128 0x5
 11620 3d25 03       		.byte	0x3
 11621 3d26 00000000 		.4byte	.LC0
 11622 3d2a 00       		.byte	0
ARM GAS  C:\Users\strap\AppData\Local\Temp\ccTzHSZB.s 			page 248


 11623 3d2b 29       		.uleb128 0x29
 11624 3d2c 22000000 		.4byte	.LVL457
 11625 3d30 85460000 		.4byte	0x4685
 11626 3d34 3F3D0000 		.4byte	0x3d3f
 11627 3d38 2A       		.uleb128 0x2a
 11628 3d39 01       		.uleb128 0x1
 11629 3d3a 50       		.byte	0x50
 11630 3d3b 02       		.uleb128 0x2
 11631 3d3c 78       		.byte	0x78
 11632 3d3d 00       		.sleb128 0
 11633 3d3e 00       		.byte	0
 11634 3d3f 29       		.uleb128 0x29
 11635 3d40 2E000000 		.4byte	.LVL458
 11636 3d44 90460000 		.4byte	0x4690
 11637 3d48 563D0000 		.4byte	0x3d56
 11638 3d4c 2A       		.uleb128 0x2a
 11639 3d4d 01       		.uleb128 0x1
 11640 3d4e 50       		.byte	0x50
 11641 3d4f 05       		.uleb128 0x5
 11642 3d50 03       		.byte	0x3
 11643 3d51 00000000 		.4byte	.LC0
 11644 3d55 00       		.byte	0
 11645 3d56 29       		.uleb128 0x29
 11646 3d57 36000000 		.4byte	.LVL459
 11647 3d5b 9B460000 		.4byte	0x469b
 11648 3d5f 6A3D0000 		.4byte	0x3d6a
 11649 3d63 2A       		.uleb128 0x2a
 11650 3d64 01       		.uleb128 0x1
 11651 3d65 50       		.byte	0x50
 11652 3d66 02       		.uleb128 0x2
 11653 3d67 77       		.byte	0x77
 11654 3d68 00       		.sleb128 0
 11655 3d69 00       		.byte	0
 11656 3d6a 29       		.uleb128 0x29
 11657 3d6b 40000000 		.4byte	.LVL462
 11658 3d6f F6480000 		.4byte	0x48f6
 11659 3d73 7D3D0000 		.4byte	0x3d7d
 11660 3d77 2A       		.uleb128 0x2a
 11661 3d78 01       		.uleb128 0x1
 11662 3d79 51       		.byte	0x51
 11663 3d7a 01       		.uleb128 0x1
 11664 3d7b 30       		.byte	0x30
 11665 3d7c 00       		.byte	0
 11666 3d7d 29       		.uleb128 0x29
 11667 3d7e 48000000 		.4byte	.LVL465
 11668 3d82 D7460000 		.4byte	0x46d7
 11669 3d86 913D0000 		.4byte	0x3d91
 11670 3d8a 2A       		.uleb128 0x2a
 11671 3d8b 01       		.uleb128 0x1
 11672 3d8c 50       		.byte	0x50
 11673 3d8d 02       		.uleb128 0x2
 11674 3d8e 77       		.byte	0x77
 11675 3d8f 00       		.sleb128 0
 11676 3d90 00       		.byte	0
 11677 3d91 30       		.uleb128 0x30
 11678 3d92 50000000 		.4byte	.LVL466
 11679 3d96 EE460000 		.4byte	0x46ee
ARM GAS  C:\Users\strap\AppData\Local\Temp\ccTzHSZB.s 			page 249


 11680 3d9a 29       		.uleb128 0x29
 11681 3d9b 5A000000 		.4byte	.LVL467
 11682 3d9f FA460000 		.4byte	0x46fa
 11683 3da3 B43D0000 		.4byte	0x3db4
 11684 3da7 2A       		.uleb128 0x2a
 11685 3da8 01       		.uleb128 0x1
 11686 3da9 50       		.byte	0x50
 11687 3daa 02       		.uleb128 0x2
 11688 3dab 75       		.byte	0x75
 11689 3dac 00       		.sleb128 0
 11690 3dad 2A       		.uleb128 0x2a
 11691 3dae 01       		.uleb128 0x1
 11692 3daf 51       		.byte	0x51
 11693 3db0 02       		.uleb128 0x2
 11694 3db1 76       		.byte	0x76
 11695 3db2 00       		.sleb128 0
 11696 3db3 00       		.byte	0
 11697 3db4 29       		.uleb128 0x29
 11698 3db5 62000000 		.4byte	.LVL468
 11699 3db9 01490000 		.4byte	0x4901
 11700 3dbd CD3D0000 		.4byte	0x3dcd
 11701 3dc1 2A       		.uleb128 0x2a
 11702 3dc2 01       		.uleb128 0x1
 11703 3dc3 50       		.byte	0x50
 11704 3dc4 02       		.uleb128 0x2
 11705 3dc5 75       		.byte	0x75
 11706 3dc6 00       		.sleb128 0
 11707 3dc7 2A       		.uleb128 0x2a
 11708 3dc8 01       		.uleb128 0x1
 11709 3dc9 51       		.byte	0x51
 11710 3dca 01       		.uleb128 0x1
 11711 3dcb 33       		.byte	0x33
 11712 3dcc 00       		.byte	0
 11713 3dcd 29       		.uleb128 0x29
 11714 3dce 6A000000 		.4byte	.LVL469
 11715 3dd2 0C490000 		.4byte	0x490c
 11716 3dd6 E63D0000 		.4byte	0x3de6
 11717 3dda 2A       		.uleb128 0x2a
 11718 3ddb 01       		.uleb128 0x1
 11719 3ddc 50       		.byte	0x50
 11720 3ddd 02       		.uleb128 0x2
 11721 3dde 75       		.byte	0x75
 11722 3ddf 00       		.sleb128 0
 11723 3de0 2A       		.uleb128 0x2a
 11724 3de1 01       		.uleb128 0x1
 11725 3de2 51       		.byte	0x51
 11726 3de3 01       		.uleb128 0x1
 11727 3de4 31       		.byte	0x31
 11728 3de5 00       		.byte	0
 11729 3de6 29       		.uleb128 0x29
 11730 3de7 84000000 		.4byte	.LVL472
 11731 3deb 17490000 		.4byte	0x4917
 11732 3def FF3D0000 		.4byte	0x3dff
 11733 3df3 2A       		.uleb128 0x2a
 11734 3df4 01       		.uleb128 0x1
 11735 3df5 50       		.byte	0x50
 11736 3df6 02       		.uleb128 0x2
ARM GAS  C:\Users\strap\AppData\Local\Temp\ccTzHSZB.s 			page 250


 11737 3df7 75       		.byte	0x75
 11738 3df8 00       		.sleb128 0
 11739 3df9 2A       		.uleb128 0x2a
 11740 3dfa 01       		.uleb128 0x1
 11741 3dfb 51       		.byte	0x51
 11742 3dfc 01       		.uleb128 0x1
 11743 3dfd 40       		.byte	0x40
 11744 3dfe 00       		.byte	0
 11745 3dff 29       		.uleb128 0x29
 11746 3e00 90000000 		.4byte	.LVL473
 11747 3e04 1D470000 		.4byte	0x471d
 11748 3e08 133E0000 		.4byte	0x3e13
 11749 3e0c 2A       		.uleb128 0x2a
 11750 3e0d 01       		.uleb128 0x1
 11751 3e0e 50       		.byte	0x50
 11752 3e0f 02       		.uleb128 0x2
 11753 3e10 75       		.byte	0x75
 11754 3e11 00       		.sleb128 0
 11755 3e12 00       		.byte	0
 11756 3e13 29       		.uleb128 0x29
 11757 3e14 9A000000 		.4byte	.LVL474
 11758 3e18 59470000 		.4byte	0x4759
 11759 3e1c 273E0000 		.4byte	0x3e27
 11760 3e20 2A       		.uleb128 0x2a
 11761 3e21 01       		.uleb128 0x1
 11762 3e22 50       		.byte	0x50
 11763 3e23 02       		.uleb128 0x2
 11764 3e24 78       		.byte	0x78
 11765 3e25 00       		.sleb128 0
 11766 3e26 00       		.byte	0
 11767 3e27 30       		.uleb128 0x30
 11768 3e28 A0000000 		.4byte	.LVL475
 11769 3e2c 22490000 		.4byte	0x4922
 11770 3e30 29       		.uleb128 0x29
 11771 3e31 A6000000 		.4byte	.LVL477
 11772 3e35 85460000 		.4byte	0x4685
 11773 3e39 443E0000 		.4byte	0x3e44
 11774 3e3d 2A       		.uleb128 0x2a
 11775 3e3e 01       		.uleb128 0x1
 11776 3e3f 50       		.byte	0x50
 11777 3e40 02       		.uleb128 0x2
 11778 3e41 76       		.byte	0x76
 11779 3e42 00       		.sleb128 0
 11780 3e43 00       		.byte	0
 11781 3e44 29       		.uleb128 0x29
 11782 3e45 B2000000 		.4byte	.LVL478
 11783 3e49 90460000 		.4byte	0x4690
 11784 3e4d 5B3E0000 		.4byte	0x3e5b
 11785 3e51 2A       		.uleb128 0x2a
 11786 3e52 01       		.uleb128 0x1
 11787 3e53 50       		.byte	0x50
 11788 3e54 05       		.uleb128 0x5
 11789 3e55 03       		.byte	0x3
 11790 3e56 10000000 		.4byte	.LC1
 11791 3e5a 00       		.byte	0
 11792 3e5b 29       		.uleb128 0x29
 11793 3e5c C0000000 		.4byte	.LVL479
ARM GAS  C:\Users\strap\AppData\Local\Temp\ccTzHSZB.s 			page 251


 11794 3e60 6F470000 		.4byte	0x476f
 11795 3e64 753E0000 		.4byte	0x3e75
 11796 3e68 2A       		.uleb128 0x2a
 11797 3e69 01       		.uleb128 0x1
 11798 3e6a 50       		.byte	0x50
 11799 3e6b 02       		.uleb128 0x2
 11800 3e6c 76       		.byte	0x76
 11801 3e6d 00       		.sleb128 0
 11802 3e6e 2A       		.uleb128 0x2a
 11803 3e6f 01       		.uleb128 0x1
 11804 3e70 51       		.byte	0x51
 11805 3e71 02       		.uleb128 0x2
 11806 3e72 78       		.byte	0x78
 11807 3e73 00       		.sleb128 0
 11808 3e74 00       		.byte	0
 11809 3e75 30       		.uleb128 0x30
 11810 3e76 DE000000 		.4byte	.LVL480
 11811 3e7a 64470000 		.4byte	0x4764
 11812 3e7e 30       		.uleb128 0x30
 11813 3e7f E4000000 		.4byte	.LVL481
 11814 3e83 85460000 		.4byte	0x4685
 11815 3e87 29       		.uleb128 0x29
 11816 3e88 F0000000 		.4byte	.LVL482
 11817 3e8c 90460000 		.4byte	0x4690
 11818 3e90 9E3E0000 		.4byte	0x3e9e
 11819 3e94 2A       		.uleb128 0x2a
 11820 3e95 01       		.uleb128 0x1
 11821 3e96 50       		.byte	0x50
 11822 3e97 05       		.uleb128 0x5
 11823 3e98 03       		.byte	0x3
 11824 3e99 10000000 		.4byte	.LC1
 11825 3e9d 00       		.byte	0
 11826 3e9e 30       		.uleb128 0x30
 11827 3e9f 18010000 		.4byte	.LVL483
 11828 3ea3 64470000 		.4byte	0x4764
 11829 3ea7 30       		.uleb128 0x30
 11830 3ea8 1E010000 		.4byte	.LVL484
 11831 3eac 85460000 		.4byte	0x4685
 11832 3eb0 29       		.uleb128 0x29
 11833 3eb1 2A010000 		.4byte	.LVL485
 11834 3eb5 90460000 		.4byte	0x4690
 11835 3eb9 C73E0000 		.4byte	0x3ec7
 11836 3ebd 2A       		.uleb128 0x2a
 11837 3ebe 01       		.uleb128 0x1
 11838 3ebf 50       		.byte	0x50
 11839 3ec0 05       		.uleb128 0x5
 11840 3ec1 03       		.byte	0x3
 11841 3ec2 10000000 		.4byte	.LC1
 11842 3ec6 00       		.byte	0
 11843 3ec7 30       		.uleb128 0x30
 11844 3ec8 66010000 		.4byte	.LVL486
 11845 3ecc 9B460000 		.4byte	0x469b
 11846 3ed0 30       		.uleb128 0x30
 11847 3ed1 72010000 		.4byte	.LVL488
 11848 3ed5 2D490000 		.4byte	0x492d
 11849 3ed9 29       		.uleb128 0x29
 11850 3eda 7C010000 		.4byte	.LVL489
ARM GAS  C:\Users\strap\AppData\Local\Temp\ccTzHSZB.s 			page 252


 11851 3ede F0470000 		.4byte	0x47f0
 11852 3ee2 EC3E0000 		.4byte	0x3eec
 11853 3ee6 2A       		.uleb128 0x2a
 11854 3ee7 01       		.uleb128 0x1
 11855 3ee8 52       		.byte	0x52
 11856 3ee9 01       		.uleb128 0x1
 11857 3eea 40       		.byte	0x40
 11858 3eeb 00       		.byte	0
 11859 3eec 29       		.uleb128 0x29
 11860 3eed 8C010000 		.4byte	.LVL490
 11861 3ef1 17370000 		.4byte	0x3717
 11862 3ef5 003F0000 		.4byte	0x3f00
 11863 3ef9 2A       		.uleb128 0x2a
 11864 3efa 01       		.uleb128 0x1
 11865 3efb 50       		.byte	0x50
 11866 3efc 02       		.uleb128 0x2
 11867 3efd 77       		.byte	0x77
 11868 3efe 00       		.sleb128 0
 11869 3eff 00       		.byte	0
 11870 3f00 2B       		.uleb128 0x2b
 11871 3f01 96010000 		.4byte	.LVL491
 11872 3f05 082D0000 		.4byte	0x2d08
 11873 3f09 2A       		.uleb128 0x2a
 11874 3f0a 01       		.uleb128 0x1
 11875 3f0b 50       		.byte	0x50
 11876 3f0c 02       		.uleb128 0x2
 11877 3f0d 77       		.byte	0x77
 11878 3f0e 00       		.sleb128 0
 11879 3f0f 2A       		.uleb128 0x2a
 11880 3f10 01       		.uleb128 0x1
 11881 3f11 52       		.byte	0x52
 11882 3f12 01       		.uleb128 0x1
 11883 3f13 30       		.byte	0x30
 11884 3f14 00       		.byte	0
 11885 3f15 00       		.byte	0
 11886 3f16 21       		.uleb128 0x21
 11887 3f17 B80E0000 		.4byte	.LASF671
 11888 3f1b 06       		.byte	0x6
 11889 3f1c BA       		.byte	0xba
 11890 3f1d 03       		.byte	0x3
 11891 3f1e 443F0000 		.4byte	0x3f44
 11892 3f22 22       		.uleb128 0x22
 11893 3f23 E4090000 		.4byte	.LASF595
 11894 3f27 06       		.byte	0x6
 11895 3f28 BA       		.byte	0xba
 11896 3f29 77180000 		.4byte	0x1877
 11897 3f2d 23       		.uleb128 0x23
 11898 3f2e 686F7200 		.ascii	"hor\000"
 11899 3f32 06       		.byte	0x6
 11900 3f33 BA       		.byte	0xba
 11901 3f34 2B180000 		.4byte	0x182b
 11902 3f38 23       		.uleb128 0x23
 11903 3f39 76657200 		.ascii	"ver\000"
 11904 3f3d 06       		.byte	0x6
 11905 3f3e BA       		.byte	0xba
 11906 3f3f 2B180000 		.4byte	0x182b
 11907 3f43 00       		.byte	0
ARM GAS  C:\Users\strap\AppData\Local\Temp\ccTzHSZB.s 			page 253


 11908 3f44 3C       		.uleb128 0x3c
 11909 3f45 FC0D0000 		.4byte	.LASF672
 11910 3f49 01       		.byte	0x1
 11911 3f4a 48       		.byte	0x48
 11912 3f4b 77180000 		.4byte	0x1877
 11913 3f4f 00000000 		.4byte	.LFB357
 11914 3f53 C8020000 		.4byte	.LFE357-.LFB357
 11915 3f57 01       		.uleb128 0x1
 11916 3f58 9C       		.byte	0x9c
 11917 3f59 BB450000 		.4byte	0x45bb
 11918 3f5d 41       		.uleb128 0x41
 11919 3f5e 70617200 		.ascii	"par\000"
 11920 3f62 01       		.byte	0x1
 11921 3f63 48       		.byte	0x48
 11922 3f64 77180000 		.4byte	0x1877
 11923 3f68 61150000 		.4byte	.LLST164
 11924 3f6c 3D       		.uleb128 0x3d
 11925 3f6d B6070000 		.4byte	.LASF673
 11926 3f71 01       		.byte	0x1
 11927 3f72 48       		.byte	0x48
 11928 3f73 B31B0000 		.4byte	0x1bb3
 11929 3f77 A6150000 		.4byte	.LLST165
 11930 3f7b 3F       		.uleb128 0x3f
 11931 3f7c 9B190000 		.4byte	.LASF601
 11932 3f80 01       		.byte	0x1
 11933 3f81 4D       		.byte	0x4d
 11934 3f82 77180000 		.4byte	0x1877
 11935 3f86 1D160000 		.4byte	.LLST166
 11936 3f8a 3E       		.uleb128 0x3e
 11937 3f8b 65787400 		.ascii	"ext\000"
 11938 3f8f 01       		.byte	0x1
 11939 3f90 53       		.byte	0x53
 11940 3f91 DB1E0000 		.4byte	0x1edb
 11941 3f95 3B160000 		.4byte	.LLST167
 11942 3f99 3A       		.uleb128 0x3a
 11943 3f9a 60000000 		.4byte	.Ldebug_ranges0+0x60
 11944 3f9e 3D420000 		.4byte	0x423d
 11945 3fa2 3E       		.uleb128 0x3e
 11946 3fa3 7700     		.ascii	"w\000"
 11947 3fa5 01       		.byte	0x1
 11948 3fa6 73       		.byte	0x73
 11949 3fa7 1B010000 		.4byte	0x11b
 11950 3fab 64160000 		.4byte	.LLST168
 11951 3faf 3E       		.uleb128 0x3e
 11952 3fb0 6800     		.ascii	"h\000"
 11953 3fb2 01       		.byte	0x1
 11954 3fb3 74       		.byte	0x74
 11955 3fb4 1B010000 		.4byte	0x11b
 11956 3fb8 82160000 		.4byte	.LLST169
 11957 3fbc 40       		.uleb128 0x40
 11958 3fbd 163F0000 		.4byte	0x3f16
 11959 3fc1 44010000 		.4byte	.LBB177
 11960 3fc5 12000000 		.4byte	.LBE177-.LBB177
 11961 3fc9 01       		.byte	0x1
 11962 3fca 8D       		.byte	0x8d
 11963 3fcb 42400000 		.4byte	0x4042
 11964 3fcf 2F       		.uleb128 0x2f
ARM GAS  C:\Users\strap\AppData\Local\Temp\ccTzHSZB.s 			page 254


 11965 3fd0 383F0000 		.4byte	0x3f38
 11966 3fd4 A0160000 		.4byte	.LLST170
 11967 3fd8 2F       		.uleb128 0x2f
 11968 3fd9 2D3F0000 		.4byte	0x3f2d
 11969 3fdd B4160000 		.4byte	.LLST171
 11970 3fe1 2F       		.uleb128 0x2f
 11971 3fe2 223F0000 		.4byte	0x3f22
 11972 3fe6 C8160000 		.4byte	.LLST172
 11973 3fea 40       		.uleb128 0x40
 11974 3feb 5E1B0000 		.4byte	0x1b5e
 11975 3fef 4A010000 		.4byte	.LBB179
 11976 3ff3 0C000000 		.4byte	.LBE179-.LBB179
 11977 3ff7 06       		.byte	0x6
 11978 3ff8 BC       		.byte	0xbc
 11979 3ff9 38400000 		.4byte	0x4038
 11980 3ffd 2F       		.uleb128 0x2f
 11981 3ffe 801B0000 		.4byte	0x1b80
 11982 4002 DC160000 		.4byte	.LLST173
 11983 4006 2F       		.uleb128 0x2f
 11984 4007 751B0000 		.4byte	0x1b75
 11985 400b F0160000 		.4byte	.LLST174
 11986 400f 2F       		.uleb128 0x2f
 11987 4010 6A1B0000 		.4byte	0x1b6a
 11988 4014 04170000 		.4byte	.LLST175
 11989 4018 2B       		.uleb128 0x2b
 11990 4019 56010000 		.4byte	.LVL532
 11991 401d EB480000 		.4byte	0x48eb
 11992 4021 2A       		.uleb128 0x2a
 11993 4022 01       		.uleb128 0x1
 11994 4023 51       		.byte	0x51
 11995 4024 01       		.uleb128 0x1
 11996 4025 31       		.byte	0x31
 11997 4026 2A       		.uleb128 0x2a
 11998 4027 01       		.uleb128 0x1
 11999 4028 52       		.byte	0x52
 12000 4029 01       		.uleb128 0x1
 12001 402a 31       		.byte	0x31
 12002 402b 2A       		.uleb128 0x2a
 12003 402c 01       		.uleb128 0x1
 12004 402d 53       		.byte	0x53
 12005 402e 01       		.uleb128 0x1
 12006 402f 32       		.byte	0x32
 12007 4030 2A       		.uleb128 0x2a
 12008 4031 02       		.uleb128 0x2
 12009 4032 7D       		.byte	0x7d
 12010 4033 00       		.sleb128 0
 12011 4034 01       		.uleb128 0x1
 12012 4035 32       		.byte	0x32
 12013 4036 00       		.byte	0
 12014 4037 00       		.byte	0
 12015 4038 30       		.uleb128 0x30
 12016 4039 4A010000 		.4byte	.LVL531
 12017 403d 06470000 		.4byte	0x4706
 12018 4041 00       		.byte	0
 12019 4042 40       		.uleb128 0x40
 12020 4043 D51D0000 		.4byte	0x1dd5
 12021 4047 56010000 		.4byte	.LBB181
ARM GAS  C:\Users\strap\AppData\Local\Temp\ccTzHSZB.s 			page 255


 12022 404b 0C000000 		.4byte	.LBE181-.LBB181
 12023 404f 01       		.byte	0x1
 12024 4050 8E       		.byte	0x8e
 12025 4051 80400000 		.4byte	0x4080
 12026 4055 2F       		.uleb128 0x2f
 12027 4056 EC1D0000 		.4byte	0x1dec
 12028 405a 17170000 		.4byte	.LLST176
 12029 405e 2F       		.uleb128 0x2f
 12030 405f E11D0000 		.4byte	0x1de1
 12031 4063 2B170000 		.4byte	.LLST177
 12032 4067 30       		.uleb128 0x30
 12033 4068 5C010000 		.4byte	.LVL533
 12034 406c 06470000 		.4byte	0x4706
 12035 4070 2B       		.uleb128 0x2b
 12036 4071 62010000 		.4byte	.LVL534
 12037 4075 38490000 		.4byte	0x4938
 12038 4079 2A       		.uleb128 0x2a
 12039 407a 01       		.uleb128 0x1
 12040 407b 51       		.byte	0x51
 12041 407c 01       		.uleb128 0x1
 12042 407d 35       		.byte	0x35
 12043 407e 00       		.byte	0
 12044 407f 00       		.byte	0
 12045 4080 29       		.uleb128 0x29
 12046 4081 92000000 		.4byte	.LVL505
 12047 4085 22490000 		.4byte	0x4922
 12048 4089 93400000 		.4byte	0x4093
 12049 408d 2A       		.uleb128 0x2a
 12050 408e 01       		.uleb128 0x1
 12051 408f 50       		.byte	0x50
 12052 4090 01       		.uleb128 0x1
 12053 4091 34       		.byte	0x34
 12054 4092 00       		.byte	0
 12055 4093 30       		.uleb128 0x30
 12056 4094 98000000 		.4byte	.LVL506
 12057 4098 85460000 		.4byte	0x4685
 12058 409c 29       		.uleb128 0x29
 12059 409d A4000000 		.4byte	.LVL507
 12060 40a1 90460000 		.4byte	0x4690
 12061 40a5 B3400000 		.4byte	0x40b3
 12062 40a9 2A       		.uleb128 0x2a
 12063 40aa 01       		.uleb128 0x1
 12064 40ab 50       		.byte	0x50
 12065 40ac 05       		.uleb128 0x5
 12066 40ad 03       		.byte	0x3
 12067 40ae 10000000 		.4byte	.LC1
 12068 40b2 00       		.byte	0
 12069 40b3 29       		.uleb128 0x29
 12070 40b4 BA000000 		.4byte	.LVL508
 12071 40b8 1C480000 		.4byte	0x481c
 12072 40bc C7400000 		.4byte	0x40c7
 12073 40c0 2A       		.uleb128 0x2a
 12074 40c1 01       		.uleb128 0x1
 12075 40c2 50       		.byte	0x50
 12076 40c3 02       		.uleb128 0x2
 12077 40c4 75       		.byte	0x75
 12078 40c5 00       		.sleb128 0
ARM GAS  C:\Users\strap\AppData\Local\Temp\ccTzHSZB.s 			page 256


 12079 40c6 00       		.byte	0
 12080 40c7 30       		.uleb128 0x30
 12081 40c8 BE000000 		.4byte	.LVL509
 12082 40cc 43490000 		.4byte	0x4943
 12083 40d0 29       		.uleb128 0x29
 12084 40d1 C6000000 		.4byte	.LVL511
 12085 40d5 1C480000 		.4byte	0x481c
 12086 40d9 E4400000 		.4byte	0x40e4
 12087 40dd 2A       		.uleb128 0x2a
 12088 40de 01       		.uleb128 0x1
 12089 40df 50       		.byte	0x50
 12090 40e0 02       		.uleb128 0x2
 12091 40e1 75       		.byte	0x75
 12092 40e2 00       		.sleb128 0
 12093 40e3 00       		.byte	0
 12094 40e4 30       		.uleb128 0x30
 12095 40e5 CA000000 		.4byte	.LVL512
 12096 40e9 4F490000 		.4byte	0x494f
 12097 40ed 29       		.uleb128 0x29
 12098 40ee D2000000 		.4byte	.LVL514
 12099 40f2 5B490000 		.4byte	0x495b
 12100 40f6 00410000 		.4byte	0x4100
 12101 40fa 2A       		.uleb128 0x2a
 12102 40fb 01       		.uleb128 0x1
 12103 40fc 50       		.byte	0x50
 12104 40fd 01       		.uleb128 0x1
 12105 40fe 30       		.byte	0x30
 12106 40ff 00       		.byte	0
 12107 4100 29       		.uleb128 0x29
 12108 4101 DA000000 		.4byte	.LVL516
 12109 4105 66490000 		.4byte	0x4966
 12110 4109 13410000 		.4byte	0x4113
 12111 410d 2A       		.uleb128 0x2a
 12112 410e 01       		.uleb128 0x1
 12113 410f 50       		.byte	0x50
 12114 4110 01       		.uleb128 0x1
 12115 4111 30       		.byte	0x30
 12116 4112 00       		.byte	0
 12117 4113 29       		.uleb128 0x29
 12118 4114 E4000000 		.4byte	.LVL518
 12119 4118 FA460000 		.4byte	0x46fa
 12120 411c 2D410000 		.4byte	0x412d
 12121 4120 2A       		.uleb128 0x2a
 12122 4121 01       		.uleb128 0x1
 12123 4122 50       		.byte	0x50
 12124 4123 02       		.uleb128 0x2
 12125 4124 75       		.byte	0x75
 12126 4125 00       		.sleb128 0
 12127 4126 2A       		.uleb128 0x2a
 12128 4127 01       		.uleb128 0x1
 12129 4128 51       		.byte	0x51
 12130 4129 02       		.uleb128 0x2
 12131 412a 76       		.byte	0x76
 12132 412b 00       		.sleb128 0
 12133 412c 00       		.byte	0
 12134 412d 29       		.uleb128 0x29
 12135 412e EC000000 		.4byte	.LVL519
ARM GAS  C:\Users\strap\AppData\Local\Temp\ccTzHSZB.s 			page 257


 12136 4132 F6480000 		.4byte	0x48f6
 12137 4136 46410000 		.4byte	0x4146
 12138 413a 2A       		.uleb128 0x2a
 12139 413b 01       		.uleb128 0x1
 12140 413c 50       		.byte	0x50
 12141 413d 02       		.uleb128 0x2
 12142 413e 75       		.byte	0x75
 12143 413f 00       		.sleb128 0
 12144 4140 2A       		.uleb128 0x2a
 12145 4141 01       		.uleb128 0x1
 12146 4142 51       		.byte	0x51
 12147 4143 01       		.uleb128 0x1
 12148 4144 30       		.byte	0x30
 12149 4145 00       		.byte	0
 12150 4146 29       		.uleb128 0x29
 12151 4147 F6000000 		.4byte	.LVL520
 12152 414b 72490000 		.4byte	0x4972
 12153 414f 5F410000 		.4byte	0x415f
 12154 4153 2A       		.uleb128 0x2a
 12155 4154 01       		.uleb128 0x1
 12156 4155 50       		.byte	0x50
 12157 4156 02       		.uleb128 0x2
 12158 4157 75       		.byte	0x75
 12159 4158 00       		.sleb128 0
 12160 4159 2A       		.uleb128 0x2a
 12161 415a 01       		.uleb128 0x1
 12162 415b 51       		.byte	0x51
 12163 415c 01       		.uleb128 0x1
 12164 415d 30       		.byte	0x30
 12165 415e 00       		.byte	0
 12166 415f 29       		.uleb128 0x29
 12167 4160 FE000000 		.4byte	.LVL521
 12168 4164 7D490000 		.4byte	0x497d
 12169 4168 72410000 		.4byte	0x4172
 12170 416c 2A       		.uleb128 0x2a
 12171 416d 01       		.uleb128 0x1
 12172 416e 51       		.byte	0x51
 12173 416f 01       		.uleb128 0x1
 12174 4170 30       		.byte	0x30
 12175 4171 00       		.byte	0
 12176 4172 30       		.uleb128 0x30
 12177 4173 0C010000 		.4byte	.LVL522
 12178 4177 06470000 		.4byte	0x4706
 12179 417b 30       		.uleb128 0x30
 12180 417c 10010000 		.4byte	.LVL523
 12181 4180 1D470000 		.4byte	0x471d
 12182 4184 30       		.uleb128 0x30
 12183 4185 1A010000 		.4byte	.LVL524
 12184 4189 06470000 		.4byte	0x4706
 12185 418d 29       		.uleb128 0x29
 12186 418e 20010000 		.4byte	.LVL525
 12187 4192 89490000 		.4byte	0x4989
 12188 4196 A4410000 		.4byte	0x41a4
 12189 419a 2A       		.uleb128 0x2a
 12190 419b 01       		.uleb128 0x1
 12191 419c 51       		.byte	0x51
 12192 419d 05       		.uleb128 0x5
ARM GAS  C:\Users\strap\AppData\Local\Temp\ccTzHSZB.s 			page 258


 12193 419e 03       		.byte	0x3
 12194 419f 00000000 		.4byte	tabview_scrl_signal
 12195 41a3 00       		.byte	0
 12196 41a4 29       		.uleb128 0x29
 12197 41a5 28010000 		.4byte	.LVL526
 12198 41a9 2D490000 		.4byte	0x492d
 12199 41ad BB410000 		.4byte	0x41bb
 12200 41b1 2A       		.uleb128 0x2a
 12201 41b2 01       		.uleb128 0x1
 12202 41b3 51       		.byte	0x51
 12203 41b4 05       		.uleb128 0x5
 12204 41b5 03       		.byte	0x3
 12205 41b6 00000000 		.4byte	.LANCHOR1
 12206 41ba 00       		.byte	0
 12207 41bb 29       		.uleb128 0x29
 12208 41bc 30010000 		.4byte	.LVL527
 12209 41c0 95490000 		.4byte	0x4995
 12210 41c4 D2410000 		.4byte	0x41d2
 12211 41c8 2A       		.uleb128 0x2a
 12212 41c9 01       		.uleb128 0x1
 12213 41ca 51       		.byte	0x51
 12214 41cb 05       		.uleb128 0x5
 12215 41cc 03       		.byte	0x3
 12216 41cd 00000000 		.4byte	tab_btnm_event_cb
 12217 41d1 00       		.byte	0
 12218 41d2 29       		.uleb128 0x29
 12219 41d3 38010000 		.4byte	.LVL528
 12220 41d7 A1490000 		.4byte	0x49a1
 12221 41db E5410000 		.4byte	0x41e5
 12222 41df 2A       		.uleb128 0x2a
 12223 41e0 01       		.uleb128 0x1
 12224 41e1 51       		.byte	0x51
 12225 41e2 01       		.uleb128 0x1
 12226 41e3 30       		.byte	0x30
 12227 41e4 00       		.byte	0
 12228 41e5 30       		.uleb128 0x30
 12229 41e6 3E010000 		.4byte	.LVL529
 12230 41ea 06470000 		.4byte	0x4706
 12231 41ee 29       		.uleb128 0x29
 12232 41ef 44010000 		.4byte	.LVL530
 12233 41f3 AD490000 		.4byte	0x49ad
 12234 41f7 01420000 		.4byte	0x4201
 12235 41fb 2A       		.uleb128 0x2a
 12236 41fc 01       		.uleb128 0x1
 12237 41fd 51       		.byte	0x51
 12238 41fe 01       		.uleb128 0x1
 12239 41ff 34       		.byte	0x34
 12240 4200 00       		.byte	0
 12241 4201 29       		.uleb128 0x29
 12242 4202 6A010000 		.4byte	.LVL535
 12243 4206 01490000 		.4byte	0x4901
 12244 420a 14420000 		.4byte	0x4214
 12245 420e 2A       		.uleb128 0x2a
 12246 420f 01       		.uleb128 0x1
 12247 4210 51       		.byte	0x51
 12248 4211 01       		.uleb128 0x1
 12249 4212 30       		.byte	0x30
ARM GAS  C:\Users\strap\AppData\Local\Temp\ccTzHSZB.s 			page 259


 12250 4213 00       		.byte	0
 12251 4214 29       		.uleb128 0x29
 12252 4215 72010000 		.4byte	.LVL536
 12253 4219 B9490000 		.4byte	0x49b9
 12254 421d 27420000 		.4byte	0x4227
 12255 4221 2A       		.uleb128 0x2a
 12256 4222 01       		.uleb128 0x1
 12257 4223 51       		.byte	0x51
 12258 4224 01       		.uleb128 0x1
 12259 4225 30       		.byte	0x30
 12260 4226 00       		.byte	0
 12261 4227 2B       		.uleb128 0x2b
 12262 4228 7A010000 		.4byte	.LVL537
 12263 422c 17490000 		.4byte	0x4917
 12264 4230 2A       		.uleb128 0x2a
 12265 4231 01       		.uleb128 0x1
 12266 4232 50       		.byte	0x50
 12267 4233 02       		.uleb128 0x2
 12268 4234 75       		.byte	0x75
 12269 4235 00       		.sleb128 0
 12270 4236 2A       		.uleb128 0x2a
 12271 4237 01       		.uleb128 0x1
 12272 4238 51       		.byte	0x51
 12273 4239 01       		.uleb128 0x1
 12274 423a 3F       		.byte	0x3f
 12275 423b 00       		.byte	0
 12276 423c 00       		.byte	0
 12277 423d 3A       		.uleb128 0x3a
 12278 423e 78000000 		.4byte	.Ldebug_ranges0+0x78
 12279 4242 DC440000 		.4byte	0x44dc
 12280 4246 3F       		.uleb128 0x3f
 12281 4247 FB100000 		.4byte	.LASF674
 12282 424b 01       		.byte	0x1
 12283 424c 98       		.byte	0x98
 12284 424d DB1E0000 		.4byte	0x1edb
 12285 4251 3F170000 		.4byte	.LLST178
 12286 4255 3E       		.uleb128 0x3e
 12287 4256 6900     		.ascii	"i\000"
 12288 4258 01       		.byte	0x1
 12289 4259 AF       		.byte	0xaf
 12290 425a E4000000 		.4byte	0xe4
 12291 425e 68170000 		.4byte	.LLST179
 12292 4262 33       		.uleb128 0x33
 12293 4263 28020000 		.4byte	.LBB184
 12294 4267 56000000 		.4byte	.LBE184-.LBB184
 12295 426b 66430000 		.4byte	0x4366
 12296 426f 3F       		.uleb128 0x3f
 12297 4270 450A0000 		.4byte	.LASF675
 12298 4274 01       		.byte	0x1
 12299 4275 B1       		.byte	0xb1
 12300 4276 77180000 		.4byte	0x1877
 12301 427a 92170000 		.4byte	.LLST180
 12302 427e 3F       		.uleb128 0x3f
 12303 427f 68060000 		.4byte	.LASF676
 12304 4283 01       		.byte	0x1
 12305 4284 B2       		.byte	0xb2
 12306 4285 77180000 		.4byte	0x1877
ARM GAS  C:\Users\strap\AppData\Local\Temp\ccTzHSZB.s 			page 260


 12307 4289 B0170000 		.4byte	.LLST181
 12308 428d 29       		.uleb128 0x29
 12309 428e 34020000 		.4byte	.LVL560
 12310 4292 1A3C0000 		.4byte	0x3c1a
 12311 4296 A1420000 		.4byte	0x42a1
 12312 429a 2A       		.uleb128 0x2a
 12313 429b 01       		.uleb128 0x1
 12314 429c 50       		.byte	0x50
 12315 429d 02       		.uleb128 0x2
 12316 429e 75       		.byte	0x75
 12317 429f 00       		.sleb128 0
 12318 42a0 00       		.byte	0
 12319 42a1 29       		.uleb128 0x29
 12320 42a2 3E020000 		.4byte	.LVL563
 12321 42a6 8F2B0000 		.4byte	0x2b8f
 12322 42aa BB420000 		.4byte	0x42bb
 12323 42ae 2A       		.uleb128 0x2a
 12324 42af 01       		.uleb128 0x1
 12325 42b0 50       		.byte	0x50
 12326 42b1 02       		.uleb128 0x2
 12327 42b2 76       		.byte	0x76
 12328 42b3 00       		.sleb128 0
 12329 42b4 2A       		.uleb128 0x2a
 12330 42b5 01       		.uleb128 0x1
 12331 42b6 51       		.byte	0x51
 12332 42b7 02       		.uleb128 0x2
 12333 42b8 74       		.byte	0x74
 12334 42b9 00       		.sleb128 0
 12335 42ba 00       		.byte	0
 12336 42bb 29       		.uleb128 0x29
 12337 42bc 48020000 		.4byte	.LVL566
 12338 42c0 A7460000 		.4byte	0x46a7
 12339 42c4 D5420000 		.4byte	0x42d5
 12340 42c8 2A       		.uleb128 0x2a
 12341 42c9 01       		.uleb128 0x1
 12342 42ca 50       		.byte	0x50
 12343 42cb 02       		.uleb128 0x2
 12344 42cc 78       		.byte	0x78
 12345 42cd 00       		.sleb128 0
 12346 42ce 2A       		.uleb128 0x2a
 12347 42cf 01       		.uleb128 0x1
 12348 42d0 51       		.byte	0x51
 12349 42d1 02       		.uleb128 0x2
 12350 42d2 08       		.byte	0x8
 12351 42d3 40       		.byte	0x40
 12352 42d4 00       		.byte	0
 12353 42d5 29       		.uleb128 0x29
 12354 42d6 52020000 		.4byte	.LVL567
 12355 42da A7460000 		.4byte	0x46a7
 12356 42de EF420000 		.4byte	0x42ef
 12357 42e2 2A       		.uleb128 0x2a
 12358 42e3 01       		.uleb128 0x1
 12359 42e4 50       		.byte	0x50
 12360 42e5 02       		.uleb128 0x2
 12361 42e6 79       		.byte	0x79
 12362 42e7 00       		.sleb128 0
 12363 42e8 2A       		.uleb128 0x2a
ARM GAS  C:\Users\strap\AppData\Local\Temp\ccTzHSZB.s 			page 261


 12364 42e9 01       		.uleb128 0x1
 12365 42ea 51       		.byte	0x51
 12366 42eb 02       		.uleb128 0x2
 12367 42ec 08       		.byte	0x8
 12368 42ed 40       		.byte	0x40
 12369 42ee 00       		.byte	0
 12370 42ef 29       		.uleb128 0x29
 12371 42f0 5A020000 		.4byte	.LVL568
 12372 42f4 C5490000 		.4byte	0x49c5
 12373 42f8 03430000 		.4byte	0x4303
 12374 42fc 2A       		.uleb128 0x2a
 12375 42fd 01       		.uleb128 0x1
 12376 42fe 50       		.byte	0x50
 12377 42ff 02       		.uleb128 0x2
 12378 4300 7A       		.byte	0x7a
 12379 4301 00       		.sleb128 0
 12380 4302 00       		.byte	0
 12381 4303 29       		.uleb128 0x29
 12382 4304 62020000 		.4byte	.LVL569
 12383 4308 A7460000 		.4byte	0x46a7
 12384 430c 1C430000 		.4byte	0x431c
 12385 4310 2A       		.uleb128 0x2a
 12386 4311 01       		.uleb128 0x1
 12387 4312 50       		.byte	0x50
 12388 4313 02       		.uleb128 0x2
 12389 4314 78       		.byte	0x78
 12390 4315 00       		.sleb128 0
 12391 4316 2A       		.uleb128 0x2a
 12392 4317 01       		.uleb128 0x1
 12393 4318 51       		.byte	0x51
 12394 4319 01       		.uleb128 0x1
 12395 431a 31       		.byte	0x31
 12396 431b 00       		.byte	0
 12397 431c 29       		.uleb128 0x29
 12398 431d 6C020000 		.4byte	.LVL570
 12399 4321 A7460000 		.4byte	0x46a7
 12400 4325 35430000 		.4byte	0x4335
 12401 4329 2A       		.uleb128 0x2a
 12402 432a 01       		.uleb128 0x1
 12403 432b 50       		.byte	0x50
 12404 432c 02       		.uleb128 0x2
 12405 432d 79       		.byte	0x79
 12406 432e 00       		.sleb128 0
 12407 432f 2A       		.uleb128 0x2a
 12408 4330 01       		.uleb128 0x1
 12409 4331 51       		.byte	0x51
 12410 4332 01       		.uleb128 0x1
 12411 4333 31       		.byte	0x31
 12412 4334 00       		.byte	0
 12413 4335 29       		.uleb128 0x29
 12414 4336 74020000 		.4byte	.LVL571
 12415 433a C5490000 		.4byte	0x49c5
 12416 433e 49430000 		.4byte	0x4349
 12417 4342 2A       		.uleb128 0x2a
 12418 4343 01       		.uleb128 0x1
 12419 4344 50       		.byte	0x50
 12420 4345 02       		.uleb128 0x2
ARM GAS  C:\Users\strap\AppData\Local\Temp\ccTzHSZB.s 			page 262


 12421 4346 7A       		.byte	0x7a
 12422 4347 00       		.sleb128 0
 12423 4348 00       		.byte	0
 12424 4349 2B       		.uleb128 0x2b
 12425 434a 7E020000 		.4byte	.LVL572
 12426 434e D1490000 		.4byte	0x49d1
 12427 4352 2A       		.uleb128 0x2a
 12428 4353 01       		.uleb128 0x1
 12429 4354 50       		.byte	0x50
 12430 4355 02       		.uleb128 0x2
 12431 4356 78       		.byte	0x78
 12432 4357 00       		.sleb128 0
 12433 4358 2A       		.uleb128 0x2a
 12434 4359 01       		.uleb128 0x1
 12435 435a 51       		.byte	0x51
 12436 435b 02       		.uleb128 0x2
 12437 435c 09       		.byte	0x9
 12438 435d FF       		.byte	0xff
 12439 435e 2A       		.uleb128 0x2a
 12440 435f 01       		.uleb128 0x1
 12441 4360 52       		.byte	0x52
 12442 4361 02       		.uleb128 0x2
 12443 4362 08       		.byte	0x8
 12444 4363 FF       		.byte	0xff
 12445 4364 00       		.byte	0
 12446 4365 00       		.byte	0
 12447 4366 29       		.uleb128 0x29
 12448 4367 82010000 		.4byte	.LVL539
 12449 436b 9B460000 		.4byte	0x469b
 12450 436f 7A430000 		.4byte	0x437a
 12451 4373 2A       		.uleb128 0x2a
 12452 4374 01       		.uleb128 0x1
 12453 4375 50       		.byte	0x50
 12454 4376 02       		.uleb128 0x2
 12455 4377 76       		.byte	0x76
 12456 4378 00       		.sleb128 0
 12457 4379 00       		.byte	0
 12458 437a 29       		.uleb128 0x29
 12459 437b 92010000 		.4byte	.LVL542
 12460 437f 72490000 		.4byte	0x4972
 12461 4383 8E430000 		.4byte	0x438e
 12462 4387 2A       		.uleb128 0x2a
 12463 4388 01       		.uleb128 0x1
 12464 4389 50       		.byte	0x50
 12465 438a 02       		.uleb128 0x2
 12466 438b 75       		.byte	0x75
 12467 438c 00       		.sleb128 0
 12468 438d 00       		.byte	0
 12469 438e 30       		.uleb128 0x30
 12470 438f 9A010000 		.4byte	.LVL543
 12471 4393 7D490000 		.4byte	0x497d
 12472 4397 29       		.uleb128 0x29
 12473 4398 A4010000 		.4byte	.LVL544
 12474 439c F6480000 		.4byte	0x48f6
 12475 43a0 AB430000 		.4byte	0x43ab
 12476 43a4 2A       		.uleb128 0x2a
 12477 43a5 01       		.uleb128 0x1
ARM GAS  C:\Users\strap\AppData\Local\Temp\ccTzHSZB.s 			page 263


 12478 43a6 50       		.byte	0x50
 12479 43a7 02       		.uleb128 0x2
 12480 43a8 75       		.byte	0x75
 12481 43a9 00       		.sleb128 0
 12482 43aa 00       		.byte	0
 12483 43ab 29       		.uleb128 0x29
 12484 43ac B0010000 		.4byte	.LVL545
 12485 43b0 22490000 		.4byte	0x4922
 12486 43b4 BE430000 		.4byte	0x43be
 12487 43b8 2A       		.uleb128 0x2a
 12488 43b9 01       		.uleb128 0x1
 12489 43ba 50       		.byte	0x50
 12490 43bb 01       		.uleb128 0x1
 12491 43bc 34       		.byte	0x34
 12492 43bd 00       		.byte	0
 12493 43be 30       		.uleb128 0x30
 12494 43bf B6010000 		.4byte	.LVL546
 12495 43c3 85460000 		.4byte	0x4685
 12496 43c7 29       		.uleb128 0x29
 12497 43c8 C2010000 		.4byte	.LVL547
 12498 43cc 90460000 		.4byte	0x4690
 12499 43d0 DE430000 		.4byte	0x43de
 12500 43d4 2A       		.uleb128 0x2a
 12501 43d5 01       		.uleb128 0x1
 12502 43d6 50       		.byte	0x50
 12503 43d7 05       		.uleb128 0x5
 12504 43d8 03       		.byte	0x3
 12505 43d9 10000000 		.4byte	.LC1
 12506 43dd 00       		.byte	0
 12507 43de 30       		.uleb128 0x30
 12508 43df D6010000 		.4byte	.LVL548
 12509 43e3 2D490000 		.4byte	0x492d
 12510 43e7 29       		.uleb128 0x29
 12511 43e8 DE010000 		.4byte	.LVL549
 12512 43ec A7460000 		.4byte	0x46a7
 12513 43f0 01440000 		.4byte	0x4401
 12514 43f4 2A       		.uleb128 0x2a
 12515 43f5 01       		.uleb128 0x1
 12516 43f6 50       		.byte	0x50
 12517 43f7 02       		.uleb128 0x2
 12518 43f8 75       		.byte	0x75
 12519 43f9 00       		.sleb128 0
 12520 43fa 2A       		.uleb128 0x2a
 12521 43fb 01       		.uleb128 0x1
 12522 43fc 51       		.byte	0x51
 12523 43fd 02       		.uleb128 0x2
 12524 43fe 08       		.byte	0x8
 12525 43ff 40       		.byte	0x40
 12526 4400 00       		.byte	0
 12527 4401 29       		.uleb128 0x29
 12528 4402 E8010000 		.4byte	.LVL551
 12529 4406 A7460000 		.4byte	0x46a7
 12530 440a 1B440000 		.4byte	0x441b
 12531 440e 2A       		.uleb128 0x2a
 12532 440f 01       		.uleb128 0x1
 12533 4410 50       		.byte	0x50
 12534 4411 02       		.uleb128 0x2
ARM GAS  C:\Users\strap\AppData\Local\Temp\ccTzHSZB.s 			page 264


 12535 4412 76       		.byte	0x76
 12536 4413 00       		.sleb128 0
 12537 4414 2A       		.uleb128 0x2a
 12538 4415 01       		.uleb128 0x1
 12539 4416 51       		.byte	0x51
 12540 4417 02       		.uleb128 0x2
 12541 4418 08       		.byte	0x8
 12542 4419 40       		.byte	0x40
 12543 441a 00       		.byte	0
 12544 441b 29       		.uleb128 0x29
 12545 441c F0010000 		.4byte	.LVL552
 12546 4420 C5490000 		.4byte	0x49c5
 12547 4424 2F440000 		.4byte	0x442f
 12548 4428 2A       		.uleb128 0x2a
 12549 4429 01       		.uleb128 0x1
 12550 442a 50       		.byte	0x50
 12551 442b 02       		.uleb128 0x2
 12552 442c 74       		.byte	0x74
 12553 442d 00       		.sleb128 0
 12554 442e 00       		.byte	0
 12555 442f 29       		.uleb128 0x29
 12556 4430 F8010000 		.4byte	.LVL553
 12557 4434 A7460000 		.4byte	0x46a7
 12558 4438 49440000 		.4byte	0x4449
 12559 443c 2A       		.uleb128 0x2a
 12560 443d 01       		.uleb128 0x1
 12561 443e 50       		.byte	0x50
 12562 443f 02       		.uleb128 0x2
 12563 4440 75       		.byte	0x75
 12564 4441 00       		.sleb128 0
 12565 4442 2A       		.uleb128 0x2a
 12566 4443 01       		.uleb128 0x1
 12567 4444 51       		.byte	0x51
 12568 4445 02       		.uleb128 0x2
 12569 4446 08       		.byte	0x8
 12570 4447 41       		.byte	0x41
 12571 4448 00       		.byte	0
 12572 4449 29       		.uleb128 0x29
 12573 444a 02020000 		.4byte	.LVL554
 12574 444e A7460000 		.4byte	0x46a7
 12575 4452 63440000 		.4byte	0x4463
 12576 4456 2A       		.uleb128 0x2a
 12577 4457 01       		.uleb128 0x1
 12578 4458 50       		.byte	0x50
 12579 4459 02       		.uleb128 0x2
 12580 445a 76       		.byte	0x76
 12581 445b 00       		.sleb128 0
 12582 445c 2A       		.uleb128 0x2a
 12583 445d 01       		.uleb128 0x1
 12584 445e 51       		.byte	0x51
 12585 445f 02       		.uleb128 0x2
 12586 4460 08       		.byte	0x8
 12587 4461 41       		.byte	0x41
 12588 4462 00       		.byte	0
 12589 4463 29       		.uleb128 0x29
 12590 4464 0A020000 		.4byte	.LVL555
 12591 4468 C5490000 		.4byte	0x49c5
ARM GAS  C:\Users\strap\AppData\Local\Temp\ccTzHSZB.s 			page 265


 12592 446c 77440000 		.4byte	0x4477
 12593 4470 2A       		.uleb128 0x2a
 12594 4471 01       		.uleb128 0x1
 12595 4472 50       		.byte	0x50
 12596 4473 02       		.uleb128 0x2
 12597 4474 74       		.byte	0x74
 12598 4475 00       		.sleb128 0
 12599 4476 00       		.byte	0
 12600 4477 29       		.uleb128 0x29
 12601 4478 12020000 		.4byte	.LVL556
 12602 447c A7460000 		.4byte	0x46a7
 12603 4480 91440000 		.4byte	0x4491
 12604 4484 2A       		.uleb128 0x2a
 12605 4485 01       		.uleb128 0x1
 12606 4486 50       		.byte	0x50
 12607 4487 02       		.uleb128 0x2
 12608 4488 75       		.byte	0x75
 12609 4489 00       		.sleb128 0
 12610 448a 2A       		.uleb128 0x2a
 12611 448b 01       		.uleb128 0x1
 12612 448c 51       		.byte	0x51
 12613 448d 02       		.uleb128 0x2
 12614 448e 08       		.byte	0x8
 12615 448f 42       		.byte	0x42
 12616 4490 00       		.byte	0
 12617 4491 29       		.uleb128 0x29
 12618 4492 1C020000 		.4byte	.LVL557
 12619 4496 A7460000 		.4byte	0x46a7
 12620 449a AB440000 		.4byte	0x44ab
 12621 449e 2A       		.uleb128 0x2a
 12622 449f 01       		.uleb128 0x1
 12623 44a0 50       		.byte	0x50
 12624 44a1 02       		.uleb128 0x2
 12625 44a2 76       		.byte	0x76
 12626 44a3 00       		.sleb128 0
 12627 44a4 2A       		.uleb128 0x2a
 12628 44a5 01       		.uleb128 0x1
 12629 44a6 51       		.byte	0x51
 12630 44a7 02       		.uleb128 0x2
 12631 44a8 08       		.byte	0x8
 12632 44a9 42       		.byte	0x42
 12633 44aa 00       		.byte	0
 12634 44ab 29       		.uleb128 0x29
 12635 44ac 24020000 		.4byte	.LVL558
 12636 44b0 C5490000 		.4byte	0x49c5
 12637 44b4 BF440000 		.4byte	0x44bf
 12638 44b8 2A       		.uleb128 0x2a
 12639 44b9 01       		.uleb128 0x1
 12640 44ba 50       		.byte	0x50
 12641 44bb 02       		.uleb128 0x2
 12642 44bc 74       		.byte	0x74
 12643 44bd 00       		.sleb128 0
 12644 44be 00       		.byte	0
 12645 44bf 2B       		.uleb128 0x2b
 12646 44c0 92020000 		.4byte	.LVL575
 12647 44c4 D1490000 		.4byte	0x49d1
 12648 44c8 2A       		.uleb128 0x2a
ARM GAS  C:\Users\strap\AppData\Local\Temp\ccTzHSZB.s 			page 266


 12649 44c9 01       		.uleb128 0x1
 12650 44ca 50       		.byte	0x50
 12651 44cb 02       		.uleb128 0x2
 12652 44cc 75       		.byte	0x75
 12653 44cd 00       		.sleb128 0
 12654 44ce 2A       		.uleb128 0x2a
 12655 44cf 01       		.uleb128 0x1
 12656 44d0 51       		.byte	0x51
 12657 44d1 02       		.uleb128 0x2
 12658 44d2 09       		.byte	0x9
 12659 44d3 FF       		.byte	0xff
 12660 44d4 2A       		.uleb128 0x2a
 12661 44d5 01       		.uleb128 0x1
 12662 44d6 52       		.byte	0x52
 12663 44d7 02       		.uleb128 0x2
 12664 44d8 08       		.byte	0x8
 12665 44d9 FF       		.byte	0xff
 12666 44da 00       		.byte	0
 12667 44db 00       		.byte	0
 12668 44dc 29       		.uleb128 0x29
 12669 44dd 0E000000 		.4byte	.LVL494
 12670 44e1 7D490000 		.4byte	0x497d
 12671 44e5 F6440000 		.4byte	0x44f6
 12672 44e9 2A       		.uleb128 0x2a
 12673 44ea 01       		.uleb128 0x1
 12674 44eb 50       		.byte	0x50
 12675 44ec 02       		.uleb128 0x2
 12676 44ed 77       		.byte	0x77
 12677 44ee 00       		.sleb128 0
 12678 44ef 2A       		.uleb128 0x2a
 12679 44f0 01       		.uleb128 0x1
 12680 44f1 51       		.byte	0x51
 12681 44f2 02       		.uleb128 0x2
 12682 44f3 76       		.byte	0x76
 12683 44f4 00       		.sleb128 0
 12684 44f5 00       		.byte	0
 12685 44f6 29       		.uleb128 0x29
 12686 44f7 14000000 		.4byte	.LVL496
 12687 44fb 85460000 		.4byte	0x4685
 12688 44ff 0A450000 		.4byte	0x450a
 12689 4503 2A       		.uleb128 0x2a
 12690 4504 01       		.uleb128 0x1
 12691 4505 50       		.byte	0x50
 12692 4506 02       		.uleb128 0x2
 12693 4507 75       		.byte	0x75
 12694 4508 00       		.sleb128 0
 12695 4509 00       		.byte	0
 12696 450a 29       		.uleb128 0x29
 12697 450b 20000000 		.4byte	.LVL497
 12698 450f 90460000 		.4byte	0x4690
 12699 4513 21450000 		.4byte	0x4521
 12700 4517 2A       		.uleb128 0x2a
 12701 4518 01       		.uleb128 0x1
 12702 4519 50       		.byte	0x50
 12703 451a 05       		.uleb128 0x5
 12704 451b 03       		.byte	0x3
 12705 451c 10000000 		.4byte	.LC1
ARM GAS  C:\Users\strap\AppData\Local\Temp\ccTzHSZB.s 			page 267


 12706 4520 00       		.byte	0
 12707 4521 29       		.uleb128 0x29
 12708 4522 34000000 		.4byte	.LVL498
 12709 4526 1D470000 		.4byte	0x471d
 12710 452a 35450000 		.4byte	0x4535
 12711 452e 2A       		.uleb128 0x2a
 12712 452f 01       		.uleb128 0x1
 12713 4530 50       		.byte	0x50
 12714 4531 02       		.uleb128 0x2
 12715 4532 75       		.byte	0x75
 12716 4533 00       		.sleb128 0
 12717 4534 00       		.byte	0
 12718 4535 29       		.uleb128 0x29
 12719 4536 40000000 		.4byte	.LVL499
 12720 453a DD490000 		.4byte	0x49dd
 12721 453e 4E450000 		.4byte	0x454e
 12722 4542 2A       		.uleb128 0x2a
 12723 4543 01       		.uleb128 0x1
 12724 4544 50       		.byte	0x50
 12725 4545 02       		.uleb128 0x2
 12726 4546 75       		.byte	0x75
 12727 4547 00       		.sleb128 0
 12728 4548 2A       		.uleb128 0x2a
 12729 4549 01       		.uleb128 0x1
 12730 454a 51       		.byte	0x51
 12731 454b 01       		.uleb128 0x1
 12732 454c 4C       		.byte	0x4c
 12733 454d 00       		.byte	0
 12734 454e 29       		.uleb128 0x29
 12735 454f 46000000 		.4byte	.LVL501
 12736 4553 85460000 		.4byte	0x4685
 12737 4557 62450000 		.4byte	0x4562
 12738 455b 2A       		.uleb128 0x2a
 12739 455c 01       		.uleb128 0x1
 12740 455d 50       		.byte	0x50
 12741 455e 02       		.uleb128 0x2
 12742 455f 74       		.byte	0x74
 12743 4560 00       		.sleb128 0
 12744 4561 00       		.byte	0
 12745 4562 29       		.uleb128 0x29
 12746 4563 52000000 		.4byte	.LVL502
 12747 4567 90460000 		.4byte	0x4690
 12748 456b 79450000 		.4byte	0x4579
 12749 456f 2A       		.uleb128 0x2a
 12750 4570 01       		.uleb128 0x1
 12751 4571 50       		.byte	0x50
 12752 4572 05       		.uleb128 0x5
 12753 4573 03       		.byte	0x3
 12754 4574 10000000 		.4byte	.LC1
 12755 4578 00       		.byte	0
 12756 4579 29       		.uleb128 0x29
 12757 457a 5C000000 		.4byte	.LVL503
 12758 457e E9490000 		.4byte	0x49e9
 12759 4582 8D450000 		.4byte	0x458d
 12760 4586 2A       		.uleb128 0x2a
 12761 4587 01       		.uleb128 0x1
 12762 4588 50       		.byte	0x50
ARM GAS  C:\Users\strap\AppData\Local\Temp\ccTzHSZB.s 			page 268


 12763 4589 02       		.uleb128 0x2
 12764 458a 75       		.byte	0x75
 12765 458b 00       		.sleb128 0
 12766 458c 00       		.byte	0
 12767 458d 29       		.uleb128 0x29
 12768 458e 88000000 		.4byte	.LVL504
 12769 4592 89490000 		.4byte	0x4989
 12770 4596 AA450000 		.4byte	0x45aa
 12771 459a 2A       		.uleb128 0x2a
 12772 459b 01       		.uleb128 0x1
 12773 459c 50       		.byte	0x50
 12774 459d 02       		.uleb128 0x2
 12775 459e 75       		.byte	0x75
 12776 459f 00       		.sleb128 0
 12777 45a0 2A       		.uleb128 0x2a
 12778 45a1 01       		.uleb128 0x1
 12779 45a2 51       		.byte	0x51
 12780 45a3 05       		.uleb128 0x5
 12781 45a4 03       		.byte	0x3
 12782 45a5 00000000 		.4byte	lv_tabview_signal
 12783 45a9 00       		.byte	0
 12784 45aa 2B       		.uleb128 0x2b
 12785 45ab 98020000 		.4byte	.LVL576
 12786 45af 17370000 		.4byte	0x3717
 12787 45b3 2A       		.uleb128 0x2a
 12788 45b4 01       		.uleb128 0x1
 12789 45b5 50       		.byte	0x50
 12790 45b6 02       		.uleb128 0x2
 12791 45b7 75       		.byte	0x75
 12792 45b8 00       		.sleb128 0
 12793 45b9 00       		.byte	0
 12794 45ba 00       		.byte	0
 12795 45bb 35       		.uleb128 0x35
 12796 45bc AA040000 		.4byte	.LASF677
 12797 45c0 01       		.byte	0x1
 12798 45c1 4802     		.2byte	0x248
 12799 45c3 0A190000 		.4byte	0x190a
 12800 45c7 00000000 		.4byte	.LFB368
 12801 45cb 28000000 		.4byte	.LFE368-.LFB368
 12802 45cf 01       		.uleb128 0x1
 12803 45d0 9C       		.byte	0x9c
 12804 45d1 31460000 		.4byte	0x4631
 12805 45d5 26       		.uleb128 0x26
 12806 45d6 9B190000 		.4byte	.LASF601
 12807 45da 01       		.byte	0x1
 12808 45db 4802     		.2byte	0x248
 12809 45dd B31B0000 		.4byte	0x1bb3
 12810 45e1 CE170000 		.4byte	.LLST182
 12811 45e5 27       		.uleb128 0x27
 12812 45e6 65787400 		.ascii	"ext\000"
 12813 45ea 01       		.byte	0x1
 12814 45eb 4C02     		.2byte	0x24c
 12815 45ed DB1E0000 		.4byte	0x1edb
 12816 45f1 FA170000 		.4byte	.LLST183
 12817 45f5 29       		.uleb128 0x29
 12818 45f6 08000000 		.4byte	.LVL583
 12819 45fa 85460000 		.4byte	0x4685
ARM GAS  C:\Users\strap\AppData\Local\Temp\ccTzHSZB.s 			page 269


 12820 45fe 09460000 		.4byte	0x4609
 12821 4602 2A       		.uleb128 0x2a
 12822 4603 01       		.uleb128 0x1
 12823 4604 50       		.byte	0x50
 12824 4605 02       		.uleb128 0x2
 12825 4606 74       		.byte	0x74
 12826 4607 00       		.sleb128 0
 12827 4608 00       		.byte	0
 12828 4609 29       		.uleb128 0x29
 12829 460a 14000000 		.4byte	.LVL584
 12830 460e 90460000 		.4byte	0x4690
 12831 4612 20460000 		.4byte	0x4620
 12832 4616 2A       		.uleb128 0x2a
 12833 4617 01       		.uleb128 0x1
 12834 4618 50       		.byte	0x50
 12835 4619 05       		.uleb128 0x5
 12836 461a 03       		.byte	0x3
 12837 461b 00000000 		.4byte	.LC0
 12838 461f 00       		.byte	0
 12839 4620 2B       		.uleb128 0x2b
 12840 4621 1C000000 		.4byte	.LVL585
 12841 4625 9B460000 		.4byte	0x469b
 12842 4629 2A       		.uleb128 0x2a
 12843 462a 01       		.uleb128 0x1
 12844 462b 50       		.byte	0x50
 12845 462c 02       		.uleb128 0x2
 12846 462d 74       		.byte	0x74
 12847 462e 00       		.sleb128 0
 12848 462f 00       		.byte	0
 12849 4630 00       		.byte	0
 12850 4631 42       		.uleb128 0x42
 12851 4632 A8220000 		.4byte	.LASF678
 12852 4636 01       		.byte	0x1
 12853 4637 35       		.byte	0x35
 12854 4638 2B160000 		.4byte	0x162b
 12855 463c 05       		.uleb128 0x5
 12856 463d 03       		.byte	0x3
 12857 463e 08000000 		.4byte	ancestor_signal
 12858 4642 42       		.uleb128 0x42
 12859 4643 872E0000 		.4byte	.LASF679
 12860 4647 01       		.byte	0x1
 12861 4648 36       		.byte	0x36
 12862 4649 2B160000 		.4byte	0x162b
 12863 464d 05       		.uleb128 0x5
 12864 464e 03       		.byte	0x3
 12865 464f 04000000 		.4byte	ancestor_scrl_signal
 12866 4653 42       		.uleb128 0x42
 12867 4654 570E0000 		.4byte	.LASF680
 12868 4658 01       		.byte	0x1
 12869 4659 37       		.byte	0x37
 12870 465a 2B160000 		.4byte	0x162b
 12871 465e 05       		.uleb128 0x5
 12872 465f 03       		.byte	0x3
 12873 4660 00000000 		.4byte	page_signal
 12874 4664 1D       		.uleb128 0x1d
 12875 4665 89010000 		.4byte	0x189
 12876 4669 74460000 		.4byte	0x4674
ARM GAS  C:\Users\strap\AppData\Local\Temp\ccTzHSZB.s 			page 270


 12877 466d 1E       		.uleb128 0x1e
 12878 466e 75010000 		.4byte	0x175
 12879 4672 00       		.byte	0
 12880 4673 00       		.byte	0
 12881 4674 42       		.uleb128 0x42
 12882 4675 2E2B0000 		.4byte	.LASF681
 12883 4679 01       		.byte	0x1
 12884 467a 38       		.byte	0x38
 12885 467b 64460000 		.4byte	0x4664
 12886 467f 05       		.uleb128 0x5
 12887 4680 03       		.byte	0x3
 12888 4681 00000000 		.4byte	tab_def
 12889 4685 43       		.uleb128 0x43
 12890 4686 411C0000 		.4byte	.LASF682
 12891 468a 411C0000 		.4byte	.LASF682
 12892 468e 18       		.byte	0x18
 12893 468f 20       		.byte	0x20
 12894 4690 43       		.uleb128 0x43
 12895 4691 4B270000 		.4byte	.LASF683
 12896 4695 4B270000 		.4byte	.LASF683
 12897 4699 18       		.byte	0x18
 12898 469a 26       		.byte	0x26
 12899 469b 44       		.uleb128 0x44
 12900 469c 8A0D0000 		.4byte	.LASF684
 12901 46a0 8A0D0000 		.4byte	.LASF684
 12902 46a4 11       		.byte	0x11
 12903 46a5 5905     		.2byte	0x559
 12904 46a7 44       		.uleb128 0x44
 12905 46a8 670F0000 		.4byte	.LASF685
 12906 46ac 670F0000 		.4byte	.LASF685
 12907 46b0 11       		.byte	0x11
 12908 46b1 7304     		.2byte	0x473
 12909 46b3 44       		.uleb128 0x44
 12910 46b4 C7060000 		.4byte	.LASF686
 12911 46b8 C7060000 		.4byte	.LASF686
 12912 46bc 11       		.byte	0x11
 12913 46bd 8304     		.2byte	0x483
 12914 46bf 44       		.uleb128 0x44
 12915 46c0 25250000 		.4byte	.LASF687
 12916 46c4 25250000 		.4byte	.LASF687
 12917 46c8 11       		.byte	0x11
 12918 46c9 B304     		.2byte	0x4b3
 12919 46cb 44       		.uleb128 0x44
 12920 46cc 5D140000 		.4byte	.LASF688
 12921 46d0 5D140000 		.4byte	.LASF688
 12922 46d4 11       		.byte	0x11
 12923 46d5 BC02     		.2byte	0x2bc
 12924 46d7 44       		.uleb128 0x44
 12925 46d8 2B040000 		.4byte	.LASF689
 12926 46dc 2B040000 		.4byte	.LASF689
 12927 46e0 11       		.byte	0x11
 12928 46e1 FD03     		.2byte	0x3fd
 12929 46e3 43       		.uleb128 0x43
 12930 46e4 4C230000 		.4byte	.LASF690
 12931 46e8 4C230000 		.4byte	.LASF690
 12932 46ec 03       		.byte	0x3
 12933 46ed 74       		.byte	0x74
ARM GAS  C:\Users\strap\AppData\Local\Temp\ccTzHSZB.s 			page 271


 12934 46ee 44       		.uleb128 0x44
 12935 46ef EA050000 		.4byte	.LASF691
 12936 46f3 EA050000 		.4byte	.LASF691
 12937 46f7 11       		.byte	0x11
 12938 46f8 0404     		.2byte	0x404
 12939 46fa 44       		.uleb128 0x44
 12940 46fb DA020000 		.4byte	.LASF692
 12941 46ff DA020000 		.4byte	.LASF692
 12942 4703 11       		.byte	0x11
 12943 4704 B001     		.2byte	0x1b0
 12944 4706 43       		.uleb128 0x43
 12945 4707 872B0000 		.4byte	.LASF693
 12946 470b 872B0000 		.4byte	.LASF693
 12947 470f 06       		.byte	0x6
 12948 4710 78       		.byte	0x78
 12949 4711 44       		.uleb128 0x44
 12950 4712 AD140000 		.4byte	.LASF694
 12951 4716 AD140000 		.4byte	.LASF694
 12952 471a 11       		.byte	0x11
 12953 471b C003     		.2byte	0x3c0
 12954 471d 44       		.uleb128 0x44
 12955 471e A6240000 		.4byte	.LASF695
 12956 4722 A6240000 		.4byte	.LASF695
 12957 4726 11       		.byte	0x11
 12958 4727 2D05     		.2byte	0x52d
 12959 4729 44       		.uleb128 0x44
 12960 472a 29240000 		.4byte	.LASF696
 12961 472e 29240000 		.4byte	.LASF696
 12962 4732 11       		.byte	0x11
 12963 4733 B701     		.2byte	0x1b7
 12964 4735 44       		.uleb128 0x44
 12965 4736 D70C0000 		.4byte	.LASF697
 12966 473a D70C0000 		.4byte	.LASF697
 12967 473e 11       		.byte	0x11
 12968 473f BE01     		.2byte	0x1be
 12969 4741 44       		.uleb128 0x44
 12970 4742 8D140000 		.4byte	.LASF698
 12971 4746 8D140000 		.4byte	.LASF698
 12972 474a 11       		.byte	0x11
 12973 474b E601     		.2byte	0x1e6
 12974 474d 44       		.uleb128 0x44
 12975 474e D7090000 		.4byte	.LASF699
 12976 4752 D7090000 		.4byte	.LASF699
 12977 4756 11       		.byte	0x11
 12978 4757 5401     		.2byte	0x154
 12979 4759 43       		.uleb128 0x43
 12980 475a 212A0000 		.4byte	.LASF700
 12981 475e 212A0000 		.4byte	.LASF700
 12982 4762 19       		.byte	0x19
 12983 4763 21       		.byte	0x21
 12984 4764 43       		.uleb128 0x43
 12985 4765 782B0000 		.4byte	.LASF701
 12986 4769 782B0000 		.4byte	.LASF701
 12987 476d 1A       		.byte	0x1a
 12988 476e 61       		.byte	0x61
 12989 476f 43       		.uleb128 0x43
 12990 4770 6F140000 		.4byte	.LASF702
ARM GAS  C:\Users\strap\AppData\Local\Temp\ccTzHSZB.s 			page 272


 12991 4774 6F140000 		.4byte	.LASF702
 12992 4778 19       		.byte	0x19
 12993 4779 1E       		.byte	0x1e
 12994 477a 44       		.uleb128 0x44
 12995 477b C12B0000 		.4byte	.LASF703
 12996 477f C12B0000 		.4byte	.LASF703
 12997 4783 11       		.byte	0x11
 12998 4784 6301     		.2byte	0x163
 12999 4786 44       		.uleb128 0x44
 13000 4787 780B0000 		.4byte	.LASF704
 13001 478b 780B0000 		.4byte	.LASF704
 13002 478f 11       		.byte	0x11
 13003 4790 C903     		.2byte	0x3c9
 13004 4792 43       		.uleb128 0x43
 13005 4793 84070000 		.4byte	.LASF705
 13006 4797 84070000 		.4byte	.LASF705
 13007 479b 05       		.byte	0x5
 13008 479c 7A       		.byte	0x7a
 13009 479d 44       		.uleb128 0x44
 13010 479e B4250000 		.4byte	.LASF706
 13011 47a2 B4250000 		.4byte	.LASF706
 13012 47a6 11       		.byte	0x11
 13013 47a7 EF03     		.2byte	0x3ef
 13014 47a9 44       		.uleb128 0x44
 13015 47aa 9F1A0000 		.4byte	.LASF707
 13016 47ae 9F1A0000 		.4byte	.LASF707
 13017 47b2 05       		.byte	0x5
 13018 47b3 0E01     		.2byte	0x10e
 13019 47b5 44       		.uleb128 0x44
 13020 47b6 7C1E0000 		.4byte	.LASF708
 13021 47ba 7C1E0000 		.4byte	.LASF708
 13022 47be 11       		.byte	0x11
 13023 47bf F603     		.2byte	0x3f6
 13024 47c1 43       		.uleb128 0x43
 13025 47c2 BB240000 		.4byte	.LASF709
 13026 47c6 BB240000 		.4byte	.LASF709
 13027 47ca 16       		.byte	0x16
 13028 47cb 89       		.byte	0x89
 13029 47cc 44       		.uleb128 0x44
 13030 47cd 342A0000 		.4byte	.LASF710
 13031 47d1 342A0000 		.4byte	.LASF710
 13032 47d5 11       		.byte	0x11
 13033 47d6 1405     		.2byte	0x514
 13034 47d8 44       		.uleb128 0x44
 13035 47d9 3A110000 		.4byte	.LASF711
 13036 47dd 3A110000 		.4byte	.LASF711
 13037 47e1 11       		.byte	0x11
 13038 47e2 A101     		.2byte	0x1a1
 13039 47e4 44       		.uleb128 0x44
 13040 47e5 082C0000 		.4byte	.LASF712
 13041 47e9 082C0000 		.4byte	.LASF712
 13042 47ed 11       		.byte	0x11
 13043 47ee A801     		.2byte	0x1a8
 13044 47f0 43       		.uleb128 0x43
 13045 47f1 A7030000 		.4byte	.LASF713
 13046 47f5 A7030000 		.4byte	.LASF713
 13047 47f9 16       		.byte	0x16
ARM GAS  C:\Users\strap\AppData\Local\Temp\ccTzHSZB.s 			page 273


 13048 47fa 82       		.byte	0x82
 13049 47fb 43       		.uleb128 0x43
 13050 47fc 39290000 		.4byte	.LASF714
 13051 4800 39290000 		.4byte	.LASF714
 13052 4804 16       		.byte	0x16
 13053 4805 CD       		.byte	0xcd
 13054 4806 43       		.uleb128 0x43
 13055 4807 8D0E0000 		.4byte	.LASF715
 13056 480b 8D0E0000 		.4byte	.LASF715
 13057 480f 16       		.byte	0x16
 13058 4810 EF       		.byte	0xef
 13059 4811 43       		.uleb128 0x43
 13060 4812 7F160000 		.4byte	.LASF716
 13061 4816 7F160000 		.4byte	.LASF716
 13062 481a 16       		.byte	0x16
 13063 481b 98       		.byte	0x98
 13064 481c 44       		.uleb128 0x44
 13065 481d 6D2A0000 		.4byte	.LASF717
 13066 4821 6D2A0000 		.4byte	.LASF717
 13067 4825 11       		.byte	0x11
 13068 4826 B703     		.2byte	0x3b7
 13069 4828 44       		.uleb128 0x44
 13070 4829 DC050000 		.4byte	.LASF718
 13071 482d DC050000 		.4byte	.LASF718
 13072 4831 11       		.byte	0x11
 13073 4832 5003     		.2byte	0x350
 13074 4834 43       		.uleb128 0x43
 13075 4835 52100000 		.4byte	.LASF719
 13076 4839 52100000 		.4byte	.LASF719
 13077 483d 1B       		.byte	0x1b
 13078 483e 30       		.byte	0x30
 13079 483f 43       		.uleb128 0x43
 13080 4840 4B140000 		.4byte	.LASF720
 13081 4844 4B140000 		.4byte	.LASF720
 13082 4848 1B       		.byte	0x1b
 13083 4849 37       		.byte	0x37
 13084 484a 44       		.uleb128 0x44
 13085 484b 922F0000 		.4byte	.LASF721
 13086 484f 922F0000 		.4byte	.LASF721
 13087 4853 11       		.byte	0x11
 13088 4854 8005     		.2byte	0x580
 13089 4856 43       		.uleb128 0x43
 13090 4857 551C0000 		.4byte	.LASF722
 13091 485b 551C0000 		.4byte	.LASF722
 13092 485f 13       		.byte	0x13
 13093 4860 AA       		.byte	0xaa
 13094 4861 43       		.uleb128 0x43
 13095 4862 3F100000 		.4byte	.LASF723
 13096 4866 3F100000 		.4byte	.LASF723
 13097 486a 1B       		.byte	0x1b
 13098 486b 6A       		.byte	0x6a
 13099 486c 43       		.uleb128 0x43
 13100 486d F0200000 		.4byte	.LASF724
 13101 4871 F0200000 		.4byte	.LASF724
 13102 4875 1B       		.byte	0x1b
 13103 4876 88       		.byte	0x88
 13104 4877 43       		.uleb128 0x43
ARM GAS  C:\Users\strap\AppData\Local\Temp\ccTzHSZB.s 			page 274


 13105 4878 D7160000 		.4byte	.LASF725
 13106 487c D7160000 		.4byte	.LASF725
 13107 4880 1B       		.byte	0x1b
 13108 4881 90       		.byte	0x90
 13109 4882 44       		.uleb128 0x44
 13110 4883 55290000 		.4byte	.LASF726
 13111 4887 55290000 		.4byte	.LASF726
 13112 488b 11       		.byte	0x11
 13113 488c 9A05     		.2byte	0x59a
 13114 488e 44       		.uleb128 0x44
 13115 488f 8D1F0000 		.4byte	.LASF727
 13116 4893 8D1F0000 		.4byte	.LASF727
 13117 4897 11       		.byte	0x11
 13118 4898 2605     		.2byte	0x526
 13119 489a 43       		.uleb128 0x43
 13120 489b 55010000 		.4byte	.LASF728
 13121 489f 55010000 		.4byte	.LASF728
 13122 48a3 1A       		.byte	0x1a
 13123 48a4 58       		.byte	0x58
 13124 48a5 43       		.uleb128 0x43
 13125 48a6 63270000 		.4byte	.LASF729
 13126 48aa 63270000 		.4byte	.LASF729
 13127 48ae 13       		.byte	0x13
 13128 48af D7       		.byte	0xd7
 13129 48b0 44       		.uleb128 0x44
 13130 48b1 C3280000 		.4byte	.LASF730
 13131 48b5 C3280000 		.4byte	.LASF730
 13132 48b9 11       		.byte	0x11
 13133 48ba 7003     		.2byte	0x370
 13134 48bc 44       		.uleb128 0x44
 13135 48bd A70E0000 		.4byte	.LASF731
 13136 48c1 A70E0000 		.4byte	.LASF731
 13137 48c5 11       		.byte	0x11
 13138 48c6 2403     		.2byte	0x324
 13139 48c8 44       		.uleb128 0x44
 13140 48c9 C4230000 		.4byte	.LASF732
 13141 48cd C4230000 		.4byte	.LASF732
 13142 48d1 11       		.byte	0x11
 13143 48d2 3603     		.2byte	0x336
 13144 48d4 44       		.uleb128 0x44
 13145 48d5 CC140000 		.4byte	.LASF733
 13146 48d9 CC140000 		.4byte	.LASF733
 13147 48dd 11       		.byte	0x11
 13148 48de 8103     		.2byte	0x381
 13149 48e0 43       		.uleb128 0x43
 13150 48e1 5B0B0000 		.4byte	.LASF734
 13151 48e5 5B0B0000 		.4byte	.LASF734
 13152 48e9 16       		.byte	0x16
 13153 48ea 74       		.byte	0x74
 13154 48eb 43       		.uleb128 0x43
 13155 48ec B20F0000 		.4byte	.LASF735
 13156 48f0 B20F0000 		.4byte	.LASF735
 13157 48f4 07       		.byte	0x7
 13158 48f5 95       		.byte	0x95
 13159 48f6 43       		.uleb128 0x43
 13160 48f7 A31E0000 		.4byte	.LASF736
 13161 48fb A31E0000 		.4byte	.LASF736
ARM GAS  C:\Users\strap\AppData\Local\Temp\ccTzHSZB.s 			page 275


 13162 48ff 06       		.byte	0x6
 13163 4900 6B       		.byte	0x6b
 13164 4901 43       		.uleb128 0x43
 13165 4902 BE1E0000 		.4byte	.LASF737
 13166 4906 BE1E0000 		.4byte	.LASF737
 13167 490a 06       		.byte	0x6
 13168 490b 8A       		.byte	0x8a
 13169 490c 43       		.uleb128 0x43
 13170 490d C2190000 		.4byte	.LASF738
 13171 4911 C2190000 		.4byte	.LASF738
 13172 4915 06       		.byte	0x6
 13173 4916 9B       		.byte	0x9b
 13174 4917 43       		.uleb128 0x43
 13175 4918 9E2B0000 		.4byte	.LASF739
 13176 491c 9E2B0000 		.4byte	.LASF739
 13177 4920 17       		.byte	0x17
 13178 4921 BE       		.byte	0xbe
 13179 4922 43       		.uleb128 0x43
 13180 4923 F32E0000 		.4byte	.LASF740
 13181 4927 F32E0000 		.4byte	.LASF740
 13182 492b 1A       		.byte	0x1a
 13183 492c 52       		.byte	0x52
 13184 492d 43       		.uleb128 0x43
 13185 492e 83050000 		.4byte	.LASF741
 13186 4932 83050000 		.4byte	.LASF741
 13187 4936 16       		.byte	0x16
 13188 4937 5F       		.byte	0x5f
 13189 4938 43       		.uleb128 0x43
 13190 4939 D60A0000 		.4byte	.LASF742
 13191 493d D60A0000 		.4byte	.LASF742
 13192 4941 07       		.byte	0x7
 13193 4942 8A       		.byte	0x8a
 13194 4943 44       		.uleb128 0x44
 13195 4944 8D2C0000 		.4byte	.LASF743
 13196 4948 8D2C0000 		.4byte	.LASF743
 13197 494c 11       		.byte	0x11
 13198 494d 0B04     		.2byte	0x40b
 13199 494f 44       		.uleb128 0x44
 13200 4950 761B0000 		.4byte	.LASF744
 13201 4954 761B0000 		.4byte	.LASF744
 13202 4958 11       		.byte	0x11
 13203 4959 1204     		.2byte	0x412
 13204 495b 43       		.uleb128 0x43
 13205 495c 901D0000 		.4byte	.LASF745
 13206 4960 901D0000 		.4byte	.LASF745
 13207 4964 10       		.byte	0x10
 13208 4965 FC       		.byte	0xfc
 13209 4966 44       		.uleb128 0x44
 13210 4967 B10D0000 		.4byte	.LASF746
 13211 496b B10D0000 		.4byte	.LASF746
 13212 496f 10       		.byte	0x10
 13213 4970 0301     		.2byte	0x103
 13214 4972 43       		.uleb128 0x43
 13215 4973 F9060000 		.4byte	.LASF747
 13216 4977 F9060000 		.4byte	.LASF747
 13217 497b 16       		.byte	0x16
 13218 497c 52       		.byte	0x52
ARM GAS  C:\Users\strap\AppData\Local\Temp\ccTzHSZB.s 			page 276


 13219 497d 44       		.uleb128 0x44
 13220 497e 490E0000 		.4byte	.LASF748
 13221 4982 490E0000 		.4byte	.LASF748
 13222 4986 11       		.byte	0x11
 13223 4987 3701     		.2byte	0x137
 13224 4989 44       		.uleb128 0x44
 13225 498a A5020000 		.4byte	.LASF749
 13226 498e A5020000 		.4byte	.LASF749
 13227 4992 11       		.byte	0x11
 13228 4993 7803     		.2byte	0x378
 13229 4995 44       		.uleb128 0x44
 13230 4996 77100000 		.4byte	.LASF750
 13231 499a 77100000 		.4byte	.LASF750
 13232 499e 11       		.byte	0x11
 13233 499f 4703     		.2byte	0x347
 13234 49a1 44       		.uleb128 0x44
 13235 49a2 E8260000 		.4byte	.LASF751
 13236 49a6 E8260000 		.4byte	.LASF751
 13237 49aa 11       		.byte	0x11
 13238 49ab CA02     		.2byte	0x2ca
 13239 49ad 44       		.uleb128 0x44
 13240 49ae 41040000 		.4byte	.LASF752
 13241 49b2 41040000 		.4byte	.LASF752
 13242 49b6 11       		.byte	0x11
 13243 49b7 E002     		.2byte	0x2e0
 13244 49b9 44       		.uleb128 0x44
 13245 49ba 522D0000 		.4byte	.LASF753
 13246 49be 522D0000 		.4byte	.LASF753
 13247 49c2 11       		.byte	0x11
 13248 49c3 4D02     		.2byte	0x24d
 13249 49c5 44       		.uleb128 0x44
 13250 49c6 9C000000 		.4byte	.LASF754
 13251 49ca 9C000000 		.4byte	.LASF754
 13252 49ce 0D       		.byte	0xd
 13253 49cf 1E01     		.2byte	0x11e
 13254 49d1 44       		.uleb128 0x44
 13255 49d2 981B0000 		.4byte	.LASF755
 13256 49d6 981B0000 		.4byte	.LASF755
 13257 49da 11       		.byte	0x11
 13258 49db 5E02     		.2byte	0x25e
 13259 49dd 44       		.uleb128 0x44
 13260 49de A32F0000 		.4byte	.LASF756
 13261 49e2 A32F0000 		.4byte	.LASF756
 13262 49e6 11       		.byte	0x11
 13263 49e7 9403     		.2byte	0x394
 13264 49e9 44       		.uleb128 0x44
 13265 49ea 622C0000 		.4byte	.LASF757
 13266 49ee 622C0000 		.4byte	.LASF757
 13267 49f2 11       		.byte	0x11
 13268 49f3 3E01     		.2byte	0x13e
 13269 49f5 00       		.byte	0
 13270              		.section	.debug_abbrev,"",%progbits
 13271              	.Ldebug_abbrev0:
 13272 0000 01       		.uleb128 0x1
 13273 0001 11       		.uleb128 0x11
 13274 0002 01       		.byte	0x1
 13275 0003 25       		.uleb128 0x25
ARM GAS  C:\Users\strap\AppData\Local\Temp\ccTzHSZB.s 			page 277


 13276 0004 0E       		.uleb128 0xe
 13277 0005 13       		.uleb128 0x13
 13278 0006 0B       		.uleb128 0xb
 13279 0007 03       		.uleb128 0x3
 13280 0008 0E       		.uleb128 0xe
 13281 0009 1B       		.uleb128 0x1b
 13282 000a 0E       		.uleb128 0xe
 13283 000b 55       		.uleb128 0x55
 13284 000c 17       		.uleb128 0x17
 13285 000d 11       		.uleb128 0x11
 13286 000e 01       		.uleb128 0x1
 13287 000f 10       		.uleb128 0x10
 13288 0010 17       		.uleb128 0x17
 13289 0011 00       		.byte	0
 13290 0012 00       		.byte	0
 13291 0013 02       		.uleb128 0x2
 13292 0014 16       		.uleb128 0x16
 13293 0015 00       		.byte	0
 13294 0016 03       		.uleb128 0x3
 13295 0017 0E       		.uleb128 0xe
 13296 0018 3A       		.uleb128 0x3a
 13297 0019 0B       		.uleb128 0xb
 13298 001a 3B       		.uleb128 0x3b
 13299 001b 0B       		.uleb128 0xb
 13300 001c 49       		.uleb128 0x49
 13301 001d 13       		.uleb128 0x13
 13302 001e 00       		.byte	0
 13303 001f 00       		.byte	0
 13304 0020 03       		.uleb128 0x3
 13305 0021 24       		.uleb128 0x24
 13306 0022 00       		.byte	0
 13307 0023 0B       		.uleb128 0xb
 13308 0024 0B       		.uleb128 0xb
 13309 0025 3E       		.uleb128 0x3e
 13310 0026 0B       		.uleb128 0xb
 13311 0027 03       		.uleb128 0x3
 13312 0028 0E       		.uleb128 0xe
 13313 0029 00       		.byte	0
 13314 002a 00       		.byte	0
 13315 002b 04       		.uleb128 0x4
 13316 002c 24       		.uleb128 0x24
 13317 002d 00       		.byte	0
 13318 002e 0B       		.uleb128 0xb
 13319 002f 0B       		.uleb128 0xb
 13320 0030 3E       		.uleb128 0x3e
 13321 0031 0B       		.uleb128 0xb
 13322 0032 03       		.uleb128 0x3
 13323 0033 08       		.uleb128 0x8
 13324 0034 00       		.byte	0
 13325 0035 00       		.byte	0
 13326 0036 05       		.uleb128 0x5
 13327 0037 0F       		.uleb128 0xf
 13328 0038 00       		.byte	0
 13329 0039 0B       		.uleb128 0xb
 13330 003a 0B       		.uleb128 0xb
 13331 003b 00       		.byte	0
 13332 003c 00       		.byte	0
ARM GAS  C:\Users\strap\AppData\Local\Temp\ccTzHSZB.s 			page 278


 13333 003d 06       		.uleb128 0x6
 13334 003e 16       		.uleb128 0x16
 13335 003f 00       		.byte	0
 13336 0040 03       		.uleb128 0x3
 13337 0041 0E       		.uleb128 0xe
 13338 0042 3A       		.uleb128 0x3a
 13339 0043 0B       		.uleb128 0xb
 13340 0044 3B       		.uleb128 0x3b
 13341 0045 05       		.uleb128 0x5
 13342 0046 49       		.uleb128 0x49
 13343 0047 13       		.uleb128 0x13
 13344 0048 00       		.byte	0
 13345 0049 00       		.byte	0
 13346 004a 07       		.uleb128 0x7
 13347 004b 0F       		.uleb128 0xf
 13348 004c 00       		.byte	0
 13349 004d 0B       		.uleb128 0xb
 13350 004e 0B       		.uleb128 0xb
 13351 004f 49       		.uleb128 0x49
 13352 0050 13       		.uleb128 0x13
 13353 0051 00       		.byte	0
 13354 0052 00       		.byte	0
 13355 0053 08       		.uleb128 0x8
 13356 0054 26       		.uleb128 0x26
 13357 0055 00       		.byte	0
 13358 0056 49       		.uleb128 0x49
 13359 0057 13       		.uleb128 0x13
 13360 0058 00       		.byte	0
 13361 0059 00       		.byte	0
 13362 005a 09       		.uleb128 0x9
 13363 005b 04       		.uleb128 0x4
 13364 005c 01       		.byte	0x1
 13365 005d 0B       		.uleb128 0xb
 13366 005e 0B       		.uleb128 0xb
 13367 005f 49       		.uleb128 0x49
 13368 0060 13       		.uleb128 0x13
 13369 0061 3A       		.uleb128 0x3a
 13370 0062 0B       		.uleb128 0xb
 13371 0063 3B       		.uleb128 0x3b
 13372 0064 0B       		.uleb128 0xb
 13373 0065 01       		.uleb128 0x1
 13374 0066 13       		.uleb128 0x13
 13375 0067 00       		.byte	0
 13376 0068 00       		.byte	0
 13377 0069 0A       		.uleb128 0xa
 13378 006a 28       		.uleb128 0x28
 13379 006b 00       		.byte	0
 13380 006c 03       		.uleb128 0x3
 13381 006d 0E       		.uleb128 0xe
 13382 006e 1C       		.uleb128 0x1c
 13383 006f 0B       		.uleb128 0xb
 13384 0070 00       		.byte	0
 13385 0071 00       		.byte	0
 13386 0072 0B       		.uleb128 0xb
 13387 0073 13       		.uleb128 0x13
 13388 0074 01       		.byte	0x1
 13389 0075 0B       		.uleb128 0xb
ARM GAS  C:\Users\strap\AppData\Local\Temp\ccTzHSZB.s 			page 279


 13390 0076 0B       		.uleb128 0xb
 13391 0077 3A       		.uleb128 0x3a
 13392 0078 0B       		.uleb128 0xb
 13393 0079 3B       		.uleb128 0x3b
 13394 007a 0B       		.uleb128 0xb
 13395 007b 01       		.uleb128 0x1
 13396 007c 13       		.uleb128 0x13
 13397 007d 00       		.byte	0
 13398 007e 00       		.byte	0
 13399 007f 0C       		.uleb128 0xc
 13400 0080 0D       		.uleb128 0xd
 13401 0081 00       		.byte	0
 13402 0082 03       		.uleb128 0x3
 13403 0083 08       		.uleb128 0x8
 13404 0084 3A       		.uleb128 0x3a
 13405 0085 0B       		.uleb128 0xb
 13406 0086 3B       		.uleb128 0x3b
 13407 0087 0B       		.uleb128 0xb
 13408 0088 49       		.uleb128 0x49
 13409 0089 13       		.uleb128 0x13
 13410 008a 38       		.uleb128 0x38
 13411 008b 0B       		.uleb128 0xb
 13412 008c 00       		.byte	0
 13413 008d 00       		.byte	0
 13414 008e 0D       		.uleb128 0xd
 13415 008f 0D       		.uleb128 0xd
 13416 0090 00       		.byte	0
 13417 0091 03       		.uleb128 0x3
 13418 0092 0E       		.uleb128 0xe
 13419 0093 3A       		.uleb128 0x3a
 13420 0094 0B       		.uleb128 0xb
 13421 0095 3B       		.uleb128 0x3b
 13422 0096 0B       		.uleb128 0xb
 13423 0097 49       		.uleb128 0x49
 13424 0098 13       		.uleb128 0x13
 13425 0099 38       		.uleb128 0x38
 13426 009a 0B       		.uleb128 0xb
 13427 009b 00       		.byte	0
 13428 009c 00       		.byte	0
 13429 009d 0E       		.uleb128 0xe
 13430 009e 13       		.uleb128 0x13
 13431 009f 01       		.byte	0x1
 13432 00a0 03       		.uleb128 0x3
 13433 00a1 0E       		.uleb128 0xe
 13434 00a2 0B       		.uleb128 0xb
 13435 00a3 0B       		.uleb128 0xb
 13436 00a4 3A       		.uleb128 0x3a
 13437 00a5 0B       		.uleb128 0xb
 13438 00a6 3B       		.uleb128 0x3b
 13439 00a7 0B       		.uleb128 0xb
 13440 00a8 01       		.uleb128 0x1
 13441 00a9 13       		.uleb128 0x13
 13442 00aa 00       		.byte	0
 13443 00ab 00       		.byte	0
 13444 00ac 0F       		.uleb128 0xf
 13445 00ad 0D       		.uleb128 0xd
 13446 00ae 00       		.byte	0
ARM GAS  C:\Users\strap\AppData\Local\Temp\ccTzHSZB.s 			page 280


 13447 00af 03       		.uleb128 0x3
 13448 00b0 0E       		.uleb128 0xe
 13449 00b1 3A       		.uleb128 0x3a
 13450 00b2 0B       		.uleb128 0xb
 13451 00b3 3B       		.uleb128 0x3b
 13452 00b4 0B       		.uleb128 0xb
 13453 00b5 49       		.uleb128 0x49
 13454 00b6 13       		.uleb128 0x13
 13455 00b7 0B       		.uleb128 0xb
 13456 00b8 0B       		.uleb128 0xb
 13457 00b9 0D       		.uleb128 0xd
 13458 00ba 0B       		.uleb128 0xb
 13459 00bb 0C       		.uleb128 0xc
 13460 00bc 0B       		.uleb128 0xb
 13461 00bd 38       		.uleb128 0x38
 13462 00be 0B       		.uleb128 0xb
 13463 00bf 00       		.byte	0
 13464 00c0 00       		.byte	0
 13465 00c1 10       		.uleb128 0x10
 13466 00c2 15       		.uleb128 0x15
 13467 00c3 01       		.byte	0x1
 13468 00c4 27       		.uleb128 0x27
 13469 00c5 19       		.uleb128 0x19
 13470 00c6 49       		.uleb128 0x49
 13471 00c7 13       		.uleb128 0x13
 13472 00c8 01       		.uleb128 0x1
 13473 00c9 13       		.uleb128 0x13
 13474 00ca 00       		.byte	0
 13475 00cb 00       		.byte	0
 13476 00cc 11       		.uleb128 0x11
 13477 00cd 05       		.uleb128 0x5
 13478 00ce 00       		.byte	0
 13479 00cf 49       		.uleb128 0x49
 13480 00d0 13       		.uleb128 0x13
 13481 00d1 00       		.byte	0
 13482 00d2 00       		.byte	0
 13483 00d3 12       		.uleb128 0x12
 13484 00d4 0D       		.uleb128 0xd
 13485 00d5 00       		.byte	0
 13486 00d6 03       		.uleb128 0x3
 13487 00d7 08       		.uleb128 0x8
 13488 00d8 3A       		.uleb128 0x3a
 13489 00d9 0B       		.uleb128 0xb
 13490 00da 3B       		.uleb128 0x3b
 13491 00db 0B       		.uleb128 0xb
 13492 00dc 49       		.uleb128 0x49
 13493 00dd 13       		.uleb128 0x13
 13494 00de 0B       		.uleb128 0xb
 13495 00df 0B       		.uleb128 0xb
 13496 00e0 0D       		.uleb128 0xd
 13497 00e1 0B       		.uleb128 0xb
 13498 00e2 0C       		.uleb128 0xc
 13499 00e3 0B       		.uleb128 0xb
 13500 00e4 38       		.uleb128 0x38
 13501 00e5 0B       		.uleb128 0xb
 13502 00e6 00       		.byte	0
 13503 00e7 00       		.byte	0
ARM GAS  C:\Users\strap\AppData\Local\Temp\ccTzHSZB.s 			page 281


 13504 00e8 13       		.uleb128 0x13
 13505 00e9 17       		.uleb128 0x17
 13506 00ea 01       		.byte	0x1
 13507 00eb 0B       		.uleb128 0xb
 13508 00ec 0B       		.uleb128 0xb
 13509 00ed 3A       		.uleb128 0x3a
 13510 00ee 0B       		.uleb128 0xb
 13511 00ef 3B       		.uleb128 0x3b
 13512 00f0 0B       		.uleb128 0xb
 13513 00f1 01       		.uleb128 0x1
 13514 00f2 13       		.uleb128 0x13
 13515 00f3 00       		.byte	0
 13516 00f4 00       		.byte	0
 13517 00f5 14       		.uleb128 0x14
 13518 00f6 0D       		.uleb128 0xd
 13519 00f7 00       		.byte	0
 13520 00f8 03       		.uleb128 0x3
 13521 00f9 08       		.uleb128 0x8
 13522 00fa 3A       		.uleb128 0x3a
 13523 00fb 0B       		.uleb128 0xb
 13524 00fc 3B       		.uleb128 0x3b
 13525 00fd 0B       		.uleb128 0xb
 13526 00fe 49       		.uleb128 0x49
 13527 00ff 13       		.uleb128 0x13
 13528 0100 00       		.byte	0
 13529 0101 00       		.byte	0
 13530 0102 15       		.uleb128 0x15
 13531 0103 0D       		.uleb128 0xd
 13532 0104 00       		.byte	0
 13533 0105 03       		.uleb128 0x3
 13534 0106 0E       		.uleb128 0xe
 13535 0107 3A       		.uleb128 0x3a
 13536 0108 0B       		.uleb128 0xb
 13537 0109 3B       		.uleb128 0x3b
 13538 010a 0B       		.uleb128 0xb
 13539 010b 49       		.uleb128 0x49
 13540 010c 13       		.uleb128 0x13
 13541 010d 00       		.byte	0
 13542 010e 00       		.byte	0
 13543 010f 16       		.uleb128 0x16
 13544 0110 15       		.uleb128 0x15
 13545 0111 01       		.byte	0x1
 13546 0112 27       		.uleb128 0x27
 13547 0113 19       		.uleb128 0x19
 13548 0114 01       		.uleb128 0x1
 13549 0115 13       		.uleb128 0x13
 13550 0116 00       		.byte	0
 13551 0117 00       		.byte	0
 13552 0118 17       		.uleb128 0x17
 13553 0119 28       		.uleb128 0x28
 13554 011a 00       		.byte	0
 13555 011b 03       		.uleb128 0x3
 13556 011c 0E       		.uleb128 0xe
 13557 011d 1C       		.uleb128 0x1c
 13558 011e 05       		.uleb128 0x5
 13559 011f 00       		.byte	0
 13560 0120 00       		.byte	0
ARM GAS  C:\Users\strap\AppData\Local\Temp\ccTzHSZB.s 			page 282


 13561 0121 18       		.uleb128 0x18
 13562 0122 35       		.uleb128 0x35
 13563 0123 00       		.byte	0
 13564 0124 49       		.uleb128 0x49
 13565 0125 13       		.uleb128 0x13
 13566 0126 00       		.byte	0
 13567 0127 00       		.byte	0
 13568 0128 19       		.uleb128 0x19
 13569 0129 13       		.uleb128 0x13
 13570 012a 01       		.byte	0x1
 13571 012b 03       		.uleb128 0x3
 13572 012c 0E       		.uleb128 0xe
 13573 012d 0B       		.uleb128 0xb
 13574 012e 05       		.uleb128 0x5
 13575 012f 3A       		.uleb128 0x3a
 13576 0130 0B       		.uleb128 0xb
 13577 0131 3B       		.uleb128 0x3b
 13578 0132 0B       		.uleb128 0xb
 13579 0133 01       		.uleb128 0x1
 13580 0134 13       		.uleb128 0x13
 13581 0135 00       		.byte	0
 13582 0136 00       		.byte	0
 13583 0137 1A       		.uleb128 0x1a
 13584 0138 0D       		.uleb128 0xd
 13585 0139 00       		.byte	0
 13586 013a 03       		.uleb128 0x3
 13587 013b 0E       		.uleb128 0xe
 13588 013c 3A       		.uleb128 0x3a
 13589 013d 0B       		.uleb128 0xb
 13590 013e 3B       		.uleb128 0x3b
 13591 013f 0B       		.uleb128 0xb
 13592 0140 49       		.uleb128 0x49
 13593 0141 13       		.uleb128 0x13
 13594 0142 38       		.uleb128 0x38
 13595 0143 05       		.uleb128 0x5
 13596 0144 00       		.byte	0
 13597 0145 00       		.byte	0
 13598 0146 1B       		.uleb128 0x1b
 13599 0147 0D       		.uleb128 0xd
 13600 0148 00       		.byte	0
 13601 0149 03       		.uleb128 0x3
 13602 014a 0E       		.uleb128 0xe
 13603 014b 3A       		.uleb128 0x3a
 13604 014c 0B       		.uleb128 0xb
 13605 014d 3B       		.uleb128 0x3b
 13606 014e 0B       		.uleb128 0xb
 13607 014f 49       		.uleb128 0x49
 13608 0150 13       		.uleb128 0x13
 13609 0151 0B       		.uleb128 0xb
 13610 0152 0B       		.uleb128 0xb
 13611 0153 0D       		.uleb128 0xd
 13612 0154 0B       		.uleb128 0xb
 13613 0155 0C       		.uleb128 0xc
 13614 0156 0B       		.uleb128 0xb
 13615 0157 38       		.uleb128 0x38
 13616 0158 05       		.uleb128 0x5
 13617 0159 00       		.byte	0
ARM GAS  C:\Users\strap\AppData\Local\Temp\ccTzHSZB.s 			page 283


 13618 015a 00       		.byte	0
 13619 015b 1C       		.uleb128 0x1c
 13620 015c 26       		.uleb128 0x26
 13621 015d 00       		.byte	0
 13622 015e 00       		.byte	0
 13623 015f 00       		.byte	0
 13624 0160 1D       		.uleb128 0x1d
 13625 0161 01       		.uleb128 0x1
 13626 0162 01       		.byte	0x1
 13627 0163 49       		.uleb128 0x49
 13628 0164 13       		.uleb128 0x13
 13629 0165 01       		.uleb128 0x1
 13630 0166 13       		.uleb128 0x13
 13631 0167 00       		.byte	0
 13632 0168 00       		.byte	0
 13633 0169 1E       		.uleb128 0x1e
 13634 016a 21       		.uleb128 0x21
 13635 016b 00       		.byte	0
 13636 016c 49       		.uleb128 0x49
 13637 016d 13       		.uleb128 0x13
 13638 016e 2F       		.uleb128 0x2f
 13639 016f 0B       		.uleb128 0xb
 13640 0170 00       		.byte	0
 13641 0171 00       		.byte	0
 13642 0172 1F       		.uleb128 0x1f
 13643 0173 13       		.uleb128 0x13
 13644 0174 01       		.byte	0x1
 13645 0175 0B       		.uleb128 0xb
 13646 0176 0B       		.uleb128 0xb
 13647 0177 3A       		.uleb128 0x3a
 13648 0178 0B       		.uleb128 0xb
 13649 0179 3B       		.uleb128 0x3b
 13650 017a 05       		.uleb128 0x5
 13651 017b 01       		.uleb128 0x1
 13652 017c 13       		.uleb128 0x13
 13653 017d 00       		.byte	0
 13654 017e 00       		.byte	0
 13655 017f 20       		.uleb128 0x20
 13656 0180 0D       		.uleb128 0xd
 13657 0181 00       		.byte	0
 13658 0182 03       		.uleb128 0x3
 13659 0183 0E       		.uleb128 0xe
 13660 0184 3A       		.uleb128 0x3a
 13661 0185 0B       		.uleb128 0xb
 13662 0186 3B       		.uleb128 0x3b
 13663 0187 05       		.uleb128 0x5
 13664 0188 49       		.uleb128 0x49
 13665 0189 13       		.uleb128 0x13
 13666 018a 38       		.uleb128 0x38
 13667 018b 0B       		.uleb128 0xb
 13668 018c 00       		.byte	0
 13669 018d 00       		.byte	0
 13670 018e 21       		.uleb128 0x21
 13671 018f 2E       		.uleb128 0x2e
 13672 0190 01       		.byte	0x1
 13673 0191 03       		.uleb128 0x3
 13674 0192 0E       		.uleb128 0xe
ARM GAS  C:\Users\strap\AppData\Local\Temp\ccTzHSZB.s 			page 284


 13675 0193 3A       		.uleb128 0x3a
 13676 0194 0B       		.uleb128 0xb
 13677 0195 3B       		.uleb128 0x3b
 13678 0196 0B       		.uleb128 0xb
 13679 0197 27       		.uleb128 0x27
 13680 0198 19       		.uleb128 0x19
 13681 0199 20       		.uleb128 0x20
 13682 019a 0B       		.uleb128 0xb
 13683 019b 01       		.uleb128 0x1
 13684 019c 13       		.uleb128 0x13
 13685 019d 00       		.byte	0
 13686 019e 00       		.byte	0
 13687 019f 22       		.uleb128 0x22
 13688 01a0 05       		.uleb128 0x5
 13689 01a1 00       		.byte	0
 13690 01a2 03       		.uleb128 0x3
 13691 01a3 0E       		.uleb128 0xe
 13692 01a4 3A       		.uleb128 0x3a
 13693 01a5 0B       		.uleb128 0xb
 13694 01a6 3B       		.uleb128 0x3b
 13695 01a7 0B       		.uleb128 0xb
 13696 01a8 49       		.uleb128 0x49
 13697 01a9 13       		.uleb128 0x13
 13698 01aa 00       		.byte	0
 13699 01ab 00       		.byte	0
 13700 01ac 23       		.uleb128 0x23
 13701 01ad 05       		.uleb128 0x5
 13702 01ae 00       		.byte	0
 13703 01af 03       		.uleb128 0x3
 13704 01b0 08       		.uleb128 0x8
 13705 01b1 3A       		.uleb128 0x3a
 13706 01b2 0B       		.uleb128 0xb
 13707 01b3 3B       		.uleb128 0x3b
 13708 01b4 0B       		.uleb128 0xb
 13709 01b5 49       		.uleb128 0x49
 13710 01b6 13       		.uleb128 0x13
 13711 01b7 00       		.byte	0
 13712 01b8 00       		.byte	0
 13713 01b9 24       		.uleb128 0x24
 13714 01ba 2E       		.uleb128 0x2e
 13715 01bb 01       		.byte	0x1
 13716 01bc 03       		.uleb128 0x3
 13717 01bd 0E       		.uleb128 0xe
 13718 01be 3A       		.uleb128 0x3a
 13719 01bf 0B       		.uleb128 0xb
 13720 01c0 3B       		.uleb128 0x3b
 13721 01c1 0B       		.uleb128 0xb
 13722 01c2 27       		.uleb128 0x27
 13723 01c3 19       		.uleb128 0x19
 13724 01c4 49       		.uleb128 0x49
 13725 01c5 13       		.uleb128 0x13
 13726 01c6 20       		.uleb128 0x20
 13727 01c7 0B       		.uleb128 0xb
 13728 01c8 01       		.uleb128 0x1
 13729 01c9 13       		.uleb128 0x13
 13730 01ca 00       		.byte	0
 13731 01cb 00       		.byte	0
ARM GAS  C:\Users\strap\AppData\Local\Temp\ccTzHSZB.s 			page 285


 13732 01cc 25       		.uleb128 0x25
 13733 01cd 2E       		.uleb128 0x2e
 13734 01ce 01       		.byte	0x1
 13735 01cf 03       		.uleb128 0x3
 13736 01d0 0E       		.uleb128 0xe
 13737 01d1 3A       		.uleb128 0x3a
 13738 01d2 0B       		.uleb128 0xb
 13739 01d3 3B       		.uleb128 0x3b
 13740 01d4 05       		.uleb128 0x5
 13741 01d5 27       		.uleb128 0x27
 13742 01d6 19       		.uleb128 0x19
 13743 01d7 49       		.uleb128 0x49
 13744 01d8 13       		.uleb128 0x13
 13745 01d9 11       		.uleb128 0x11
 13746 01da 01       		.uleb128 0x1
 13747 01db 12       		.uleb128 0x12
 13748 01dc 06       		.uleb128 0x6
 13749 01dd 40       		.uleb128 0x40
 13750 01de 18       		.uleb128 0x18
 13751 01df 9742     		.uleb128 0x2117
 13752 01e1 19       		.uleb128 0x19
 13753 01e2 01       		.uleb128 0x1
 13754 01e3 13       		.uleb128 0x13
 13755 01e4 00       		.byte	0
 13756 01e5 00       		.byte	0
 13757 01e6 26       		.uleb128 0x26
 13758 01e7 05       		.uleb128 0x5
 13759 01e8 00       		.byte	0
 13760 01e9 03       		.uleb128 0x3
 13761 01ea 0E       		.uleb128 0xe
 13762 01eb 3A       		.uleb128 0x3a
 13763 01ec 0B       		.uleb128 0xb
 13764 01ed 3B       		.uleb128 0x3b
 13765 01ee 05       		.uleb128 0x5
 13766 01ef 49       		.uleb128 0x49
 13767 01f0 13       		.uleb128 0x13
 13768 01f1 02       		.uleb128 0x2
 13769 01f2 17       		.uleb128 0x17
 13770 01f3 00       		.byte	0
 13771 01f4 00       		.byte	0
 13772 01f5 27       		.uleb128 0x27
 13773 01f6 34       		.uleb128 0x34
 13774 01f7 00       		.byte	0
 13775 01f8 03       		.uleb128 0x3
 13776 01f9 08       		.uleb128 0x8
 13777 01fa 3A       		.uleb128 0x3a
 13778 01fb 0B       		.uleb128 0xb
 13779 01fc 3B       		.uleb128 0x3b
 13780 01fd 05       		.uleb128 0x5
 13781 01fe 49       		.uleb128 0x49
 13782 01ff 13       		.uleb128 0x13
 13783 0200 02       		.uleb128 0x2
 13784 0201 17       		.uleb128 0x17
 13785 0202 00       		.byte	0
 13786 0203 00       		.byte	0
 13787 0204 28       		.uleb128 0x28
 13788 0205 34       		.uleb128 0x34
ARM GAS  C:\Users\strap\AppData\Local\Temp\ccTzHSZB.s 			page 286


 13789 0206 00       		.byte	0
 13790 0207 03       		.uleb128 0x3
 13791 0208 0E       		.uleb128 0xe
 13792 0209 3A       		.uleb128 0x3a
 13793 020a 0B       		.uleb128 0xb
 13794 020b 3B       		.uleb128 0x3b
 13795 020c 05       		.uleb128 0x5
 13796 020d 49       		.uleb128 0x49
 13797 020e 13       		.uleb128 0x13
 13798 020f 02       		.uleb128 0x2
 13799 0210 17       		.uleb128 0x17
 13800 0211 00       		.byte	0
 13801 0212 00       		.byte	0
 13802 0213 29       		.uleb128 0x29
 13803 0214 898201   		.uleb128 0x4109
 13804 0217 01       		.byte	0x1
 13805 0218 11       		.uleb128 0x11
 13806 0219 01       		.uleb128 0x1
 13807 021a 31       		.uleb128 0x31
 13808 021b 13       		.uleb128 0x13
 13809 021c 01       		.uleb128 0x1
 13810 021d 13       		.uleb128 0x13
 13811 021e 00       		.byte	0
 13812 021f 00       		.byte	0
 13813 0220 2A       		.uleb128 0x2a
 13814 0221 8A8201   		.uleb128 0x410a
 13815 0224 00       		.byte	0
 13816 0225 02       		.uleb128 0x2
 13817 0226 18       		.uleb128 0x18
 13818 0227 9142     		.uleb128 0x2111
 13819 0229 18       		.uleb128 0x18
 13820 022a 00       		.byte	0
 13821 022b 00       		.byte	0
 13822 022c 2B       		.uleb128 0x2b
 13823 022d 898201   		.uleb128 0x4109
 13824 0230 01       		.byte	0x1
 13825 0231 11       		.uleb128 0x11
 13826 0232 01       		.uleb128 0x1
 13827 0233 31       		.uleb128 0x31
 13828 0234 13       		.uleb128 0x13
 13829 0235 00       		.byte	0
 13830 0236 00       		.byte	0
 13831 0237 2C       		.uleb128 0x2c
 13832 0238 2E       		.uleb128 0x2e
 13833 0239 01       		.byte	0x1
 13834 023a 03       		.uleb128 0x3
 13835 023b 0E       		.uleb128 0xe
 13836 023c 3A       		.uleb128 0x3a
 13837 023d 0B       		.uleb128 0xb
 13838 023e 3B       		.uleb128 0x3b
 13839 023f 05       		.uleb128 0x5
 13840 0240 27       		.uleb128 0x27
 13841 0241 19       		.uleb128 0x19
 13842 0242 11       		.uleb128 0x11
 13843 0243 01       		.uleb128 0x1
 13844 0244 12       		.uleb128 0x12
 13845 0245 06       		.uleb128 0x6
ARM GAS  C:\Users\strap\AppData\Local\Temp\ccTzHSZB.s 			page 287


 13846 0246 40       		.uleb128 0x40
 13847 0247 18       		.uleb128 0x18
 13848 0248 9742     		.uleb128 0x2117
 13849 024a 19       		.uleb128 0x19
 13850 024b 01       		.uleb128 0x1
 13851 024c 13       		.uleb128 0x13
 13852 024d 00       		.byte	0
 13853 024e 00       		.byte	0
 13854 024f 2D       		.uleb128 0x2d
 13855 0250 34       		.uleb128 0x34
 13856 0251 00       		.byte	0
 13857 0252 03       		.uleb128 0x3
 13858 0253 0E       		.uleb128 0xe
 13859 0254 3A       		.uleb128 0x3a
 13860 0255 0B       		.uleb128 0xb
 13861 0256 3B       		.uleb128 0x3b
 13862 0257 05       		.uleb128 0x5
 13863 0258 49       		.uleb128 0x49
 13864 0259 13       		.uleb128 0x13
 13865 025a 00       		.byte	0
 13866 025b 00       		.byte	0
 13867 025c 2E       		.uleb128 0x2e
 13868 025d 1D       		.uleb128 0x1d
 13869 025e 01       		.byte	0x1
 13870 025f 31       		.uleb128 0x31
 13871 0260 13       		.uleb128 0x13
 13872 0261 11       		.uleb128 0x11
 13873 0262 01       		.uleb128 0x1
 13874 0263 12       		.uleb128 0x12
 13875 0264 06       		.uleb128 0x6
 13876 0265 58       		.uleb128 0x58
 13877 0266 0B       		.uleb128 0xb
 13878 0267 59       		.uleb128 0x59
 13879 0268 05       		.uleb128 0x5
 13880 0269 01       		.uleb128 0x1
 13881 026a 13       		.uleb128 0x13
 13882 026b 00       		.byte	0
 13883 026c 00       		.byte	0
 13884 026d 2F       		.uleb128 0x2f
 13885 026e 05       		.uleb128 0x5
 13886 026f 00       		.byte	0
 13887 0270 31       		.uleb128 0x31
 13888 0271 13       		.uleb128 0x13
 13889 0272 02       		.uleb128 0x2
 13890 0273 17       		.uleb128 0x17
 13891 0274 00       		.byte	0
 13892 0275 00       		.byte	0
 13893 0276 30       		.uleb128 0x30
 13894 0277 898201   		.uleb128 0x4109
 13895 027a 00       		.byte	0
 13896 027b 11       		.uleb128 0x11
 13897 027c 01       		.uleb128 0x1
 13898 027d 31       		.uleb128 0x31
 13899 027e 13       		.uleb128 0x13
 13900 027f 00       		.byte	0
 13901 0280 00       		.byte	0
 13902 0281 31       		.uleb128 0x31
ARM GAS  C:\Users\strap\AppData\Local\Temp\ccTzHSZB.s 			page 288


 13903 0282 2E       		.uleb128 0x2e
 13904 0283 01       		.byte	0x1
 13905 0284 3F       		.uleb128 0x3f
 13906 0285 19       		.uleb128 0x19
 13907 0286 03       		.uleb128 0x3
 13908 0287 0E       		.uleb128 0xe
 13909 0288 3A       		.uleb128 0x3a
 13910 0289 0B       		.uleb128 0xb
 13911 028a 3B       		.uleb128 0x3b
 13912 028b 05       		.uleb128 0x5
 13913 028c 27       		.uleb128 0x27
 13914 028d 19       		.uleb128 0x19
 13915 028e 11       		.uleb128 0x11
 13916 028f 01       		.uleb128 0x1
 13917 0290 12       		.uleb128 0x12
 13918 0291 06       		.uleb128 0x6
 13919 0292 40       		.uleb128 0x40
 13920 0293 18       		.uleb128 0x18
 13921 0294 9742     		.uleb128 0x2117
 13922 0296 19       		.uleb128 0x19
 13923 0297 01       		.uleb128 0x1
 13924 0298 13       		.uleb128 0x13
 13925 0299 00       		.byte	0
 13926 029a 00       		.byte	0
 13927 029b 32       		.uleb128 0x32
 13928 029c 05       		.uleb128 0x5
 13929 029d 00       		.byte	0
 13930 029e 03       		.uleb128 0x3
 13931 029f 08       		.uleb128 0x8
 13932 02a0 3A       		.uleb128 0x3a
 13933 02a1 0B       		.uleb128 0xb
 13934 02a2 3B       		.uleb128 0x3b
 13935 02a3 05       		.uleb128 0x5
 13936 02a4 49       		.uleb128 0x49
 13937 02a5 13       		.uleb128 0x13
 13938 02a6 02       		.uleb128 0x2
 13939 02a7 17       		.uleb128 0x17
 13940 02a8 00       		.byte	0
 13941 02a9 00       		.byte	0
 13942 02aa 33       		.uleb128 0x33
 13943 02ab 0B       		.uleb128 0xb
 13944 02ac 01       		.byte	0x1
 13945 02ad 11       		.uleb128 0x11
 13946 02ae 01       		.uleb128 0x1
 13947 02af 12       		.uleb128 0x12
 13948 02b0 06       		.uleb128 0x6
 13949 02b1 01       		.uleb128 0x1
 13950 02b2 13       		.uleb128 0x13
 13951 02b3 00       		.byte	0
 13952 02b4 00       		.byte	0
 13953 02b5 34       		.uleb128 0x34
 13954 02b6 34       		.uleb128 0x34
 13955 02b7 00       		.byte	0
 13956 02b8 03       		.uleb128 0x3
 13957 02b9 08       		.uleb128 0x8
 13958 02ba 3A       		.uleb128 0x3a
 13959 02bb 0B       		.uleb128 0xb
ARM GAS  C:\Users\strap\AppData\Local\Temp\ccTzHSZB.s 			page 289


 13960 02bc 3B       		.uleb128 0x3b
 13961 02bd 05       		.uleb128 0x5
 13962 02be 49       		.uleb128 0x49
 13963 02bf 13       		.uleb128 0x13
 13964 02c0 02       		.uleb128 0x2
 13965 02c1 18       		.uleb128 0x18
 13966 02c2 00       		.byte	0
 13967 02c3 00       		.byte	0
 13968 02c4 35       		.uleb128 0x35
 13969 02c5 2E       		.uleb128 0x2e
 13970 02c6 01       		.byte	0x1
 13971 02c7 3F       		.uleb128 0x3f
 13972 02c8 19       		.uleb128 0x19
 13973 02c9 03       		.uleb128 0x3
 13974 02ca 0E       		.uleb128 0xe
 13975 02cb 3A       		.uleb128 0x3a
 13976 02cc 0B       		.uleb128 0xb
 13977 02cd 3B       		.uleb128 0x3b
 13978 02ce 05       		.uleb128 0x5
 13979 02cf 27       		.uleb128 0x27
 13980 02d0 19       		.uleb128 0x19
 13981 02d1 49       		.uleb128 0x49
 13982 02d2 13       		.uleb128 0x13
 13983 02d3 11       		.uleb128 0x11
 13984 02d4 01       		.uleb128 0x1
 13985 02d5 12       		.uleb128 0x12
 13986 02d6 06       		.uleb128 0x6
 13987 02d7 40       		.uleb128 0x40
 13988 02d8 18       		.uleb128 0x18
 13989 02d9 9742     		.uleb128 0x2117
 13990 02db 19       		.uleb128 0x19
 13991 02dc 01       		.uleb128 0x1
 13992 02dd 13       		.uleb128 0x13
 13993 02de 00       		.byte	0
 13994 02df 00       		.byte	0
 13995 02e0 36       		.uleb128 0x36
 13996 02e1 05       		.uleb128 0x5
 13997 02e2 00       		.byte	0
 13998 02e3 31       		.uleb128 0x31
 13999 02e4 13       		.uleb128 0x13
 14000 02e5 00       		.byte	0
 14001 02e6 00       		.byte	0
 14002 02e7 37       		.uleb128 0x37
 14003 02e8 34       		.uleb128 0x34
 14004 02e9 00       		.byte	0
 14005 02ea 03       		.uleb128 0x3
 14006 02eb 0E       		.uleb128 0xe
 14007 02ec 3A       		.uleb128 0x3a
 14008 02ed 0B       		.uleb128 0xb
 14009 02ee 3B       		.uleb128 0x3b
 14010 02ef 05       		.uleb128 0x5
 14011 02f0 49       		.uleb128 0x49
 14012 02f1 13       		.uleb128 0x13
 14013 02f2 02       		.uleb128 0x2
 14014 02f3 18       		.uleb128 0x18
 14015 02f4 00       		.byte	0
 14016 02f5 00       		.byte	0
ARM GAS  C:\Users\strap\AppData\Local\Temp\ccTzHSZB.s 			page 290


 14017 02f6 38       		.uleb128 0x38
 14018 02f7 898201   		.uleb128 0x4109
 14019 02fa 01       		.byte	0x1
 14020 02fb 11       		.uleb128 0x11
 14021 02fc 01       		.uleb128 0x1
 14022 02fd 01       		.uleb128 0x1
 14023 02fe 13       		.uleb128 0x13
 14024 02ff 00       		.byte	0
 14025 0300 00       		.byte	0
 14026 0301 39       		.uleb128 0x39
 14027 0302 2E       		.uleb128 0x2e
 14028 0303 01       		.byte	0x1
 14029 0304 03       		.uleb128 0x3
 14030 0305 0E       		.uleb128 0xe
 14031 0306 3A       		.uleb128 0x3a
 14032 0307 0B       		.uleb128 0xb
 14033 0308 3B       		.uleb128 0x3b
 14034 0309 05       		.uleb128 0x5
 14035 030a 27       		.uleb128 0x27
 14036 030b 19       		.uleb128 0x19
 14037 030c 49       		.uleb128 0x49
 14038 030d 13       		.uleb128 0x13
 14039 030e 11       		.uleb128 0x11
 14040 030f 01       		.uleb128 0x1
 14041 0310 12       		.uleb128 0x12
 14042 0311 06       		.uleb128 0x6
 14043 0312 40       		.uleb128 0x40
 14044 0313 18       		.uleb128 0x18
 14045 0314 9642     		.uleb128 0x2116
 14046 0316 19       		.uleb128 0x19
 14047 0317 01       		.uleb128 0x1
 14048 0318 13       		.uleb128 0x13
 14049 0319 00       		.byte	0
 14050 031a 00       		.byte	0
 14051 031b 3A       		.uleb128 0x3a
 14052 031c 0B       		.uleb128 0xb
 14053 031d 01       		.byte	0x1
 14054 031e 55       		.uleb128 0x55
 14055 031f 17       		.uleb128 0x17
 14056 0320 01       		.uleb128 0x1
 14057 0321 13       		.uleb128 0x13
 14058 0322 00       		.byte	0
 14059 0323 00       		.byte	0
 14060 0324 3B       		.uleb128 0x3b
 14061 0325 898201   		.uleb128 0x4109
 14062 0328 01       		.byte	0x1
 14063 0329 11       		.uleb128 0x11
 14064 032a 01       		.uleb128 0x1
 14065 032b 00       		.byte	0
 14066 032c 00       		.byte	0
 14067 032d 3C       		.uleb128 0x3c
 14068 032e 2E       		.uleb128 0x2e
 14069 032f 01       		.byte	0x1
 14070 0330 3F       		.uleb128 0x3f
 14071 0331 19       		.uleb128 0x19
 14072 0332 03       		.uleb128 0x3
 14073 0333 0E       		.uleb128 0xe
ARM GAS  C:\Users\strap\AppData\Local\Temp\ccTzHSZB.s 			page 291


 14074 0334 3A       		.uleb128 0x3a
 14075 0335 0B       		.uleb128 0xb
 14076 0336 3B       		.uleb128 0x3b
 14077 0337 0B       		.uleb128 0xb
 14078 0338 27       		.uleb128 0x27
 14079 0339 19       		.uleb128 0x19
 14080 033a 49       		.uleb128 0x49
 14081 033b 13       		.uleb128 0x13
 14082 033c 11       		.uleb128 0x11
 14083 033d 01       		.uleb128 0x1
 14084 033e 12       		.uleb128 0x12
 14085 033f 06       		.uleb128 0x6
 14086 0340 40       		.uleb128 0x40
 14087 0341 18       		.uleb128 0x18
 14088 0342 9742     		.uleb128 0x2117
 14089 0344 19       		.uleb128 0x19
 14090 0345 01       		.uleb128 0x1
 14091 0346 13       		.uleb128 0x13
 14092 0347 00       		.byte	0
 14093 0348 00       		.byte	0
 14094 0349 3D       		.uleb128 0x3d
 14095 034a 05       		.uleb128 0x5
 14096 034b 00       		.byte	0
 14097 034c 03       		.uleb128 0x3
 14098 034d 0E       		.uleb128 0xe
 14099 034e 3A       		.uleb128 0x3a
 14100 034f 0B       		.uleb128 0xb
 14101 0350 3B       		.uleb128 0x3b
 14102 0351 0B       		.uleb128 0xb
 14103 0352 49       		.uleb128 0x49
 14104 0353 13       		.uleb128 0x13
 14105 0354 02       		.uleb128 0x2
 14106 0355 17       		.uleb128 0x17
 14107 0356 00       		.byte	0
 14108 0357 00       		.byte	0
 14109 0358 3E       		.uleb128 0x3e
 14110 0359 34       		.uleb128 0x34
 14111 035a 00       		.byte	0
 14112 035b 03       		.uleb128 0x3
 14113 035c 08       		.uleb128 0x8
 14114 035d 3A       		.uleb128 0x3a
 14115 035e 0B       		.uleb128 0xb
 14116 035f 3B       		.uleb128 0x3b
 14117 0360 0B       		.uleb128 0xb
 14118 0361 49       		.uleb128 0x49
 14119 0362 13       		.uleb128 0x13
 14120 0363 02       		.uleb128 0x2
 14121 0364 17       		.uleb128 0x17
 14122 0365 00       		.byte	0
 14123 0366 00       		.byte	0
 14124 0367 3F       		.uleb128 0x3f
 14125 0368 34       		.uleb128 0x34
 14126 0369 00       		.byte	0
 14127 036a 03       		.uleb128 0x3
 14128 036b 0E       		.uleb128 0xe
 14129 036c 3A       		.uleb128 0x3a
 14130 036d 0B       		.uleb128 0xb
ARM GAS  C:\Users\strap\AppData\Local\Temp\ccTzHSZB.s 			page 292


 14131 036e 3B       		.uleb128 0x3b
 14132 036f 0B       		.uleb128 0xb
 14133 0370 49       		.uleb128 0x49
 14134 0371 13       		.uleb128 0x13
 14135 0372 02       		.uleb128 0x2
 14136 0373 17       		.uleb128 0x17
 14137 0374 00       		.byte	0
 14138 0375 00       		.byte	0
 14139 0376 40       		.uleb128 0x40
 14140 0377 1D       		.uleb128 0x1d
 14141 0378 01       		.byte	0x1
 14142 0379 31       		.uleb128 0x31
 14143 037a 13       		.uleb128 0x13
 14144 037b 11       		.uleb128 0x11
 14145 037c 01       		.uleb128 0x1
 14146 037d 12       		.uleb128 0x12
 14147 037e 06       		.uleb128 0x6
 14148 037f 58       		.uleb128 0x58
 14149 0380 0B       		.uleb128 0xb
 14150 0381 59       		.uleb128 0x59
 14151 0382 0B       		.uleb128 0xb
 14152 0383 01       		.uleb128 0x1
 14153 0384 13       		.uleb128 0x13
 14154 0385 00       		.byte	0
 14155 0386 00       		.byte	0
 14156 0387 41       		.uleb128 0x41
 14157 0388 05       		.uleb128 0x5
 14158 0389 00       		.byte	0
 14159 038a 03       		.uleb128 0x3
 14160 038b 08       		.uleb128 0x8
 14161 038c 3A       		.uleb128 0x3a
 14162 038d 0B       		.uleb128 0xb
 14163 038e 3B       		.uleb128 0x3b
 14164 038f 0B       		.uleb128 0xb
 14165 0390 49       		.uleb128 0x49
 14166 0391 13       		.uleb128 0x13
 14167 0392 02       		.uleb128 0x2
 14168 0393 17       		.uleb128 0x17
 14169 0394 00       		.byte	0
 14170 0395 00       		.byte	0
 14171 0396 42       		.uleb128 0x42
 14172 0397 34       		.uleb128 0x34
 14173 0398 00       		.byte	0
 14174 0399 03       		.uleb128 0x3
 14175 039a 0E       		.uleb128 0xe
 14176 039b 3A       		.uleb128 0x3a
 14177 039c 0B       		.uleb128 0xb
 14178 039d 3B       		.uleb128 0x3b
 14179 039e 0B       		.uleb128 0xb
 14180 039f 49       		.uleb128 0x49
 14181 03a0 13       		.uleb128 0x13
 14182 03a1 02       		.uleb128 0x2
 14183 03a2 18       		.uleb128 0x18
 14184 03a3 00       		.byte	0
 14185 03a4 00       		.byte	0
 14186 03a5 43       		.uleb128 0x43
 14187 03a6 2E       		.uleb128 0x2e
ARM GAS  C:\Users\strap\AppData\Local\Temp\ccTzHSZB.s 			page 293


 14188 03a7 00       		.byte	0
 14189 03a8 3F       		.uleb128 0x3f
 14190 03a9 19       		.uleb128 0x19
 14191 03aa 3C       		.uleb128 0x3c
 14192 03ab 19       		.uleb128 0x19
 14193 03ac 6E       		.uleb128 0x6e
 14194 03ad 0E       		.uleb128 0xe
 14195 03ae 03       		.uleb128 0x3
 14196 03af 0E       		.uleb128 0xe
 14197 03b0 3A       		.uleb128 0x3a
 14198 03b1 0B       		.uleb128 0xb
 14199 03b2 3B       		.uleb128 0x3b
 14200 03b3 0B       		.uleb128 0xb
 14201 03b4 00       		.byte	0
 14202 03b5 00       		.byte	0
 14203 03b6 44       		.uleb128 0x44
 14204 03b7 2E       		.uleb128 0x2e
 14205 03b8 00       		.byte	0
 14206 03b9 3F       		.uleb128 0x3f
 14207 03ba 19       		.uleb128 0x19
 14208 03bb 3C       		.uleb128 0x3c
 14209 03bc 19       		.uleb128 0x19
 14210 03bd 6E       		.uleb128 0x6e
 14211 03be 0E       		.uleb128 0xe
 14212 03bf 03       		.uleb128 0x3
 14213 03c0 0E       		.uleb128 0xe
 14214 03c1 3A       		.uleb128 0x3a
 14215 03c2 0B       		.uleb128 0xb
 14216 03c3 3B       		.uleb128 0x3b
 14217 03c4 05       		.uleb128 0x5
 14218 03c5 00       		.byte	0
 14219 03c6 00       		.byte	0
 14220 03c7 00       		.byte	0
 14221              		.section	.debug_loc,"",%progbits
 14222              	.Ldebug_loc0:
 14223              	.LLST0:
 14224 0000 00000000 		.4byte	.LVL0
 14225 0004 09000000 		.4byte	.LVL1-1
 14226 0008 0100     		.2byte	0x1
 14227 000a 50       		.byte	0x50
 14228 000b 09000000 		.4byte	.LVL1-1
 14229 000f 68000000 		.4byte	.LVL19
 14230 0013 0100     		.2byte	0x1
 14231 0015 54       		.byte	0x54
 14232 0016 68000000 		.4byte	.LVL19
 14233 001a 6C000000 		.4byte	.LFE371
 14234 001e 0400     		.2byte	0x4
 14235 0020 F3       		.byte	0xf3
 14236 0021 01       		.uleb128 0x1
 14237 0022 50       		.byte	0x50
 14238 0023 9F       		.byte	0x9f
 14239 0024 00000000 		.4byte	0
 14240 0028 00000000 		.4byte	0
 14241              	.LLST1:
 14242 002c 00000000 		.4byte	.LVL0
 14243 0030 09000000 		.4byte	.LVL1-1
 14244 0034 0100     		.2byte	0x1
ARM GAS  C:\Users\strap\AppData\Local\Temp\ccTzHSZB.s 			page 294


 14245 0036 51       		.byte	0x51
 14246 0037 09000000 		.4byte	.LVL1-1
 14247 003b 6C000000 		.4byte	.LFE371
 14248 003f 0400     		.2byte	0x4
 14249 0041 F3       		.byte	0xf3
 14250 0042 01       		.uleb128 0x1
 14251 0043 51       		.byte	0x51
 14252 0044 9F       		.byte	0x9f
 14253 0045 00000000 		.4byte	0
 14254 0049 00000000 		.4byte	0
 14255              	.LLST2:
 14256 004d 1E000000 		.4byte	.LVL3
 14257 0051 3A000000 		.4byte	.LVL4
 14258 0055 0100     		.2byte	0x1
 14259 0057 50       		.byte	0x50
 14260 0058 3C000000 		.4byte	.LVL5
 14261 005c 40000000 		.4byte	.LVL6
 14262 0060 0100     		.2byte	0x1
 14263 0062 50       		.byte	0x50
 14264 0063 46000000 		.4byte	.LVL8
 14265 0067 4A000000 		.4byte	.LVL9
 14266 006b 0100     		.2byte	0x1
 14267 006d 50       		.byte	0x50
 14268 006e 50000000 		.4byte	.LVL11
 14269 0072 54000000 		.4byte	.LVL12
 14270 0076 0100     		.2byte	0x1
 14271 0078 50       		.byte	0x50
 14272 0079 5A000000 		.4byte	.LVL14
 14273 007d 5E000000 		.4byte	.LVL15
 14274 0081 0100     		.2byte	0x1
 14275 0083 50       		.byte	0x50
 14276 0084 64000000 		.4byte	.LVL17
 14277 0088 66000000 		.4byte	.LVL18
 14278 008c 0100     		.2byte	0x1
 14279 008e 50       		.byte	0x50
 14280 008f 00000000 		.4byte	0
 14281 0093 00000000 		.4byte	0
 14282              	.LLST3:
 14283 0097 3A000000 		.4byte	.LVL4
 14284 009b 3C000000 		.4byte	.LVL5
 14285 009f 0100     		.2byte	0x1
 14286 00a1 50       		.byte	0x50
 14287 00a2 44000000 		.4byte	.LVL7
 14288 00a6 46000000 		.4byte	.LVL8
 14289 00aa 0100     		.2byte	0x1
 14290 00ac 50       		.byte	0x50
 14291 00ad 4E000000 		.4byte	.LVL10
 14292 00b1 50000000 		.4byte	.LVL11
 14293 00b5 0100     		.2byte	0x1
 14294 00b7 50       		.byte	0x50
 14295 00b8 58000000 		.4byte	.LVL13
 14296 00bc 5A000000 		.4byte	.LVL14
 14297 00c0 0100     		.2byte	0x1
 14298 00c2 50       		.byte	0x50
 14299 00c3 62000000 		.4byte	.LVL16
 14300 00c7 64000000 		.4byte	.LVL17
 14301 00cb 0100     		.2byte	0x1
ARM GAS  C:\Users\strap\AppData\Local\Temp\ccTzHSZB.s 			page 295


 14302 00cd 50       		.byte	0x50
 14303 00ce 66000000 		.4byte	.LVL18
 14304 00d2 6C000000 		.4byte	.LFE371
 14305 00d6 0100     		.2byte	0x1
 14306 00d8 50       		.byte	0x50
 14307 00d9 00000000 		.4byte	0
 14308 00dd 00000000 		.4byte	0
 14309              	.LLST4:
 14310 00e1 00000000 		.4byte	.LVL20
 14311 00e5 0B000000 		.4byte	.LVL21-1
 14312 00e9 0100     		.2byte	0x1
 14313 00eb 50       		.byte	0x50
 14314 00ec 0B000000 		.4byte	.LVL21-1
 14315 00f0 FA000000 		.4byte	.LFE375
 14316 00f4 0100     		.2byte	0x1
 14317 00f6 54       		.byte	0x54
 14318 00f7 00000000 		.4byte	0
 14319 00fb 00000000 		.4byte	0
 14320              	.LLST5:
 14321 00ff 0E000000 		.4byte	.LVL22
 14322 0103 14000000 		.4byte	.LVL23
 14323 0107 0100     		.2byte	0x1
 14324 0109 50       		.byte	0x50
 14325 010a 14000000 		.4byte	.LVL23
 14326 010e FA000000 		.4byte	.LFE375
 14327 0112 0100     		.2byte	0x1
 14328 0114 56       		.byte	0x56
 14329 0115 00000000 		.4byte	0
 14330 0119 00000000 		.4byte	0
 14331              	.LLST6:
 14332 011d 90000000 		.4byte	.LVL42
 14333 0121 9E000000 		.4byte	.LVL44
 14334 0125 0200     		.2byte	0x2
 14335 0127 30       		.byte	0x30
 14336 0128 9F       		.byte	0x9f
 14337 0129 BC000000 		.4byte	.LVL49
 14338 012d BE000000 		.4byte	.LVL50
 14339 0131 0100     		.2byte	0x1
 14340 0133 57       		.byte	0x57
 14341 0134 E2000000 		.4byte	.LVL53
 14342 0138 FA000000 		.4byte	.LFE375
 14343 013c 0100     		.2byte	0x1
 14344 013e 57       		.byte	0x57
 14345 013f 00000000 		.4byte	0
 14346 0143 00000000 		.4byte	0
 14347              	.LLST7:
 14348 0147 90000000 		.4byte	.LVL42
 14349 014b 9E000000 		.4byte	.LVL44
 14350 014f 0200     		.2byte	0x2
 14351 0151 30       		.byte	0x30
 14352 0152 9F       		.byte	0x9f
 14353 0153 B4000000 		.4byte	.LVL47
 14354 0157 BE000000 		.4byte	.LVL50
 14355 015b 0100     		.2byte	0x1
 14356 015d 55       		.byte	0x55
 14357 015e EA000000 		.4byte	.LVL55
 14358 0162 FA000000 		.4byte	.LFE375
ARM GAS  C:\Users\strap\AppData\Local\Temp\ccTzHSZB.s 			page 296


 14359 0166 0100     		.2byte	0x1
 14360 0168 55       		.byte	0x55
 14361 0169 00000000 		.4byte	0
 14362 016d 00000000 		.4byte	0
 14363              	.LLST8:
 14364 0171 0E000000 		.4byte	.LVL22
 14365 0175 1A000000 		.4byte	.LVL25
 14366 0179 0300     		.2byte	0x3
 14367 017b 08       		.byte	0x8
 14368 017c 41       		.byte	0x41
 14369 017d 9F       		.byte	0x9f
 14370 017e 00000000 		.4byte	0
 14371 0182 00000000 		.4byte	0
 14372              	.LLST9:
 14373 0186 0E000000 		.4byte	.LVL22
 14374 018a 1A000000 		.4byte	.LVL25
 14375 018e 0100     		.2byte	0x1
 14376 0190 54       		.byte	0x54
 14377 0191 00000000 		.4byte	0
 14378 0195 00000000 		.4byte	0
 14379              	.LLST10:
 14380 0199 1A000000 		.4byte	.LVL25
 14381 019d 26000000 		.4byte	.LVL27
 14382 01a1 0300     		.2byte	0x3
 14383 01a3 08       		.byte	0x8
 14384 01a4 41       		.byte	0x41
 14385 01a5 9F       		.byte	0x9f
 14386 01a6 00000000 		.4byte	0
 14387 01aa 00000000 		.4byte	0
 14388              	.LLST11:
 14389 01ae 1A000000 		.4byte	.LVL25
 14390 01b2 26000000 		.4byte	.LVL27
 14391 01b6 0100     		.2byte	0x1
 14392 01b8 54       		.byte	0x54
 14393 01b9 00000000 		.4byte	0
 14394 01bd 00000000 		.4byte	0
 14395              	.LLST12:
 14396 01c1 26000000 		.4byte	.LVL27
 14397 01c5 32000000 		.4byte	.LVL29
 14398 01c9 0300     		.2byte	0x3
 14399 01cb 08       		.byte	0x8
 14400 01cc 41       		.byte	0x41
 14401 01cd 9F       		.byte	0x9f
 14402 01ce 00000000 		.4byte	0
 14403 01d2 00000000 		.4byte	0
 14404              	.LLST13:
 14405 01d6 26000000 		.4byte	.LVL27
 14406 01da 32000000 		.4byte	.LVL29
 14407 01de 0100     		.2byte	0x1
 14408 01e0 54       		.byte	0x54
 14409 01e1 00000000 		.4byte	0
 14410 01e5 00000000 		.4byte	0
 14411              	.LLST14:
 14412 01e9 32000000 		.4byte	.LVL29
 14413 01ed 3E000000 		.4byte	.LVL31
 14414 01f1 0300     		.2byte	0x3
 14415 01f3 08       		.byte	0x8
ARM GAS  C:\Users\strap\AppData\Local\Temp\ccTzHSZB.s 			page 297


 14416 01f4 41       		.byte	0x41
 14417 01f5 9F       		.byte	0x9f
 14418 01f6 00000000 		.4byte	0
 14419 01fa 00000000 		.4byte	0
 14420              	.LLST15:
 14421 01fe 32000000 		.4byte	.LVL29
 14422 0202 3E000000 		.4byte	.LVL31
 14423 0206 0100     		.2byte	0x1
 14424 0208 54       		.byte	0x54
 14425 0209 00000000 		.4byte	0
 14426 020d 00000000 		.4byte	0
 14427              	.LLST16:
 14428 0211 3E000000 		.4byte	.LVL31
 14429 0215 4A000000 		.4byte	.LVL33
 14430 0219 0300     		.2byte	0x3
 14431 021b 08       		.byte	0x8
 14432 021c 42       		.byte	0x42
 14433 021d 9F       		.byte	0x9f
 14434 021e 00000000 		.4byte	0
 14435 0222 00000000 		.4byte	0
 14436              	.LLST17:
 14437 0226 3E000000 		.4byte	.LVL31
 14438 022a 4A000000 		.4byte	.LVL33
 14439 022e 0100     		.2byte	0x1
 14440 0230 54       		.byte	0x54
 14441 0231 00000000 		.4byte	0
 14442 0235 00000000 		.4byte	0
 14443              	.LLST18:
 14444 0239 4A000000 		.4byte	.LVL33
 14445 023d 56000000 		.4byte	.LVL35
 14446 0241 0300     		.2byte	0x3
 14447 0243 08       		.byte	0x8
 14448 0244 42       		.byte	0x42
 14449 0245 9F       		.byte	0x9f
 14450 0246 00000000 		.4byte	0
 14451 024a 00000000 		.4byte	0
 14452              	.LLST19:
 14453 024e 4A000000 		.4byte	.LVL33
 14454 0252 56000000 		.4byte	.LVL35
 14455 0256 0100     		.2byte	0x1
 14456 0258 54       		.byte	0x54
 14457 0259 00000000 		.4byte	0
 14458 025d 00000000 		.4byte	0
 14459              	.LLST20:
 14460 0261 56000000 		.4byte	.LVL35
 14461 0265 62000000 		.4byte	.LVL37
 14462 0269 0300     		.2byte	0x3
 14463 026b 08       		.byte	0x8
 14464 026c 42       		.byte	0x42
 14465 026d 9F       		.byte	0x9f
 14466 026e 00000000 		.4byte	0
 14467 0272 00000000 		.4byte	0
 14468              	.LLST21:
 14469 0276 56000000 		.4byte	.LVL35
 14470 027a 62000000 		.4byte	.LVL37
 14471 027e 0100     		.2byte	0x1
 14472 0280 54       		.byte	0x54
ARM GAS  C:\Users\strap\AppData\Local\Temp\ccTzHSZB.s 			page 298


 14473 0281 00000000 		.4byte	0
 14474 0285 00000000 		.4byte	0
 14475              	.LLST22:
 14476 0289 62000000 		.4byte	.LVL37
 14477 028d 6E000000 		.4byte	.LVL39
 14478 0291 0300     		.2byte	0x3
 14479 0293 08       		.byte	0x8
 14480 0294 42       		.byte	0x42
 14481 0295 9F       		.byte	0x9f
 14482 0296 00000000 		.4byte	0
 14483 029a 00000000 		.4byte	0
 14484              	.LLST23:
 14485 029e 62000000 		.4byte	.LVL37
 14486 02a2 6E000000 		.4byte	.LVL39
 14487 02a6 0100     		.2byte	0x1
 14488 02a8 54       		.byte	0x54
 14489 02a9 00000000 		.4byte	0
 14490 02ad 00000000 		.4byte	0
 14491              	.LLST24:
 14492 02b1 6E000000 		.4byte	.LVL39
 14493 02b5 7C000000 		.4byte	.LVL41
 14494 02b9 0300     		.2byte	0x3
 14495 02bb 08       		.byte	0x8
 14496 02bc 42       		.byte	0x42
 14497 02bd 9F       		.byte	0x9f
 14498 02be 00000000 		.4byte	0
 14499 02c2 00000000 		.4byte	0
 14500              	.LLST25:
 14501 02c6 6E000000 		.4byte	.LVL39
 14502 02ca 7C000000 		.4byte	.LVL41
 14503 02ce 0100     		.2byte	0x1
 14504 02d0 54       		.byte	0x54
 14505 02d1 00000000 		.4byte	0
 14506 02d5 00000000 		.4byte	0
 14507              	.LLST26:
 14508 02d9 A6000000 		.4byte	.LVL45
 14509 02dd AA000000 		.4byte	.LVL46
 14510 02e1 0100     		.2byte	0x1
 14511 02e3 5B       		.byte	0x5b
 14512 02e4 00000000 		.4byte	0
 14513 02e8 00000000 		.4byte	0
 14514              	.LLST27:
 14515 02ec 00000000 		.4byte	.LVL57
 14516 02f0 09000000 		.4byte	.LVL58-1
 14517 02f4 0100     		.2byte	0x1
 14518 02f6 50       		.byte	0x50
 14519 02f7 09000000 		.4byte	.LVL58-1
 14520 02fb 8E000000 		.4byte	.LVL84
 14521 02ff 0100     		.2byte	0x1
 14522 0301 56       		.byte	0x56
 14523 0302 8E000000 		.4byte	.LVL84
 14524 0306 D0000000 		.4byte	.LFE376
 14525 030a 0400     		.2byte	0x4
 14526 030c F3       		.byte	0xf3
 14527 030d 01       		.uleb128 0x1
 14528 030e 50       		.byte	0x50
 14529 030f 9F       		.byte	0x9f
ARM GAS  C:\Users\strap\AppData\Local\Temp\ccTzHSZB.s 			page 299


 14530 0310 00000000 		.4byte	0
 14531 0314 00000000 		.4byte	0
 14532              	.LLST28:
 14533 0318 0C000000 		.4byte	.LVL59
 14534 031c 22000000 		.4byte	.LVL60
 14535 0320 0100     		.2byte	0x1
 14536 0322 50       		.byte	0x50
 14537 0323 22000000 		.4byte	.LVL60
 14538 0327 32000000 		.4byte	.LVL65
 14539 032b 0100     		.2byte	0x1
 14540 032d 55       		.byte	0x55
 14541 032e 32000000 		.4byte	.LVL65
 14542 0332 34000000 		.4byte	.LVL66
 14543 0336 0100     		.2byte	0x1
 14544 0338 50       		.byte	0x50
 14545 0339 34000000 		.4byte	.LVL66
 14546 033d 4E000000 		.4byte	.LVL72
 14547 0341 0100     		.2byte	0x1
 14548 0343 55       		.byte	0x55
 14549 0344 4E000000 		.4byte	.LVL72
 14550 0348 50000000 		.4byte	.LVL73
 14551 034c 0100     		.2byte	0x1
 14552 034e 50       		.byte	0x50
 14553 034f 50000000 		.4byte	.LVL73
 14554 0353 96000000 		.4byte	.LVL86
 14555 0357 0100     		.2byte	0x1
 14556 0359 55       		.byte	0x55
 14557 035a 00000000 		.4byte	0
 14558 035e 00000000 		.4byte	0
 14559              	.LLST29:
 14560 0362 28000000 		.4byte	.LVL62
 14561 0366 32000000 		.4byte	.LVL65
 14562 036a 0100     		.2byte	0x1
 14563 036c 57       		.byte	0x57
 14564 036d 3A000000 		.4byte	.LVL68
 14565 0371 4E000000 		.4byte	.LVL72
 14566 0375 0100     		.2byte	0x1
 14567 0377 57       		.byte	0x57
 14568 0378 60000000 		.4byte	.LVL76
 14569 037c CA000000 		.4byte	.LVL94
 14570 0380 0100     		.2byte	0x1
 14571 0382 57       		.byte	0x57
 14572 0383 00000000 		.4byte	0
 14573 0387 00000000 		.4byte	0
 14574              	.LLST30:
 14575 038b 30000000 		.4byte	.LVL64
 14576 038f 32000000 		.4byte	.LVL65
 14577 0393 0100     		.2byte	0x1
 14578 0395 54       		.byte	0x54
 14579 0396 4C000000 		.4byte	.LVL71
 14580 039a 4E000000 		.4byte	.LVL72
 14581 039e 0100     		.2byte	0x1
 14582 03a0 54       		.byte	0x54
 14583 03a1 68000000 		.4byte	.LVL78
 14584 03a5 8C000000 		.4byte	.LVL83
 14585 03a9 0100     		.2byte	0x1
 14586 03ab 54       		.byte	0x54
ARM GAS  C:\Users\strap\AppData\Local\Temp\ccTzHSZB.s 			page 300


 14587 03ac 8E000000 		.4byte	.LVL84
 14588 03b0 CA000000 		.4byte	.LVL94
 14589 03b4 0100     		.2byte	0x1
 14590 03b6 56       		.byte	0x56
 14591 03b7 00000000 		.4byte	0
 14592 03bb 00000000 		.4byte	0
 14593              	.LLST31:
 14594 03bf 96000000 		.4byte	.LVL86
 14595 03c3 9B000000 		.4byte	.LVL87-1
 14596 03c7 0100     		.2byte	0x1
 14597 03c9 50       		.byte	0x50
 14598 03ca 9B000000 		.4byte	.LVL87-1
 14599 03ce CA000000 		.4byte	.LVL94
 14600 03d2 0100     		.2byte	0x1
 14601 03d4 55       		.byte	0x55
 14602 03d5 00000000 		.4byte	0
 14603 03d9 00000000 		.4byte	0
 14604              	.LLST32:
 14605 03dd 9E000000 		.4byte	.LVL88
 14606 03e1 A2000000 		.4byte	.LVL89
 14607 03e5 0100     		.2byte	0x1
 14608 03e7 50       		.byte	0x50
 14609 03e8 A2000000 		.4byte	.LVL89
 14610 03ec C2000000 		.4byte	.LVL93
 14611 03f0 0100     		.2byte	0x1
 14612 03f2 54       		.byte	0x54
 14613 03f3 C2000000 		.4byte	.LVL93
 14614 03f7 D0000000 		.4byte	.LFE376
 14615 03fb 0100     		.2byte	0x1
 14616 03fd 50       		.byte	0x50
 14617 03fe 00000000 		.4byte	0
 14618 0402 00000000 		.4byte	0
 14619              	.LLST33:
 14620 0406 72000000 		.4byte	.LVL79
 14621 040a 7E000000 		.4byte	.LVL81
 14622 040e 0300     		.2byte	0x3
 14623 0410 08       		.byte	0x8
 14624 0411 40       		.byte	0x40
 14625 0412 9F       		.byte	0x9f
 14626 0413 00000000 		.4byte	0
 14627 0417 00000000 		.4byte	0
 14628              	.LLST34:
 14629 041b 72000000 		.4byte	.LVL79
 14630 041f 7E000000 		.4byte	.LVL81
 14631 0423 0100     		.2byte	0x1
 14632 0425 56       		.byte	0x56
 14633 0426 00000000 		.4byte	0
 14634 042a 00000000 		.4byte	0
 14635              	.LLST35:
 14636 042e 7E000000 		.4byte	.LVL81
 14637 0432 88000000 		.4byte	.LVL82
 14638 0436 0300     		.2byte	0x3
 14639 0438 08       		.byte	0x8
 14640 0439 40       		.byte	0x40
 14641 043a 9F       		.byte	0x9f
 14642 043b 00000000 		.4byte	0
 14643 043f 00000000 		.4byte	0
ARM GAS  C:\Users\strap\AppData\Local\Temp\ccTzHSZB.s 			page 301


 14644              	.LLST36:
 14645 0443 7E000000 		.4byte	.LVL81
 14646 0447 88000000 		.4byte	.LVL82
 14647 044b 0100     		.2byte	0x1
 14648 044d 56       		.byte	0x56
 14649 044e 00000000 		.4byte	0
 14650 0452 00000000 		.4byte	0
 14651              	.LLST37:
 14652 0456 00000000 		.4byte	.LVL95
 14653 045a 07000000 		.4byte	.LVL96-1
 14654 045e 0100     		.2byte	0x1
 14655 0460 50       		.byte	0x50
 14656 0461 07000000 		.4byte	.LVL96-1
 14657 0465 3C000000 		.4byte	.LVL105
 14658 0469 0100     		.2byte	0x1
 14659 046b 55       		.byte	0x55
 14660 046c 3C000000 		.4byte	.LVL105
 14661 0470 40000000 		.4byte	.LVL106
 14662 0474 0400     		.2byte	0x4
 14663 0476 F3       		.byte	0xf3
 14664 0477 01       		.uleb128 0x1
 14665 0478 50       		.byte	0x50
 14666 0479 9F       		.byte	0x9f
 14667 047a 40000000 		.4byte	.LVL106
 14668 047e 5C000000 		.4byte	.LVL112
 14669 0482 0100     		.2byte	0x1
 14670 0484 55       		.byte	0x55
 14671 0485 5C000000 		.4byte	.LVL112
 14672 0489 60000000 		.4byte	.LVL114
 14673 048d 0400     		.2byte	0x4
 14674 048f F3       		.byte	0xf3
 14675 0490 01       		.uleb128 0x1
 14676 0491 50       		.byte	0x50
 14677 0492 9F       		.byte	0x9f
 14678 0493 60000000 		.4byte	.LVL114
 14679 0497 76000000 		.4byte	.LVL118
 14680 049b 0100     		.2byte	0x1
 14681 049d 55       		.byte	0x55
 14682 049e 76000000 		.4byte	.LVL118
 14683 04a2 7E000000 		.4byte	.LVL120
 14684 04a6 0400     		.2byte	0x4
 14685 04a8 F3       		.byte	0xf3
 14686 04a9 01       		.uleb128 0x1
 14687 04aa 50       		.byte	0x50
 14688 04ab 9F       		.byte	0x9f
 14689 04ac 7E000000 		.4byte	.LVL120
 14690 04b0 80000000 		.4byte	.LVL121
 14691 04b4 0100     		.2byte	0x1
 14692 04b6 55       		.byte	0x55
 14693 04b7 80000000 		.4byte	.LVL121
 14694 04bb 84000000 		.4byte	.LVL122
 14695 04bf 0400     		.2byte	0x4
 14696 04c1 F3       		.byte	0xf3
 14697 04c2 01       		.uleb128 0x1
 14698 04c3 50       		.byte	0x50
 14699 04c4 9F       		.byte	0x9f
 14700 04c5 84000000 		.4byte	.LVL122
ARM GAS  C:\Users\strap\AppData\Local\Temp\ccTzHSZB.s 			page 302


 14701 04c9 86000000 		.4byte	.LVL123
 14702 04cd 0100     		.2byte	0x1
 14703 04cf 55       		.byte	0x55
 14704 04d0 86000000 		.4byte	.LVL123
 14705 04d4 9A000000 		.4byte	.LFE374
 14706 04d8 0400     		.2byte	0x4
 14707 04da F3       		.byte	0xf3
 14708 04db 01       		.uleb128 0x1
 14709 04dc 50       		.byte	0x50
 14710 04dd 9F       		.byte	0x9f
 14711 04de 00000000 		.4byte	0
 14712 04e2 00000000 		.4byte	0
 14713              	.LLST38:
 14714 04e6 0A000000 		.4byte	.LVL97
 14715 04ea 0C000000 		.4byte	.LVL98
 14716 04ee 0100     		.2byte	0x1
 14717 04f0 50       		.byte	0x50
 14718 04f1 0C000000 		.4byte	.LVL98
 14719 04f5 9A000000 		.4byte	.LFE374
 14720 04f9 0100     		.2byte	0x1
 14721 04fb 54       		.byte	0x54
 14722 04fc 00000000 		.4byte	0
 14723 0500 00000000 		.4byte	0
 14724              	.LLST39:
 14725 0504 12000000 		.4byte	.LVL100
 14726 0508 18000000 		.4byte	.LVL101
 14727 050c 0100     		.2byte	0x1
 14728 050e 50       		.byte	0x50
 14729 050f 18000000 		.4byte	.LVL101
 14730 0513 9A000000 		.4byte	.LFE374
 14731 0517 0100     		.2byte	0x1
 14732 0519 57       		.byte	0x57
 14733 051a 00000000 		.4byte	0
 14734 051e 00000000 		.4byte	0
 14735              	.LLST40:
 14736 0522 3A000000 		.4byte	.LVL104
 14737 0526 40000000 		.4byte	.LVL106
 14738 052a 0200     		.2byte	0x2
 14739 052c 30       		.byte	0x30
 14740 052d 9F       		.byte	0x9f
 14741 052e 6C000000 		.4byte	.LVL116
 14742 0532 7E000000 		.4byte	.LVL120
 14743 0536 0100     		.2byte	0x1
 14744 0538 56       		.byte	0x56
 14745 0539 88000000 		.4byte	.LVL124
 14746 053d 9A000000 		.4byte	.LFE374
 14747 0541 0100     		.2byte	0x1
 14748 0543 56       		.byte	0x56
 14749 0544 00000000 		.4byte	0
 14750 0548 00000000 		.4byte	0
 14751              	.LLST41:
 14752 054c 3A000000 		.4byte	.LVL104
 14753 0550 40000000 		.4byte	.LVL106
 14754 0554 0200     		.2byte	0x2
 14755 0556 30       		.byte	0x30
 14756 0557 9F       		.byte	0x9f
 14757 0558 4C000000 		.4byte	.LVL108
ARM GAS  C:\Users\strap\AppData\Local\Temp\ccTzHSZB.s 			page 303


 14758 055c 5E000000 		.4byte	.LVL113
 14759 0560 0100     		.2byte	0x1
 14760 0562 56       		.byte	0x56
 14761 0563 88000000 		.4byte	.LVL124
 14762 0567 9A000000 		.4byte	.LFE374
 14763 056b 0100     		.2byte	0x1
 14764 056d 55       		.byte	0x55
 14765 056e 00000000 		.4byte	0
 14766 0572 00000000 		.4byte	0
 14767              	.LLST42:
 14768 0576 12000000 		.4byte	.LVL100
 14769 057a 1E000000 		.4byte	.LVL103
 14770 057e 0300     		.2byte	0x3
 14771 0580 08       		.byte	0x8
 14772 0581 43       		.byte	0x43
 14773 0582 9F       		.byte	0x9f
 14774 0583 00000000 		.4byte	0
 14775 0587 00000000 		.4byte	0
 14776              	.LLST43:
 14777 058b 12000000 		.4byte	.LVL100
 14778 058f 1E000000 		.4byte	.LVL103
 14779 0593 0100     		.2byte	0x1
 14780 0595 55       		.byte	0x55
 14781 0596 00000000 		.4byte	0
 14782 059a 00000000 		.4byte	0
 14783              	.LLST44:
 14784 059e 4E000000 		.4byte	.LVL109
 14785 05a2 56000000 		.4byte	.LVL110
 14786 05a6 0100     		.2byte	0x1
 14787 05a8 52       		.byte	0x52
 14788 05a9 56000000 		.4byte	.LVL110
 14789 05ad 5A000000 		.4byte	.LVL111
 14790 05b1 0200     		.2byte	0x2
 14791 05b3 77       		.byte	0x77
 14792 05b4 04       		.sleb128 4
 14793 05b5 00000000 		.4byte	0
 14794 05b9 00000000 		.4byte	0
 14795              	.LLST45:
 14796 05bd 6E000000 		.4byte	.LVL117
 14797 05c1 7C000000 		.4byte	.LVL119
 14798 05c5 0100     		.2byte	0x1
 14799 05c7 52       		.byte	0x52
 14800 05c8 00000000 		.4byte	0
 14801 05cc 00000000 		.4byte	0
 14802              	.LLST46:
 14803 05d0 00000000 		.4byte	.LVL127
 14804 05d4 09000000 		.4byte	.LVL128-1
 14805 05d8 0100     		.2byte	0x1
 14806 05da 50       		.byte	0x50
 14807 05db 09000000 		.4byte	.LVL128-1
 14808 05df F2000000 		.4byte	.LFE377
 14809 05e3 0100     		.2byte	0x1
 14810 05e5 56       		.byte	0x56
 14811 05e6 00000000 		.4byte	0
 14812 05ea 00000000 		.4byte	0
 14813              	.LLST47:
 14814 05ee 0C000000 		.4byte	.LVL129
ARM GAS  C:\Users\strap\AppData\Local\Temp\ccTzHSZB.s 			page 304


 14815 05f2 22000000 		.4byte	.LVL130
 14816 05f6 0100     		.2byte	0x1
 14817 05f8 50       		.byte	0x50
 14818 05f9 22000000 		.4byte	.LVL130
 14819 05fd 30000000 		.4byte	.LVL132
 14820 0601 0100     		.2byte	0x1
 14821 0603 54       		.byte	0x54
 14822 0604 30000000 		.4byte	.LVL132
 14823 0608 32000000 		.4byte	.LVL133
 14824 060c 0100     		.2byte	0x1
 14825 060e 50       		.byte	0x50
 14826 060f 32000000 		.4byte	.LVL133
 14827 0613 5E000000 		.4byte	.LVL137
 14828 0617 0100     		.2byte	0x1
 14829 0619 54       		.byte	0x54
 14830 061a 5E000000 		.4byte	.LVL137
 14831 061e 60000000 		.4byte	.LVL138
 14832 0622 0100     		.2byte	0x1
 14833 0624 50       		.byte	0x50
 14834 0625 60000000 		.4byte	.LVL138
 14835 0629 8C000000 		.4byte	.LVL142
 14836 062d 0100     		.2byte	0x1
 14837 062f 54       		.byte	0x54
 14838 0630 8C000000 		.4byte	.LVL142
 14839 0634 8E000000 		.4byte	.LVL143
 14840 0638 0100     		.2byte	0x1
 14841 063a 50       		.byte	0x50
 14842 063b 8E000000 		.4byte	.LVL143
 14843 063f C2000000 		.4byte	.LVL148
 14844 0643 0100     		.2byte	0x1
 14845 0645 54       		.byte	0x54
 14846 0646 C2000000 		.4byte	.LVL148
 14847 064a C4000000 		.4byte	.LVL149
 14848 064e 0100     		.2byte	0x1
 14849 0650 50       		.byte	0x50
 14850 0651 C4000000 		.4byte	.LVL149
 14851 0655 F2000000 		.4byte	.LFE377
 14852 0659 0100     		.2byte	0x1
 14853 065b 54       		.byte	0x54
 14854 065c 00000000 		.4byte	0
 14855 0660 00000000 		.4byte	0
 14856              	.LLST48:
 14857 0664 00000000 		.4byte	.LVL153
 14858 0668 07000000 		.4byte	.LVL154-1
 14859 066c 0100     		.2byte	0x1
 14860 066e 50       		.byte	0x50
 14861 066f 07000000 		.4byte	.LVL154-1
 14862 0673 22000000 		.4byte	.LVL158
 14863 0677 0100     		.2byte	0x1
 14864 0679 54       		.byte	0x54
 14865 067a 22000000 		.4byte	.LVL158
 14866 067e 28000000 		.4byte	.LFE359
 14867 0682 0400     		.2byte	0x4
 14868 0684 F3       		.byte	0xf3
 14869 0685 01       		.uleb128 0x1
 14870 0686 50       		.byte	0x50
 14871 0687 9F       		.byte	0x9f
ARM GAS  C:\Users\strap\AppData\Local\Temp\ccTzHSZB.s 			page 305


 14872 0688 00000000 		.4byte	0
 14873 068c 00000000 		.4byte	0
 14874              	.LLST49:
 14875 0690 1C000000 		.4byte	.LVL156
 14876 0694 1F000000 		.4byte	.LVL157-1
 14877 0698 0100     		.2byte	0x1
 14878 069a 50       		.byte	0x50
 14879 069b 00000000 		.4byte	0
 14880 069f 00000000 		.4byte	0
 14881              	.LLST50:
 14882 06a3 00000000 		.4byte	.LVL159
 14883 06a7 0B000000 		.4byte	.LVL160-1
 14884 06ab 0100     		.2byte	0x1
 14885 06ad 50       		.byte	0x50
 14886 06ae 0B000000 		.4byte	.LVL160-1
 14887 06b2 22000000 		.4byte	.LVL163
 14888 06b6 0100     		.2byte	0x1
 14889 06b8 54       		.byte	0x54
 14890 06b9 22000000 		.4byte	.LVL163
 14891 06bd 70000000 		.4byte	.LFE361
 14892 06c1 0400     		.2byte	0x4
 14893 06c3 F3       		.byte	0xf3
 14894 06c4 01       		.uleb128 0x1
 14895 06c5 50       		.byte	0x50
 14896 06c6 9F       		.byte	0x9f
 14897 06c7 00000000 		.4byte	0
 14898 06cb 00000000 		.4byte	0
 14899              	.LLST51:
 14900 06cf 00000000 		.4byte	.LVL159
 14901 06d3 0B000000 		.4byte	.LVL160-1
 14902 06d7 0100     		.2byte	0x1
 14903 06d9 51       		.byte	0x51
 14904 06da 0B000000 		.4byte	.LVL160-1
 14905 06de 70000000 		.4byte	.LFE361
 14906 06e2 0400     		.2byte	0x4
 14907 06e4 F3       		.byte	0xf3
 14908 06e5 01       		.uleb128 0x1
 14909 06e6 51       		.byte	0x51
 14910 06e7 9F       		.byte	0x9f
 14911 06e8 00000000 		.4byte	0
 14912 06ec 00000000 		.4byte	0
 14913              	.LLST52:
 14914 06f0 00000000 		.4byte	.LVL159
 14915 06f4 0B000000 		.4byte	.LVL160-1
 14916 06f8 0100     		.2byte	0x1
 14917 06fa 52       		.byte	0x52
 14918 06fb 0B000000 		.4byte	.LVL160-1
 14919 06ff 66000000 		.4byte	.LVL172
 14920 0703 0100     		.2byte	0x1
 14921 0705 57       		.byte	0x57
 14922 0706 66000000 		.4byte	.LVL172
 14923 070a 70000000 		.4byte	.LFE361
 14924 070e 0400     		.2byte	0x4
 14925 0710 F3       		.byte	0xf3
 14926 0711 01       		.uleb128 0x1
 14927 0712 52       		.byte	0x52
 14928 0713 9F       		.byte	0x9f
ARM GAS  C:\Users\strap\AppData\Local\Temp\ccTzHSZB.s 			page 306


 14929 0714 00000000 		.4byte	0
 14930 0718 00000000 		.4byte	0
 14931              	.LLST53:
 14932 071c 22000000 		.4byte	.LVL163
 14933 0720 30000000 		.4byte	.LVL164
 14934 0724 0100     		.2byte	0x1
 14935 0726 50       		.byte	0x50
 14936 0727 30000000 		.4byte	.LVL164
 14937 072b 66000000 		.4byte	.LVL172
 14938 072f 0100     		.2byte	0x1
 14939 0731 54       		.byte	0x54
 14940 0732 00000000 		.4byte	0
 14941 0736 00000000 		.4byte	0
 14942              	.LLST54:
 14943 073a 3E000000 		.4byte	.LVL167
 14944 073e 41000000 		.4byte	.LVL168-1
 14945 0742 0100     		.2byte	0x1
 14946 0744 50       		.byte	0x50
 14947 0745 41000000 		.4byte	.LVL168-1
 14948 0749 64000000 		.4byte	.LVL171
 14949 074d 0100     		.2byte	0x1
 14950 074f 56       		.byte	0x56
 14951 0750 00000000 		.4byte	0
 14952 0754 00000000 		.4byte	0
 14953              	.LLST55:
 14954 0758 00000000 		.4byte	.LVL173
 14955 075c 09000000 		.4byte	.LVL174-1
 14956 0760 0100     		.2byte	0x1
 14957 0762 50       		.byte	0x50
 14958 0763 09000000 		.4byte	.LVL174-1
 14959 0767 22000000 		.4byte	.LVL177
 14960 076b 0100     		.2byte	0x1
 14961 076d 54       		.byte	0x54
 14962 076e 22000000 		.4byte	.LVL177
 14963 0772 28000000 		.4byte	.LFE362
 14964 0776 0400     		.2byte	0x4
 14965 0778 F3       		.byte	0xf3
 14966 0779 01       		.uleb128 0x1
 14967 077a 50       		.byte	0x50
 14968 077b 9F       		.byte	0x9f
 14969 077c 00000000 		.4byte	0
 14970 0780 00000000 		.4byte	0
 14971              	.LLST56:
 14972 0784 00000000 		.4byte	.LVL173
 14973 0788 09000000 		.4byte	.LVL174-1
 14974 078c 0100     		.2byte	0x1
 14975 078e 51       		.byte	0x51
 14976 078f 09000000 		.4byte	.LVL174-1
 14977 0793 28000000 		.4byte	.LFE362
 14978 0797 0400     		.2byte	0x4
 14979 0799 F3       		.byte	0xf3
 14980 079a 01       		.uleb128 0x1
 14981 079b 51       		.byte	0x51
 14982 079c 9F       		.byte	0x9f
 14983 079d 00000000 		.4byte	0
 14984 07a1 00000000 		.4byte	0
 14985              	.LLST57:
ARM GAS  C:\Users\strap\AppData\Local\Temp\ccTzHSZB.s 			page 307


 14986 07a5 00000000 		.4byte	.LVL178
 14987 07a9 07000000 		.4byte	.LVL179-1
 14988 07ad 0100     		.2byte	0x1
 14989 07af 50       		.byte	0x50
 14990 07b0 07000000 		.4byte	.LVL179-1
 14991 07b4 20000000 		.4byte	.LVL183
 14992 07b8 0100     		.2byte	0x1
 14993 07ba 54       		.byte	0x54
 14994 07bb 20000000 		.4byte	.LVL183
 14995 07bf 24000000 		.4byte	.LFE364
 14996 07c3 0400     		.2byte	0x4
 14997 07c5 F3       		.byte	0xf3
 14998 07c6 01       		.uleb128 0x1
 14999 07c7 50       		.byte	0x50
 15000 07c8 9F       		.byte	0x9f
 15001 07c9 00000000 		.4byte	0
 15002 07cd 00000000 		.4byte	0
 15003              	.LLST58:
 15004 07d1 1C000000 		.4byte	.LVL181
 15005 07d5 1E000000 		.4byte	.LVL182
 15006 07d9 0100     		.2byte	0x1
 15007 07db 50       		.byte	0x50
 15008 07dc 00000000 		.4byte	0
 15009 07e0 00000000 		.4byte	0
 15010              	.LLST59:
 15011 07e4 00000000 		.4byte	.LVL184
 15012 07e8 07000000 		.4byte	.LVL185-1
 15013 07ec 0100     		.2byte	0x1
 15014 07ee 50       		.byte	0x50
 15015 07ef 07000000 		.4byte	.LVL185-1
 15016 07f3 20000000 		.4byte	.LVL189
 15017 07f7 0100     		.2byte	0x1
 15018 07f9 54       		.byte	0x54
 15019 07fa 20000000 		.4byte	.LVL189
 15020 07fe 24000000 		.4byte	.LFE365
 15021 0802 0400     		.2byte	0x4
 15022 0804 F3       		.byte	0xf3
 15023 0805 01       		.uleb128 0x1
 15024 0806 50       		.byte	0x50
 15025 0807 9F       		.byte	0x9f
 15026 0808 00000000 		.4byte	0
 15027 080c 00000000 		.4byte	0
 15028              	.LLST60:
 15029 0810 1C000000 		.4byte	.LVL187
 15030 0814 1E000000 		.4byte	.LVL188
 15031 0818 0100     		.2byte	0x1
 15032 081a 50       		.byte	0x50
 15033 081b 00000000 		.4byte	0
 15034 081f 00000000 		.4byte	0
 15035              	.LLST61:
 15036 0823 00000000 		.4byte	.LVL190
 15037 0827 09000000 		.4byte	.LVL191-1
 15038 082b 0100     		.2byte	0x1
 15039 082d 50       		.byte	0x50
 15040 082e 09000000 		.4byte	.LVL191-1
 15041 0832 2E000000 		.4byte	.LVL198
 15042 0836 0100     		.2byte	0x1
ARM GAS  C:\Users\strap\AppData\Local\Temp\ccTzHSZB.s 			page 308


 15043 0838 54       		.byte	0x54
 15044 0839 2E000000 		.4byte	.LVL198
 15045 083d 68000000 		.4byte	.LFE366
 15046 0841 0400     		.2byte	0x4
 15047 0843 F3       		.byte	0xf3
 15048 0844 01       		.uleb128 0x1
 15049 0845 50       		.byte	0x50
 15050 0846 9F       		.byte	0x9f
 15051 0847 00000000 		.4byte	0
 15052 084b 00000000 		.4byte	0
 15053              	.LLST62:
 15054 084f 00000000 		.4byte	.LVL190
 15055 0853 09000000 		.4byte	.LVL191-1
 15056 0857 0100     		.2byte	0x1
 15057 0859 51       		.byte	0x51
 15058 085a 09000000 		.4byte	.LVL191-1
 15059 085e 68000000 		.4byte	.LFE366
 15060 0862 0400     		.2byte	0x4
 15061 0864 F3       		.byte	0xf3
 15062 0865 01       		.uleb128 0x1
 15063 0866 51       		.byte	0x51
 15064 0867 9F       		.byte	0x9f
 15065 0868 00000000 		.4byte	0
 15066 086c 00000000 		.4byte	0
 15067              	.LLST63:
 15068 0870 1E000000 		.4byte	.LVL193
 15069 0874 20000000 		.4byte	.LVL194
 15070 0878 0100     		.2byte	0x1
 15071 087a 50       		.byte	0x50
 15072 087b 00000000 		.4byte	0
 15073 087f 00000000 		.4byte	0
 15074              	.LLST64:
 15075 0883 26000000 		.4byte	.LVL196
 15076 0887 2B000000 		.4byte	.LVL197-1
 15077 088b 0100     		.2byte	0x1
 15078 088d 50       		.byte	0x50
 15079 088e 2B000000 		.4byte	.LVL197-1
 15080 0892 60000000 		.4byte	.LVL209
 15081 0896 0100     		.2byte	0x1
 15082 0898 57       		.byte	0x57
 15083 0899 00000000 		.4byte	0
 15084 089d 00000000 		.4byte	0
 15085              	.LLST65:
 15086 08a1 26000000 		.4byte	.LVL196
 15087 08a5 32000000 		.4byte	.LVL199
 15088 08a9 0200     		.2byte	0x2
 15089 08ab 30       		.byte	0x30
 15090 08ac 9F       		.byte	0x9f
 15091 08ad 32000000 		.4byte	.LVL199
 15092 08b1 42000000 		.4byte	.LVL202
 15093 08b5 0100     		.2byte	0x1
 15094 08b7 55       		.byte	0x55
 15095 08b8 44000000 		.4byte	.LVL203
 15096 08bc 60000000 		.4byte	.LVL209
 15097 08c0 0100     		.2byte	0x1
 15098 08c2 55       		.byte	0x55
 15099 08c3 00000000 		.4byte	0
ARM GAS  C:\Users\strap\AppData\Local\Temp\ccTzHSZB.s 			page 309


 15100 08c7 00000000 		.4byte	0
 15101              	.LLST66:
 15102 08cb 2E000000 		.4byte	.LVL198
 15103 08cf 34000000 		.4byte	.LVL200
 15104 08d3 0100     		.2byte	0x1
 15105 08d5 50       		.byte	0x50
 15106 08d6 34000000 		.4byte	.LVL200
 15107 08da 4E000000 		.4byte	.LVL205
 15108 08de 0100     		.2byte	0x1
 15109 08e0 54       		.byte	0x54
 15110 08e1 4E000000 		.4byte	.LVL205
 15111 08e5 5A000000 		.4byte	.LVL206
 15112 08e9 0100     		.2byte	0x1
 15113 08eb 50       		.byte	0x50
 15114 08ec 5A000000 		.4byte	.LVL206
 15115 08f0 5C000000 		.4byte	.LVL207
 15116 08f4 0100     		.2byte	0x1
 15117 08f6 54       		.byte	0x54
 15118 08f7 5C000000 		.4byte	.LVL207
 15119 08fb 5E000000 		.4byte	.LVL208
 15120 08ff 0100     		.2byte	0x1
 15121 0901 50       		.byte	0x50
 15122 0902 5E000000 		.4byte	.LVL208
 15123 0906 60000000 		.4byte	.LVL209
 15124 090a 0100     		.2byte	0x1
 15125 090c 54       		.byte	0x54
 15126 090d 60000000 		.4byte	.LVL209
 15127 0911 68000000 		.4byte	.LFE366
 15128 0915 0100     		.2byte	0x1
 15129 0917 50       		.byte	0x50
 15130 0918 00000000 		.4byte	0
 15131 091c 00000000 		.4byte	0
 15132              	.LLST67:
 15133 0920 00000000 		.4byte	.LVL210
 15134 0924 07000000 		.4byte	.LVL211-1
 15135 0928 0100     		.2byte	0x1
 15136 092a 50       		.byte	0x50
 15137 092b 07000000 		.4byte	.LVL211-1
 15138 092f 20000000 		.4byte	.LVL215
 15139 0933 0100     		.2byte	0x1
 15140 0935 54       		.byte	0x54
 15141 0936 20000000 		.4byte	.LVL215
 15142 093a 24000000 		.4byte	.LFE367
 15143 093e 0400     		.2byte	0x4
 15144 0940 F3       		.byte	0xf3
 15145 0941 01       		.uleb128 0x1
 15146 0942 50       		.byte	0x50
 15147 0943 9F       		.byte	0x9f
 15148 0944 00000000 		.4byte	0
 15149 0948 00000000 		.4byte	0
 15150              	.LLST68:
 15151 094c 1C000000 		.4byte	.LVL213
 15152 0950 1E000000 		.4byte	.LVL214
 15153 0954 0100     		.2byte	0x1
 15154 0956 50       		.byte	0x50
 15155 0957 00000000 		.4byte	0
 15156 095b 00000000 		.4byte	0
ARM GAS  C:\Users\strap\AppData\Local\Temp\ccTzHSZB.s 			page 310


 15157              	.LLST69:
 15158 095f 00000000 		.4byte	.LVL216
 15159 0963 0F000000 		.4byte	.LVL217-1
 15160 0967 0100     		.2byte	0x1
 15161 0969 50       		.byte	0x50
 15162 096a 0F000000 		.4byte	.LVL217-1
 15163 096e 16010000 		.4byte	.LVL254
 15164 0972 0100     		.2byte	0x1
 15165 0974 57       		.byte	0x57
 15166 0975 16010000 		.4byte	.LVL254
 15167 0979 26010000 		.4byte	.LVL258
 15168 097d 0400     		.2byte	0x4
 15169 097f F3       		.byte	0xf3
 15170 0980 01       		.uleb128 0x1
 15171 0981 50       		.byte	0x50
 15172 0982 9F       		.byte	0x9f
 15173 0983 26010000 		.4byte	.LVL258
 15174 0987 50010000 		.4byte	.LVL267
 15175 098b 0100     		.2byte	0x1
 15176 098d 57       		.byte	0x57
 15177 098e 50010000 		.4byte	.LVL267
 15178 0992 E8010000 		.4byte	.LFE360
 15179 0996 0400     		.2byte	0x4
 15180 0998 F3       		.byte	0xf3
 15181 0999 01       		.uleb128 0x1
 15182 099a 50       		.byte	0x50
 15183 099b 9F       		.byte	0x9f
 15184 099c 00000000 		.4byte	0
 15185 09a0 00000000 		.4byte	0
 15186              	.LLST70:
 15187 09a4 00000000 		.4byte	.LVL216
 15188 09a8 0F000000 		.4byte	.LVL217-1
 15189 09ac 0100     		.2byte	0x1
 15190 09ae 51       		.byte	0x51
 15191 09af 0F000000 		.4byte	.LVL217-1
 15192 09b3 30000000 		.4byte	.LVL221
 15193 09b7 0400     		.2byte	0x4
 15194 09b9 F3       		.byte	0xf3
 15195 09ba 01       		.uleb128 0x1
 15196 09bb 51       		.byte	0x51
 15197 09bc 9F       		.byte	0x9f
 15198 09bd 30000000 		.4byte	.LVL221
 15199 09c1 4A000000 		.4byte	.LVL225
 15200 09c5 0100     		.2byte	0x1
 15201 09c7 56       		.byte	0x56
 15202 09c8 50000000 		.4byte	.LVL226
 15203 09cc DC010000 		.4byte	.LVL284
 15204 09d0 0100     		.2byte	0x1
 15205 09d2 56       		.byte	0x56
 15206 09d3 00000000 		.4byte	0
 15207 09d7 00000000 		.4byte	0
 15208              	.LLST71:
 15209 09db 00000000 		.4byte	.LVL216
 15210 09df 0F000000 		.4byte	.LVL217-1
 15211 09e3 0100     		.2byte	0x1
 15212 09e5 52       		.byte	0x52
 15213 09e6 0F000000 		.4byte	.LVL217-1
ARM GAS  C:\Users\strap\AppData\Local\Temp\ccTzHSZB.s 			page 311


 15214 09ea E8010000 		.4byte	.LFE360
 15215 09ee 0400     		.2byte	0x4
 15216 09f0 F3       		.byte	0xf3
 15217 09f1 01       		.uleb128 0x1
 15218 09f2 52       		.byte	0x52
 15219 09f3 9F       		.byte	0x9f
 15220 09f4 00000000 		.4byte	0
 15221 09f8 00000000 		.4byte	0
 15222              	.LLST72:
 15223 09fc 26000000 		.4byte	.LVL220
 15224 0a00 36000000 		.4byte	.LVL222
 15225 0a04 0100     		.2byte	0x1
 15226 0a06 50       		.byte	0x50
 15227 0a07 36000000 		.4byte	.LVL222
 15228 0a0b DC010000 		.4byte	.LVL284
 15229 0a0f 0100     		.2byte	0x1
 15230 0a11 54       		.byte	0x54
 15231 0a12 00000000 		.4byte	0
 15232 0a16 00000000 		.4byte	0
 15233              	.LLST73:
 15234 0a1a 84000000 		.4byte	.LVL232
 15235 0a1e 86000000 		.4byte	.LVL233
 15236 0a22 0100     		.2byte	0x1
 15237 0a24 55       		.byte	0x55
 15238 0a25 A2000000 		.4byte	.LVL236
 15239 0a29 0A010000 		.4byte	.LVL252
 15240 0a2d 0100     		.2byte	0x1
 15241 0a2f 55       		.byte	0x55
 15242 0a30 26010000 		.4byte	.LVL258
 15243 0a34 3E010000 		.4byte	.LVL262
 15244 0a38 0100     		.2byte	0x1
 15245 0a3a 55       		.byte	0x55
 15246 0a3b 4E010000 		.4byte	.LVL266
 15247 0a3f 50010000 		.4byte	.LVL267
 15248 0a43 0100     		.2byte	0x1
 15249 0a45 55       		.byte	0x55
 15250 0a46 00000000 		.4byte	0
 15251 0a4a 00000000 		.4byte	0
 15252              	.LLST74:
 15253 0a4e 1C010000 		.4byte	.LVL255
 15254 0a52 1E010000 		.4byte	.LVL256
 15255 0a56 0100     		.2byte	0x1
 15256 0a58 50       		.byte	0x50
 15257 0a59 44010000 		.4byte	.LVL263
 15258 0a5d 46010000 		.4byte	.LVL264
 15259 0a61 0100     		.2byte	0x1
 15260 0a63 50       		.byte	0x50
 15261 0a64 00000000 		.4byte	0
 15262 0a68 00000000 		.4byte	0
 15263              	.LLST75:
 15264 0a6c EA000000 		.4byte	.LVL249
 15265 0a70 24010000 		.4byte	.LVL257
 15266 0a74 0200     		.2byte	0x2
 15267 0a76 30       		.byte	0x30
 15268 0a77 9F       		.byte	0x9f
 15269 0a78 24010000 		.4byte	.LVL257
 15270 0a7c 26010000 		.4byte	.LVL258
ARM GAS  C:\Users\strap\AppData\Local\Temp\ccTzHSZB.s 			page 312


 15271 0a80 0100     		.2byte	0x1
 15272 0a82 55       		.byte	0x55
 15273 0a83 26010000 		.4byte	.LVL258
 15274 0a87 4C010000 		.4byte	.LVL265
 15275 0a8b 0200     		.2byte	0x2
 15276 0a8d 30       		.byte	0x30
 15277 0a8e 9F       		.byte	0x9f
 15278 0a8f 4C010000 		.4byte	.LVL265
 15279 0a93 4E010000 		.4byte	.LVL266
 15280 0a97 0100     		.2byte	0x1
 15281 0a99 55       		.byte	0x55
 15282 0a9a 4E010000 		.4byte	.LVL266
 15283 0a9e 50010000 		.4byte	.LVL267
 15284 0aa2 0200     		.2byte	0x2
 15285 0aa4 30       		.byte	0x30
 15286 0aa5 9F       		.byte	0x9f
 15287 0aa6 50010000 		.4byte	.LVL267
 15288 0aaa DC010000 		.4byte	.LVL284
 15289 0aae 0100     		.2byte	0x1
 15290 0ab0 55       		.byte	0x55
 15291 0ab1 00000000 		.4byte	0
 15292 0ab5 00000000 		.4byte	0
 15293              	.LLST76:
 15294 0ab9 EA000000 		.4byte	.LVL249
 15295 0abd 0A010000 		.4byte	.LVL252
 15296 0ac1 0200     		.2byte	0x2
 15297 0ac3 30       		.byte	0x30
 15298 0ac4 9F       		.byte	0x9f
 15299 0ac5 26010000 		.4byte	.LVL258
 15300 0ac9 32010000 		.4byte	.LVL260
 15301 0acd 0200     		.2byte	0x2
 15302 0acf 30       		.byte	0x30
 15303 0ad0 9F       		.byte	0x9f
 15304 0ad1 4E010000 		.4byte	.LVL266
 15305 0ad5 50010000 		.4byte	.LVL267
 15306 0ad9 0200     		.2byte	0x2
 15307 0adb 30       		.byte	0x30
 15308 0adc 9F       		.byte	0x9f
 15309 0add 00000000 		.4byte	0
 15310 0ae1 00000000 		.4byte	0
 15311              	.LLST77:
 15312 0ae5 EA000000 		.4byte	.LVL249
 15313 0ae9 16010000 		.4byte	.LVL254
 15314 0aed 0200     		.2byte	0x2
 15315 0aef 30       		.byte	0x30
 15316 0af0 9F       		.byte	0x9f
 15317 0af1 26010000 		.4byte	.LVL258
 15318 0af5 50010000 		.4byte	.LVL267
 15319 0af9 0200     		.2byte	0x2
 15320 0afb 30       		.byte	0x30
 15321 0afc 9F       		.byte	0x9f
 15322 0afd 00000000 		.4byte	0
 15323 0b01 00000000 		.4byte	0
 15324              	.LLST78:
 15325 0b05 EA000000 		.4byte	.LVL249
 15326 0b09 3E010000 		.4byte	.LVL262
 15327 0b0d 0200     		.2byte	0x2
ARM GAS  C:\Users\strap\AppData\Local\Temp\ccTzHSZB.s 			page 313


 15328 0b0f 30       		.byte	0x30
 15329 0b10 9F       		.byte	0x9f
 15330 0b11 4E010000 		.4byte	.LVL266
 15331 0b15 50010000 		.4byte	.LVL267
 15332 0b19 0200     		.2byte	0x2
 15333 0b1b 30       		.byte	0x30
 15334 0b1c 9F       		.byte	0x9f
 15335 0b1d 00000000 		.4byte	0
 15336 0b21 00000000 		.4byte	0
 15337              	.LLST79:
 15338 0b25 50000000 		.4byte	.LVL226
 15339 0b29 5C000000 		.4byte	.LVL228
 15340 0b2d 0300     		.2byte	0x3
 15341 0b2f 08       		.byte	0x8
 15342 0b30 40       		.byte	0x40
 15343 0b31 9F       		.byte	0x9f
 15344 0b32 00000000 		.4byte	0
 15345 0b36 00000000 		.4byte	0
 15346              	.LLST80:
 15347 0b3a 50000000 		.4byte	.LVL226
 15348 0b3e 59000000 		.4byte	.LVL227-1
 15349 0b42 0200     		.2byte	0x2
 15350 0b44 74       		.byte	0x74
 15351 0b45 08       		.sleb128 8
 15352 0b46 00000000 		.4byte	0
 15353 0b4a 00000000 		.4byte	0
 15354              	.LLST81:
 15355 0b4e 5C000000 		.4byte	.LVL228
 15356 0b52 68000000 		.4byte	.LVL230
 15357 0b56 0300     		.2byte	0x3
 15358 0b58 08       		.byte	0x8
 15359 0b59 40       		.byte	0x40
 15360 0b5a 9F       		.byte	0x9f
 15361 0b5b 00000000 		.4byte	0
 15362 0b5f 00000000 		.4byte	0
 15363              	.LLST82:
 15364 0b63 5C000000 		.4byte	.LVL228
 15365 0b67 65000000 		.4byte	.LVL229-1
 15366 0b6b 0200     		.2byte	0x2
 15367 0b6d 74       		.byte	0x74
 15368 0b6e 08       		.sleb128 8
 15369 0b6f 00000000 		.4byte	0
 15370 0b73 00000000 		.4byte	0
 15371              	.LLST83:
 15372 0b77 CA000000 		.4byte	.LVL241
 15373 0b7b CC000000 		.4byte	.LVL242
 15374 0b7f 0100     		.2byte	0x1
 15375 0b81 50       		.byte	0x50
 15376 0b82 00000000 		.4byte	0
 15377 0b86 00000000 		.4byte	0
 15378              	.LLST84:
 15379 0b8a CA000000 		.4byte	.LVL241
 15380 0b8e CC000000 		.4byte	.LVL242
 15381 0b92 0100     		.2byte	0x1
 15382 0b94 5D       		.byte	0x5d
 15383 0b95 00000000 		.4byte	0
 15384 0b99 00000000 		.4byte	0
ARM GAS  C:\Users\strap\AppData\Local\Temp\ccTzHSZB.s 			page 314


 15385              	.LLST85:
 15386 0b9d CC000000 		.4byte	.LVL242
 15387 0ba1 D0000000 		.4byte	.LVL243
 15388 0ba5 0100     		.2byte	0x1
 15389 0ba7 5D       		.byte	0x5d
 15390 0ba8 00000000 		.4byte	0
 15391 0bac 00000000 		.4byte	0
 15392              	.LLST86:
 15393 0bb0 DA000000 		.4byte	.LVL245
 15394 0bb4 E0000000 		.4byte	.LVL246
 15395 0bb8 0100     		.2byte	0x1
 15396 0bba 55       		.byte	0x55
 15397 0bbb 00000000 		.4byte	0
 15398 0bbf 00000000 		.4byte	0
 15399              	.LLST87:
 15400 0bc3 DA000000 		.4byte	.LVL245
 15401 0bc7 E0000000 		.4byte	.LVL246
 15402 0bcb 0100     		.2byte	0x1
 15403 0bcd 50       		.byte	0x50
 15404 0bce 00000000 		.4byte	0
 15405 0bd2 00000000 		.4byte	0
 15406              	.LLST88:
 15407 0bd6 DA000000 		.4byte	.LVL245
 15408 0bda E0000000 		.4byte	.LVL246
 15409 0bde 0100     		.2byte	0x1
 15410 0be0 5D       		.byte	0x5d
 15411 0be1 00000000 		.4byte	0
 15412 0be5 00000000 		.4byte	0
 15413              	.LLST89:
 15414 0be9 E2000000 		.4byte	.LVL247
 15415 0bed E4000000 		.4byte	.LVL248
 15416 0bf1 0700     		.2byte	0x7
 15417 0bf3 73       		.byte	0x73
 15418 0bf4 00       		.sleb128 0
 15419 0bf5 0A       		.byte	0xa
 15420 0bf6 FFFF     		.2byte	0xffff
 15421 0bf8 1A       		.byte	0x1a
 15422 0bf9 9F       		.byte	0x9f
 15423 0bfa 00000000 		.4byte	0
 15424 0bfe 00000000 		.4byte	0
 15425              	.LLST90:
 15426 0c02 E2000000 		.4byte	.LVL247
 15427 0c06 E4000000 		.4byte	.LVL248
 15428 0c0a 0100     		.2byte	0x1
 15429 0c0c 5D       		.byte	0x5d
 15430 0c0d 00000000 		.4byte	0
 15431 0c11 00000000 		.4byte	0
 15432              	.LLST91:
 15433 0c15 FE000000 		.4byte	.LVL250
 15434 0c19 0A010000 		.4byte	.LVL252
 15435 0c1d 0300     		.2byte	0x3
 15436 0c1f 08       		.byte	0x8
 15437 0c20 41       		.byte	0x41
 15438 0c21 9F       		.byte	0x9f
 15439 0c22 00000000 		.4byte	0
 15440 0c26 00000000 		.4byte	0
 15441              	.LLST92:
ARM GAS  C:\Users\strap\AppData\Local\Temp\ccTzHSZB.s 			page 315


 15442 0c2a FE000000 		.4byte	.LVL250
 15443 0c2e 0A010000 		.4byte	.LVL252
 15444 0c32 0100     		.2byte	0x1
 15445 0c34 57       		.byte	0x57
 15446 0c35 00000000 		.4byte	0
 15447 0c39 00000000 		.4byte	0
 15448              	.LLST93:
 15449 0c3d 0A010000 		.4byte	.LVL252
 15450 0c41 16010000 		.4byte	.LVL254
 15451 0c45 0300     		.2byte	0x3
 15452 0c47 08       		.byte	0x8
 15453 0c48 41       		.byte	0x41
 15454 0c49 9F       		.byte	0x9f
 15455 0c4a 00000000 		.4byte	0
 15456 0c4e 00000000 		.4byte	0
 15457              	.LLST94:
 15458 0c52 0A010000 		.4byte	.LVL252
 15459 0c56 16010000 		.4byte	.LVL254
 15460 0c5a 0100     		.2byte	0x1
 15461 0c5c 57       		.byte	0x57
 15462 0c5d 00000000 		.4byte	0
 15463 0c61 00000000 		.4byte	0
 15464              	.LLST95:
 15465 0c65 26010000 		.4byte	.LVL258
 15466 0c69 32010000 		.4byte	.LVL260
 15467 0c6d 0300     		.2byte	0x3
 15468 0c6f 08       		.byte	0x8
 15469 0c70 41       		.byte	0x41
 15470 0c71 9F       		.byte	0x9f
 15471 0c72 00000000 		.4byte	0
 15472 0c76 00000000 		.4byte	0
 15473              	.LLST96:
 15474 0c7a 26010000 		.4byte	.LVL258
 15475 0c7e 32010000 		.4byte	.LVL260
 15476 0c82 0100     		.2byte	0x1
 15477 0c84 57       		.byte	0x57
 15478 0c85 00000000 		.4byte	0
 15479 0c89 00000000 		.4byte	0
 15480              	.LLST97:
 15481 0c8d 32010000 		.4byte	.LVL260
 15482 0c91 3E010000 		.4byte	.LVL262
 15483 0c95 0300     		.2byte	0x3
 15484 0c97 08       		.byte	0x8
 15485 0c98 41       		.byte	0x41
 15486 0c99 9F       		.byte	0x9f
 15487 0c9a 00000000 		.4byte	0
 15488 0c9e 00000000 		.4byte	0
 15489              	.LLST98:
 15490 0ca2 32010000 		.4byte	.LVL260
 15491 0ca6 3E010000 		.4byte	.LVL262
 15492 0caa 0100     		.2byte	0x1
 15493 0cac 57       		.byte	0x57
 15494 0cad 00000000 		.4byte	0
 15495 0cb1 00000000 		.4byte	0
 15496              	.LLST99:
 15497 0cb5 8A010000 		.4byte	.LVL271
 15498 0cb9 8C010000 		.4byte	.LVL272
ARM GAS  C:\Users\strap\AppData\Local\Temp\ccTzHSZB.s 			page 316


 15499 0cbd 0100     		.2byte	0x1
 15500 0cbf 53       		.byte	0x53
 15501 0cc0 00000000 		.4byte	0
 15502 0cc4 00000000 		.4byte	0
 15503              	.LLST100:
 15504 0cc8 8A010000 		.4byte	.LVL271
 15505 0ccc 8C010000 		.4byte	.LVL272
 15506 0cd0 0100     		.2byte	0x1
 15507 0cd2 5D       		.byte	0x5d
 15508 0cd3 00000000 		.4byte	0
 15509 0cd7 00000000 		.4byte	0
 15510              	.LLST101:
 15511 0cdb 8E010000 		.4byte	.LVL273
 15512 0cdf 90010000 		.4byte	.LVL274
 15513 0ce3 0700     		.2byte	0x7
 15514 0ce5 73       		.byte	0x73
 15515 0ce6 00       		.sleb128 0
 15516 0ce7 0A       		.byte	0xa
 15517 0ce8 FFFF     		.2byte	0xffff
 15518 0cea 1A       		.byte	0x1a
 15519 0ceb 9F       		.byte	0x9f
 15520 0cec 00000000 		.4byte	0
 15521 0cf0 00000000 		.4byte	0
 15522              	.LLST102:
 15523 0cf4 8E010000 		.4byte	.LVL273
 15524 0cf8 90010000 		.4byte	.LVL274
 15525 0cfc 0100     		.2byte	0x1
 15526 0cfe 5D       		.byte	0x5d
 15527 0cff 00000000 		.4byte	0
 15528 0d03 00000000 		.4byte	0
 15529              	.LLST103:
 15530 0d07 A4010000 		.4byte	.LVL275
 15531 0d0b A8010000 		.4byte	.LVL276
 15532 0d0f 0100     		.2byte	0x1
 15533 0d11 5D       		.byte	0x5d
 15534 0d12 00000000 		.4byte	0
 15535 0d16 00000000 		.4byte	0
 15536              	.LLST104:
 15537 0d1a AE010000 		.4byte	.LVL277
 15538 0d1e B6010000 		.4byte	.LVL278
 15539 0d22 0100     		.2byte	0x1
 15540 0d24 55       		.byte	0x55
 15541 0d25 00000000 		.4byte	0
 15542 0d29 00000000 		.4byte	0
 15543              	.LLST105:
 15544 0d2d AE010000 		.4byte	.LVL277
 15545 0d31 B6010000 		.4byte	.LVL278
 15546 0d35 0100     		.2byte	0x1
 15547 0d37 50       		.byte	0x50
 15548 0d38 00000000 		.4byte	0
 15549 0d3c 00000000 		.4byte	0
 15550              	.LLST106:
 15551 0d40 AE010000 		.4byte	.LVL277
 15552 0d44 B6010000 		.4byte	.LVL278
 15553 0d48 0100     		.2byte	0x1
 15554 0d4a 5D       		.byte	0x5d
 15555 0d4b 00000000 		.4byte	0
ARM GAS  C:\Users\strap\AppData\Local\Temp\ccTzHSZB.s 			page 317


 15556 0d4f 00000000 		.4byte	0
 15557              	.LLST107:
 15558 0d53 B6010000 		.4byte	.LVL278
 15559 0d57 BA010000 		.4byte	.LVL279
 15560 0d5b 0100     		.2byte	0x1
 15561 0d5d 5D       		.byte	0x5d
 15562 0d5e 00000000 		.4byte	0
 15563 0d62 00000000 		.4byte	0
 15564              	.LLST108:
 15565 0d66 C0010000 		.4byte	.LVL280
 15566 0d6a C6010000 		.4byte	.LVL281
 15567 0d6e 0100     		.2byte	0x1
 15568 0d70 55       		.byte	0x55
 15569 0d71 00000000 		.4byte	0
 15570 0d75 00000000 		.4byte	0
 15571              	.LLST109:
 15572 0d79 C0010000 		.4byte	.LVL280
 15573 0d7d C6010000 		.4byte	.LVL281
 15574 0d81 0100     		.2byte	0x1
 15575 0d83 50       		.byte	0x50
 15576 0d84 00000000 		.4byte	0
 15577 0d88 00000000 		.4byte	0
 15578              	.LLST110:
 15579 0d8c C0010000 		.4byte	.LVL280
 15580 0d90 C6010000 		.4byte	.LVL281
 15581 0d94 0100     		.2byte	0x1
 15582 0d96 5D       		.byte	0x5d
 15583 0d97 00000000 		.4byte	0
 15584 0d9b 00000000 		.4byte	0
 15585              	.LLST111:
 15586 0d9f 00000000 		.4byte	.LVL285
 15587 0da3 0D000000 		.4byte	.LVL286-1
 15588 0da7 0100     		.2byte	0x1
 15589 0da9 50       		.byte	0x50
 15590 0daa 0D000000 		.4byte	.LVL286-1
 15591 0dae 3E000000 		.4byte	.LVL293
 15592 0db2 0100     		.2byte	0x1
 15593 0db4 54       		.byte	0x54
 15594 0db5 3E000000 		.4byte	.LVL293
 15595 0db9 80000000 		.4byte	.LVL305
 15596 0dbd 0400     		.2byte	0x4
 15597 0dbf F3       		.byte	0xf3
 15598 0dc0 01       		.uleb128 0x1
 15599 0dc1 50       		.byte	0x50
 15600 0dc2 9F       		.byte	0x9f
 15601 0dc3 80000000 		.4byte	.LVL305
 15602 0dc7 82000000 		.4byte	.LFE372
 15603 0dcb 0100     		.2byte	0x1
 15604 0dcd 50       		.byte	0x50
 15605 0dce 00000000 		.4byte	0
 15606 0dd2 00000000 		.4byte	0
 15607              	.LLST112:
 15608 0dd6 00000000 		.4byte	.LVL285
 15609 0dda 0D000000 		.4byte	.LVL286-1
 15610 0dde 0100     		.2byte	0x1
 15611 0de0 51       		.byte	0x51
 15612 0de1 0D000000 		.4byte	.LVL286-1
ARM GAS  C:\Users\strap\AppData\Local\Temp\ccTzHSZB.s 			page 318


 15613 0de5 80000000 		.4byte	.LVL305
 15614 0de9 0400     		.2byte	0x4
 15615 0deb F3       		.byte	0xf3
 15616 0dec 01       		.uleb128 0x1
 15617 0ded 51       		.byte	0x51
 15618 0dee 9F       		.byte	0x9f
 15619 0def 80000000 		.4byte	.LVL305
 15620 0df3 82000000 		.4byte	.LFE372
 15621 0df7 0100     		.2byte	0x1
 15622 0df9 51       		.byte	0x51
 15623 0dfa 00000000 		.4byte	0
 15624 0dfe 00000000 		.4byte	0
 15625              	.LLST113:
 15626 0e02 10000000 		.4byte	.LVL287
 15627 0e06 1E000000 		.4byte	.LVL288
 15628 0e0a 0100     		.2byte	0x1
 15629 0e0c 50       		.byte	0x50
 15630 0e0d 00000000 		.4byte	0
 15631 0e11 00000000 		.4byte	0
 15632              	.LLST114:
 15633 0e15 3E000000 		.4byte	.LVL293
 15634 0e19 41000000 		.4byte	.LVL294-1
 15635 0e1d 0100     		.2byte	0x1
 15636 0e1f 50       		.byte	0x50
 15637 0e20 41000000 		.4byte	.LVL294-1
 15638 0e24 7C000000 		.4byte	.LVL304
 15639 0e28 0100     		.2byte	0x1
 15640 0e2a 54       		.byte	0x54
 15641 0e2b 00000000 		.4byte	0
 15642 0e2f 00000000 		.4byte	0
 15643              	.LLST115:
 15644 0e33 44000000 		.4byte	.LVL295
 15645 0e37 4A000000 		.4byte	.LVL296
 15646 0e3b 0100     		.2byte	0x1
 15647 0e3d 50       		.byte	0x50
 15648 0e3e 4A000000 		.4byte	.LVL296
 15649 0e42 7C000000 		.4byte	.LVL304
 15650 0e46 0100     		.2byte	0x1
 15651 0e48 56       		.byte	0x56
 15652 0e49 00000000 		.4byte	0
 15653 0e4d 00000000 		.4byte	0
 15654              	.LLST116:
 15655 0e51 56000000 		.4byte	.LVL299
 15656 0e55 64000000 		.4byte	.LVL300
 15657 0e59 0200     		.2byte	0x2
 15658 0e5b 31       		.byte	0x31
 15659 0e5c 9F       		.byte	0x9f
 15660 0e5d 00000000 		.4byte	0
 15661 0e61 00000000 		.4byte	0
 15662              	.LLST117:
 15663 0e65 00000000 		.4byte	.LVL306
 15664 0e69 11000000 		.4byte	.LVL307-1
 15665 0e6d 0100     		.2byte	0x1
 15666 0e6f 50       		.byte	0x50
 15667 0e70 11000000 		.4byte	.LVL307-1
 15668 0e74 34000000 		.4byte	.LVL315
 15669 0e78 0100     		.2byte	0x1
ARM GAS  C:\Users\strap\AppData\Local\Temp\ccTzHSZB.s 			page 319


 15670 0e7a 56       		.byte	0x56
 15671 0e7b 34000000 		.4byte	.LVL315
 15672 0e7f 4A010000 		.4byte	.LVL356
 15673 0e83 0400     		.2byte	0x4
 15674 0e85 F3       		.byte	0xf3
 15675 0e86 01       		.uleb128 0x1
 15676 0e87 50       		.byte	0x50
 15677 0e88 9F       		.byte	0x9f
 15678 0e89 4A010000 		.4byte	.LVL356
 15679 0e8d 4C010000 		.4byte	.LVL357
 15680 0e91 0100     		.2byte	0x1
 15681 0e93 56       		.byte	0x56
 15682 0e94 4C010000 		.4byte	.LVL357
 15683 0e98 60010000 		.4byte	.LFE370
 15684 0e9c 0400     		.2byte	0x4
 15685 0e9e F3       		.byte	0xf3
 15686 0e9f 01       		.uleb128 0x1
 15687 0ea0 50       		.byte	0x50
 15688 0ea1 9F       		.byte	0x9f
 15689 0ea2 00000000 		.4byte	0
 15690 0ea6 00000000 		.4byte	0
 15691              	.LLST118:
 15692 0eaa 00000000 		.4byte	.LVL306
 15693 0eae 11000000 		.4byte	.LVL307-1
 15694 0eb2 0100     		.2byte	0x1
 15695 0eb4 51       		.byte	0x51
 15696 0eb5 11000000 		.4byte	.LVL307-1
 15697 0eb9 60010000 		.4byte	.LFE370
 15698 0ebd 0400     		.2byte	0x4
 15699 0ebf F3       		.byte	0xf3
 15700 0ec0 01       		.uleb128 0x1
 15701 0ec1 51       		.byte	0x51
 15702 0ec2 9F       		.byte	0x9f
 15703 0ec3 00000000 		.4byte	0
 15704 0ec7 00000000 		.4byte	0
 15705              	.LLST119:
 15706 0ecb 00000000 		.4byte	.LVL306
 15707 0ecf 11000000 		.4byte	.LVL307-1
 15708 0ed3 0100     		.2byte	0x1
 15709 0ed5 52       		.byte	0x52
 15710 0ed6 11000000 		.4byte	.LVL307-1
 15711 0eda 40000000 		.4byte	.LVL317
 15712 0ede 0100     		.2byte	0x1
 15713 0ee0 57       		.byte	0x57
 15714 0ee1 40000000 		.4byte	.LVL317
 15715 0ee5 4A010000 		.4byte	.LVL356
 15716 0ee9 0400     		.2byte	0x4
 15717 0eeb F3       		.byte	0xf3
 15718 0eec 01       		.uleb128 0x1
 15719 0eed 52       		.byte	0x52
 15720 0eee 9F       		.byte	0x9f
 15721 0eef 4A010000 		.4byte	.LVL356
 15722 0ef3 4E010000 		.4byte	.LVL358
 15723 0ef7 0100     		.2byte	0x1
 15724 0ef9 57       		.byte	0x57
 15725 0efa 4E010000 		.4byte	.LVL358
 15726 0efe 60010000 		.4byte	.LFE370
ARM GAS  C:\Users\strap\AppData\Local\Temp\ccTzHSZB.s 			page 320


 15727 0f02 0400     		.2byte	0x4
 15728 0f04 F3       		.byte	0xf3
 15729 0f05 01       		.uleb128 0x1
 15730 0f06 52       		.byte	0x52
 15731 0f07 9F       		.byte	0x9f
 15732 0f08 00000000 		.4byte	0
 15733 0f0c 00000000 		.4byte	0
 15734              	.LLST120:
 15735 0f10 14000000 		.4byte	.LVL308
 15736 0f14 22000000 		.4byte	.LVL309
 15737 0f18 0100     		.2byte	0x1
 15738 0f1a 50       		.byte	0x50
 15739 0f1b 28000000 		.4byte	.LVL311
 15740 0f1f 2A000000 		.4byte	.LVL312
 15741 0f23 0100     		.2byte	0x1
 15742 0f25 50       		.byte	0x50
 15743 0f26 82000000 		.4byte	.LVL327
 15744 0f2a 8A000000 		.4byte	.LVL328
 15745 0f2e 0100     		.2byte	0x1
 15746 0f30 50       		.byte	0x50
 15747 0f31 38010000 		.4byte	.LVL351
 15748 0f35 40010000 		.4byte	.LVL352
 15749 0f39 0100     		.2byte	0x1
 15750 0f3b 54       		.byte	0x54
 15751 0f3c 40010000 		.4byte	.LVL352
 15752 0f40 42010000 		.4byte	.LVL353
 15753 0f44 0100     		.2byte	0x1
 15754 0f46 50       		.byte	0x50
 15755 0f47 46010000 		.4byte	.LVL355
 15756 0f4b 4A010000 		.4byte	.LVL356
 15757 0f4f 0100     		.2byte	0x1
 15758 0f51 54       		.byte	0x54
 15759 0f52 4A010000 		.4byte	.LVL356
 15760 0f56 4C010000 		.4byte	.LVL357
 15761 0f5a 0100     		.2byte	0x1
 15762 0f5c 50       		.byte	0x50
 15763 0f5d 00000000 		.4byte	0
 15764 0f61 00000000 		.4byte	0
 15765              	.LLST121:
 15766 0f65 2E000000 		.4byte	.LVL313
 15767 0f69 31000000 		.4byte	.LVL314-1
 15768 0f6d 0100     		.2byte	0x1
 15769 0f6f 50       		.byte	0x50
 15770 0f70 00000000 		.4byte	0
 15771 0f74 00000000 		.4byte	0
 15772              	.LLST122:
 15773 0f78 34000000 		.4byte	.LVL315
 15774 0f7c 3D000000 		.4byte	.LVL316-1
 15775 0f80 0100     		.2byte	0x1
 15776 0f82 50       		.byte	0x50
 15777 0f83 3D000000 		.4byte	.LVL316-1
 15778 0f87 4A010000 		.4byte	.LVL356
 15779 0f8b 0100     		.2byte	0x1
 15780 0f8d 56       		.byte	0x56
 15781 0f8e 4C010000 		.4byte	.LVL357
 15782 0f92 4E010000 		.4byte	.LVL358
 15783 0f96 0100     		.2byte	0x1
ARM GAS  C:\Users\strap\AppData\Local\Temp\ccTzHSZB.s 			page 321


 15784 0f98 50       		.byte	0x50
 15785 0f99 00000000 		.4byte	0
 15786 0f9d 00000000 		.4byte	0
 15787              	.LLST123:
 15788 0fa1 40000000 		.4byte	.LVL317
 15789 0fa5 43000000 		.4byte	.LVL318-1
 15790 0fa9 0100     		.2byte	0x1
 15791 0fab 50       		.byte	0x50
 15792 0fac 43000000 		.4byte	.LVL318-1
 15793 0fb0 4A010000 		.4byte	.LVL356
 15794 0fb4 0100     		.2byte	0x1
 15795 0fb6 57       		.byte	0x57
 15796 0fb7 00000000 		.4byte	0
 15797 0fbb 00000000 		.4byte	0
 15798              	.LLST124:
 15799 0fbf 46000000 		.4byte	.LVL319
 15800 0fc3 4B000000 		.4byte	.LVL320-1
 15801 0fc7 0100     		.2byte	0x1
 15802 0fc9 50       		.byte	0x50
 15803 0fca 4B000000 		.4byte	.LVL320-1
 15804 0fce 82000000 		.4byte	.LVL327
 15805 0fd2 0100     		.2byte	0x1
 15806 0fd4 54       		.byte	0x54
 15807 0fd5 00000000 		.4byte	0
 15808 0fd9 00000000 		.4byte	0
 15809              	.LLST125:
 15810 0fdd 54000000 		.4byte	.LVL321
 15811 0fe1 58000000 		.4byte	.LVL322
 15812 0fe5 0200     		.2byte	0x2
 15813 0fe7 30       		.byte	0x30
 15814 0fe8 9F       		.byte	0x9f
 15815 0fe9 58000000 		.4byte	.LVL322
 15816 0fed 5A000000 		.4byte	.LVL323
 15817 0ff1 0100     		.2byte	0x1
 15818 0ff3 55       		.byte	0x55
 15819 0ff4 5C000000 		.4byte	.LVL324
 15820 0ff8 9E000000 		.4byte	.LVL330
 15821 0ffc 0100     		.2byte	0x1
 15822 0ffe 55       		.byte	0x55
 15823 0fff 40010000 		.4byte	.LVL352
 15824 1003 46010000 		.4byte	.LVL355
 15825 1007 0100     		.2byte	0x1
 15826 1009 55       		.byte	0x55
 15827 100a 00000000 		.4byte	0
 15828 100e 00000000 		.4byte	0
 15829              	.LLST126:
 15830 1012 8E000000 		.4byte	.LVL329
 15831 1016 A6000000 		.4byte	.LVL332
 15832 101a 0100     		.2byte	0x1
 15833 101c 50       		.byte	0x50
 15834 101d 42010000 		.4byte	.LVL353
 15835 1021 44010000 		.4byte	.LVL354
 15836 1025 0100     		.2byte	0x1
 15837 1027 50       		.byte	0x50
 15838 1028 00000000 		.4byte	0
 15839 102c 00000000 		.4byte	0
 15840              	.LLST127:
ARM GAS  C:\Users\strap\AppData\Local\Temp\ccTzHSZB.s 			page 322


 15841 1030 A4000000 		.4byte	.LVL331
 15842 1034 40010000 		.4byte	.LVL352
 15843 1038 0100     		.2byte	0x1
 15844 103a 59       		.byte	0x59
 15845 103b 46010000 		.4byte	.LVL355
 15846 103f 4A010000 		.4byte	.LVL356
 15847 1043 0100     		.2byte	0x1
 15848 1045 59       		.byte	0x59
 15849 1046 00000000 		.4byte	0
 15850 104a 00000000 		.4byte	0
 15851              	.LLST128:
 15852 104e AE000000 		.4byte	.LVL334
 15853 1052 40010000 		.4byte	.LVL352
 15854 1056 0100     		.2byte	0x1
 15855 1058 55       		.byte	0x55
 15856 1059 46010000 		.4byte	.LVL355
 15857 105d 4A010000 		.4byte	.LVL356
 15858 1061 0100     		.2byte	0x1
 15859 1063 55       		.byte	0x55
 15860 1064 00000000 		.4byte	0
 15861 1068 00000000 		.4byte	0
 15862              	.LLST129:
 15863 106c BC000000 		.4byte	.LVL336
 15864 1070 40010000 		.4byte	.LVL352
 15865 1074 0100     		.2byte	0x1
 15866 1076 5A       		.byte	0x5a
 15867 1077 46010000 		.4byte	.LVL355
 15868 107b 4A010000 		.4byte	.LVL356
 15869 107f 0100     		.2byte	0x1
 15870 1081 5A       		.byte	0x5a
 15871 1082 00000000 		.4byte	0
 15872 1086 00000000 		.4byte	0
 15873              	.LLST130:
 15874 108a C2000000 		.4byte	.LVL337
 15875 108e 0E010000 		.4byte	.LVL345
 15876 1092 0100     		.2byte	0x1
 15877 1094 50       		.byte	0x50
 15878 1095 00000000 		.4byte	0
 15879 1099 00000000 		.4byte	0
 15880              	.LLST131:
 15881 109d C8000000 		.4byte	.LVL338
 15882 10a1 40010000 		.4byte	.LVL352
 15883 10a5 0100     		.2byte	0x1
 15884 10a7 58       		.byte	0x58
 15885 10a8 46010000 		.4byte	.LVL355
 15886 10ac 4A010000 		.4byte	.LVL356
 15887 10b0 0100     		.2byte	0x1
 15888 10b2 58       		.byte	0x58
 15889 10b3 00000000 		.4byte	0
 15890 10b7 00000000 		.4byte	0
 15891              	.LLST132:
 15892 10bb 26010000 		.4byte	.LVL348
 15893 10bf 32010000 		.4byte	.LVL349
 15894 10c3 0100     		.2byte	0x1
 15895 10c5 50       		.byte	0x50
 15896 10c6 00000000 		.4byte	0
 15897 10ca 00000000 		.4byte	0
ARM GAS  C:\Users\strap\AppData\Local\Temp\ccTzHSZB.s 			page 323


 15898              	.LLST133:
 15899 10ce 00000000 		.4byte	.LVL359
 15900 10d2 07000000 		.4byte	.LVL360-1
 15901 10d6 0100     		.2byte	0x1
 15902 10d8 50       		.byte	0x50
 15903 10d9 07000000 		.4byte	.LVL360-1
 15904 10dd 2E000000 		.4byte	.LFE373
 15905 10e1 0100     		.2byte	0x1
 15906 10e3 54       		.byte	0x54
 15907 10e4 00000000 		.4byte	0
 15908 10e8 00000000 		.4byte	0
 15909              	.LLST134:
 15910 10ec 0A000000 		.4byte	.LVL361
 15911 10f0 0C000000 		.4byte	.LVL362
 15912 10f4 0100     		.2byte	0x1
 15913 10f6 50       		.byte	0x50
 15914 10f7 0C000000 		.4byte	.LVL362
 15915 10fb 2E000000 		.4byte	.LFE373
 15916 10ff 0100     		.2byte	0x1
 15917 1101 55       		.byte	0x55
 15918 1102 00000000 		.4byte	0
 15919 1106 00000000 		.4byte	0
 15920              	.LLST135:
 15921 110a 00000000 		.4byte	.LVL368
 15922 110e 13000000 		.4byte	.LVL371-1
 15923 1112 0100     		.2byte	0x1
 15924 1114 50       		.byte	0x50
 15925 1115 13000000 		.4byte	.LVL371-1
 15926 1119 2C000000 		.4byte	.LVL373
 15927 111d 0100     		.2byte	0x1
 15928 111f 58       		.byte	0x58
 15929 1120 2C000000 		.4byte	.LVL373
 15930 1124 33000000 		.4byte	.LVL374-1
 15931 1128 0100     		.2byte	0x1
 15932 112a 50       		.byte	0x50
 15933 112b 33000000 		.4byte	.LVL374-1
 15934 112f 88000000 		.4byte	.LVL386
 15935 1133 0100     		.2byte	0x1
 15936 1135 58       		.byte	0x58
 15937 1136 88000000 		.4byte	.LVL386
 15938 113a 8D000000 		.4byte	.LVL387-1
 15939 113e 0100     		.2byte	0x1
 15940 1140 50       		.byte	0x50
 15941 1141 8D000000 		.4byte	.LVL387-1
 15942 1145 38020000 		.4byte	.LVL446
 15943 1149 0100     		.2byte	0x1
 15944 114b 58       		.byte	0x58
 15945 114c 38020000 		.4byte	.LVL446
 15946 1150 40020000 		.4byte	.LFE369
 15947 1154 0400     		.2byte	0x4
 15948 1156 F3       		.byte	0xf3
 15949 1157 01       		.uleb128 0x1
 15950 1158 50       		.byte	0x50
 15951 1159 9F       		.byte	0x9f
 15952 115a 00000000 		.4byte	0
 15953 115e 00000000 		.4byte	0
 15954              	.LLST136:
ARM GAS  C:\Users\strap\AppData\Local\Temp\ccTzHSZB.s 			page 324


 15955 1162 00000000 		.4byte	.LVL368
 15956 1166 10000000 		.4byte	.LVL370
 15957 116a 0100     		.2byte	0x1
 15958 116c 51       		.byte	0x51
 15959 116d 10000000 		.4byte	.LVL370
 15960 1171 2C000000 		.4byte	.LVL373
 15961 1175 0400     		.2byte	0x4
 15962 1177 F3       		.byte	0xf3
 15963 1178 01       		.uleb128 0x1
 15964 1179 51       		.byte	0x51
 15965 117a 9F       		.byte	0x9f
 15966 117b 2C000000 		.4byte	.LVL373
 15967 117f 33000000 		.4byte	.LVL374-1
 15968 1183 0100     		.2byte	0x1
 15969 1185 51       		.byte	0x51
 15970 1186 33000000 		.4byte	.LVL374-1
 15971 118a 88000000 		.4byte	.LVL386
 15972 118e 0400     		.2byte	0x4
 15973 1190 F3       		.byte	0xf3
 15974 1191 01       		.uleb128 0x1
 15975 1192 51       		.byte	0x51
 15976 1193 9F       		.byte	0x9f
 15977 1194 88000000 		.4byte	.LVL386
 15978 1198 8D000000 		.4byte	.LVL387-1
 15979 119c 0100     		.2byte	0x1
 15980 119e 51       		.byte	0x51
 15981 119f 8D000000 		.4byte	.LVL387-1
 15982 11a3 40020000 		.4byte	.LFE369
 15983 11a7 0400     		.2byte	0x4
 15984 11a9 F3       		.byte	0xf3
 15985 11aa 01       		.uleb128 0x1
 15986 11ab 51       		.byte	0x51
 15987 11ac 9F       		.byte	0x9f
 15988 11ad 00000000 		.4byte	0
 15989 11b1 00000000 		.4byte	0
 15990              	.LLST137:
 15991 11b5 00000000 		.4byte	.LVL368
 15992 11b9 13000000 		.4byte	.LVL371-1
 15993 11bd 0100     		.2byte	0x1
 15994 11bf 52       		.byte	0x52
 15995 11c0 13000000 		.4byte	.LVL371-1
 15996 11c4 2C000000 		.4byte	.LVL373
 15997 11c8 0100     		.2byte	0x1
 15998 11ca 57       		.byte	0x57
 15999 11cb 2C000000 		.4byte	.LVL373
 16000 11cf 33000000 		.4byte	.LVL374-1
 16001 11d3 0100     		.2byte	0x1
 16002 11d5 52       		.byte	0x52
 16003 11d6 33000000 		.4byte	.LVL374-1
 16004 11da 88000000 		.4byte	.LVL386
 16005 11de 0100     		.2byte	0x1
 16006 11e0 57       		.byte	0x57
 16007 11e1 88000000 		.4byte	.LVL386
 16008 11e5 8D000000 		.4byte	.LVL387-1
 16009 11e9 0100     		.2byte	0x1
 16010 11eb 52       		.byte	0x52
 16011 11ec 8D000000 		.4byte	.LVL387-1
ARM GAS  C:\Users\strap\AppData\Local\Temp\ccTzHSZB.s 			page 325


 16012 11f0 38020000 		.4byte	.LVL446
 16013 11f4 0100     		.2byte	0x1
 16014 11f6 57       		.byte	0x57
 16015 11f7 38020000 		.4byte	.LVL446
 16016 11fb 40020000 		.4byte	.LFE369
 16017 11ff 0400     		.2byte	0x4
 16018 1201 F3       		.byte	0xf3
 16019 1202 01       		.uleb128 0x1
 16020 1203 52       		.byte	0x52
 16021 1204 9F       		.byte	0x9f
 16022 1205 00000000 		.4byte	0
 16023 1209 00000000 		.4byte	0
 16024              	.LLST138:
 16025 120d 90000000 		.4byte	.LVL388
 16026 1211 9E000000 		.4byte	.LVL389
 16027 1215 0100     		.2byte	0x1
 16028 1217 50       		.byte	0x50
 16029 1218 A6000000 		.4byte	.LVL391
 16030 121c A8000000 		.4byte	.LVL392
 16031 1220 0100     		.2byte	0x1
 16032 1222 50       		.byte	0x50
 16033 1223 28020000 		.4byte	.LVL443
 16034 1227 2C020000 		.4byte	.LVL444
 16035 122b 0100     		.2byte	0x1
 16036 122d 50       		.byte	0x50
 16037 122e 00000000 		.4byte	0
 16038 1232 00000000 		.4byte	0
 16039              	.LLST139:
 16040 1236 AE000000 		.4byte	.LVL394
 16041 123a B2000000 		.4byte	.LVL395
 16042 123e 0100     		.2byte	0x1
 16043 1240 50       		.byte	0x50
 16044 1241 B2000000 		.4byte	.LVL395
 16045 1245 BC000000 		.4byte	.LVL399
 16046 1249 0100     		.2byte	0x1
 16047 124b 59       		.byte	0x59
 16048 124c BC000000 		.4byte	.LVL399
 16049 1250 BE000000 		.4byte	.LVL400
 16050 1254 0100     		.2byte	0x1
 16051 1256 50       		.byte	0x50
 16052 1257 BE000000 		.4byte	.LVL400
 16053 125b E4000000 		.4byte	.LVL402
 16054 125f 0100     		.2byte	0x1
 16055 1261 59       		.byte	0x59
 16056 1262 E4000000 		.4byte	.LVL402
 16057 1266 EE000000 		.4byte	.LVL403
 16058 126a 0100     		.2byte	0x1
 16059 126c 50       		.byte	0x50
 16060 126d EE000000 		.4byte	.LVL403
 16061 1271 FA000000 		.4byte	.LVL406
 16062 1275 0100     		.2byte	0x1
 16063 1277 59       		.byte	0x59
 16064 1278 FA000000 		.4byte	.LVL406
 16065 127c 04010000 		.4byte	.LVL407
 16066 1280 0100     		.2byte	0x1
 16067 1282 50       		.byte	0x50
 16068 1283 04010000 		.4byte	.LVL407
ARM GAS  C:\Users\strap\AppData\Local\Temp\ccTzHSZB.s 			page 326


 16069 1287 3A010000 		.4byte	.LVL413
 16070 128b 0100     		.2byte	0x1
 16071 128d 59       		.byte	0x59
 16072 128e 3A010000 		.4byte	.LVL413
 16073 1292 41010000 		.4byte	.LVL414-1
 16074 1296 0100     		.2byte	0x1
 16075 1298 50       		.byte	0x50
 16076 1299 41010000 		.4byte	.LVL414-1
 16077 129d 6E010000 		.4byte	.LVL421
 16078 12a1 0100     		.2byte	0x1
 16079 12a3 59       		.byte	0x59
 16080 12a4 6E010000 		.4byte	.LVL421
 16081 12a8 76010000 		.4byte	.LVL423
 16082 12ac 0100     		.2byte	0x1
 16083 12ae 50       		.byte	0x50
 16084 12af 76010000 		.4byte	.LVL423
 16085 12b3 1C020000 		.4byte	.LVL440
 16086 12b7 0100     		.2byte	0x1
 16087 12b9 59       		.byte	0x59
 16088 12ba 2C020000 		.4byte	.LVL444
 16089 12be 38020000 		.4byte	.LVL446
 16090 12c2 0100     		.2byte	0x1
 16091 12c4 59       		.byte	0x59
 16092 12c5 00000000 		.4byte	0
 16093 12c9 00000000 		.4byte	0
 16094              	.LLST140:
 16095 12cd 0E000000 		.4byte	.LVL369
 16096 12d1 13000000 		.4byte	.LVL371-1
 16097 12d5 0100     		.2byte	0x1
 16098 12d7 52       		.byte	0x52
 16099 12d8 13000000 		.4byte	.LVL371-1
 16100 12dc 2C000000 		.4byte	.LVL373
 16101 12e0 0100     		.2byte	0x1
 16102 12e2 57       		.byte	0x57
 16103 12e3 1C020000 		.4byte	.LVL440
 16104 12e7 22020000 		.4byte	.LVL441
 16105 12eb 0100     		.2byte	0x1
 16106 12ed 57       		.byte	0x57
 16107 12ee 00000000 		.4byte	0
 16108 12f2 00000000 		.4byte	0
 16109              	.LLST141:
 16110 12f6 34000000 		.4byte	.LVL374
 16111 12fa 3E000000 		.4byte	.LVL375
 16112 12fe 0100     		.2byte	0x1
 16113 1300 50       		.byte	0x50
 16114 1301 4A000000 		.4byte	.LVL377
 16115 1305 52000000 		.4byte	.LVL378
 16116 1309 0100     		.2byte	0x1
 16117 130b 50       		.byte	0x50
 16118 130c 5E000000 		.4byte	.LVL380
 16119 1310 66000000 		.4byte	.LVL381
 16120 1314 0100     		.2byte	0x1
 16121 1316 50       		.byte	0x50
 16122 1317 72000000 		.4byte	.LVL383
 16123 131b 7C000000 		.4byte	.LVL384
 16124 131f 0100     		.2byte	0x1
 16125 1321 50       		.byte	0x50
ARM GAS  C:\Users\strap\AppData\Local\Temp\ccTzHSZB.s 			page 327


 16126 1322 22020000 		.4byte	.LVL441
 16127 1326 24020000 		.4byte	.LVL442
 16128 132a 0100     		.2byte	0x1
 16129 132c 50       		.byte	0x50
 16130 132d 00000000 		.4byte	0
 16131 1331 00000000 		.4byte	0
 16132              	.LLST142:
 16133 1335 34000000 		.4byte	.LVL374
 16134 1339 88000000 		.4byte	.LVL386
 16135 133d 0100     		.2byte	0x1
 16136 133f 57       		.byte	0x57
 16137 1340 22020000 		.4byte	.LVL441
 16138 1344 28020000 		.4byte	.LVL443
 16139 1348 0100     		.2byte	0x1
 16140 134a 57       		.byte	0x57
 16141 134b 00000000 		.4byte	0
 16142 134f 00000000 		.4byte	0
 16143              	.LLST143:
 16144 1353 B2000000 		.4byte	.LVL395
 16145 1357 B8000000 		.4byte	.LVL397
 16146 135b 0100     		.2byte	0x1
 16147 135d 54       		.byte	0x54
 16148 135e BA000000 		.4byte	.LVL398
 16149 1362 BC000000 		.4byte	.LVL399
 16150 1366 0100     		.2byte	0x1
 16151 1368 54       		.byte	0x54
 16152 1369 BE000000 		.4byte	.LVL400
 16153 136d E4000000 		.4byte	.LVL402
 16154 1371 0100     		.2byte	0x1
 16155 1373 54       		.byte	0x54
 16156 1374 00000000 		.4byte	0
 16157 1378 00000000 		.4byte	0
 16158              	.LLST144:
 16159 137c 08010000 		.4byte	.LVL408
 16160 1380 16010000 		.4byte	.LVL409
 16161 1384 0100     		.2byte	0x1
 16162 1386 57       		.byte	0x57
 16163 1387 00000000 		.4byte	0
 16164 138b 00000000 		.4byte	0
 16165              	.LLST145:
 16166 138f 20010000 		.4byte	.LVL410
 16167 1393 2E010000 		.4byte	.LVL411
 16168 1397 0100     		.2byte	0x1
 16169 1399 57       		.byte	0x57
 16170 139a 00000000 		.4byte	0
 16171 139e 00000000 		.4byte	0
 16172              	.LLST146:
 16173 13a2 42010000 		.4byte	.LVL414
 16174 13a6 45010000 		.4byte	.LVL415-1
 16175 13aa 0100     		.2byte	0x1
 16176 13ac 50       		.byte	0x50
 16177 13ad 00000000 		.4byte	0
 16178 13b1 00000000 		.4byte	0
 16179              	.LLST147:
 16180 13b5 46010000 		.4byte	.LVL415
 16181 13b9 50010000 		.4byte	.LVL416
 16182 13bd 0100     		.2byte	0x1
ARM GAS  C:\Users\strap\AppData\Local\Temp\ccTzHSZB.s 			page 328


 16183 13bf 50       		.byte	0x50
 16184 13c0 00000000 		.4byte	0
 16185 13c4 00000000 		.4byte	0
 16186              	.LLST148:
 16187 13c8 72010000 		.4byte	.LVL422
 16188 13cc 76010000 		.4byte	.LVL423
 16189 13d0 0100     		.2byte	0x1
 16190 13d2 57       		.byte	0x57
 16191 13d3 00000000 		.4byte	0
 16192 13d7 00000000 		.4byte	0
 16193              	.LLST149:
 16194 13db B2010000 		.4byte	.LVL427
 16195 13df BE010000 		.4byte	.LVL428
 16196 13e3 0100     		.2byte	0x1
 16197 13e5 50       		.byte	0x50
 16198 13e6 CE010000 		.4byte	.LVL431
 16199 13ea D4010000 		.4byte	.LVL432
 16200 13ee 0100     		.2byte	0x1
 16201 13f0 50       		.byte	0x50
 16202 13f1 00000000 		.4byte	0
 16203 13f5 00000000 		.4byte	0
 16204              	.LLST150:
 16205 13f9 00000000 		.4byte	.LVL447
 16206 13fd 0D000000 		.4byte	.LVL448-1
 16207 1401 0100     		.2byte	0x1
 16208 1403 50       		.byte	0x50
 16209 1404 0D000000 		.4byte	.LVL448-1
 16210 1408 32000000 		.4byte	.LVL453
 16211 140c 0100     		.2byte	0x1
 16212 140e 54       		.byte	0x54
 16213 140f 32000000 		.4byte	.LVL453
 16214 1413 38000000 		.4byte	.LFE363
 16215 1417 0100     		.2byte	0x1
 16216 1419 50       		.byte	0x50
 16217 141a 00000000 		.4byte	0
 16218 141e 00000000 		.4byte	0
 16219              	.LLST151:
 16220 1422 00000000 		.4byte	.LVL447
 16221 1426 0D000000 		.4byte	.LVL448-1
 16222 142a 0100     		.2byte	0x1
 16223 142c 51       		.byte	0x51
 16224 142d 0D000000 		.4byte	.LVL448-1
 16225 1431 32000000 		.4byte	.LVL453
 16226 1435 0400     		.2byte	0x4
 16227 1437 F3       		.byte	0xf3
 16228 1438 01       		.uleb128 0x1
 16229 1439 51       		.byte	0x51
 16230 143a 9F       		.byte	0x9f
 16231 143b 32000000 		.4byte	.LVL453
 16232 143f 38000000 		.4byte	.LFE363
 16233 1443 0100     		.2byte	0x1
 16234 1445 51       		.byte	0x51
 16235 1446 00000000 		.4byte	0
 16236 144a 00000000 		.4byte	0
 16237              	.LLST152:
 16238 144e 22000000 		.4byte	.LVL450
 16239 1452 2C000000 		.4byte	.LVL451
ARM GAS  C:\Users\strap\AppData\Local\Temp\ccTzHSZB.s 			page 329


 16240 1456 0100     		.2byte	0x1
 16241 1458 50       		.byte	0x50
 16242 1459 00000000 		.4byte	0
 16243 145d 00000000 		.4byte	0
 16244              	.LLST153:
 16245 1461 00000000 		.4byte	.LVL454
 16246 1465 0D000000 		.4byte	.LVL455-1
 16247 1469 0100     		.2byte	0x1
 16248 146b 50       		.byte	0x50
 16249 146c 0D000000 		.4byte	.LVL455-1
 16250 1470 AA010000 		.4byte	.LVL492
 16251 1474 0100     		.2byte	0x1
 16252 1476 57       		.byte	0x57
 16253 1477 AA010000 		.4byte	.LVL492
 16254 147b C0010000 		.4byte	.LFE358
 16255 147f 0400     		.2byte	0x4
 16256 1481 F3       		.byte	0xf3
 16257 1482 01       		.uleb128 0x1
 16258 1483 50       		.byte	0x50
 16259 1484 9F       		.byte	0x9f
 16260 1485 00000000 		.4byte	0
 16261 1489 00000000 		.4byte	0
 16262              	.LLST154:
 16263 148d 00000000 		.4byte	.LVL454
 16264 1491 0D000000 		.4byte	.LVL455-1
 16265 1495 0100     		.2byte	0x1
 16266 1497 51       		.byte	0x51
 16267 1498 0D000000 		.4byte	.LVL455-1
 16268 149c AA010000 		.4byte	.LVL492
 16269 14a0 0100     		.2byte	0x1
 16270 14a2 58       		.byte	0x58
 16271 14a3 AA010000 		.4byte	.LVL492
 16272 14a7 C0010000 		.4byte	.LFE358
 16273 14ab 0400     		.2byte	0x4
 16274 14ad F3       		.byte	0xf3
 16275 14ae 01       		.uleb128 0x1
 16276 14af 51       		.byte	0x51
 16277 14b0 9F       		.byte	0x9f
 16278 14b1 00000000 		.4byte	0
 16279 14b5 00000000 		.4byte	0
 16280              	.LLST155:
 16281 14b9 38000000 		.4byte	.LVL460
 16282 14bd 3C000000 		.4byte	.LVL461
 16283 14c1 0100     		.2byte	0x1
 16284 14c3 50       		.byte	0x50
 16285 14c4 3C000000 		.4byte	.LVL461
 16286 14c8 AA010000 		.4byte	.LVL492
 16287 14cc 0100     		.2byte	0x1
 16288 14ce 54       		.byte	0x54
 16289 14cf 00000000 		.4byte	0
 16290 14d3 00000000 		.4byte	0
 16291              	.LLST156:
 16292 14d7 42000000 		.4byte	.LVL463
 16293 14db 44000000 		.4byte	.LVL464
 16294 14df 0100     		.2byte	0x1
 16295 14e1 50       		.byte	0x50
 16296 14e2 44000000 		.4byte	.LVL464
ARM GAS  C:\Users\strap\AppData\Local\Temp\ccTzHSZB.s 			page 330


 16297 14e6 AA010000 		.4byte	.LVL492
 16298 14ea 0100     		.2byte	0x1
 16299 14ec 55       		.byte	0x55
 16300 14ed 00000000 		.4byte	0
 16301 14f1 00000000 		.4byte	0
 16302              	.LLST157:
 16303 14f5 A2000000 		.4byte	.LVL476
 16304 14f9 A5000000 		.4byte	.LVL477-1
 16305 14fd 0100     		.2byte	0x1
 16306 14ff 50       		.byte	0x50
 16307 1500 A5000000 		.4byte	.LVL477-1
 16308 1504 AA010000 		.4byte	.LVL492
 16309 1508 0100     		.2byte	0x1
 16310 150a 56       		.byte	0x56
 16311 150b 00000000 		.4byte	0
 16312 150f 00000000 		.4byte	0
 16313              	.LLST158:
 16314 1513 66010000 		.4byte	.LVL486
 16315 1517 6E010000 		.4byte	.LVL487
 16316 151b 0100     		.2byte	0x1
 16317 151d 50       		.byte	0x50
 16318 151e 00000000 		.4byte	0
 16319 1522 00000000 		.4byte	0
 16320              	.LLST159:
 16321 1526 6A000000 		.4byte	.LVL469
 16322 152a 7C000000 		.4byte	.LVL471
 16323 152e 0200     		.2byte	0x2
 16324 1530 33       		.byte	0x33
 16325 1531 9F       		.byte	0x9f
 16326 1532 00000000 		.4byte	0
 16327 1536 00000000 		.4byte	0
 16328              	.LLST160:
 16329 153a 6A000000 		.4byte	.LVL469
 16330 153e 7C000000 		.4byte	.LVL471
 16331 1542 0200     		.2byte	0x2
 16332 1544 30       		.byte	0x30
 16333 1545 9F       		.byte	0x9f
 16334 1546 00000000 		.4byte	0
 16335 154a 00000000 		.4byte	0
 16336              	.LLST163:
 16337 154e 6A000000 		.4byte	.LVL469
 16338 1552 7C000000 		.4byte	.LVL471
 16339 1556 0100     		.2byte	0x1
 16340 1558 55       		.byte	0x55
 16341 1559 00000000 		.4byte	0
 16342 155d 00000000 		.4byte	0
 16343              	.LLST164:
 16344 1561 00000000 		.4byte	.LVL493
 16345 1565 0D000000 		.4byte	.LVL494-1
 16346 1569 0100     		.2byte	0x1
 16347 156b 50       		.byte	0x50
 16348 156c 0D000000 		.4byte	.LVL494-1
 16349 1570 84010000 		.4byte	.LVL540
 16350 1574 0100     		.2byte	0x1
 16351 1576 57       		.byte	0x57
 16352 1577 84010000 		.4byte	.LVL540
 16353 157b 9C020000 		.4byte	.LVL577
ARM GAS  C:\Users\strap\AppData\Local\Temp\ccTzHSZB.s 			page 331


 16354 157f 0400     		.2byte	0x4
 16355 1581 F3       		.byte	0xf3
 16356 1582 01       		.uleb128 0x1
 16357 1583 50       		.byte	0x50
 16358 1584 9F       		.byte	0x9f
 16359 1585 9C020000 		.4byte	.LVL577
 16360 1589 A4020000 		.4byte	.LVL579
 16361 158d 0100     		.2byte	0x1
 16362 158f 57       		.byte	0x57
 16363 1590 A4020000 		.4byte	.LVL579
 16364 1594 C8020000 		.4byte	.LFE357
 16365 1598 0400     		.2byte	0x4
 16366 159a F3       		.byte	0xf3
 16367 159b 01       		.uleb128 0x1
 16368 159c 50       		.byte	0x50
 16369 159d 9F       		.byte	0x9f
 16370 159e 00000000 		.4byte	0
 16371 15a2 00000000 		.4byte	0
 16372              	.LLST165:
 16373 15a6 00000000 		.4byte	.LVL493
 16374 15aa 0D000000 		.4byte	.LVL494-1
 16375 15ae 0100     		.2byte	0x1
 16376 15b0 51       		.byte	0x51
 16377 15b1 0D000000 		.4byte	.LVL494-1
 16378 15b5 C0000000 		.4byte	.LVL510
 16379 15b9 0100     		.2byte	0x1
 16380 15bb 56       		.byte	0x56
 16381 15bc C0000000 		.4byte	.LVL510
 16382 15c0 CC000000 		.4byte	.LVL513
 16383 15c4 0400     		.2byte	0x4
 16384 15c6 F3       		.byte	0xf3
 16385 15c7 01       		.uleb128 0x1
 16386 15c8 51       		.byte	0x51
 16387 15c9 9F       		.byte	0x9f
 16388 15ca CC000000 		.4byte	.LVL513
 16389 15ce D4000000 		.4byte	.LVL515
 16390 15d2 0100     		.2byte	0x1
 16391 15d4 56       		.byte	0x56
 16392 15d5 D4000000 		.4byte	.LVL515
 16393 15d9 7C010000 		.4byte	.LVL538
 16394 15dd 0400     		.2byte	0x4
 16395 15df F3       		.byte	0xf3
 16396 15e0 01       		.uleb128 0x1
 16397 15e1 51       		.byte	0x51
 16398 15e2 9F       		.byte	0x9f
 16399 15e3 7C010000 		.4byte	.LVL538
 16400 15e7 92020000 		.4byte	.LVL575
 16401 15eb 0100     		.2byte	0x1
 16402 15ed 56       		.byte	0x56
 16403 15ee 92020000 		.4byte	.LVL575
 16404 15f2 9C020000 		.4byte	.LVL577
 16405 15f6 0400     		.2byte	0x4
 16406 15f8 F3       		.byte	0xf3
 16407 15f9 01       		.uleb128 0x1
 16408 15fa 51       		.byte	0x51
 16409 15fb 9F       		.byte	0x9f
 16410 15fc 9C020000 		.4byte	.LVL577
ARM GAS  C:\Users\strap\AppData\Local\Temp\ccTzHSZB.s 			page 332


 16411 1600 A6020000 		.4byte	.LVL580
 16412 1604 0100     		.2byte	0x1
 16413 1606 56       		.byte	0x56
 16414 1607 A6020000 		.4byte	.LVL580
 16415 160b C8020000 		.4byte	.LFE357
 16416 160f 0400     		.2byte	0x4
 16417 1611 F3       		.byte	0xf3
 16418 1612 01       		.uleb128 0x1
 16419 1613 51       		.byte	0x51
 16420 1614 9F       		.byte	0x9f
 16421 1615 00000000 		.4byte	0
 16422 1619 00000000 		.4byte	0
 16423              	.LLST166:
 16424 161d 10000000 		.4byte	.LVL495
 16425 1621 13000000 		.4byte	.LVL496-1
 16426 1625 0100     		.2byte	0x1
 16427 1627 50       		.byte	0x50
 16428 1628 13000000 		.4byte	.LVL496-1
 16429 162c AC020000 		.4byte	.LVL581
 16430 1630 0100     		.2byte	0x1
 16431 1632 55       		.byte	0x55
 16432 1633 00000000 		.4byte	0
 16433 1637 00000000 		.4byte	0
 16434              	.LLST167:
 16435 163b 42000000 		.4byte	.LVL500
 16436 163f 45000000 		.4byte	.LVL501-1
 16437 1643 0100     		.2byte	0x1
 16438 1645 50       		.byte	0x50
 16439 1646 45000000 		.4byte	.LVL501-1
 16440 164a E0010000 		.4byte	.LVL550
 16441 164e 0100     		.2byte	0x1
 16442 1650 54       		.byte	0x54
 16443 1651 A0020000 		.4byte	.LVL578
 16444 1655 A6020000 		.4byte	.LVL580
 16445 1659 0100     		.2byte	0x1
 16446 165b 54       		.byte	0x54
 16447 165c 00000000 		.4byte	0
 16448 1660 00000000 		.4byte	0
 16449              	.LLST168:
 16450 1664 C0000000 		.4byte	.LVL510
 16451 1668 CC000000 		.4byte	.LVL513
 16452 166c 0100     		.2byte	0x1
 16453 166e 56       		.byte	0x56
 16454 166f D4000000 		.4byte	.LVL515
 16455 1673 7C010000 		.4byte	.LVL538
 16456 1677 0100     		.2byte	0x1
 16457 1679 56       		.byte	0x56
 16458 167a 00000000 		.4byte	0
 16459 167e 00000000 		.4byte	0
 16460              	.LLST169:
 16461 1682 CA000000 		.4byte	.LVL512
 16462 1686 CC000000 		.4byte	.LVL513
 16463 168a 0100     		.2byte	0x1
 16464 168c 50       		.byte	0x50
 16465 168d DA000000 		.4byte	.LVL516
 16466 1691 E0000000 		.4byte	.LVL517
 16467 1695 0100     		.2byte	0x1
ARM GAS  C:\Users\strap\AppData\Local\Temp\ccTzHSZB.s 			page 333


 16468 1697 50       		.byte	0x50
 16469 1698 00000000 		.4byte	0
 16470 169c 00000000 		.4byte	0
 16471              	.LLST170:
 16472 16a0 44010000 		.4byte	.LVL530
 16473 16a4 56010000 		.4byte	.LVL532
 16474 16a8 0200     		.2byte	0x2
 16475 16aa 32       		.byte	0x32
 16476 16ab 9F       		.byte	0x9f
 16477 16ac 00000000 		.4byte	0
 16478 16b0 00000000 		.4byte	0
 16479              	.LLST171:
 16480 16b4 44010000 		.4byte	.LVL530
 16481 16b8 56010000 		.4byte	.LVL532
 16482 16bc 0200     		.2byte	0x2
 16483 16be 31       		.byte	0x31
 16484 16bf 9F       		.byte	0x9f
 16485 16c0 00000000 		.4byte	0
 16486 16c4 00000000 		.4byte	0
 16487              	.LLST172:
 16488 16c8 44010000 		.4byte	.LVL530
 16489 16cc 49010000 		.4byte	.LVL531-1
 16490 16d0 0200     		.2byte	0x2
 16491 16d2 74       		.byte	0x74
 16492 16d3 08       		.sleb128 8
 16493 16d4 00000000 		.4byte	0
 16494 16d8 00000000 		.4byte	0
 16495              	.LLST173:
 16496 16dc 4A010000 		.4byte	.LVL531
 16497 16e0 56010000 		.4byte	.LVL532
 16498 16e4 0200     		.2byte	0x2
 16499 16e6 32       		.byte	0x32
 16500 16e7 9F       		.byte	0x9f
 16501 16e8 00000000 		.4byte	0
 16502 16ec 00000000 		.4byte	0
 16503              	.LLST174:
 16504 16f0 4A010000 		.4byte	.LVL531
 16505 16f4 56010000 		.4byte	.LVL532
 16506 16f8 0200     		.2byte	0x2
 16507 16fa 31       		.byte	0x31
 16508 16fb 9F       		.byte	0x9f
 16509 16fc 00000000 		.4byte	0
 16510 1700 00000000 		.4byte	0
 16511              	.LLST175:
 16512 1704 4A010000 		.4byte	.LVL531
 16513 1708 55010000 		.4byte	.LVL532-1
 16514 170c 0100     		.2byte	0x1
 16515 170e 50       		.byte	0x50
 16516 170f 00000000 		.4byte	0
 16517 1713 00000000 		.4byte	0
 16518              	.LLST176:
 16519 1717 56010000 		.4byte	.LVL532
 16520 171b 62010000 		.4byte	.LVL534
 16521 171f 0200     		.2byte	0x2
 16522 1721 35       		.byte	0x35
 16523 1722 9F       		.byte	0x9f
 16524 1723 00000000 		.4byte	0
ARM GAS  C:\Users\strap\AppData\Local\Temp\ccTzHSZB.s 			page 334


 16525 1727 00000000 		.4byte	0
 16526              	.LLST177:
 16527 172b 56010000 		.4byte	.LVL532
 16528 172f 5B010000 		.4byte	.LVL533-1
 16529 1733 0200     		.2byte	0x2
 16530 1735 74       		.byte	0x74
 16531 1736 08       		.sleb128 8
 16532 1737 00000000 		.4byte	0
 16533 173b 00000000 		.4byte	0
 16534              	.LLST178:
 16535 173f 84010000 		.4byte	.LVL540
 16536 1743 8E010000 		.4byte	.LVL541
 16537 1747 0100     		.2byte	0x1
 16538 1749 50       		.byte	0x50
 16539 174a 8E010000 		.4byte	.LVL541
 16540 174e 92020000 		.4byte	.LVL575
 16541 1752 0100     		.2byte	0x1
 16542 1754 57       		.byte	0x57
 16543 1755 A4020000 		.4byte	.LVL579
 16544 1759 A6020000 		.4byte	.LVL580
 16545 175d 0100     		.2byte	0x1
 16546 175f 57       		.byte	0x57
 16547 1760 00000000 		.4byte	0
 16548 1764 00000000 		.4byte	0
 16549              	.LLST179:
 16550 1768 24020000 		.4byte	.LVL558
 16551 176c 28020000 		.4byte	.LVL559
 16552 1770 0200     		.2byte	0x2
 16553 1772 30       		.byte	0x30
 16554 1773 9F       		.byte	0x9f
 16555 1774 28020000 		.4byte	.LVL559
 16556 1778 80020000 		.4byte	.LVL573
 16557 177c 0100     		.2byte	0x1
 16558 177e 54       		.byte	0x54
 16559 177f 82020000 		.4byte	.LVL574
 16560 1783 92020000 		.4byte	.LVL575
 16561 1787 0100     		.2byte	0x1
 16562 1789 54       		.byte	0x54
 16563 178a 00000000 		.4byte	0
 16564 178e 00000000 		.4byte	0
 16565              	.LLST180:
 16566 1792 36020000 		.4byte	.LVL561
 16567 1796 3A020000 		.4byte	.LVL562
 16568 179a 0100     		.2byte	0x1
 16569 179c 50       		.byte	0x50
 16570 179d 3A020000 		.4byte	.LVL562
 16571 17a1 82020000 		.4byte	.LVL574
 16572 17a5 0100     		.2byte	0x1
 16573 17a7 58       		.byte	0x58
 16574 17a8 00000000 		.4byte	0
 16575 17ac 00000000 		.4byte	0
 16576              	.LLST181:
 16577 17b0 40020000 		.4byte	.LVL564
 16578 17b4 44020000 		.4byte	.LVL565
 16579 17b8 0100     		.2byte	0x1
 16580 17ba 50       		.byte	0x50
 16581 17bb 44020000 		.4byte	.LVL565
ARM GAS  C:\Users\strap\AppData\Local\Temp\ccTzHSZB.s 			page 335


 16582 17bf 82020000 		.4byte	.LVL574
 16583 17c3 0100     		.2byte	0x1
 16584 17c5 59       		.byte	0x59
 16585 17c6 00000000 		.4byte	0
 16586 17ca 00000000 		.4byte	0
 16587              	.LLST182:
 16588 17ce 00000000 		.4byte	.LVL582
 16589 17d2 07000000 		.4byte	.LVL583-1
 16590 17d6 0100     		.2byte	0x1
 16591 17d8 50       		.byte	0x50
 16592 17d9 07000000 		.4byte	.LVL583-1
 16593 17dd 24000000 		.4byte	.LVL587
 16594 17e1 0100     		.2byte	0x1
 16595 17e3 54       		.byte	0x54
 16596 17e4 24000000 		.4byte	.LVL587
 16597 17e8 28000000 		.4byte	.LFE368
 16598 17ec 0400     		.2byte	0x4
 16599 17ee F3       		.byte	0xf3
 16600 17ef 01       		.uleb128 0x1
 16601 17f0 50       		.byte	0x50
 16602 17f1 9F       		.byte	0x9f
 16603 17f2 00000000 		.4byte	0
 16604 17f6 00000000 		.4byte	0
 16605              	.LLST183:
 16606 17fa 1C000000 		.4byte	.LVL585
 16607 17fe 1E000000 		.4byte	.LVL586
 16608 1802 0100     		.2byte	0x1
 16609 1804 50       		.byte	0x50
 16610 1805 00000000 		.4byte	0
 16611 1809 00000000 		.4byte	0
 16612              		.section	.debug_aranges,"",%progbits
 16613 0000 BC000000 		.4byte	0xbc
 16614 0004 0200     		.2byte	0x2
 16615 0006 00000000 		.4byte	.Ldebug_info0
 16616 000a 04       		.byte	0x4
 16617 000b 00       		.byte	0
 16618 000c 0000     		.2byte	0
 16619 000e 0000     		.2byte	0
 16620 0010 00000000 		.4byte	.LFB371
 16621 0014 6C000000 		.4byte	.LFE371-.LFB371
 16622 0018 00000000 		.4byte	.LFB375
 16623 001c FA000000 		.4byte	.LFE375-.LFB375
 16624 0020 00000000 		.4byte	.LFB376
 16625 0024 D0000000 		.4byte	.LFE376-.LFB376
 16626 0028 00000000 		.4byte	.LFB374
 16627 002c 9A000000 		.4byte	.LFE374-.LFB374
 16628 0030 00000000 		.4byte	.LFB377
 16629 0034 F2000000 		.4byte	.LFE377-.LFB377
 16630 0038 00000000 		.4byte	.LFB359
 16631 003c 28000000 		.4byte	.LFE359-.LFB359
 16632 0040 00000000 		.4byte	.LFB361
 16633 0044 70000000 		.4byte	.LFE361-.LFB361
 16634 0048 00000000 		.4byte	.LFB362
 16635 004c 28000000 		.4byte	.LFE362-.LFB362
 16636 0050 00000000 		.4byte	.LFB364
 16637 0054 24000000 		.4byte	.LFE364-.LFB364
 16638 0058 00000000 		.4byte	.LFB365
ARM GAS  C:\Users\strap\AppData\Local\Temp\ccTzHSZB.s 			page 336


 16639 005c 24000000 		.4byte	.LFE365-.LFB365
 16640 0060 00000000 		.4byte	.LFB366
 16641 0064 68000000 		.4byte	.LFE366-.LFB366
 16642 0068 00000000 		.4byte	.LFB367
 16643 006c 24000000 		.4byte	.LFE367-.LFB367
 16644 0070 00000000 		.4byte	.LFB360
 16645 0074 E8010000 		.4byte	.LFE360-.LFB360
 16646 0078 00000000 		.4byte	.LFB372
 16647 007c 82000000 		.4byte	.LFE372-.LFB372
 16648 0080 00000000 		.4byte	.LFB370
 16649 0084 60010000 		.4byte	.LFE370-.LFB370
 16650 0088 00000000 		.4byte	.LFB373
 16651 008c 2E000000 		.4byte	.LFE373-.LFB373
 16652 0090 00000000 		.4byte	.LFB369
 16653 0094 40020000 		.4byte	.LFE369-.LFB369
 16654 0098 00000000 		.4byte	.LFB363
 16655 009c 38000000 		.4byte	.LFE363-.LFB363
 16656 00a0 00000000 		.4byte	.LFB358
 16657 00a4 C0010000 		.4byte	.LFE358-.LFB358
 16658 00a8 00000000 		.4byte	.LFB357
 16659 00ac C8020000 		.4byte	.LFE357-.LFB357
 16660 00b0 00000000 		.4byte	.LFB368
 16661 00b4 28000000 		.4byte	.LFE368-.LFB368
 16662 00b8 00000000 		.4byte	0
 16663 00bc 00000000 		.4byte	0
 16664              		.section	.debug_ranges,"",%progbits
 16665              	.Ldebug_ranges0:
 16666 0000 0E000000 		.4byte	.LBB151
 16667 0004 2C000000 		.4byte	.LBE151
 16668 0008 1C020000 		.4byte	.LBB163
 16669 000c 22020000 		.4byte	.LBE163
 16670 0010 00000000 		.4byte	0
 16671 0014 00000000 		.4byte	0
 16672 0018 30000000 		.4byte	.LBB152
 16673 001c 88000000 		.4byte	.LBE152
 16674 0020 22020000 		.4byte	.LBB164
 16675 0024 2C020000 		.4byte	.LBE164
 16676 0028 00000000 		.4byte	0
 16677 002c 00000000 		.4byte	0
 16678 0030 B2000000 		.4byte	.LBB153
 16679 0034 BC000000 		.4byte	.LBE153
 16680 0038 BE000000 		.4byte	.LBB154
 16681 003c E2000000 		.4byte	.LBE154
 16682 0040 00000000 		.4byte	0
 16683 0044 00000000 		.4byte	0
 16684 0048 A8010000 		.4byte	.LBB161
 16685 004c FC010000 		.4byte	.LBE161
 16686 0050 FE010000 		.4byte	.LBB162
 16687 0054 16020000 		.4byte	.LBE162
 16688 0058 00000000 		.4byte	0
 16689 005c 00000000 		.4byte	0
 16690 0060 8C000000 		.4byte	.LBB176
 16691 0064 7A010000 		.4byte	.LBE176
 16692 0068 A0020000 		.4byte	.LBB185
 16693 006c A4020000 		.4byte	.LBE185
 16694 0070 00000000 		.4byte	0
 16695 0074 00000000 		.4byte	0
ARM GAS  C:\Users\strap\AppData\Local\Temp\ccTzHSZB.s 			page 337


 16696 0078 7C010000 		.4byte	.LBB183
 16697 007c 92020000 		.4byte	.LBE183
 16698 0080 A4020000 		.4byte	.LBB186
 16699 0084 A6020000 		.4byte	.LBE186
 16700 0088 00000000 		.4byte	0
 16701 008c 00000000 		.4byte	0
 16702 0090 00000000 		.4byte	.LFB371
 16703 0094 6C000000 		.4byte	.LFE371
 16704 0098 00000000 		.4byte	.LFB375
 16705 009c FA000000 		.4byte	.LFE375
 16706 00a0 00000000 		.4byte	.LFB376
 16707 00a4 D0000000 		.4byte	.LFE376
 16708 00a8 00000000 		.4byte	.LFB374
 16709 00ac 9A000000 		.4byte	.LFE374
 16710 00b0 00000000 		.4byte	.LFB377
 16711 00b4 F2000000 		.4byte	.LFE377
 16712 00b8 00000000 		.4byte	.LFB359
 16713 00bc 28000000 		.4byte	.LFE359
 16714 00c0 00000000 		.4byte	.LFB361
 16715 00c4 70000000 		.4byte	.LFE361
 16716 00c8 00000000 		.4byte	.LFB362
 16717 00cc 28000000 		.4byte	.LFE362
 16718 00d0 00000000 		.4byte	.LFB364
 16719 00d4 24000000 		.4byte	.LFE364
 16720 00d8 00000000 		.4byte	.LFB365
 16721 00dc 24000000 		.4byte	.LFE365
 16722 00e0 00000000 		.4byte	.LFB366
 16723 00e4 68000000 		.4byte	.LFE366
 16724 00e8 00000000 		.4byte	.LFB367
 16725 00ec 24000000 		.4byte	.LFE367
 16726 00f0 00000000 		.4byte	.LFB360
 16727 00f4 E8010000 		.4byte	.LFE360
 16728 00f8 00000000 		.4byte	.LFB372
 16729 00fc 82000000 		.4byte	.LFE372
 16730 0100 00000000 		.4byte	.LFB370
 16731 0104 60010000 		.4byte	.LFE370
 16732 0108 00000000 		.4byte	.LFB373
 16733 010c 2E000000 		.4byte	.LFE373
 16734 0110 00000000 		.4byte	.LFB369
 16735 0114 40020000 		.4byte	.LFE369
 16736 0118 00000000 		.4byte	.LFB363
 16737 011c 38000000 		.4byte	.LFE363
 16738 0120 00000000 		.4byte	.LFB358
 16739 0124 C0010000 		.4byte	.LFE358
 16740 0128 00000000 		.4byte	.LFB357
 16741 012c C8020000 		.4byte	.LFE357
 16742 0130 00000000 		.4byte	.LFB368
 16743 0134 28000000 		.4byte	.LFE368
 16744 0138 00000000 		.4byte	0
 16745 013c 00000000 		.4byte	0
 16746              		.section	.debug_line,"",%progbits
 16747              	.Ldebug_line0:
 16748 0000 A80A0000 		.section	.debug_str,"MS",%progbits,1
 16748      0200EF04 
 16748      00000201 
 16748      FB0E0D00 
 16748      01010101 
ARM GAS  C:\Users\strap\AppData\Local\Temp\ccTzHSZB.s 			page 338


 16749              	.LASF171:
 16750 0000 4C565F53 		.ascii	"LV_STYLE_VALUE_STR\000"
 16750      54594C45 
 16750      5F56414C 
 16750      55455F53 
 16750      545200
 16751              	.LASF570:
 16752 0013 4C565F54 		.ascii	"LV_THEME_TABVIEW_PAGE\000"
 16752      48454D45 
 16752      5F544142 
 16752      56494557 
 16752      5F504147 
 16753              	.LASF17:
 16754 0029 696E7438 		.ascii	"int8_t\000"
 16754      5F7400
 16755              	.LASF274:
 16756 0030 636F6C6F 		.ascii	"color_chroma_key\000"
 16756      725F6368 
 16756      726F6D61 
 16756      5F6B6579 
 16756      00
 16757              	.LASF238:
 16758 0041 6C765F6C 		.ascii	"lv_ll_node_t\000"
 16758      6C5F6E6F 
 16758      64655F74 
 16758      00
 16759              	.LASF62:
 16760 004e 6164765F 		.ascii	"adv_w\000"
 16760      7700
 16761              	.LASF580:
 16762 0054 6C765F6F 		.ascii	"lv_obj_get_style_pad_left\000"
 16762      626A5F67 
 16762      65745F73 
 16762      74796C65 
 16762      5F706164 
 16763              	.LASF33:
 16764 006e 73697A65 		.ascii	"sizetype\000"
 16764      74797065 
 16764      00
 16765              	.LASF97:
 16766 0077 73746172 		.ascii	"start\000"
 16766      7400
 16767              	.LASF610:
 16768 007d 7461625F 		.ascii	"tab_bottom\000"
 16768      626F7474 
 16768      6F6D00
 16769              	.LASF474:
 16770 0088 6C765F67 		.ascii	"lv_get_state_info_t\000"
 16770      65745F73 
 16770      74617465 
 16770      5F696E66 
 16770      6F5F7400 
 16771              	.LASF754:
 16772 009c 6C765F73 		.ascii	"lv_style_list_copy\000"
 16772      74796C65 
 16772      5F6C6973 
 16772      745F636F 
ARM GAS  C:\Users\strap\AppData\Local\Temp\ccTzHSZB.s 			page 339


 16772      707900
 16773              	.LASF573:
 16774 00af 4C565F54 		.ascii	"LV_THEME_CUSTOM_START\000"
 16774      48454D45 
 16774      5F435553 
 16774      544F4D5F 
 16774      53544152 
 16775              	.LASF184:
 16776 00c5 4C565F53 		.ascii	"LV_STYLE_LINE_DASH_GAP\000"
 16776      54594C45 
 16776      5F4C494E 
 16776      455F4441 
 16776      53485F47 
 16777              	.LASF393:
 16778 00dc 4C565F42 		.ascii	"LV_BIDI_DIR_WEAK\000"
 16778      4944495F 
 16778      4449525F 
 16778      5745414B 
 16778      00
 16779              	.LASF86:
 16780 00ed 4C565F41 		.ascii	"LV_ANIM_ON\000"
 16780      4E494D5F 
 16780      4F4E00
 16781              	.LASF624:
 16782 00f8 696E6469 		.ascii	"indic_size\000"
 16782      635F7369 
 16782      7A6500
 16783              	.LASF241:
 16784 0103 7461696C 		.ascii	"tail\000"
 16784      00
 16785              	.LASF581:
 16786 0108 6C765F66 		.ascii	"lv_font_get_line_height\000"
 16786      6F6E745F 
 16786      6765745F 
 16786      6C696E65 
 16786      5F686569 
 16787              	.LASF427:
 16788 0120 4C565F53 		.ascii	"LV_SIGNAL_STYLE_CHG\000"
 16788      49474E41 
 16788      4C5F5354 
 16788      594C455F 
 16788      43484700 
 16789              	.LASF280:
 16790 0134 6163745F 		.ascii	"act_scr\000"
 16790      73637200 
 16791              	.LASF549:
 16792 013c 7265636F 		.ascii	"recolor\000"
 16792      6C6F7200 
 16793              	.LASF567:
 16794 0144 4C565F54 		.ascii	"LV_THEME_SPINBOX\000"
 16794      48454D45 
 16794      5F535049 
 16794      4E424F58 
 16794      00
 16795              	.LASF728:
 16796 0155 6C765F6D 		.ascii	"lv_mem_free\000"
 16796      656D5F66 
ARM GAS  C:\Users\strap\AppData\Local\Temp\ccTzHSZB.s 			page 340


 16796      72656500 
 16797              	.LASF650:
 16798 0161 69645F6E 		.ascii	"id_new\000"
 16798      657700
 16799              	.LASF84:
 16800 0168 6C765F6F 		.ascii	"lv_opa_t\000"
 16800      70615F74 
 16800      00
 16801              	.LASF21:
 16802 0171 696E7433 		.ascii	"int32_t\000"
 16802      325F7400 
 16803              	.LASF523:
 16804 0179 7461625F 		.ascii	"tab_cnt\000"
 16804      636E7400 
 16805              	.LASF415:
 16806 0181 4C565F45 		.ascii	"LV_EVENT_INSERT\000"
 16806      56454E54 
 16806      5F494E53 
 16806      45525400 
 16807              	.LASF38:
 16808 0191 6C765F70 		.ascii	"lv_point_t\000"
 16808      6F696E74 
 16808      5F7400
 16809              	.LASF96:
 16810 019c 70617468 		.ascii	"path\000"
 16810      00
 16811              	.LASF528:
 16812 01a1 5F4C565F 		.ascii	"_LV_TABVIEW_PART_VIRTUAL_LAST\000"
 16812      54414256 
 16812      4945575F 
 16812      50415254 
 16812      5F564952 
 16813              	.LASF509:
 16814 01bf 4C565F50 		.ascii	"LV_PAGE_PART_SCROLLABLE\000"
 16814      4147455F 
 16814      50415254 
 16814      5F534352 
 16814      4F4C4C41 
 16815              	.LASF438:
 16816 01d7 4C565F53 		.ascii	"LV_SIGNAL_LONG_PRESS\000"
 16816      49474E41 
 16816      4C5F4C4F 
 16816      4E475F50 
 16816      52455353 
 16817              	.LASF285:
 16818 01ec 62675F63 		.ascii	"bg_color\000"
 16818      6F6C6F72 
 16818      00
 16819              	.LASF70:
 16820 01f5 6C696E65 		.ascii	"line_height\000"
 16820      5F686569 
 16820      67687400 
 16821              	.LASF253:
 16822 0201 6275665F 		.ascii	"buf_act\000"
 16822      61637400 
 16823              	.LASF303:
 16824 0209 636C6963 		.ascii	"click\000"
ARM GAS  C:\Users\strap\AppData\Local\Temp\ccTzHSZB.s 			page 341


 16824      6B00
 16825              	.LASF61:
 16826 020f 6C765F61 		.ascii	"lv_align_t\000"
 16826      6C69676E 
 16826      5F7400
 16827              	.LASF169:
 16828 021a 4C565F53 		.ascii	"LV_STYLE_VALUE_OPA\000"
 16828      54594C45 
 16828      5F56414C 
 16828      55455F4F 
 16828      504100
 16829              	.LASF480:
 16830 022d 4C565F4C 		.ascii	"LV_LAYOUT_ROW_TOP\000"
 16830      41594F55 
 16830      545F524F 
 16830      575F544F 
 16830      5000
 16831              	.LASF377:
 16832 023f 62746E5F 		.ascii	"btn_points\000"
 16832      706F696E 
 16832      747300
 16833              	.LASF153:
 16834 024a 4C565F53 		.ascii	"LV_STYLE_SHADOW_BLEND_MODE\000"
 16834      54594C45 
 16834      5F534841 
 16834      444F575F 
 16834      424C454E 
 16835              	.LASF440:
 16836 0265 4C565F53 		.ascii	"LV_SIGNAL_DRAG_BEGIN\000"
 16836      49474E41 
 16836      4C5F4452 
 16836      41475F42 
 16836      4547494E 
 16837              	.LASF441:
 16838 027a 4C565F53 		.ascii	"LV_SIGNAL_DRAG_THROW_BEGIN\000"
 16838      49474E41 
 16838      4C5F4452 
 16838      41475F54 
 16838      48524F57 
 16839              	.LASF396:
 16840 0295 6C765F64 		.ascii	"lv_design_res_t\000"
 16840      65736967 
 16840      6E5F7265 
 16840      735F7400 
 16841              	.LASF749:
 16842 02a5 6C765F6F 		.ascii	"lv_obj_set_signal_cb\000"
 16842      626A5F73 
 16842      65745F73 
 16842      69676E61 
 16842      6C5F6362 
 16843              	.LASF219:
 16844 02ba 636C6970 		.ascii	"clip_corner_off\000"
 16844      5F636F72 
 16844      6E65725F 
 16844      6F666600 
 16845              	.LASF654:
 16846 02ca 7369676E 		.ascii	"sign\000"
ARM GAS  C:\Users\strap\AppData\Local\Temp\ccTzHSZB.s 			page 342


 16846      00
 16847              	.LASF421:
 16848 02cf 6C765F65 		.ascii	"lv_event_t\000"
 16848      76656E74 
 16848      5F7400
 16849              	.LASF692:
 16850 02da 6C765F6F 		.ascii	"lv_obj_set_size\000"
 16850      626A5F73 
 16850      65745F73 
 16850      697A6500 
 16851              	.LASF530:
 16852 02ea 4C565F54 		.ascii	"LV_TABVIEW_PART_TAB_BG\000"
 16852      41425649 
 16852      45575F50 
 16852      4152545F 
 16852      5441425F 
 16853              	.LASF593:
 16854 0301 6C765F61 		.ascii	"lv_anim_set_var\000"
 16854      6E696D5F 
 16854      7365745F 
 16854      76617200 
 16855              	.LASF316:
 16856 0311 73746174 		.ascii	"state\000"
 16856      6500
 16857              	.LASF649:
 16858 0317 69645F70 		.ascii	"id_prev\000"
 16858      72657600 
 16859              	.LASF248:
 16860 031f 72657065 		.ascii	"repeat_count\000"
 16860      61745F63 
 16860      6F756E74 
 16860      00
 16861              	.LASF760:
 16862 032c 433A5C55 		.ascii	"C:\\Users\\strap\\Documents\\Creator\\test_lvgl\\il"
 16862      73657273 
 16862      5C737472 
 16862      61705C44 
 16862      6F63756D 
 16863 0359 69393334 		.ascii	"i9341_master.cydsn\000"
 16863      315F6D61 
 16863      73746572 
 16863      2E637964 
 16863      736E00
 16864              	.LASF500:
 16865 036c 4C565F53 		.ascii	"LV_SCROLLBAR_MODE_ON\000"
 16865      43524F4C 
 16865      4C424152 
 16865      5F4D4F44 
 16865      455F4F4E 
 16866              	.LASF634:
 16867 0381 6C765F74 		.ascii	"lv_tabview_get_tab_count\000"
 16867      61627669 
 16867      65775F67 
 16867      65745F74 
 16867      61625F63 
 16868              	.LASF557:
 16869 039a 4C565F54 		.ascii	"LV_THEME_BTN\000"
ARM GAS  C:\Users\strap\AppData\Local\Temp\ccTzHSZB.s 			page 343


 16869      48454D45 
 16869      5F42544E 
 16869      00
 16870              	.LASF713:
 16871 03a7 6C765F62 		.ascii	"lv_btnmatrix_set_btn_ctrl\000"
 16871      746E6D61 
 16871      74726978 
 16871      5F736574 
 16871      5F62746E 
 16872              	.LASF583:
 16873 03c1 6C765F6F 		.ascii	"lv_obj_get_style_size\000"
 16873      626A5F67 
 16873      65745F73 
 16873      74796C65 
 16873      5F73697A 
 16874              	.LASF35:
 16875 03d7 4C565F52 		.ascii	"LV_RES_INV\000"
 16875      45535F49 
 16875      4E5600
 16876              	.LASF59:
 16877 03e2 4C565F41 		.ascii	"LV_ALIGN_OUT_RIGHT_MID\000"
 16877      4C49474E 
 16877      5F4F5554 
 16877      5F524947 
 16877      48545F4D 
 16878              	.LASF444:
 16879 03f9 4C565F53 		.ascii	"LV_SIGNAL_LEAVE\000"
 16879      49474E41 
 16879      4C5F4C45 
 16879      41564500 
 16880              	.LASF91:
 16881 0409 5F6C765F 		.ascii	"_lv_anim_path_t\000"
 16881      616E696D 
 16881      5F706174 
 16881      685F7400 
 16882              	.LASF434:
 16883 0419 4C565F53 		.ascii	"LV_SIGNAL_PRESSED\000"
 16883      49474E41 
 16883      4C5F5052 
 16883      45535345 
 16883      4400
 16884              	.LASF689:
 16885 042b 6C765F6F 		.ascii	"lv_obj_get_width\000"
 16885      626A5F67 
 16885      65745F77 
 16885      69647468 
 16885      00
 16886              	.LASF336:
 16887 043c 74797065 		.ascii	"type\000"
 16887      00
 16888              	.LASF752:
 16889 0441 6C765F6F 		.ascii	"lv_obj_set_drag_dir\000"
 16889      626A5F73 
 16889      65745F64 
 16889      7261675F 
 16889      64697200 
 16890              	.LASF409:
ARM GAS  C:\Users\strap\AppData\Local\Temp\ccTzHSZB.s 			page 344


 16891 0455 4C565F45 		.ascii	"LV_EVENT_GESTURE\000"
 16891      56454E54 
 16891      5F474553 
 16891      54555245 
 16891      00
 16892              	.LASF402:
 16893 0466 4C565F45 		.ascii	"LV_EVENT_LONG_PRESSED\000"
 16893      56454E54 
 16893      5F4C4F4E 
 16893      475F5052 
 16893      45535345 
 16894              	.LASF28:
 16895 047c 6C765F64 		.ascii	"lv_disp_drv_user_data_t\000"
 16895      6973705F 
 16895      6472765F 
 16895      75736572 
 16895      5F646174 
 16896              	.LASF138:
 16897 0494 4C565F53 		.ascii	"LV_STYLE_BORDER_WIDTH\000"
 16897      54594C45 
 16897      5F424F52 
 16897      4445525F 
 16897      57494454 
 16898              	.LASF677:
 16899 04aa 6C765F74 		.ascii	"lv_tabview_get_btns_pos\000"
 16899      61627669 
 16899      65775F67 
 16899      65745F62 
 16899      746E735F 
 16900              	.LASF299:
 16901 04c2 6578745F 		.ascii	"ext_attr\000"
 16901      61747472 
 16901      00
 16902              	.LASF335:
 16903 04cb 5F6C765F 		.ascii	"_lv_indev_drv_t\000"
 16903      696E6465 
 16903      765F6472 
 16903      765F7400 
 16904              	.LASF575:
 16905 04db 636F6E74 		.ascii	"cont\000"
 16905      00
 16906              	.LASF556:
 16907 04e0 4C565F54 		.ascii	"LV_THEME_OBJ\000"
 16907      48454D45 
 16907      5F4F424A 
 16907      00
 16908              	.LASF116:
 16909 04ed 4C565F53 		.ascii	"LV_STYLE_SIZE\000"
 16909      54594C45 
 16909      5F53495A 
 16909      4500
 16910              	.LASF221:
 16911 04fb 7061645F 		.ascii	"pad_all_zero\000"
 16911      616C6C5F 
 16911      7A65726F 
 16911      00
 16912              	.LASF249:
ARM GAS  C:\Users\strap\AppData\Local\Temp\ccTzHSZB.s 			page 345


 16913 0508 7072696F 		.ascii	"prio\000"
 16913      00
 16914              	.LASF279:
 16915 050d 7363725F 		.ascii	"scr_ll\000"
 16915      6C6C00
 16916              	.LASF331:
 16917 0514 706F696E 		.ascii	"point\000"
 16917      7400
 16918              	.LASF201:
 16919 051a 4C565F53 		.ascii	"LV_STYLE_SCALE_WIDTH\000"
 16919      54594C45 
 16919      5F534341 
 16919      4C455F57 
 16919      49445448 
 16920              	.LASF525:
 16921 052f 62746E73 		.ascii	"btns_pos\000"
 16921      5F706F73 
 16921      00
 16922              	.LASF159:
 16923 0538 4C565F53 		.ascii	"LV_STYLE_PATTERN_OPA\000"
 16923      54594C45 
 16923      5F504154 
 16923      5445524E 
 16923      5F4F5041 
 16924              	.LASF156:
 16925 054d 4C565F53 		.ascii	"LV_STYLE_PATTERN_BLEND_MODE\000"
 16925      54594C45 
 16925      5F504154 
 16925      5445524E 
 16925      5F424C45 
 16926              	.LASF1:
 16927 0569 5F5F7569 		.ascii	"__uint8_t\000"
 16927      6E74385F 
 16927      7400
 16928              	.LASF114:
 16929 0573 4C565F53 		.ascii	"LV_STYLE_RADIUS\000"
 16929      54594C45 
 16929      5F524144 
 16929      49555300 
 16930              	.LASF741:
 16931 0583 6C765F62 		.ascii	"lv_btnmatrix_set_map\000"
 16931      746E6D61 
 16931      74726978 
 16931      5F736574 
 16931      5F6D6170 
 16932              	.LASF542:
 16933 0598 62757474 		.ascii	"button_areas\000"
 16933      6F6E5F61 
 16933      72656173 
 16933      00
 16934              	.LASF263:
 16935 05a5 7665725F 		.ascii	"ver_res\000"
 16935      72657300 
 16936              	.LASF623:
 16937 05ad 62746E6D 		.ascii	"btnm_ext\000"
 16937      5F657874 
 16937      00
ARM GAS  C:\Users\strap\AppData\Local\Temp\ccTzHSZB.s 			page 346


 16938              	.LASF521:
 16939 05b6 706F696E 		.ascii	"point_last\000"
 16939      745F6C61 
 16939      737400
 16940              	.LASF472:
 16941 05c1 72657375 		.ascii	"result\000"
 16941      6C7400
 16942              	.LASF155:
 16943 05c8 4C565F53 		.ascii	"LV_STYLE_SHADOW_OPA\000"
 16943      54594C45 
 16943      5F534841 
 16943      444F575F 
 16943      4F504100 
 16944              	.LASF718:
 16945 05dc 6C765F65 		.ascii	"lv_event_send\000"
 16945      76656E74 
 16945      5F73656E 
 16945      6400
 16946              	.LASF691:
 16947 05ea 6C765F6F 		.ascii	"lv_obj_get_height\000"
 16947      626A5F67 
 16947      65745F68 
 16947      65696768 
 16947      7400
 16948              	.LASF118:
 16949 05fc 4C565F53 		.ascii	"LV_STYLE_TRANSFORM_HEIGHT\000"
 16949      54594C45 
 16949      5F545241 
 16949      4E53464F 
 16949      524D5F48 
 16950              	.LASF432:
 16951 0616 4C565F53 		.ascii	"LV_SIGNAL_GET_STATE_DSC\000"
 16951      49474E41 
 16951      4C5F4745 
 16951      545F5354 
 16951      4154455F 
 16952              	.LASF200:
 16953 062e 4C565F53 		.ascii	"LV_STYLE_TRANSITION_PATH\000"
 16953      54594C45 
 16953      5F545241 
 16953      4E534954 
 16953      494F4E5F 
 16954              	.LASF125:
 16955 0647 4C565F53 		.ascii	"LV_STYLE_PAD_RIGHT\000"
 16955      54594C45 
 16955      5F504144 
 16955      5F524947 
 16955      485400
 16956              	.LASF618:
 16957 065a 62675F74 		.ascii	"bg_top\000"
 16957      6F7000
 16958              	.LASF307:
 16959 0661 68696464 		.ascii	"hidden\000"
 16959      656E00
 16960              	.LASF676:
 16961 0668 636F7079 		.ascii	"copy_tab\000"
 16961      5F746162 
ARM GAS  C:\Users\strap\AppData\Local\Temp\ccTzHSZB.s 			page 347


 16961      00
 16962              	.LASF291:
 16963 0671 6C617374 		.ascii	"last_activity_time\000"
 16963      5F616374 
 16963      69766974 
 16963      795F7469 
 16963      6D6500
 16964              	.LASF9:
 16965 0684 6C6F6E67 		.ascii	"long int\000"
 16965      20696E74 
 16965      00
 16966              	.LASF206:
 16967 068d 4C565F53 		.ascii	"LV_STYLE_SCALE_END_COLOR\000"
 16967      54594C45 
 16967      5F534341 
 16967      4C455F45 
 16967      4E445F43 
 16968              	.LASF266:
 16969 06a6 726F7461 		.ascii	"rotated\000"
 16969      74656400 
 16970              	.LASF636:
 16971 06ae 6C765F74 		.ascii	"lv_tabview_get_anim_time\000"
 16971      61627669 
 16971      65775F67 
 16971      65745F61 
 16971      6E696D5F 
 16972              	.LASF686:
 16973 06c7 5F6C765F 		.ascii	"_lv_obj_get_style_int\000"
 16973      6F626A5F 
 16973      6765745F 
 16973      7374796C 
 16973      655F696E 
 16974              	.LASF360:
 16975 06dd 6C617374 		.ascii	"last_state\000"
 16975      5F737461 
 16975      746500
 16976              	.LASF462:
 16977 06e8 4C565F53 		.ascii	"LV_STATE_HOVERED\000"
 16977      54415445 
 16977      5F484F56 
 16977      45524544 
 16977      00
 16978              	.LASF747:
 16979 06f9 6C765F62 		.ascii	"lv_btnmatrix_create\000"
 16979      746E6D61 
 16979      74726978 
 16979      5F637265 
 16979      61746500 
 16980              	.LASF287:
 16981 070d 62675F6F 		.ascii	"bg_opa\000"
 16981      706100
 16982              	.LASF576:
 16983 0714 6C765F6F 		.ascii	"lv_obj_get_style_text_font\000"
 16983      626A5F67 
 16983      65745F73 
 16983      74796C65 
 16983      5F746578 
ARM GAS  C:\Users\strap\AppData\Local\Temp\ccTzHSZB.s 			page 348


 16984              	.LASF465:
 16985 072f 6C765F73 		.ascii	"lv_state_t\000"
 16985      74617465 
 16985      5F7400
 16986              	.LASF482:
 16987 073a 4C565F4C 		.ascii	"LV_LAYOUT_ROW_BOTTOM\000"
 16987      41594F55 
 16987      545F524F 
 16987      575F424F 
 16987      54544F4D 
 16988              	.LASF538:
 16989 074f 4C565F42 		.ascii	"LV_BTNMATRIX_CTRL_CHECK_STATE\000"
 16989      544E4D41 
 16989      54524958 
 16989      5F435452 
 16989      4C5F4348 
 16990              	.LASF45:
 16991 076d 4C565F41 		.ascii	"LV_ALIGN_IN_BOTTOM_MID\000"
 16991      4C49474E 
 16991      5F494E5F 
 16991      424F5454 
 16991      4F4D5F4D 
 16992              	.LASF705:
 16993 0784 6C765F61 		.ascii	"lv_anim_init\000"
 16993      6E696D5F 
 16993      696E6974 
 16993      00
 16994              	.LASF468:
 16995 0791 5F4C565F 		.ascii	"_LV_OBJ_PART_VIRTUAL_LAST\000"
 16995      4F424A5F 
 16995      50415254 
 16995      5F564952 
 16995      5455414C 
 16996              	.LASF492:
 16997 07ab 4C565F46 		.ascii	"LV_FIT_MAX\000"
 16997      49545F4D 
 16997      415800
 16998              	.LASF673:
 16999 07b6 636F7079 		.ascii	"copy\000"
 16999      00
 17000              	.LASF585:
 17001 07bb 61726561 		.ascii	"area_p\000"
 17001      5F7000
 17002              	.LASF216:
 17003 07c2 69676E6F 		.ascii	"ignore_cache\000"
 17003      72655F63 
 17003      61636865 
 17003      00
 17004              	.LASF220:
 17005 07cf 7472616E 		.ascii	"transform_all_zero\000"
 17005      73666F72 
 17005      6D5F616C 
 17005      6C5F7A65 
 17005      726F00
 17006              	.LASF758:
 17007 07e2 474E5520 		.ascii	"GNU C11 5.4.1 20160609 (release) [ARM/embedded-5-br"
 17007      43313120 
ARM GAS  C:\Users\strap\AppData\Local\Temp\ccTzHSZB.s 			page 349


 17007      352E342E 
 17007      31203230 
 17007      31363036 
 17008 0815 616E6368 		.ascii	"anch revision 237715] -mcpu=cortex-m3 -mthumb -g -O"
 17008      20726576 
 17008      6973696F 
 17008      6E203233 
 17008      37373135 
 17009 0848 67202D66 		.ascii	"g -ffunction-sections -ffat-lto-objects\000"
 17009      66756E63 
 17009      74696F6E 
 17009      2D736563 
 17009      74696F6E 
 17010              	.LASF240:
 17011 0870 68656164 		.ascii	"head\000"
 17011      00
 17012              	.LASF209:
 17013 0875 7374796C 		.ascii	"style_list\000"
 17013      655F6C69 
 17013      737400
 17014              	.LASF143:
 17015 0880 4C565F53 		.ascii	"LV_STYLE_BORDER_OPA\000"
 17015      54594C45 
 17015      5F424F52 
 17015      4445525F 
 17015      4F504100 
 17016              	.LASF568:
 17017 0894 4C565F54 		.ascii	"LV_THEME_SPINBOX_BTN\000"
 17017      48454D45 
 17017      5F535049 
 17017      4E424F58 
 17017      5F42544E 
 17018              	.LASF222:
 17019 08a9 6D617267 		.ascii	"margin_all_zero\000"
 17019      696E5F61 
 17019      6C6C5F7A 
 17019      65726F00 
 17020              	.LASF194:
 17021 08b9 4C565F53 		.ascii	"LV_STYLE_TRANSITION_PROP_1\000"
 17021      54594C45 
 17021      5F545241 
 17021      4E534954 
 17021      494F4E5F 
 17022              	.LASF195:
 17023 08d4 4C565F53 		.ascii	"LV_STYLE_TRANSITION_PROP_2\000"
 17023      54594C45 
 17023      5F545241 
 17023      4E534954 
 17023      494F4E5F 
 17024              	.LASF196:
 17025 08ef 4C565F53 		.ascii	"LV_STYLE_TRANSITION_PROP_3\000"
 17025      54594C45 
 17025      5F545241 
 17025      4E534954 
 17025      494F4E5F 
 17026              	.LASF197:
 17027 090a 4C565F53 		.ascii	"LV_STYLE_TRANSITION_PROP_4\000"
ARM GAS  C:\Users\strap\AppData\Local\Temp\ccTzHSZB.s 			page 350


 17027      54594C45 
 17027      5F545241 
 17027      4E534954 
 17027      494F4E5F 
 17028              	.LASF198:
 17029 0925 4C565F53 		.ascii	"LV_STYLE_TRANSITION_PROP_5\000"
 17029      54594C45 
 17029      5F545241 
 17029      4E534954 
 17029      494F4E5F 
 17030              	.LASF199:
 17031 0940 4C565F53 		.ascii	"LV_STYLE_TRANSITION_PROP_6\000"
 17031      54594C45 
 17031      5F545241 
 17031      4E534954 
 17031      494F4E5F 
 17032              	.LASF105:
 17033 095b 6561726C 		.ascii	"early_apply\000"
 17033      795F6170 
 17033      706C7900 
 17034              	.LASF382:
 17035 0967 66726F7A 		.ascii	"frozen\000"
 17035      656E00
 17036              	.LASF356:
 17037 096e 67657374 		.ascii	"gesture_sum\000"
 17037      7572655F 
 17037      73756D00 
 17038              	.LASF544:
 17039 097a 7374796C 		.ascii	"style_btn\000"
 17039      655F6274 
 17039      6E00
 17040              	.LASF130:
 17041 0984 4C565F53 		.ascii	"LV_STYLE_MARGIN_RIGHT\000"
 17041      54594C45 
 17041      5F4D4152 
 17041      47494E5F 
 17041      52494748 
 17042              	.LASF514:
 17043 099a 4C565F54 		.ascii	"LV_TABVIEW_TAB_POS_LEFT\000"
 17043      41425649 
 17043      45575F54 
 17043      41425F50 
 17043      4F535F4C 
 17044              	.LASF154:
 17045 09b2 4C565F53 		.ascii	"LV_STYLE_SHADOW_COLOR\000"
 17045      54594C45 
 17045      5F534841 
 17045      444F575F 
 17045      434F4C4F 
 17046              	.LASF208:
 17047 09c8 6C765F73 		.ascii	"lv_style_int_t\000"
 17047      74796C65 
 17047      5F696E74 
 17047      5F7400
 17048              	.LASF699:
 17049 09d7 6C765F6F 		.ascii	"lv_obj_clean\000"
 17049      626A5F63 
ARM GAS  C:\Users\strap\AppData\Local\Temp\ccTzHSZB.s 			page 351


 17049      6C65616E 
 17049      00
 17050              	.LASF595:
 17051 09e4 70616765 		.ascii	"page\000"
 17051      00
 17052              	.LASF210:
 17053 09e9 7374796C 		.ascii	"style_cnt\000"
 17053      655F636E 
 17053      7400
 17054              	.LASF215:
 17055 09f3 76616C69 		.ascii	"valid_cache\000"
 17055      645F6361 
 17055      63686500 
 17056              	.LASF269:
 17057 09ff 7365745F 		.ascii	"set_px_cb\000"
 17057      70785F63 
 17057      6200
 17058              	.LASF2:
 17059 0a09 7369676E 		.ascii	"signed char\000"
 17059      65642063 
 17059      68617200 
 17060              	.LASF430:
 17061 0a15 4C565F53 		.ascii	"LV_SIGNAL_GET_TYPE\000"
 17061      49474E41 
 17061      4C5F4745 
 17061      545F5459 
 17061      504500
 17062              	.LASF18:
 17063 0a28 75696E74 		.ascii	"uint8_t\000"
 17063      385F7400 
 17064              	.LASF85:
 17065 0a30 4C565F41 		.ascii	"LV_ANIM_OFF\000"
 17065      4E494D5F 
 17065      4F464600 
 17066              	.LASF590:
 17067 0a3c 64757261 		.ascii	"duration\000"
 17067      74696F6E 
 17067      00
 17068              	.LASF675:
 17069 0a45 6E65775F 		.ascii	"new_tab\000"
 17069      74616200 
 17070              	.LASF134:
 17071 0a4d 4C565F53 		.ascii	"LV_STYLE_BG_GRAD_DIR\000"
 17071      54594C45 
 17071      5F42475F 
 17071      47524144 
 17071      5F444952 
 17072              	.LASF69:
 17073 0a62 6765745F 		.ascii	"get_glyph_bitmap\000"
 17073      676C7970 
 17073      685F6269 
 17073      746D6170 
 17073      00
 17074              	.LASF94:
 17075 0a73 73746172 		.ascii	"start_cb\000"
 17075      745F6362 
 17075      00
ARM GAS  C:\Users\strap\AppData\Local\Temp\ccTzHSZB.s 			page 352


 17076              	.LASF628:
 17077 0a7c 7363726C 		.ascii	"scrl\000"
 17077      00
 17078              	.LASF79:
 17079 0a81 626C7565 		.ascii	"blue\000"
 17079      00
 17080              	.LASF487:
 17081 0a86 5F4C565F 		.ascii	"_LV_LAYOUT_LAST\000"
 17081      4C41594F 
 17081      55545F4C 
 17081      41535400 
 17082              	.LASF439:
 17083 0a96 4C565F53 		.ascii	"LV_SIGNAL_LONG_PRESS_REP\000"
 17083      49474E41 
 17083      4C5F4C4F 
 17083      4E475F50 
 17083      52455353 
 17084              	.LASF247:
 17085 0aaf 7461736B 		.ascii	"task_cb\000"
 17085      5F636200 
 17086              	.LASF522:
 17087 0ab7 7461625F 		.ascii	"tab_cur\000"
 17087      63757200 
 17088              	.LASF502:
 17089 0abf 4C565F53 		.ascii	"LV_SCROLLBAR_MODE_AUTO\000"
 17089      43524F4C 
 17089      4C424152 
 17089      5F4D4F44 
 17089      455F4155 
 17090              	.LASF742:
 17091 0ad6 6C765F63 		.ascii	"lv_cont_set_layout\000"
 17091      6F6E745F 
 17091      7365745F 
 17091      6C61796F 
 17091      757400
 17092              	.LASF190:
 17093 0ae9 4C565F53 		.ascii	"LV_STYLE_IMAGE_OPA\000"
 17093      54594C45 
 17093      5F494D41 
 17093      47455F4F 
 17093      504100
 17094              	.LASF3:
 17095 0afc 756E7369 		.ascii	"unsigned char\000"
 17095      676E6564 
 17095      20636861 
 17095      7200
 17096              	.LASF282:
 17097 0b0a 746F705F 		.ascii	"top_layer\000"
 17097      6C617965 
 17097      7200
 17098              	.LASF505:
 17099 0b14 4C565F50 		.ascii	"LV_PAGE_PART_BG\000"
 17099      4147455F 
 17099      50415254 
 17099      5F424700 
 17100              	.LASF608:
 17101 0b24 7461625F 		.ascii	"tab_right\000"
ARM GAS  C:\Users\strap\AppData\Local\Temp\ccTzHSZB.s 			page 353


 17101      72696768 
 17101      7400
 17102              	.LASF262:
 17103 0b2e 686F725F 		.ascii	"hor_res\000"
 17103      72657300 
 17104              	.LASF429:
 17105 0b36 4C565F53 		.ascii	"LV_SIGNAL_REFR_EXT_DRAW_PAD\000"
 17105      49474E41 
 17105      4C5F5245 
 17105      46525F45 
 17105      58545F44 
 17106              	.LASF312:
 17107 0b52 64726167 		.ascii	"drag_dir\000"
 17107      5F646972 
 17107      00
 17108              	.LASF734:
 17109 0b5b 6C765F62 		.ascii	"lv_btnmatrix_set_focused_btn\000"
 17109      746E6D61 
 17109      74726978 
 17109      5F736574 
 17109      5F666F63 
 17110              	.LASF704:
 17111 0b78 6C765F6F 		.ascii	"lv_obj_get_child_back\000"
 17111      626A5F67 
 17111      65745F63 
 17111      68696C64 
 17111      5F626163 
 17112              	.LASF117:
 17113 0b8e 4C565F53 		.ascii	"LV_STYLE_TRANSFORM_WIDTH\000"
 17113      54594C45 
 17113      5F545241 
 17113      4E53464F 
 17113      524D5F57 
 17114              	.LASF202:
 17115 0ba7 4C565F53 		.ascii	"LV_STYLE_SCALE_BORDER_WIDTH\000"
 17115      54594C45 
 17115      5F534341 
 17115      4C455F42 
 17115      4F524445 
 17116              	.LASF65:
 17117 0bc3 6F66735F 		.ascii	"ofs_x\000"
 17117      7800
 17118              	.LASF66:
 17119 0bc9 6F66735F 		.ascii	"ofs_y\000"
 17119      7900
 17120              	.LASF384:
 17121 0bcf 636C6963 		.ascii	"click_focus\000"
 17121      6B5F666F 
 17121      63757300 
 17122              	.LASF311:
 17123 0bdb 666F6375 		.ascii	"focus_parent\000"
 17123      735F7061 
 17123      72656E74 
 17123      00
 17124              	.LASF483:
 17125 0be8 4C565F4C 		.ascii	"LV_LAYOUT_PRETTY_TOP\000"
 17125      41594F55 
ARM GAS  C:\Users\strap\AppData\Local\Temp\ccTzHSZB.s 			page 354


 17125      545F5052 
 17125      45545459 
 17125      5F544F50 
 17126              	.LASF495:
 17127 0bfd 4C565F43 		.ascii	"LV_CONT_PART_MAIN\000"
 17127      4F4E545F 
 17127      50415254 
 17127      5F4D4149 
 17127      4E00
 17128              	.LASF300:
 17129 0c0f 6578745F 		.ascii	"ext_click_pad_hor\000"
 17129      636C6963 
 17129      6B5F7061 
 17129      645F686F 
 17129      7200
 17130              	.LASF257:
 17131 0c21 666C7573 		.ascii	"flushing_last\000"
 17131      68696E67 
 17131      5F6C6173 
 17131      7400
 17132              	.LASF75:
 17133 0c2f 5F426F6F 		.ascii	"_Bool\000"
 17133      6C00
 17134              	.LASF450:
 17135 0c35 6C765F73 		.ascii	"lv_signal_cb_t\000"
 17135      69676E61 
 17135      6C5F6362 
 17135      5F7400
 17136              	.LASF289:
 17137 0c44 696E765F 		.ascii	"inv_area_joined\000"
 17137      61726561 
 17137      5F6A6F69 
 17137      6E656400 
 17138              	.LASF231:
 17139 0c54 73686164 		.ascii	"shadow_width_zero\000"
 17139      6F775F77 
 17139      69647468 
 17139      5F7A6572 
 17139      6F00
 17140              	.LASF642:
 17141 0c66 696E6469 		.ascii	"indic_pos\000"
 17141      635F706F 
 17141      7300
 17142              	.LASF278:
 17143 0c70 72656672 		.ascii	"refr_task\000"
 17143      5F746173 
 17143      6B00
 17144              	.LASF34:
 17145 0c7a 63686172 		.ascii	"char\000"
 17145      00
 17146              	.LASF633:
 17147 0c7f 6C765F74 		.ascii	"lv_tabview_get_tab_act\000"
 17147      61627669 
 17147      65775F67 
 17147      65745F74 
 17147      61625F61 
 17148              	.LASF332:
ARM GAS  C:\Users\strap\AppData\Local\Temp\ccTzHSZB.s 			page 355


 17149 0c96 62746E5F 		.ascii	"btn_id\000"
 17149      696400
 17150              	.LASF110:
 17151 0c9d 6C765F61 		.ascii	"lv_anim_exec_xcb_t\000"
 17151      6E696D5F 
 17151      65786563 
 17151      5F786362 
 17151      5F7400
 17152              	.LASF72:
 17153 0cb0 756E6465 		.ascii	"underline_position\000"
 17153      726C696E 
 17153      655F706F 
 17153      73697469 
 17153      6F6E00
 17154              	.LASF473:
 17155 0cc3 6C765F67 		.ascii	"lv_get_style_info_t\000"
 17155      65745F73 
 17155      74796C65 
 17155      5F696E66 
 17155      6F5F7400 
 17156              	.LASF697:
 17157 0cd7 6C765F6F 		.ascii	"lv_obj_set_height\000"
 17157      626A5F73 
 17157      65745F68 
 17157      65696768 
 17157      7400
 17158              	.LASF189:
 17159 0ce9 4C565F53 		.ascii	"LV_STYLE_IMAGE_RECOLOR\000"
 17159      54594C45 
 17159      5F494D41 
 17159      47455F52 
 17159      45434F4C 
 17160              	.LASF158:
 17161 0d00 4C565F53 		.ascii	"LV_STYLE_PATTERN_RECOLOR\000"
 17161      54594C45 
 17161      5F504154 
 17161      5445524E 
 17161      5F524543 
 17162              	.LASF524:
 17163 0d19 616E696D 		.ascii	"anim_time\000"
 17163      5F74696D 
 17163      6500
 17164              	.LASF351:
 17165 0d23 64726167 		.ascii	"drag_throw_vect\000"
 17165      5F746872 
 17165      6F775F76 
 17165      65637400 
 17166              	.LASF631:
 17167 0d33 6E616D65 		.ascii	"name\000"
 17167      00
 17168              	.LASF193:
 17169 0d38 4C565F53 		.ascii	"LV_STYLE_TRANSITION_DELAY\000"
 17169      54594C45 
 17169      5F545241 
 17169      4E534954 
 17169      494F4E5F 
 17170              	.LASF148:
ARM GAS  C:\Users\strap\AppData\Local\Temp\ccTzHSZB.s 			page 356


 17171 0d52 4C565F53 		.ascii	"LV_STYLE_OUTLINE_OPA\000"
 17171      54594C45 
 17171      5F4F5554 
 17171      4C494E45 
 17171      5F4F5041 
 17172              	.LASF265:
 17173 0d67 616E7469 		.ascii	"antialiasing\000"
 17173      616C6961 
 17173      73696E67 
 17173      00
 17174              	.LASF244:
 17175 0d74 5F6C765F 		.ascii	"_lv_task_t\000"
 17175      7461736B 
 17175      5F7400
 17176              	.LASF6:
 17177 0d7f 5F5F7569 		.ascii	"__uint16_t\000"
 17177      6E743136 
 17177      5F7400
 17178              	.LASF684:
 17179 0d8a 6C765F6F 		.ascii	"lv_obj_get_ext_attr\000"
 17179      626A5F67 
 17179      65745F65 
 17179      78745F61 
 17179      74747200 
 17180              	.LASF635:
 17181 0d9e 6C765F74 		.ascii	"lv_tabview_get_tab\000"
 17181      61627669 
 17181      65775F67 
 17181      65745F74 
 17181      616200
 17182              	.LASF746:
 17183 0db1 6C765F64 		.ascii	"lv_disp_get_ver_res\000"
 17183      6973705F 
 17183      6765745F 
 17183      7665725F 
 17183      72657300 
 17184              	.LASF526:
 17185 0dc5 6C765F74 		.ascii	"lv_tabview_ext_t\000"
 17185      61627669 
 17185      65775F65 
 17185      78745F74 
 17185      00
 17186              	.LASF56:
 17187 0dd6 4C565F41 		.ascii	"LV_ALIGN_OUT_LEFT_MID\000"
 17187      4C49474E 
 17187      5F4F5554 
 17187      5F4C4546 
 17187      545F4D49 
 17188              	.LASF88:
 17189 0dec 6C765F61 		.ascii	"lv_anim_value_t\000"
 17189      6E696D5F 
 17189      76616C75 
 17189      655F7400 
 17190              	.LASF672:
 17191 0dfc 6C765F74 		.ascii	"lv_tabview_create\000"
 17191      61627669 
 17191      65775F63 
ARM GAS  C:\Users\strap\AppData\Local\Temp\ccTzHSZB.s 			page 357


 17191      72656174 
 17191      6500
 17192              	.LASF135:
 17193 0e0e 4C565F53 		.ascii	"LV_STYLE_BG_COLOR\000"
 17193      54594C45 
 17193      5F42475F 
 17193      434F4C4F 
 17193      5200
 17194              	.LASF433:
 17195 0e20 4C565F53 		.ascii	"LV_SIGNAL_HIT_TEST\000"
 17195      49474E41 
 17195      4C5F4849 
 17195      545F5445 
 17195      535400
 17196              	.LASF374:
 17197 0e33 70726F63 		.ascii	"proc\000"
 17197      00
 17198              	.LASF330:
 17199 0e38 6C765F67 		.ascii	"lv_gesture_dir_t\000"
 17199      65737475 
 17199      72655F64 
 17199      69725F74 
 17199      00
 17200              	.LASF748:
 17201 0e49 6C765F6F 		.ascii	"lv_obj_create\000"
 17201      626A5F63 
 17201      72656174 
 17201      6500
 17202              	.LASF680:
 17203 0e57 70616765 		.ascii	"page_signal\000"
 17203      5F736967 
 17203      6E616C00 
 17204              	.LASF298:
 17205 0e63 64657369 		.ascii	"design_cb\000"
 17205      676E5F63 
 17205      6200
 17206              	.LASF640:
 17207 0e6d 7363726C 		.ascii	"scrl_inner\000"
 17207      5F696E6E 
 17207      657200
 17208              	.LASF552:
 17209 0e78 4C565F42 		.ascii	"LV_BTNMATRIX_PART_BG\000"
 17209      544E4D41 
 17209      54524958 
 17209      5F504152 
 17209      545F4247 
 17210              	.LASF715:
 17211 0e8d 6C765F62 		.ascii	"lv_btnmatrix_get_btn_ctrl\000"
 17211      746E6D61 
 17211      74726978 
 17211      5F676574 
 17211      5F62746E 
 17212              	.LASF731:
 17213 0ea7 6C765F6F 		.ascii	"lv_obj_set_state\000"
 17213      626A5F73 
 17213      65745F73 
 17213      74617465 
ARM GAS  C:\Users\strap\AppData\Local\Temp\ccTzHSZB.s 			page 358


 17213      00
 17214              	.LASF671:
 17215 0eb8 6C765F70 		.ascii	"lv_page_set_scrollable_fit2\000"
 17215      6167655F 
 17215      7365745F 
 17215      7363726F 
 17215      6C6C6162 
 17216              	.LASF594:
 17217 0ed4 6C765F70 		.ascii	"lv_page_set_scrollable_fit4\000"
 17217      6167655F 
 17217      7365745F 
 17217      7363726F 
 17217      6C6C6162 
 17218              	.LASF461:
 17219 0ef0 4C565F53 		.ascii	"LV_STATE_EDITED\000"
 17219      54415445 
 17219      5F454449 
 17219      54454400 
 17220              	.LASF637:
 17221 0f00 6C765F74 		.ascii	"lv_tabview_set_tab_act\000"
 17221      61627669 
 17221      65775F73 
 17221      65745F74 
 17221      61625F61 
 17222              	.LASF256:
 17223 0f17 666C7573 		.ascii	"flushing\000"
 17223      68696E67 
 17223      00
 17224              	.LASF446:
 17225 0f20 4C565F53 		.ascii	"LV_SIGNAL_DEFOCUS\000"
 17225      49474E41 
 17225      4C5F4445 
 17225      464F4355 
 17225      5300
 17226              	.LASF183:
 17227 0f32 4C565F53 		.ascii	"LV_STYLE_LINE_DASH_WIDTH\000"
 17227      54594C45 
 17227      5F4C494E 
 17227      455F4441 
 17227      53485F57 
 17228              	.LASF146:
 17229 0f4b 4C565F53 		.ascii	"LV_STYLE_OUTLINE_BLEND_MODE\000"
 17229      54594C45 
 17229      5F4F5554 
 17229      4C494E45 
 17229      5F424C45 
 17230              	.LASF685:
 17231 0f67 6C765F6F 		.ascii	"lv_obj_get_style_list\000"
 17231      626A5F67 
 17231      65745F73 
 17231      74796C65 
 17231      5F6C6973 
 17232              	.LASF95:
 17233 0f7d 72656164 		.ascii	"ready_cb\000"
 17233      795F6362 
 17233      00
 17234              	.LASF639:
ARM GAS  C:\Users\strap\AppData\Local\Temp\ccTzHSZB.s 			page 359


 17235 0f86 636F6E74 		.ascii	"cont_x\000"
 17235      5F7800
 17236              	.LASF643:
 17237 0f8d 62746E73 		.ascii	"btns_bg_inner\000"
 17237      5F62675F 
 17237      696E6E65 
 17237      7200
 17238              	.LASF479:
 17239 0f9b 4C565F4C 		.ascii	"LV_LAYOUT_COLUMN_RIGHT\000"
 17239      41594F55 
 17239      545F434F 
 17239      4C554D4E 
 17239      5F524947 
 17240              	.LASF735:
 17241 0fb2 6C765F63 		.ascii	"lv_cont_set_fit4\000"
 17241      6F6E745F 
 17241      7365745F 
 17241      66697434 
 17241      00
 17242              	.LASF362:
 17243 0fc3 706F696E 		.ascii	"pointer\000"
 17243      74657200 
 17244              	.LASF227:
 17245 0fcb 626F7264 		.ascii	"border_side_full\000"
 17245      65725F73 
 17245      6964655F 
 17245      66756C6C 
 17245      00
 17246              	.LASF314:
 17247 0fdc 67726F75 		.ascii	"group_p\000"
 17247      705F7000 
 17248              	.LASF406:
 17249 0fe4 4C565F45 		.ascii	"LV_EVENT_DRAG_BEGIN\000"
 17249      56454E54 
 17249      5F445241 
 17249      475F4245 
 17249      47494E00 
 17250              	.LASF603:
 17251 0ff8 7461625F 		.ascii	"tab_bg_left\000"
 17251      62675F6C 
 17251      65667400 
 17252              	.LASF165:
 17253 1004 4C565F53 		.ascii	"LV_STYLE_VALUE_OFS_X\000"
 17253      54594C45 
 17253      5F56414C 
 17253      55455F4F 
 17253      46535F58 
 17254              	.LASF166:
 17255 1019 4C565F53 		.ascii	"LV_STYLE_VALUE_OFS_Y\000"
 17255      54594C45 
 17255      5F56414C 
 17255      55455F4F 
 17255      46535F59 
 17256              	.LASF621:
 17257 102e 70616765 		.ascii	"pages\000"
 17257      7300
 17258              	.LASF305:
ARM GAS  C:\Users\strap\AppData\Local\Temp\ccTzHSZB.s 			page 360


 17259 1034 64726167 		.ascii	"drag_throw\000"
 17259      5F746872 
 17259      6F7700
 17260              	.LASF723:
 17261 103f 6C765F69 		.ascii	"lv_indev_get_point\000"
 17261      6E646576 
 17261      5F676574 
 17261      5F706F69 
 17261      6E7400
 17262              	.LASF719:
 17263 1052 6C765F69 		.ascii	"lv_indev_get_act\000"
 17263      6E646576 
 17263      5F676574 
 17263      5F616374 
 17263      00
 17264              	.LASF26:
 17265 1063 6C765F61 		.ascii	"lv_anim_user_data_t\000"
 17265      6E696D5F 
 17265      75736572 
 17265      5F646174 
 17265      615F7400 
 17266              	.LASF750:
 17267 1077 6C765F6F 		.ascii	"lv_obj_set_event_cb\000"
 17267      626A5F73 
 17267      65745F65 
 17267      76656E74 
 17267      5F636200 
 17268              	.LASF224:
 17269 108b 62675F6F 		.ascii	"bg_opa_transp\000"
 17269      70615F74 
 17269      72616E73 
 17269      7000
 17270              	.LASF394:
 17271 1099 6C765F62 		.ascii	"lv_bidi_dir_t\000"
 17271      6964695F 
 17271      6469725F 
 17271      7400
 17272              	.LASF230:
 17273 10a7 70617474 		.ascii	"pattern_img_null\000"
 17273      65726E5F 
 17273      696D675F 
 17273      6E756C6C 
 17273      00
 17274              	.LASF302:
 17275 10b8 6578745F 		.ascii	"ext_draw_pad\000"
 17275      64726177 
 17275      5F706164 
 17275      00
 17276              	.LASF120:
 17277 10c5 4C565F53 		.ascii	"LV_STYLE_TRANSFORM_ZOOM\000"
 17277      54594C45 
 17277      5F545241 
 17277      4E53464F 
 17277      524D5F5A 
 17278              	.LASF345:
 17279 10dd 6C6F6E67 		.ascii	"long_press_rep_time\000"
 17279      5F707265 
ARM GAS  C:\Users\strap\AppData\Local\Temp\ccTzHSZB.s 			page 361


 17279      73735F72 
 17279      65705F74 
 17279      696D6500 
 17280              	.LASF39:
 17281 10f1 6C765F61 		.ascii	"lv_area_t\000"
 17281      7265615F 
 17281      7400
 17282              	.LASF674:
 17283 10fb 636F7079 		.ascii	"copy_ext\000"
 17283      5F657874 
 17283      00
 17284              	.LASF144:
 17285 1104 4C565F53 		.ascii	"LV_STYLE_OUTLINE_WIDTH\000"
 17285      54594C45 
 17285      5F4F5554 
 17285      4C494E45 
 17285      5F574944 
 17286              	.LASF264:
 17287 111b 62756666 		.ascii	"buffer\000"
 17287      657200
 17288              	.LASF630:
 17289 1122 6C765F74 		.ascii	"lv_tabview_set_tab_name\000"
 17289      61627669 
 17289      65775F73 
 17289      65745F74 
 17289      61625F6E 
 17290              	.LASF711:
 17291 113a 6C765F6F 		.ascii	"lv_obj_set_x\000"
 17291      626A5F73 
 17291      65745F78 
 17291      00
 17292              	.LASF561:
 17293 1147 4C565F54 		.ascii	"LV_THEME_DROPDOWN\000"
 17293      48454D45 
 17293      5F44524F 
 17293      50444F57 
 17293      4E00
 17294              	.LASF391:
 17295 1159 4C565F42 		.ascii	"LV_BIDI_DIR_INHERIT\000"
 17295      4944495F 
 17295      4449525F 
 17295      494E4845 
 17295      52495400 
 17296              	.LASF404:
 17297 116d 4C565F45 		.ascii	"LV_EVENT_CLICKED\000"
 17297      56454E54 
 17297      5F434C49 
 17297      434B4544 
 17297      00
 17298              	.LASF560:
 17299 117e 4C565F54 		.ascii	"LV_THEME_CONT\000"
 17299      48454D45 
 17299      5F434F4E 
 17299      5400
 17300              	.LASF173:
 17301 118c 4C565F53 		.ascii	"LV_STYLE_TEXT_LINE_SPACE\000"
 17301      54594C45 
ARM GAS  C:\Users\strap\AppData\Local\Temp\ccTzHSZB.s 			page 362


 17301      5F544558 
 17301      545F4C49 
 17301      4E455F53 
 17302              	.LASF657:
 17303 11a5 706F696E 		.ascii	"point_act\000"
 17303      745F6163 
 17303      7400
 17304              	.LASF126:
 17305 11af 4C565F53 		.ascii	"LV_STYLE_PAD_INNER\000"
 17305      54594C45 
 17305      5F504144 
 17305      5F494E4E 
 17305      455200
 17306              	.LASF293:
 17307 11c2 70617265 		.ascii	"parent\000"
 17307      6E7400
 17308              	.LASF596:
 17309 11c9 6C656674 		.ascii	"left\000"
 17309      00
 17310              	.LASF322:
 17311 11ce 4C565F49 		.ascii	"LV_INDEV_TYPE_ENCODER\000"
 17311      4E444556 
 17311      5F545950 
 17311      455F454E 
 17311      434F4445 
 17312              	.LASF111:
 17313 11e4 6C765F61 		.ascii	"lv_anim_ready_cb_t\000"
 17313      6E696D5F 
 17313      72656164 
 17313      795F6362 
 17313      5F7400
 17314              	.LASF545:
 17315 11f7 62746E5F 		.ascii	"btn_cnt\000"
 17315      636E7400 
 17316              	.LASF417:
 17317 11ff 4C565F45 		.ascii	"LV_EVENT_APPLY\000"
 17317      56454E54 
 17317      5F415050 
 17317      4C5900
 17318              	.LASF317:
 17319 120e 7265616C 		.ascii	"realign\000"
 17319      69676E00 
 17320              	.LASF614:
 17321 1216 72656672 		.ascii	"refr_btns_size\000"
 17321      5F62746E 
 17321      735F7369 
 17321      7A6500
 17322              	.LASF204:
 17323 1225 4C565F53 		.ascii	"LV_STYLE_SCALE_END_LINE_WIDTH\000"
 17323      54594C45 
 17323      5F534341 
 17323      4C455F45 
 17323      4E445F4C 
 17324              	.LASF408:
 17325 1243 4C565F45 		.ascii	"LV_EVENT_DRAG_THROW_BEGIN\000"
 17325      56454E54 
 17325      5F445241 
ARM GAS  C:\Users\strap\AppData\Local\Temp\ccTzHSZB.s 			page 363


 17325      475F5448 
 17325      524F575F 
 17326              	.LASF178:
 17327 125d 4C565F53 		.ascii	"LV_STYLE_TEXT_SEL_BG_COLOR\000"
 17327      54594C45 
 17327      5F544558 
 17327      545F5345 
 17327      4C5F4247 
 17328              	.LASF387:
 17329 1278 6C765F69 		.ascii	"lv_indev_t\000"
 17329      6E646576 
 17329      5F7400
 17330              	.LASF46:
 17331 1283 4C565F41 		.ascii	"LV_ALIGN_IN_BOTTOM_RIGHT\000"
 17331      4C49474E 
 17331      5F494E5F 
 17331      424F5454 
 17331      4F4D5F52 
 17332              	.LASF54:
 17333 129c 4C565F41 		.ascii	"LV_ALIGN_OUT_BOTTOM_RIGHT\000"
 17333      4C49474E 
 17333      5F4F5554 
 17333      5F424F54 
 17333      544F4D5F 
 17334              	.LASF203:
 17335 12b6 4C565F53 		.ascii	"LV_STYLE_SCALE_END_BORDER_WIDTH\000"
 17335      54594C45 
 17335      5F534341 
 17335      4C455F45 
 17335      4E445F42 
 17336              	.LASF101:
 17337 12d6 706C6179 		.ascii	"playback_delay\000"
 17337      6261636B 
 17337      5F64656C 
 17337      617900
 17338              	.LASF371:
 17339 12e5 77616974 		.ascii	"wait_until_release\000"
 17339      5F756E74 
 17339      696C5F72 
 17339      656C6561 
 17339      736500
 17340              	.LASF78:
 17341 12f8 67726565 		.ascii	"green_h\000"
 17341      6E5F6800 
 17342              	.LASF123:
 17343 1300 4C565F53 		.ascii	"LV_STYLE_PAD_BOTTOM\000"
 17343      54594C45 
 17343      5F504144 
 17343      5F424F54 
 17343      544F4D00 
 17344              	.LASF80:
 17345 1314 67726565 		.ascii	"green_l\000"
 17345      6E5F6C00 
 17346              	.LASF255:
 17347 131c 61726561 		.ascii	"area\000"
 17347      00
 17348              	.LASF491:
ARM GAS  C:\Users\strap\AppData\Local\Temp\ccTzHSZB.s 			page 364


 17349 1321 4C565F46 		.ascii	"LV_FIT_PARENT\000"
 17349      49545F50 
 17349      4152454E 
 17349      5400
 17350              	.LASF361:
 17351 132f 6C617374 		.ascii	"last_key\000"
 17351      5F6B6579 
 17351      00
 17352              	.LASF226:
 17353 1338 626F7264 		.ascii	"border_width_zero\000"
 17353      65725F77 
 17353      69647468 
 17353      5F7A6572 
 17353      6F00
 17354              	.LASF137:
 17355 134a 4C565F53 		.ascii	"LV_STYLE_BG_OPA\000"
 17355      54594C45 
 17355      5F42475F 
 17355      4F504100 
 17356              	.LASF187:
 17357 135a 4C565F53 		.ascii	"LV_STYLE_LINE_OPA\000"
 17357      54594C45 
 17357      5F4C494E 
 17357      455F4F50 
 17357      4100
 17358              	.LASF207:
 17359 136c 6C765F73 		.ascii	"lv_style_t\000"
 17359      74796C65 
 17359      5F7400
 17360              	.LASF228:
 17361 1377 626F7264 		.ascii	"border_post_off\000"
 17361      65725F70 
 17361      6F73745F 
 17361      6F666600 
 17362              	.LASF132:
 17363 1387 4C565F53 		.ascii	"LV_STYLE_BG_MAIN_STOP\000"
 17363      54594C45 
 17363      5F42475F 
 17363      4D41494E 
 17363      5F53544F 
 17364              	.LASF370:
 17365 139d 64697361 		.ascii	"disabled\000"
 17365      626C6564 
 17365      00
 17366              	.LASF13:
 17367 13a6 5F5F7569 		.ascii	"__uint64_t\000"
 17367      6E743634 
 17367      5F7400
 17368              	.LASF431:
 17369 13b1 4C565F53 		.ascii	"LV_SIGNAL_GET_STYLE\000"
 17369      49474E41 
 17369      4C5F4745 
 17369      545F5354 
 17369      594C4500 
 17370              	.LASF53:
 17371 13c5 4C565F41 		.ascii	"LV_ALIGN_OUT_BOTTOM_MID\000"
 17371      4C49474E 
ARM GAS  C:\Users\strap\AppData\Local\Temp\ccTzHSZB.s 			page 365


 17371      5F4F5554 
 17371      5F424F54 
 17371      544F4D5F 
 17372              	.LASF413:
 17373 13dd 4C565F45 		.ascii	"LV_EVENT_LEAVE\000"
 17373      56454E54 
 17373      5F4C4541 
 17373      564500
 17374              	.LASF309:
 17375 13ec 6164765F 		.ascii	"adv_hittest\000"
 17375      68697474 
 17375      65737400 
 17376              	.LASF113:
 17377 13f8 6C765F61 		.ascii	"lv_anim_t\000"
 17377      6E696D5F 
 17377      7400
 17378              	.LASF11:
 17379 1402 6C6F6E67 		.ascii	"long unsigned int\000"
 17379      20756E73 
 17379      69676E65 
 17379      6420696E 
 17379      7400
 17380              	.LASF535:
 17381 1414 4C565F42 		.ascii	"LV_BTNMATRIX_CTRL_NO_REPEAT\000"
 17381      544E4D41 
 17381      54524958 
 17381      5F435452 
 17381      4C5F4E4F 
 17382              	.LASF607:
 17383 1430 7461625F 		.ascii	"tab_left\000"
 17383      6C656674 
 17383      00
 17384              	.LASF179:
 17385 1439 4C565F53 		.ascii	"LV_STYLE_TEXT_OPA\000"
 17385      54594C45 
 17385      5F544558 
 17385      545F4F50 
 17385      4100
 17386              	.LASF720:
 17387 144b 6C765F69 		.ascii	"lv_indev_get_type\000"
 17387      6E646576 
 17387      5F676574 
 17387      5F747970 
 17387      6500
 17388              	.LASF688:
 17389 145d 6C765F6F 		.ascii	"lv_obj_set_hidden\000"
 17389      626A5F73 
 17389      65745F68 
 17389      69646465 
 17389      6E00
 17390              	.LASF702:
 17391 146f 73747263 		.ascii	"strcpy\000"
 17391      707900
 17392              	.LASF541:
 17393 1476 6D61705F 		.ascii	"map_p\000"
 17393      7000
 17394              	.LASF476:
ARM GAS  C:\Users\strap\AppData\Local\Temp\ccTzHSZB.s 			page 366


 17395 147c 4C565F4C 		.ascii	"LV_LAYOUT_CENTER\000"
 17395      41594F55 
 17395      545F4345 
 17395      4E544552 
 17395      00
 17396              	.LASF698:
 17397 148d 6C765F6F 		.ascii	"lv_obj_align\000"
 17397      626A5F61 
 17397      6C69676E 
 17397      00
 17398              	.LASF31:
 17399 149a 6C765F6F 		.ascii	"lv_obj_user_data_t\000"
 17399      626A5F75 
 17399      7365725F 
 17399      64617461 
 17399      5F7400
 17400              	.LASF694:
 17401 14ad 6C765F6F 		.ascii	"lv_obj_get_child\000"
 17401      626A5F67 
 17401      65745F63 
 17401      68696C64 
 17401      00
 17402              	.LASF475:
 17403 14be 4C565F4C 		.ascii	"LV_LAYOUT_OFF\000"
 17403      41594F55 
 17403      545F4F46 
 17403      4600
 17404              	.LASF733:
 17405 14cc 6C765F73 		.ascii	"lv_signal_send\000"
 17405      69676E61 
 17405      6C5F7365 
 17405      6E6400
 17406              	.LASF546:
 17407 14db 62746E5F 		.ascii	"btn_id_pr\000"
 17407      69645F70 
 17407      7200
 17408              	.LASF259:
 17409 14e5 6C617374 		.ascii	"last_part\000"
 17409      5F706172 
 17409      7400
 17410              	.LASF667:
 17411 14ef 65646974 		.ascii	"editable\000"
 17411      61626C65 
 17411      00
 17412              	.LASF569:
 17413 14f8 4C565F54 		.ascii	"LV_THEME_TABVIEW\000"
 17413      48454D45 
 17413      5F544142 
 17413      56494557 
 17413      00
 17414              	.LASF47:
 17415 1509 4C565F41 		.ascii	"LV_ALIGN_IN_LEFT_MID\000"
 17415      4C49474E 
 17415      5F494E5F 
 17415      4C454654 
 17415      5F4D4944 
 17416              	.LASF652:
ARM GAS  C:\Users\strap\AppData\Local\Temp\ccTzHSZB.s 			page 367


 17417 151e 74616276 		.ascii	"tabview_scrl_signal\000"
 17417      6965775F 
 17417      7363726C 
 17417      5F736967 
 17417      6E616C00 
 17418              	.LASF182:
 17419 1532 4C565F53 		.ascii	"LV_STYLE_LINE_BLEND_MODE\000"
 17419      54594C45 
 17419      5F4C494E 
 17419      455F424C 
 17419      454E445F 
 17420              	.LASF481:
 17421 154b 4C565F4C 		.ascii	"LV_LAYOUT_ROW_MID\000"
 17421      41594F55 
 17421      545F524F 
 17421      575F4D49 
 17421      4400
 17422              	.LASF186:
 17423 155d 4C565F53 		.ascii	"LV_STYLE_LINE_COLOR\000"
 17423      54594C45 
 17423      5F4C494E 
 17423      455F434F 
 17423      4C4F5200 
 17424              	.LASF550:
 17425 1571 6F6E655F 		.ascii	"one_check\000"
 17425      63686563 
 17425      6B00
 17426              	.LASF445:
 17427 157b 4C565F53 		.ascii	"LV_SIGNAL_FOCUS\000"
 17427      49474E41 
 17427      4C5F464F 
 17427      43555300 
 17428              	.LASF507:
 17429 158b 4C565F50 		.ascii	"LV_PAGE_PART_EDGE_FLASH\000"
 17429      4147455F 
 17429      50415254 
 17429      5F454447 
 17429      455F464C 
 17430              	.LASF559:
 17431 15a3 4C565F54 		.ascii	"LV_THEME_CHECKBOX\000"
 17431      48454D45 
 17431      5F434845 
 17431      434B424F 
 17431      5800
 17432              	.LASF609:
 17433 15b5 7461625F 		.ascii	"tab_top\000"
 17433      746F7000 
 17434              	.LASF24:
 17435 15bd 75696E74 		.ascii	"uintptr_t\000"
 17435      7074725F 
 17435      7400
 17436              	.LASF464:
 17437 15c7 4C565F53 		.ascii	"LV_STATE_DISABLED\000"
 17437      54415445 
 17437      5F444953 
 17437      41424C45 
 17437      4400
ARM GAS  C:\Users\strap\AppData\Local\Temp\ccTzHSZB.s 			page 368


 17438              	.LASF416:
 17439 15d9 4C565F45 		.ascii	"LV_EVENT_REFRESH\000"
 17439      56454E54 
 17439      5F524546 
 17439      52455348 
 17439      00
 17440              	.LASF87:
 17441 15ea 6C765F61 		.ascii	"lv_anim_enable_t\000"
 17441      6E696D5F 
 17441      656E6162 
 17441      6C655F74 
 17441      00
 17442              	.LASF124:
 17443 15fb 4C565F53 		.ascii	"LV_STYLE_PAD_LEFT\000"
 17443      54594C45 
 17443      5F504144 
 17443      5F4C4546 
 17443      5400
 17444              	.LASF151:
 17445 160d 4C565F53 		.ascii	"LV_STYLE_SHADOW_OFS_Y\000"
 17445      54594C45 
 17445      5F534841 
 17445      444F575F 
 17445      4F46535F 
 17446              	.LASF261:
 17447 1623 5F646973 		.ascii	"_disp_drv_t\000"
 17447      705F6472 
 17447      765F7400 
 17448              	.LASF376:
 17449 162f 67726F75 		.ascii	"group\000"
 17449      7000
 17450              	.LASF337:
 17451 1635 72656164 		.ascii	"read_cb\000"
 17451      5F636200 
 17452              	.LASF589:
 17453 163d 6C765F61 		.ascii	"lv_anim_set_time\000"
 17453      6E696D5F 
 17453      7365745F 
 17453      74696D65 
 17453      00
 17454              	.LASF599:
 17455 164e 6C765F70 		.ascii	"lv_page_set_scrl_layout\000"
 17455      6167655F 
 17455      7365745F 
 17455      7363726C 
 17455      5F6C6179 
 17456              	.LASF632:
 17457 1666 6C765F74 		.ascii	"lv_tabview_set_anim_time\000"
 17457      61627669 
 17457      65775F73 
 17457      65745F61 
 17457      6E696D5F 
 17458              	.LASF716:
 17459 167f 6C765F62 		.ascii	"lv_btnmatrix_clear_btn_ctrl_all\000"
 17459      746E6D61 
 17459      74726978 
 17459      5F636C65 
ARM GAS  C:\Users\strap\AppData\Local\Temp\ccTzHSZB.s 			page 369


 17459      61725F62 
 17460              	.LASF347:
 17461 169f 6163745F 		.ascii	"act_point\000"
 17461      706F696E 
 17461      7400
 17462              	.LASF160:
 17463 16a9 4C565F53 		.ascii	"LV_STYLE_PATTERN_RECOLOR_OPA\000"
 17463      54594C45 
 17463      5F504154 
 17463      5445524E 
 17463      5F524543 
 17464              	.LASF467:
 17465 16c6 4C565F4F 		.ascii	"LV_OBJ_PART_MAIN\000"
 17465      424A5F50 
 17465      4152545F 
 17465      4D41494E 
 17465      00
 17466              	.LASF725:
 17467 16d7 6C765F69 		.ascii	"lv_indev_finish_drag\000"
 17467      6E646576 
 17467      5F66696E 
 17467      6973685F 
 17467      64726167 
 17468              	.LASF353:
 17469 16ec 6C617374 		.ascii	"last_obj\000"
 17469      5F6F626A 
 17469      00
 17470              	.LASF511:
 17471 16f5 4C565F54 		.ascii	"LV_TABVIEW_TAB_POS_NONE\000"
 17471      41425649 
 17471      45575F54 
 17471      41425F50 
 17471      4F535F4E 
 17472              	.LASF323:
 17473 170d 6C765F69 		.ascii	"lv_indev_type_t\000"
 17473      6E646576 
 17473      5F747970 
 17473      655F7400 
 17474              	.LASF448:
 17475 171d 4C565F53 		.ascii	"LV_SIGNAL_GET_EDITABLE\000"
 17475      49474E41 
 17475      4C5F4745 
 17475      545F4544 
 17475      49544142 
 17476              	.LASF234:
 17477 1734 74657874 		.ascii	"text_space_zero\000"
 17477      5F737061 
 17477      63655F7A 
 17477      65726F00 
 17478              	.LASF260:
 17479 1744 6C765F64 		.ascii	"lv_disp_buf_t\000"
 17479      6973705F 
 17479      6275665F 
 17479      7400
 17480              	.LASF321:
 17481 1752 4C565F49 		.ascii	"LV_INDEV_TYPE_BUTTON\000"
 17481      4E444556 
ARM GAS  C:\Users\strap\AppData\Local\Temp\ccTzHSZB.s 			page 370


 17481      5F545950 
 17481      455F4255 
 17481      54544F4E 
 17482              	.LASF170:
 17483 1767 4C565F53 		.ascii	"LV_STYLE_VALUE_FONT\000"
 17483      54594C45 
 17483      5F56414C 
 17483      55455F46 
 17483      4F4E5400 
 17484              	.LASF553:
 17485 177b 4C565F42 		.ascii	"LV_BTNMATRIX_PART_BTN\000"
 17485      544E4D41 
 17485      54524958 
 17485      5F504152 
 17485      545F4254 
 17486              	.LASF52:
 17487 1791 4C565F41 		.ascii	"LV_ALIGN_OUT_BOTTOM_LEFT\000"
 17487      4C49474E 
 17487      5F4F5554 
 17487      5F424F54 
 17487      544F4D5F 
 17488              	.LASF562:
 17489 17aa 4C565F54 		.ascii	"LV_THEME_LABEL\000"
 17489      48454D45 
 17489      5F4C4142 
 17489      454C00
 17490              	.LASF177:
 17491 17b9 4C565F53 		.ascii	"LV_STYLE_TEXT_SEL_COLOR\000"
 17491      54594C45 
 17491      5F544558 
 17491      545F5345 
 17491      4C5F434F 
 17492              	.LASF271:
 17493 17d1 77616974 		.ascii	"wait_cb\000"
 17493      5F636200 
 17494              	.LASF10:
 17495 17d9 5F5F7569 		.ascii	"__uint32_t\000"
 17495      6E743332 
 17495      5F7400
 17496              	.LASF296:
 17497 17e4 6576656E 		.ascii	"event_cb\000"
 17497      745F6362 
 17497      00
 17498              	.LASF477:
 17499 17ed 4C565F4C 		.ascii	"LV_LAYOUT_COLUMN_LEFT\000"
 17499      41594F55 
 17499      545F434F 
 17499      4C554D4E 
 17499      5F4C4546 
 17500              	.LASF597:
 17501 1803 72696768 		.ascii	"right\000"
 17501      7400
 17502              	.LASF12:
 17503 1809 6C6F6E67 		.ascii	"long long int\000"
 17503      206C6F6E 
 17503      6720696E 
 17503      7400
ARM GAS  C:\Users\strap\AppData\Local\Temp\ccTzHSZB.s 			page 371


 17504              	.LASF606:
 17505 1817 7461625F 		.ascii	"tab_bg_bottom\000"
 17505      62675F62 
 17505      6F74746F 
 17505      6D00
 17506              	.LASF57:
 17507 1825 4C565F41 		.ascii	"LV_ALIGN_OUT_LEFT_BOTTOM\000"
 17507      4C49474E 
 17507      5F4F5554 
 17507      5F4C4546 
 17507      545F424F 
 17508              	.LASF236:
 17509 183e 74657874 		.ascii	"text_font_normal\000"
 17509      5F666F6E 
 17509      745F6E6F 
 17509      726D616C 
 17509      00
 17510              	.LASF540:
 17511 184f 6C765F62 		.ascii	"lv_btnmatrix_ctrl_t\000"
 17511      746E6D61 
 17511      74726978 
 17511      5F637472 
 17511      6C5F7400 
 17512              	.LASF646:
 17513 1863 7461625F 		.ascii	"tab_btnm_event_cb\000"
 17513      62746E6D 
 17513      5F657665 
 17513      6E745F63 
 17513      6200
 17514              	.LASF443:
 17515 1875 4C565F53 		.ascii	"LV_SIGNAL_GESTURE\000"
 17515      49474E41 
 17515      4C5F4745 
 17515      53545552 
 17515      4500
 17516              	.LASF501:
 17517 1887 4C565F53 		.ascii	"LV_SCROLLBAR_MODE_DRAG\000"
 17517      43524F4C 
 17517      4C424152 
 17517      5F4D4F44 
 17517      455F4452 
 17518              	.LASF531:
 17519 189e 4C565F54 		.ascii	"LV_TABVIEW_PART_TAB_BTN\000"
 17519      41425649 
 17519      45575F50 
 17519      4152545F 
 17519      5441425F 
 17520              	.LASF604:
 17521 18b6 7461625F 		.ascii	"tab_bg_right\000"
 17521      62675F72 
 17521      69676874 
 17521      00
 17522              	.LASF327:
 17523 18c3 4C565F44 		.ascii	"LV_DRAG_DIR_BOTH\000"
 17523      5241475F 
 17523      4449525F 
 17523      424F5448 
ARM GAS  C:\Users\strap\AppData\Local\Temp\ccTzHSZB.s 			page 372


 17523      00
 17524              	.LASF43:
 17525 18d4 4C565F41 		.ascii	"LV_ALIGN_IN_TOP_RIGHT\000"
 17525      4C49474E 
 17525      5F494E5F 
 17525      544F505F 
 17525      52494748 
 17526              	.LASF447:
 17527 18ea 4C565F53 		.ascii	"LV_SIGNAL_CONTROL\000"
 17527      49474E41 
 17527      4C5F434F 
 17527      4E54524F 
 17527      4C00
 17528              	.LASF598:
 17529 18fc 626F7474 		.ascii	"bottom\000"
 17529      6F6D00
 17530              	.LASF328:
 17531 1903 4C565F44 		.ascii	"LV_DRAG_DIR_ONE\000"
 17531      5241475F 
 17531      4449525F 
 17531      4F4E4500 
 17532              	.LASF191:
 17533 1913 4C565F53 		.ascii	"LV_STYLE_IMAGE_RECOLOR_OPA\000"
 17533      54594C45 
 17533      5F494D41 
 17533      47455F52 
 17533      45434F4C 
 17534              	.LASF515:
 17535 192e 4C565F54 		.ascii	"LV_TABVIEW_TAB_POS_RIGHT\000"
 17535      41425649 
 17535      45575F54 
 17535      41425F50 
 17535      4F535F52 
 17536              	.LASF294:
 17537 1947 6368696C 		.ascii	"child_ll\000"
 17537      645F6C6C 
 17537      00
 17538              	.LASF518:
 17539 1950 696E6469 		.ascii	"indic\000"
 17539      6300
 17540              	.LASF315:
 17541 1956 70726F74 		.ascii	"protect\000"
 17541      65637400 
 17542              	.LASF251:
 17543 195e 62756631 		.ascii	"buf1\000"
 17543      00
 17544              	.LASF252:
 17545 1963 62756632 		.ascii	"buf2\000"
 17545      00
 17546              	.LASF119:
 17547 1968 4C565F53 		.ascii	"LV_STYLE_TRANSFORM_ANGLE\000"
 17547      54594C45 
 17547      5F545241 
 17547      4E53464F 
 17547      524D5F41 
 17548              	.LASF348:
 17549 1981 6C617374 		.ascii	"last_point\000"
ARM GAS  C:\Users\strap\AppData\Local\Temp\ccTzHSZB.s 			page 373


 17549      5F706F69 
 17549      6E7400
 17550              	.LASF352:
 17551 198c 6163745F 		.ascii	"act_obj\000"
 17551      6F626A00 
 17552              	.LASF600:
 17553 1994 6C61796F 		.ascii	"layout\000"
 17553      757400
 17554              	.LASF601:
 17555 199b 74616276 		.ascii	"tabview\000"
 17555      69657700 
 17556              	.LASF308:
 17557 19a3 70617265 		.ascii	"parent_event\000"
 17557      6E745F65 
 17557      76656E74 
 17557      00
 17558              	.LASF423:
 17559 19b0 4C565F53 		.ascii	"LV_SIGNAL_CLEANUP\000"
 17559      49474E41 
 17559      4C5F434C 
 17559      45414E55 
 17559      5000
 17560              	.LASF738:
 17561 19c2 6C765F70 		.ascii	"lv_page_set_scroll_propagation\000"
 17561      6167655F 
 17561      7365745F 
 17561      7363726F 
 17561      6C6C5F70 
 17562              	.LASF551:
 17563 19e1 6C765F62 		.ascii	"lv_btnmatrix_ext_t\000"
 17563      746E6D61 
 17563      74726978 
 17563      5F657874 
 17563      5F7400
 17564              	.LASF669:
 17565 19f4 6C765F74 		.ascii	"lv_tabview_add_tab\000"
 17565      61627669 
 17565      65775F61 
 17565      64645F74 
 17565      616200
 17566              	.LASF73:
 17567 1a07 756E6465 		.ascii	"underline_thickness\000"
 17567      726C696E 
 17567      655F7468 
 17567      69636B6E 
 17567      65737300 
 17568              	.LASF174:
 17569 1a1b 4C565F53 		.ascii	"LV_STYLE_TEXT_DECOR\000"
 17569      54594C45 
 17569      5F544558 
 17569      545F4445 
 17569      434F5200 
 17570              	.LASF493:
 17571 1a2f 5F4C565F 		.ascii	"_LV_FIT_LAST\000"
 17571      4649545F 
 17571      4C415354 
 17571      00
ARM GAS  C:\Users\strap\AppData\Local\Temp\ccTzHSZB.s 			page 374


 17572              	.LASF454:
 17573 1a3c 616C6967 		.ascii	"align\000"
 17573      6E00
 17574              	.LASF499:
 17575 1a42 4C565F53 		.ascii	"LV_SCROLLBAR_MODE_OFF\000"
 17575      43524F4C 
 17575      4C424152 
 17575      5F4D4F44 
 17575      455F4F46 
 17576              	.LASF44:
 17577 1a58 4C565F41 		.ascii	"LV_ALIGN_IN_BOTTOM_LEFT\000"
 17577      4C49474E 
 17577      5F494E5F 
 17577      424F5454 
 17577      4F4D5F4C 
 17578              	.LASF270:
 17579 1a70 6D6F6E69 		.ascii	"monitor_cb\000"
 17579      746F725F 
 17579      636200
 17580              	.LASF213:
 17581 1a7b 736B6970 		.ascii	"skip_trans\000"
 17581      5F747261 
 17581      6E7300
 17582              	.LASF192:
 17583 1a86 4C565F53 		.ascii	"LV_STYLE_TRANSITION_TIME\000"
 17583      54594C45 
 17583      5F545241 
 17583      4E534954 
 17583      494F4E5F 
 17584              	.LASF707:
 17585 1a9f 6C765F61 		.ascii	"lv_anim_start\000"
 17585      6E696D5F 
 17585      73746172 
 17585      7400
 17586              	.LASF666:
 17587 1aad 696E6465 		.ascii	"indev_type\000"
 17587      765F7479 
 17587      706500
 17588              	.LASF660:
 17589 1ab8 70616765 		.ascii	"page_x1\000"
 17589      5F783100 
 17590              	.LASF648:
 17591 1ac0 6576656E 		.ascii	"event\000"
 17591      7400
 17592              	.LASF536:
 17593 1ac6 4C565F42 		.ascii	"LV_BTNMATRIX_CTRL_DISABLED\000"
 17593      544E4D41 
 17593      54524958 
 17593      5F435452 
 17593      4C5F4449 
 17594              	.LASF176:
 17595 1ae1 4C565F53 		.ascii	"LV_STYLE_TEXT_COLOR\000"
 17595      54594C45 
 17595      5F544558 
 17595      545F434F 
 17595      4C4F5200 
 17596              	.LASF452:
ARM GAS  C:\Users\strap\AppData\Local\Temp\ccTzHSZB.s 			page 375


 17597 1af5 786F6673 		.ascii	"xofs\000"
 17597      00
 17598              	.LASF419:
 17599 1afa 4C565F45 		.ascii	"LV_EVENT_DELETE\000"
 17599      56454E54 
 17599      5F44454C 
 17599      45544500 
 17600              	.LASF627:
 17601 1b0a 72656672 		.ascii	"refr_align\000"
 17601      5F616C69 
 17601      676E00
 17602              	.LASF16:
 17603 1b15 756E7369 		.ascii	"unsigned int\000"
 17603      676E6564 
 17603      20696E74 
 17603      00
 17604              	.LASF670:
 17605 1b22 6E616D65 		.ascii	"name_dm\000"
 17605      5F646D00 
 17606              	.LASF424:
 17607 1b2a 4C565F53 		.ascii	"LV_SIGNAL_CHILD_CHG\000"
 17607      49474E41 
 17607      4C5F4348 
 17607      494C445F 
 17607      43484700 
 17608              	.LASF651:
 17609 1b3e 6C765F74 		.ascii	"lv_tabview_get_style\000"
 17609      61627669 
 17609      65775F67 
 17609      65745F73 
 17609      74796C65 
 17610              	.LASF398:
 17611 1b53 4C565F45 		.ascii	"LV_EVENT_PRESSED\000"
 17611      56454E54 
 17611      5F505245 
 17611      53534544 
 17611      00
 17612              	.LASF89:
 17613 1b64 6C765F61 		.ascii	"lv_anim_path_cb_t\000"
 17613      6E696D5F 
 17613      70617468 
 17613      5F63625F 
 17613      7400
 17614              	.LASF744:
 17615 1b76 6C765F6F 		.ascii	"lv_obj_get_height_fit\000"
 17615      626A5F67 
 17615      65745F68 
 17615      65696768 
 17615      745F6669 
 17616              	.LASF339:
 17617 1b8c 64697370 		.ascii	"disp\000"
 17617      00
 17618              	.LASF617:
 17619 1b91 636F6E74 		.ascii	"cont_h\000"
 17619      5F6800
 17620              	.LASF755:
 17621 1b98 6C765F6F 		.ascii	"lv_obj_refresh_style\000"
ARM GAS  C:\Users\strap\AppData\Local\Temp\ccTzHSZB.s 			page 376


 17621      626A5F72 
 17621      65667265 
 17621      73685F73 
 17621      74796C65 
 17622              	.LASF469:
 17623 1bad 5F4C565F 		.ascii	"_LV_OBJ_PART_REAL_LAST\000"
 17623      4F424A5F 
 17623      50415254 
 17623      5F524541 
 17623      4C5F4C41 
 17624              	.LASF616:
 17625 1bc4 636F6E74 		.ascii	"cont_w\000"
 17625      5F7700
 17626              	.LASF520:
 17627 1bcb 7461625F 		.ascii	"tab_name_ptr\000"
 17627      6E616D65 
 17627      5F707472 
 17627      00
 17628              	.LASF333:
 17629 1bd8 656E635F 		.ascii	"enc_diff\000"
 17629      64696666 
 17629      00
 17630              	.LASF161:
 17631 1be1 4C565F53 		.ascii	"LV_STYLE_PATTERN_IMAGE\000"
 17631      54594C45 
 17631      5F504154 
 17631      5445524E 
 17631      5F494D41 
 17632              	.LASF510:
 17633 1bf8 5F4C565F 		.ascii	"_LV_PAGE_PART_REAL_LAST\000"
 17633      50414745 
 17633      5F504152 
 17633      545F5245 
 17633      414C5F4C 
 17634              	.LASF40:
 17635 1c10 4C565F41 		.ascii	"LV_ALIGN_CENTER\000"
 17635      4C49474E 
 17635      5F43454E 
 17635      54455200 
 17636              	.LASF414:
 17637 1c20 4C565F45 		.ascii	"LV_EVENT_VALUE_CHANGED\000"
 17637      56454E54 
 17637      5F56414C 
 17637      55455F43 
 17637      48414E47 
 17638              	.LASF288:
 17639 1c37 696E765F 		.ascii	"inv_areas\000"
 17639      61726561 
 17639      7300
 17640              	.LASF682:
 17641 1c41 6C765F64 		.ascii	"lv_debug_check_null\000"
 17641      65627567 
 17641      5F636865 
 17641      636B5F6E 
 17641      756C6C00 
 17642              	.LASF722:
 17643 1c55 6C765F67 		.ascii	"lv_group_set_editing\000"
ARM GAS  C:\Users\strap\AppData\Local\Temp\ccTzHSZB.s 			page 377


 17643      726F7570 
 17643      5F736574 
 17643      5F656469 
 17643      74696E67 
 17644              	.LASF620:
 17645 1c6a 636F6E74 		.ascii	"content_scrl\000"
 17645      656E745F 
 17645      7363726C 
 17645      00
 17646              	.LASF140:
 17647 1c77 4C565F53 		.ascii	"LV_STYLE_BORDER_BLEND_MODE\000"
 17647      54594C45 
 17647      5F424F52 
 17647      4445525F 
 17647      424C454E 
 17648              	.LASF534:
 17649 1c92 4C565F42 		.ascii	"LV_BTNMATRIX_CTRL_HIDDEN\000"
 17649      544E4D41 
 17649      54524958 
 17649      5F435452 
 17649      4C5F4849 
 17650              	.LASF449:
 17651 1cab 6C765F73 		.ascii	"lv_signal_t\000"
 17651      69676E61 
 17651      6C5F7400 
 17652              	.LASF506:
 17653 1cb7 4C565F50 		.ascii	"LV_PAGE_PART_SCROLLBAR\000"
 17653      4147455F 
 17653      50415254 
 17653      5F534352 
 17653      4F4C4C42 
 17654              	.LASF455:
 17655 1cce 6175746F 		.ascii	"auto_realign\000"
 17655      5F726561 
 17655      6C69676E 
 17655      00
 17656              	.LASF563:
 17657 1cdb 4C565F54 		.ascii	"LV_THEME_LED\000"
 17657      48454D45 
 17657      5F4C4544 
 17657      00
 17658              	.LASF644:
 17659 1ce8 62746E73 		.ascii	"btns_bg_left\000"
 17659      5F62675F 
 17659      6C656674 
 17659      00
 17660              	.LASF98:
 17661 1cf5 63757272 		.ascii	"current\000"
 17661      656E7400 
 17662              	.LASF217:
 17663 1cfd 72616469 		.ascii	"radius_zero\000"
 17663      75735F7A 
 17663      65726F00 
 17664              	.LASF571:
 17665 1d09 4C565F54 		.ascii	"LV_THEME_TEXTAREA\000"
 17665      48454D45 
 17665      5F544558 
ARM GAS  C:\Users\strap\AppData\Local\Temp\ccTzHSZB.s 			page 378


 17665      54415245 
 17665      4100
 17666              	.LASF572:
 17667 1d1b 5F4C565F 		.ascii	"_LV_THEME_BUILTIN_LAST\000"
 17667      5448454D 
 17667      455F4255 
 17667      494C5449 
 17667      4E5F4C41 
 17668              	.LASF67:
 17669 1d32 6C765F66 		.ascii	"lv_font_glyph_dsc_t\000"
 17669      6F6E745F 
 17669      676C7970 
 17669      685F6473 
 17669      635F7400 
 17670              	.LASF517:
 17671 1d46 62746E73 		.ascii	"btns\000"
 17671      00
 17672              	.LASF149:
 17673 1d4b 4C565F53 		.ascii	"LV_STYLE_SHADOW_WIDTH\000"
 17673      54594C45 
 17673      5F534841 
 17673      444F575F 
 17673      57494454 
 17674              	.LASF399:
 17675 1d61 4C565F45 		.ascii	"LV_EVENT_PRESSING\000"
 17675      56454E54 
 17675      5F505245 
 17675      5353494E 
 17675      4700
 17676              	.LASF276:
 17677 1d73 5F646973 		.ascii	"_disp_t\000"
 17677      705F7400 
 17678              	.LASF115:
 17679 1d7b 4C565F53 		.ascii	"LV_STYLE_CLIP_CORNER\000"
 17679      54594C45 
 17679      5F434C49 
 17679      505F434F 
 17679      524E4552 
 17680              	.LASF745:
 17681 1d90 6C765F64 		.ascii	"lv_disp_get_hor_res\000"
 17681      6973705F 
 17681      6765745F 
 17681      686F725F 
 17681      72657300 
 17682              	.LASF435:
 17683 1da4 4C565F53 		.ascii	"LV_SIGNAL_PRESSING\000"
 17683      49474E41 
 17683      4C5F5052 
 17683      45535349 
 17683      4E4700
 17684              	.LASF401:
 17685 1db7 4C565F45 		.ascii	"LV_EVENT_SHORT_CLICKED\000"
 17685      56454E54 
 17685      5F53484F 
 17685      52545F43 
 17685      4C49434B 
 17686              	.LASF103:
ARM GAS  C:\Users\strap\AppData\Local\Temp\ccTzHSZB.s 			page 379


 17687 1dce 72657065 		.ascii	"repeat_delay\000"
 17687      61745F64 
 17687      656C6179 
 17687      00
 17688              	.LASF403:
 17689 1ddb 4C565F45 		.ascii	"LV_EVENT_LONG_PRESSED_REPEAT\000"
 17689      56454E54 
 17689      5F4C4F4E 
 17689      475F5052 
 17689      45535345 
 17690              	.LASF326:
 17691 1df8 4C565F44 		.ascii	"LV_DRAG_DIR_VER\000"
 17691      5241475F 
 17691      4449525F 
 17691      56455200 
 17692              	.LASF668:
 17693 1e08 6C765F74 		.ascii	"lv_tabview_set_btns_pos\000"
 17693      61627669 
 17693      65775F73 
 17693      65745F62 
 17693      746E735F 
 17694              	.LASF381:
 17695 1e20 666F6375 		.ascii	"focus_cb\000"
 17695      735F6362 
 17695      00
 17696              	.LASF235:
 17697 1e29 74657874 		.ascii	"text_decor_none\000"
 17697      5F646563 
 17697      6F725F6E 
 17697      6F6E6500 
 17698              	.LASF484:
 17699 1e39 4C565F4C 		.ascii	"LV_LAYOUT_PRETTY_MID\000"
 17699      41594F55 
 17699      545F5052 
 17699      45545459 
 17699      5F4D4944 
 17700              	.LASF463:
 17701 1e4e 4C565F53 		.ascii	"LV_STATE_PRESSED\000"
 17701      54415445 
 17701      5F505245 
 17701      53534544 
 17701      00
 17702              	.LASF127:
 17703 1e5f 4C565F53 		.ascii	"LV_STYLE_MARGIN_TOP\000"
 17703      54594C45 
 17703      5F4D4152 
 17703      47494E5F 
 17703      544F5000 
 17704              	.LASF37:
 17705 1e73 6C765F72 		.ascii	"lv_res_t\000"
 17705      65735F74 
 17705      00
 17706              	.LASF708:
 17707 1e7c 6C765F6F 		.ascii	"lv_obj_get_y\000"
 17707      626A5F67 
 17707      65745F79 
 17707      00
ARM GAS  C:\Users\strap\AppData\Local\Temp\ccTzHSZB.s 			page 380


 17708              	.LASF60:
 17709 1e89 4C565F41 		.ascii	"LV_ALIGN_OUT_RIGHT_BOTTOM\000"
 17709      4C49474E 
 17709      5F4F5554 
 17709      5F524947 
 17709      48545F42 
 17710              	.LASF736:
 17711 1ea3 6C765F70 		.ascii	"lv_page_create\000"
 17711      6167655F 
 17711      63726561 
 17711      746500
 17712              	.LASF32:
 17713 1eb2 6C6F6E67 		.ascii	"long double\000"
 17713      20646F75 
 17713      626C6500 
 17714              	.LASF737:
 17715 1ebe 6C765F70 		.ascii	"lv_page_set_scrollbar_mode\000"
 17715      6167655F 
 17715      7365745F 
 17715      7363726F 
 17715      6C6C6261 
 17716              	.LASF254:
 17717 1ed9 73697A65 		.ascii	"size\000"
 17717      00
 17718              	.LASF349:
 17719 1ede 76656374 		.ascii	"vect\000"
 17719      00
 17720              	.LASF605:
 17721 1ee3 7461625F 		.ascii	"tab_bg_top\000"
 17721      62675F74 
 17721      6F7000
 17722              	.LASF218:
 17723 1eee 6F70615F 		.ascii	"opa_scale_cover\000"
 17723      7363616C 
 17723      655F636F 
 17723      76657200 
 17724              	.LASF647:
 17725 1efe 7461625F 		.ascii	"tab_btnm\000"
 17725      62746E6D 
 17725      00
 17726              	.LASF350:
 17727 1f07 64726167 		.ascii	"drag_sum\000"
 17727      5F73756D 
 17727      00
 17728              	.LASF49:
 17729 1f10 4C565F41 		.ascii	"LV_ALIGN_OUT_TOP_LEFT\000"
 17729      4C49474E 
 17729      5F4F5554 
 17729      5F544F50 
 17729      5F4C4546 
 17730              	.LASF319:
 17731 1f26 4C565F49 		.ascii	"LV_INDEV_TYPE_POINTER\000"
 17731      4E444556 
 17731      5F545950 
 17731      455F504F 
 17731      494E5445 
 17732              	.LASF366:
ARM GAS  C:\Users\strap\AppData\Local\Temp\ccTzHSZB.s 			page 381


 17733 1f3c 70725F74 		.ascii	"pr_timestamp\000"
 17733      696D6573 
 17733      74616D70 
 17733      00
 17734              	.LASF579:
 17735 1f49 6C765F6F 		.ascii	"lv_obj_get_style_pad_right\000"
 17735      626A5F67 
 17735      65745F73 
 17735      74796C65 
 17735      5F706164 
 17736              	.LASF395:
 17737 1f64 6C765F64 		.ascii	"lv_design_mode_t\000"
 17737      65736967 
 17737      6E5F6D6F 
 17737      64655F74 
 17737      00
 17738              	.LASF77:
 17739 1f75 73756270 		.ascii	"subpx\000"
 17739      7800
 17740              	.LASF407:
 17741 1f7b 4C565F45 		.ascii	"LV_EVENT_DRAG_END\000"
 17741      56454E54 
 17741      5F445241 
 17741      475F454E 
 17741      4400
 17742              	.LASF727:
 17743 1f8d 6C765F6F 		.ascii	"lv_obj_get_state\000"
 17743      626A5F67 
 17743      65745F73 
 17743      74617465 
 17743      00
 17744              	.LASF577:
 17745 1f9e 6C765F6F 		.ascii	"lv_obj_get_style_pad_bottom\000"
 17745      626A5F67 
 17745      65745F73 
 17745      74796C65 
 17745      5F706164 
 17746              	.LASF104:
 17747 1fba 72657065 		.ascii	"repeat_cnt\000"
 17747      61745F63 
 17747      6E7400
 17748              	.LASF340:
 17749 1fc5 72656164 		.ascii	"read_task\000"
 17749      5F746173 
 17749      6B00
 17750              	.LASF29:
 17751 1fcf 6C765F69 		.ascii	"lv_indev_drv_user_data_t\000"
 17751      6E646576 
 17751      5F647276 
 17751      5F757365 
 17751      725F6461 
 17752              	.LASF436:
 17753 1fe8 4C565F53 		.ascii	"LV_SIGNAL_PRESS_LOST\000"
 17753      49474E41 
 17753      4C5F5052 
 17753      4553535F 
 17753      4C4F5354 
ARM GAS  C:\Users\strap\AppData\Local\Temp\ccTzHSZB.s 			page 382


 17754              	.LASF527:
 17755 1ffd 4C565F54 		.ascii	"LV_TABVIEW_PART_BG\000"
 17755      41425649 
 17755      45575F50 
 17755      4152545F 
 17755      424700
 17756              	.LASF129:
 17757 2010 4C565F53 		.ascii	"LV_STYLE_MARGIN_LEFT\000"
 17757      54594C45 
 17757      5F4D4152 
 17757      47494E5F 
 17757      4C454654 
 17758              	.LASF626:
 17759 2025 696E6469 		.ascii	"indic_h\000"
 17759      635F6800 
 17760              	.LASF338:
 17761 202d 66656564 		.ascii	"feedback_cb\000"
 17761      6261636B 
 17761      5F636200 
 17762              	.LASF442:
 17763 2039 4C565F53 		.ascii	"LV_SIGNAL_DRAG_END\000"
 17763      49474E41 
 17763      4C5F4452 
 17763      41475F45 
 17763      4E4400
 17764              	.LASF665:
 17765 204c 696E666F 		.ascii	"info\000"
 17765      00
 17766              	.LASF602:
 17767 2051 7374796C 		.ascii	"style_dsc_p\000"
 17767      655F6473 
 17767      635F7000 
 17768              	.LASF211:
 17769 205d 6861735F 		.ascii	"has_local\000"
 17769      6C6F6361 
 17769      6C00
 17770              	.LASF164:
 17771 2067 4C565F53 		.ascii	"LV_STYLE_VALUE_BLEND_MODE\000"
 17771      54594C45 
 17771      5F56414C 
 17771      55455F42 
 17771      4C454E44 
 17772              	.LASF426:
 17773 2081 4C565F53 		.ascii	"LV_SIGNAL_PARENT_SIZE_CHG\000"
 17773      49474E41 
 17773      4C5F5041 
 17773      52454E54 
 17773      5F53495A 
 17774              	.LASF418:
 17775 209b 4C565F45 		.ascii	"LV_EVENT_CANCEL\000"
 17775      56454E54 
 17775      5F43414E 
 17775      43454C00 
 17776              	.LASF645:
 17777 20ab 62746E73 		.ascii	"btns_bg_top\000"
 17777      5F62675F 
 17777      746F7000 
ARM GAS  C:\Users\strap\AppData\Local\Temp\ccTzHSZB.s 			page 383


 17778              	.LASF142:
 17779 20b7 4C565F53 		.ascii	"LV_STYLE_BORDER_COLOR\000"
 17779      54594C45 
 17779      5F424F52 
 17779      4445525F 
 17779      434F4C4F 
 17780              	.LASF437:
 17781 20cd 4C565F53 		.ascii	"LV_SIGNAL_RELEASED\000"
 17781      49474E41 
 17781      4C5F5245 
 17781      4C454153 
 17781      454400
 17782              	.LASF388:
 17783 20e0 4C565F42 		.ascii	"LV_BIDI_DIR_LTR\000"
 17783      4944495F 
 17783      4449525F 
 17783      4C545200 
 17784              	.LASF724:
 17785 20f0 6C765F69 		.ascii	"lv_indev_get_vect\000"
 17785      6E646576 
 17785      5F676574 
 17785      5F766563 
 17785      7400
 17786              	.LASF42:
 17787 2102 4C565F41 		.ascii	"LV_ALIGN_IN_TOP_MID\000"
 17787      4C49474E 
 17787      5F494E5F 
 17787      544F505F 
 17787      4D494400 
 17788              	.LASF0:
 17789 2116 5F5F696E 		.ascii	"__int8_t\000"
 17789      74385F74 
 17789      00
 17790              	.LASF364:
 17791 211f 5F6C765F 		.ascii	"_lv_indev_proc_t\000"
 17791      696E6465 
 17791      765F7072 
 17791      6F635F74 
 17791      00
 17792              	.LASF383:
 17793 2130 65646974 		.ascii	"editing\000"
 17793      696E6700 
 17794              	.LASF457:
 17795 2138 6C765F72 		.ascii	"lv_realign_t\000"
 17795      65616C69 
 17795      676E5F74 
 17795      00
 17796              	.LASF539:
 17797 2145 4C565F42 		.ascii	"LV_BTNMATRIX_CTRL_CLICK_TRIG\000"
 17797      544E4D41 
 17797      54524958 
 17797      5F435452 
 17797      4C5F434C 
 17798              	.LASF273:
 17799 2162 6770755F 		.ascii	"gpu_wait_cb\000"
 17799      77616974 
 17799      5F636200 
ARM GAS  C:\Users\strap\AppData\Local\Temp\ccTzHSZB.s 			page 384


 17800              	.LASF27:
 17801 216e 6C765F67 		.ascii	"lv_group_user_data_t\000"
 17801      726F7570 
 17801      5F757365 
 17801      725F6461 
 17801      74615F74 
 17802              	.LASF108:
 17803 2183 6861735F 		.ascii	"has_run\000"
 17803      72756E00 
 17804              	.LASF223:
 17805 218b 626C656E 		.ascii	"blend_mode_all_normal\000"
 17805      645F6D6F 
 17805      64655F61 
 17805      6C6C5F6E 
 17805      6F726D61 
 17806              	.LASF344:
 17807 21a1 6C6F6E67 		.ascii	"long_press_time\000"
 17807      5F707265 
 17807      73735F74 
 17807      696D6500 
 17808              	.LASF121:
 17809 21b1 4C565F53 		.ascii	"LV_STYLE_OPA_SCALE\000"
 17809      54594C45 
 17809      5F4F5041 
 17809      5F534341 
 17809      4C4500
 17810              	.LASF14:
 17811 21c4 6C6F6E67 		.ascii	"long long unsigned int\000"
 17811      206C6F6E 
 17811      6720756E 
 17811      7369676E 
 17811      65642069 
 17812              	.LASF283:
 17813 21db 7379735F 		.ascii	"sys_layer\000"
 17813      6C617965 
 17813      7200
 17814              	.LASF133:
 17815 21e5 4C565F53 		.ascii	"LV_STYLE_BG_GRAD_STOP\000"
 17815      54594C45 
 17815      5F42475F 
 17815      47524144 
 17815      5F53544F 
 17816              	.LASF625:
 17817 21fb 696E6469 		.ascii	"indic_w\000"
 17817      635F7700 
 17818              	.LASF139:
 17819 2203 4C565F53 		.ascii	"LV_STYLE_BORDER_SIDE\000"
 17819      54594C45 
 17819      5F424F52 
 17819      4445525F 
 17819      53494445 
 17820              	.LASF498:
 17821 2218 6C765F67 		.ascii	"lv_group_focus_cb_t\000"
 17821      726F7570 
 17821      5F666F63 
 17821      75735F63 
 17821      625F7400 
ARM GAS  C:\Users\strap\AppData\Local\Temp\ccTzHSZB.s 			page 385


 17822              	.LASF564:
 17823 222c 4C565F54 		.ascii	"LV_THEME_LINE\000"
 17823      48454D45 
 17823      5F4C494E 
 17823      4500
 17824              	.LASF272:
 17825 223a 636C6561 		.ascii	"clean_dcache_cb\000"
 17825      6E5F6463 
 17825      61636865 
 17825      5F636200 
 17826              	.LASF58:
 17827 224a 4C565F41 		.ascii	"LV_ALIGN_OUT_RIGHT_TOP\000"
 17827      4C49474E 
 17827      5F4F5554 
 17827      5F524947 
 17827      48545F54 
 17828              	.LASF20:
 17829 2261 75696E74 		.ascii	"uint16_t\000"
 17829      31365F74 
 17829      00
 17830              	.LASF36:
 17831 226a 4C565F52 		.ascii	"LV_RES_OK\000"
 17831      45535F4F 
 17831      4B00
 17832              	.LASF508:
 17833 2274 5F4C565F 		.ascii	"_LV_PAGE_PART_VIRTUAL_LAST\000"
 17833      50414745 
 17833      5F504152 
 17833      545F5649 
 17833      52545541 
 17834              	.LASF246:
 17835 228f 6C617374 		.ascii	"last_run\000"
 17835      5F72756E 
 17835      00
 17836              	.LASF386:
 17837 2298 77726170 		.ascii	"wrap\000"
 17837      00
 17838              	.LASF83:
 17839 229d 6C765F63 		.ascii	"lv_color_t\000"
 17839      6F6C6F72 
 17839      5F7400
 17840              	.LASF678:
 17841 22a8 616E6365 		.ascii	"ancestor_signal\000"
 17841      73746F72 
 17841      5F736967 
 17841      6E616C00 
 17842              	.LASF453:
 17843 22b8 796F6673 		.ascii	"yofs\000"
 17843      00
 17844              	.LASF369:
 17845 22bd 72657365 		.ascii	"reset_query\000"
 17845      745F7175 
 17845      65727900 
 17846              	.LASF661:
 17847 22c9 70616765 		.ascii	"page_x2\000"
 17847      5F783200 
 17848              	.LASF250:
ARM GAS  C:\Users\strap\AppData\Local\Temp\ccTzHSZB.s 			page 386


 17849 22d1 6C765F74 		.ascii	"lv_task_t\000"
 17849      61736B5F 
 17849      7400
 17850              	.LASF456:
 17851 22db 6D69645F 		.ascii	"mid_align\000"
 17851      616C6967 
 17851      6E00
 17852              	.LASF392:
 17853 22e5 4C565F42 		.ascii	"LV_BIDI_DIR_NEUTRAL\000"
 17853      4944495F 
 17853      4449525F 
 17853      4E455554 
 17853      52414C00 
 17854              	.LASF586:
 17855 22f9 6C765F61 		.ascii	"lv_area_get_height\000"
 17855      7265615F 
 17855      6765745F 
 17855      68656967 
 17855      687400
 17856              	.LASF205:
 17857 230c 4C565F53 		.ascii	"LV_STYLE_SCALE_GRAD_COLOR\000"
 17857      54594C45 
 17857      5F534341 
 17857      4C455F47 
 17857      5241445F 
 17858              	.LASF494:
 17859 2326 6C765F66 		.ascii	"lv_fit_t\000"
 17859      69745F74 
 17859      00
 17860              	.LASF30:
 17861 232f 6C765F66 		.ascii	"lv_font_user_data_t\000"
 17861      6F6E745F 
 17861      75736572 
 17861      5F646174 
 17861      615F7400 
 17862              	.LASF659:
 17863 2343 7461625F 		.ascii	"tab_page\000"
 17863      70616765 
 17863      00
 17864              	.LASF690:
 17865 234c 6C765F66 		.ascii	"lv_font_get_glyph_width\000"
 17865      6F6E745F 
 17865      6765745F 
 17865      676C7970 
 17865      685F7769 
 17866              	.LASF558:
 17867 2364 4C565F54 		.ascii	"LV_THEME_BTNMATRIX\000"
 17867      48454D45 
 17867      5F42544E 
 17867      4D415452 
 17867      495800
 17868              	.LASF638:
 17869 2377 616E696D 		.ascii	"anim\000"
 17869      00
 17870              	.LASF150:
 17871 237c 4C565F53 		.ascii	"LV_STYLE_SHADOW_OFS_X\000"
 17871      54594C45 
ARM GAS  C:\Users\strap\AppData\Local\Temp\ccTzHSZB.s 			page 387


 17871      5F534841 
 17871      444F575F 
 17871      4F46535F 
 17872              	.LASF93:
 17873 2392 65786563 		.ascii	"exec_cb\000"
 17873      5F636200 
 17874              	.LASF167:
 17875 239a 4C565F53 		.ascii	"LV_STYLE_VALUE_ALIGN\000"
 17875      54594C45 
 17875      5F56414C 
 17875      55455F41 
 17875      4C49474E 
 17876              	.LASF320:
 17877 23af 4C565F49 		.ascii	"LV_INDEV_TYPE_KEYPAD\000"
 17877      4E444556 
 17877      5F545950 
 17877      455F4B45 
 17877      59504144 
 17878              	.LASF732:
 17879 23c4 6C765F6F 		.ascii	"lv_obj_clear_state\000"
 17879      626A5F63 
 17879      6C656172 
 17879      5F737461 
 17879      746500
 17880              	.LASF629:
 17881 23d7 6C765F74 		.ascii	"lv_tabview_clean_tab\000"
 17881      61627669 
 17881      65775F63 
 17881      6C65616E 
 17881      5F746162 
 17882              	.LASF102:
 17883 23ec 706C6179 		.ascii	"playback_time\000"
 17883      6261636B 
 17883      5F74696D 
 17883      6500
 17884              	.LASF582:
 17885 23fa 666F6E74 		.ascii	"font_p\000"
 17885      5F7000
 17886              	.LASF641:
 17887 2401 7363726C 		.ascii	"scrl_left\000"
 17887      5F6C6566 
 17887      7400
 17888              	.LASF131:
 17889 240b 4C565F53 		.ascii	"LV_STYLE_BG_BLEND_MODE\000"
 17889      54594C45 
 17889      5F42475F 
 17889      424C454E 
 17889      445F4D4F 
 17890              	.LASF245:
 17891 2422 70657269 		.ascii	"period\000"
 17891      6F6400
 17892              	.LASF696:
 17893 2429 6C765F6F 		.ascii	"lv_obj_set_width\000"
 17893      626A5F73 
 17893      65745F77 
 17893      69647468 
 17893      00
ARM GAS  C:\Users\strap\AppData\Local\Temp\ccTzHSZB.s 			page 388


 17894              	.LASF268:
 17895 243a 726F756E 		.ascii	"rounder_cb\000"
 17895      6465725F 
 17895      636200
 17896              	.LASF663:
 17897 2445 74616276 		.ascii	"tabview_realign\000"
 17897      6965775F 
 17897      7265616C 
 17897      69676E00 
 17898              	.LASF301:
 17899 2455 6578745F 		.ascii	"ext_click_pad_ver\000"
 17899      636C6963 
 17899      6B5F7061 
 17899      645F7665 
 17899      7200
 17900              	.LASF4:
 17901 2467 5F5F696E 		.ascii	"__int16_t\000"
 17901      7431365F 
 17901      7400
 17902              	.LASF367:
 17903 2471 6C6F6E67 		.ascii	"longpr_rep_timestamp\000"
 17903      70725F72 
 17903      65705F74 
 17903      696D6573 
 17903      74616D70 
 17904              	.LASF180:
 17905 2486 4C565F53 		.ascii	"LV_STYLE_TEXT_FONT\000"
 17905      54594C45 
 17905      5F544558 
 17905      545F464F 
 17905      4E5400
 17906              	.LASF358:
 17907 2499 64726167 		.ascii	"drag_in_prog\000"
 17907      5F696E5F 
 17907      70726F67 
 17907      00
 17908              	.LASF695:
 17909 24a6 6C765F6F 		.ascii	"lv_obj_get_signal_cb\000"
 17909      626A5F67 
 17909      65745F73 
 17909      69676E61 
 17909      6C5F6362 
 17910              	.LASF709:
 17911 24bb 6C765F62 		.ascii	"lv_btnmatrix_clear_btn_ctrl\000"
 17911      746E6D61 
 17911      74726978 
 17911      5F636C65 
 17911      61725F62 
 17912              	.LASF664:
 17913 24d7 6C765F74 		.ascii	"lv_tabview_signal\000"
 17913      61627669 
 17913      65775F73 
 17913      69676E61 
 17913      6C00
 17914              	.LASF354:
 17915 24e9 6C617374 		.ascii	"last_pressed\000"
 17915      5F707265 
ARM GAS  C:\Users\strap\AppData\Local\Temp\ccTzHSZB.s 			page 389


 17915      73736564 
 17915      00
 17916              	.LASF106:
 17917 24f6 74696D65 		.ascii	"time_orig\000"
 17917      5F6F7269 
 17917      6700
 17918              	.LASF390:
 17919 2500 4C565F42 		.ascii	"LV_BIDI_DIR_AUTO\000"
 17919      4944495F 
 17919      4449525F 
 17919      4155544F 
 17919      00
 17920              	.LASF109:
 17921 2511 6C765F61 		.ascii	"lv_anim_path_t\000"
 17921      6E696D5F 
 17921      70617468 
 17921      5F7400
 17922              	.LASF81:
 17923 2520 66756C6C 		.ascii	"full\000"
 17923      00
 17924              	.LASF687:
 17925 2525 5F6C765F 		.ascii	"_lv_obj_get_style_ptr\000"
 17925      6F626A5F 
 17925      6765745F 
 17925      7374796C 
 17925      655F7074 
 17926              	.LASF48:
 17927 253b 4C565F41 		.ascii	"LV_ALIGN_IN_RIGHT_MID\000"
 17927      4C49474E 
 17927      5F494E5F 
 17927      52494748 
 17927      545F4D49 
 17928              	.LASF99:
 17929 2551 74696D65 		.ascii	"time\000"
 17929      00
 17930              	.LASF237:
 17931 2556 6C765F73 		.ascii	"lv_style_list_t\000"
 17931      74796C65 
 17931      5F6C6973 
 17931      745F7400 
 17932              	.LASF588:
 17933 2566 6C765F63 		.ascii	"lv_cont_set_fit2\000"
 17933      6F6E745F 
 17933      7365745F 
 17933      66697432 
 17933      00
 17934              	.LASF15:
 17935 2577 5F5F7569 		.ascii	"__uintptr_t\000"
 17935      6E747074 
 17935      725F7400 
 17936              	.LASF357:
 17937 2583 64726167 		.ascii	"drag_limit_out\000"
 17937      5F6C696D 
 17937      69745F6F 
 17937      757400
 17938              	.LASF373:
 17939 2592 5F6C765F 		.ascii	"_lv_indev_t\000"
ARM GAS  C:\Users\strap\AppData\Local\Temp\ccTzHSZB.s 			page 390


 17939      696E6465 
 17939      765F7400 
 17940              	.LASF355:
 17941 259e 67657374 		.ascii	"gesture_dir\000"
 17941      7572655F 
 17941      64697200 
 17942              	.LASF658:
 17943 25aa 785F7072 		.ascii	"x_predict\000"
 17943      65646963 
 17943      7400
 17944              	.LASF706:
 17945 25b4 6C765F6F 		.ascii	"lv_obj_get_x\000"
 17945      626A5F67 
 17945      65745F78 
 17945      00
 17946              	.LASF466:
 17947 25c1 6C765F6F 		.ascii	"lv_obj_t\000"
 17947      626A5F74 
 17947      00
 17948              	.LASF591:
 17949 25ca 6C765F61 		.ascii	"lv_anim_set_values\000"
 17949      6E696D5F 
 17949      7365745F 
 17949      76616C75 
 17949      657300
 17950              	.LASF359:
 17951 25dd 67657374 		.ascii	"gesture_sent\000"
 17951      7572655F 
 17951      73656E74 
 17951      00
 17952              	.LASF486:
 17953 25ea 4C565F4C 		.ascii	"LV_LAYOUT_GRID\000"
 17953      41594F55 
 17953      545F4752 
 17953      494400
 17954              	.LASF346:
 17955 25f9 6C765F69 		.ascii	"lv_indev_drv_t\000"
 17955      6E646576 
 17955      5F647276 
 17955      5F7400
 17956              	.LASF304:
 17957 2608 64726167 		.ascii	"drag\000"
 17957      00
 17958              	.LASF157:
 17959 260d 4C565F53 		.ascii	"LV_STYLE_PATTERN_REPEAT\000"
 17959      54594C45 
 17959      5F504154 
 17959      5445524E 
 17959      5F524550 
 17960              	.LASF292:
 17961 2625 5F6C765F 		.ascii	"_lv_obj_t\000"
 17961      6F626A5F 
 17961      7400
 17962              	.LASF41:
 17963 262f 4C565F41 		.ascii	"LV_ALIGN_IN_TOP_LEFT\000"
 17963      4C49474E 
 17963      5F494E5F 
ARM GAS  C:\Users\strap\AppData\Local\Temp\ccTzHSZB.s 			page 391


 17963      544F505F 
 17963      4C454654 
 17964              	.LASF611:
 17965 2644 666F6E74 		.ascii	"font\000"
 17965      00
 17966              	.LASF516:
 17967 2649 6C765F74 		.ascii	"lv_tabview_btns_pos_t\000"
 17967      61627669 
 17967      65775F62 
 17967      746E735F 
 17967      706F735F 
 17968              	.LASF470:
 17969 265f 4C565F4F 		.ascii	"LV_OBJ_PART_ALL\000"
 17969      424A5F50 
 17969      4152545F 
 17969      414C4C00 
 17970              	.LASF324:
 17971 266f 6C765F69 		.ascii	"lv_indev_state_t\000"
 17971      6E646576 
 17971      5F737461 
 17971      74655F74 
 17971      00
 17972              	.LASF277:
 17973 2680 64726976 		.ascii	"driver\000"
 17973      657200
 17974              	.LASF529:
 17975 2687 4C565F54 		.ascii	"LV_TABVIEW_PART_BG_SCRLLABLE\000"
 17975      41425649 
 17975      45575F50 
 17975      4152545F 
 17975      42475F53 
 17976              	.LASF313:
 17977 26a4 62617365 		.ascii	"base_dir\000"
 17977      5F646972 
 17977      00
 17978              	.LASF168:
 17979 26ad 4C565F53 		.ascii	"LV_STYLE_VALUE_COLOR\000"
 17979      54594C45 
 17979      5F56414C 
 17979      55455F43 
 17979      4F4C4F52 
 17980              	.LASF136:
 17981 26c2 4C565F53 		.ascii	"LV_STYLE_BG_GRAD_COLOR\000"
 17981      54594C45 
 17981      5F42475F 
 17981      47524144 
 17981      5F434F4C 
 17982              	.LASF281:
 17983 26d9 70726576 		.ascii	"prev_scr\000"
 17983      5F736372 
 17983      00
 17984              	.LASF64:
 17985 26e2 626F785F 		.ascii	"box_h\000"
 17985      6800
 17986              	.LASF751:
 17987 26e8 6C765F6F 		.ascii	"lv_obj_set_click\000"
 17987      626A5F73 
ARM GAS  C:\Users\strap\AppData\Local\Temp\ccTzHSZB.s 			page 392


 17987      65745F63 
 17987      6C69636B 
 17987      00
 17988              	.LASF458:
 17989 26f9 4C565F53 		.ascii	"LV_STATE_DEFAULT\000"
 17989      54415445 
 17989      5F444546 
 17989      41554C54 
 17989      00
 17990              	.LASF503:
 17991 270a 4C565F53 		.ascii	"LV_SCROLLBAR_MODE_HIDE\000"
 17991      43524F4C 
 17991      4C424152 
 17991      5F4D4F44 
 17991      455F4849 
 17992              	.LASF112:
 17993 2721 6C765F61 		.ascii	"lv_anim_start_cb_t\000"
 17993      6E696D5F 
 17993      73746172 
 17993      745F6362 
 17993      5F7400
 17994              	.LASF512:
 17995 2734 4C565F54 		.ascii	"LV_TABVIEW_TAB_POS_TOP\000"
 17995      41425649 
 17995      45575F54 
 17995      41425F50 
 17995      4F535F54 
 17996              	.LASF683:
 17997 274b 6C765F64 		.ascii	"lv_debug_log_error\000"
 17997      65627567 
 17997      5F6C6F67 
 17997      5F657272 
 17997      6F7200
 17998              	.LASF451:
 17999 275e 62617365 		.ascii	"base\000"
 17999      00
 18000              	.LASF729:
 18001 2763 6C765F67 		.ascii	"lv_group_get_editing\000"
 18001      726F7570 
 18001      5F676574 
 18001      5F656469 
 18001      74696E67 
 18002              	.LASF82:
 18003 2778 6C765F63 		.ascii	"lv_color16_t\000"
 18003      6F6C6F72 
 18003      31365F74 
 18003      00
 18004              	.LASF63:
 18005 2785 626F785F 		.ascii	"box_w\000"
 18005      7700
 18006              	.LASF5:
 18007 278b 73686F72 		.ascii	"short int\000"
 18007      7420696E 
 18007      7400
 18008              	.LASF71:
 18009 2795 62617365 		.ascii	"base_line\000"
 18009      5F6C696E 
ARM GAS  C:\Users\strap\AppData\Local\Temp\ccTzHSZB.s 			page 393


 18009      6500
 18010              	.LASF290:
 18011 279f 696E765F 		.ascii	"inv_p\000"
 18011      7000
 18012              	.LASF242:
 18013 27a5 6C765F6C 		.ascii	"lv_ll_t\000"
 18013      6C5F7400 
 18014              	.LASF23:
 18015 27ad 75696E74 		.ascii	"uint64_t\000"
 18015      36345F74 
 18015      00
 18016              	.LASF175:
 18017 27b6 4C565F53 		.ascii	"LV_STYLE_TEXT_BLEND_MODE\000"
 18017      54594C45 
 18017      5F544558 
 18017      545F424C 
 18017      454E445F 
 18018              	.LASF232:
 18019 27cf 76616C75 		.ascii	"value_txt_str\000"
 18019      655F7478 
 18019      745F7374 
 18019      7200
 18020              	.LASF188:
 18021 27dd 4C565F53 		.ascii	"LV_STYLE_IMAGE_BLEND_MODE\000"
 18021      54594C45 
 18021      5F494D41 
 18021      47455F42 
 18021      4C454E44 
 18022              	.LASF128:
 18023 27f7 4C565F53 		.ascii	"LV_STYLE_MARGIN_BOTTOM\000"
 18023      54594C45 
 18023      5F4D4152 
 18023      47494E5F 
 18023      424F5454 
 18024              	.LASF51:
 18025 280e 4C565F41 		.ascii	"LV_ALIGN_OUT_TOP_RIGHT\000"
 18025      4C49474E 
 18025      5F4F5554 
 18025      5F544F50 
 18025      5F524947 
 18026              	.LASF653:
 18027 2825 74616276 		.ascii	"tabview_scrl\000"
 18027      6965775F 
 18027      7363726C 
 18027      00
 18028              	.LASF19:
 18029 2832 696E7431 		.ascii	"int16_t\000"
 18029      365F7400 
 18030              	.LASF497:
 18031 283a 5F4C565F 		.ascii	"_LV_CONT_PART_REAL_LAST\000"
 18031      434F4E54 
 18031      5F504152 
 18031      545F5245 
 18031      414C5F4C 
 18032              	.LASF532:
 18033 2852 4C565F54 		.ascii	"LV_TABVIEW_PART_INDIC\000"
 18033      41425649 
ARM GAS  C:\Users\strap\AppData\Local\Temp\ccTzHSZB.s 			page 394


 18033      45575F50 
 18033      4152545F 
 18033      494E4449 
 18034              	.LASF543:
 18035 2868 6374726C 		.ascii	"ctrl_bits\000"
 18035      5F626974 
 18035      7300
 18036              	.LASF295:
 18037 2872 636F6F72 		.ascii	"coords\000"
 18037      647300
 18038              	.LASF162:
 18039 2879 4C565F53 		.ascii	"LV_STYLE_VALUE_LETTER_SPACE\000"
 18039      54594C45 
 18039      5F56414C 
 18039      55455F4C 
 18039      45545445 
 18040              	.LASF656:
 18041 2895 696E6465 		.ascii	"indev\000"
 18041      7600
 18042              	.LASF225:
 18043 289b 62675F6F 		.ascii	"bg_opa_cover\000"
 18043      70615F63 
 18043      6F766572 
 18043      00
 18044              	.LASF459:
 18045 28a8 4C565F53 		.ascii	"LV_STATE_CHECKED\000"
 18045      54415445 
 18045      5F434845 
 18045      434B4544 
 18045      00
 18046              	.LASF258:
 18047 28b9 6C617374 		.ascii	"last_area\000"
 18047      5F617265 
 18047      6100
 18048              	.LASF730:
 18049 28c3 6C765F65 		.ascii	"lv_event_get_data\000"
 18049      76656E74 
 18049      5F676574 
 18049      5F646174 
 18049      6100
 18050              	.LASF122:
 18051 28d5 4C565F53 		.ascii	"LV_STYLE_PAD_TOP\000"
 18051      54594C45 
 18051      5F504144 
 18051      5F544F50 
 18051      00
 18052              	.LASF662:
 18053 28e6 74726573 		.ascii	"treshold\000"
 18053      686F6C64 
 18053      00
 18054              	.LASF513:
 18055 28ef 4C565F54 		.ascii	"LV_TABVIEW_TAB_POS_BOTTOM\000"
 18055      41425649 
 18055      45575F54 
 18055      41425F50 
 18055      4F535F42 
 18056              	.LASF284:
ARM GAS  C:\Users\strap\AppData\Local\Temp\ccTzHSZB.s 			page 395


 18057 2909 64656C5F 		.ascii	"del_prev\000"
 18057      70726576 
 18057      00
 18058              	.LASF420:
 18059 2912 5F4C565F 		.ascii	"_LV_EVENT_LAST\000"
 18059      4556454E 
 18059      545F4C41 
 18059      535400
 18060              	.LASF286:
 18061 2921 62675F69 		.ascii	"bg_img\000"
 18061      6D6700
 18062              	.LASF565:
 18063 2928 4C565F54 		.ascii	"LV_THEME_OBJMASK\000"
 18063      48454D45 
 18063      5F4F424A 
 18063      4D41534B 
 18063      00
 18064              	.LASF714:
 18065 2939 6C765F62 		.ascii	"lv_btnmatrix_get_active_btn\000"
 18065      746E6D61 
 18065      74726978 
 18065      5F676574 
 18065      5F616374 
 18066              	.LASF726:
 18067 2955 6C765F6F 		.ascii	"lv_obj_handle_get_type_signal\000"
 18067      626A5F68 
 18067      616E646C 
 18067      655F6765 
 18067      745F7479 
 18068              	.LASF181:
 18069 2973 4C565F53 		.ascii	"LV_STYLE_LINE_WIDTH\000"
 18069      54594C45 
 18069      5F4C494E 
 18069      455F5749 
 18069      44544800 
 18070              	.LASF310:
 18071 2987 67657374 		.ascii	"gesture_parent\000"
 18071      7572655F 
 18071      70617265 
 18071      6E7400
 18072              	.LASF412:
 18073 2996 4C565F45 		.ascii	"LV_EVENT_DEFOCUSED\000"
 18073      56454E54 
 18073      5F444546 
 18073      4F435553 
 18073      454400
 18074              	.LASF325:
 18075 29a9 4C565F44 		.ascii	"LV_DRAG_DIR_HOR\000"
 18075      5241475F 
 18075      4449525F 
 18075      484F5200 
 18076              	.LASF372:
 18077 29b9 6C765F69 		.ascii	"lv_indev_proc_t\000"
 18077      6E646576 
 18077      5F70726F 
 18077      635F7400 
 18078              	.LASF488:
ARM GAS  C:\Users\strap\AppData\Local\Temp\ccTzHSZB.s 			page 396


 18079 29c9 6C765F6C 		.ascii	"lv_layout_t\000"
 18079      61796F75 
 18079      745F7400 
 18080              	.LASF489:
 18081 29d5 4C565F46 		.ascii	"LV_FIT_NONE\000"
 18081      49545F4E 
 18081      4F4E4500 
 18082              	.LASF584:
 18083 29e1 6C765F61 		.ascii	"lv_area_get_width\000"
 18083      7265615F 
 18083      6765745F 
 18083      77696474 
 18083      6800
 18084              	.LASF229:
 18085 29f3 6F75746C 		.ascii	"outline_width_zero\000"
 18085      696E655F 
 18085      77696474 
 18085      685F7A65 
 18085      726F00
 18086              	.LASF496:
 18087 2a06 5F4C565F 		.ascii	"_LV_CONT_PART_VIRTUAL_LAST\000"
 18087      434F4E54 
 18087      5F504152 
 18087      545F5649 
 18087      52545541 
 18088              	.LASF700:
 18089 2a21 7374726C 		.ascii	"strlen\000"
 18089      656E00
 18090              	.LASF306:
 18091 2a28 64726167 		.ascii	"drag_parent\000"
 18091      5F706172 
 18091      656E7400 
 18092              	.LASF710:
 18093 2a34 6C765F6F 		.ascii	"lv_obj_get_base_dir\000"
 18093      626A5F67 
 18093      65745F62 
 18093      6173655F 
 18093      64697200 
 18094              	.LASF566:
 18095 2a48 4C565F54 		.ascii	"LV_THEME_PAGE\000"
 18095      48454D45 
 18095      5F504147 
 18095      4500
 18096              	.LASF428:
 18097 2a56 4C565F53 		.ascii	"LV_SIGNAL_BASE_DIR_CHG\000"
 18097      49474E41 
 18097      4C5F4241 
 18097      53455F44 
 18097      49525F43 
 18098              	.LASF717:
 18099 2a6d 6C765F6F 		.ascii	"lv_obj_get_parent\000"
 18099      626A5F67 
 18099      65745F70 
 18099      6172656E 
 18099      7400
 18100              	.LASF100:
 18101 2a7f 6163745F 		.ascii	"act_time\000"
ARM GAS  C:\Users\strap\AppData\Local\Temp\ccTzHSZB.s 			page 397


 18101      74696D65 
 18101      00
 18102              	.LASF592:
 18103 2a88 6C765F61 		.ascii	"lv_anim_set_exec_cb\000"
 18103      6E696D5F 
 18103      7365745F 
 18103      65786563 
 18103      5F636200 
 18104              	.LASF341:
 18105 2a9c 64726167 		.ascii	"drag_limit\000"
 18105      5F6C696D 
 18105      697400
 18106              	.LASF275:
 18107 2aa7 6C765F64 		.ascii	"lv_disp_drv_t\000"
 18107      6973705F 
 18107      6472765F 
 18107      7400
 18108              	.LASF233:
 18109 2ab5 696D675F 		.ascii	"img_recolor_opa_transp\000"
 18109      7265636F 
 18109      6C6F725F 
 18109      6F70615F 
 18109      7472616E 
 18110              	.LASF50:
 18111 2acc 4C565F41 		.ascii	"LV_ALIGN_OUT_TOP_MID\000"
 18111      4C49474E 
 18111      5F4F5554 
 18111      5F544F50 
 18111      5F4D4944 
 18112              	.LASF622:
 18113 2ae1 72656672 		.ascii	"refr_indic_size\000"
 18113      5F696E64 
 18113      69635F73 
 18113      697A6500 
 18114              	.LASF334:
 18115 2af1 6C765F69 		.ascii	"lv_indev_data_t\000"
 18115      6E646576 
 18115      5F646174 
 18115      615F7400 
 18116              	.LASF389:
 18117 2b01 4C565F42 		.ascii	"LV_BIDI_DIR_RTL\000"
 18117      4944495F 
 18117      4449525F 
 18117      52544C00 
 18118              	.LASF141:
 18119 2b11 4C565F53 		.ascii	"LV_STYLE_BORDER_POST\000"
 18119      54594C45 
 18119      5F424F52 
 18119      4445525F 
 18119      504F5354 
 18120              	.LASF519:
 18121 2b26 636F6E74 		.ascii	"content\000"
 18121      656E7400 
 18122              	.LASF681:
 18123 2b2e 7461625F 		.ascii	"tab_def\000"
 18123      64656600 
 18124              	.LASF478:
ARM GAS  C:\Users\strap\AppData\Local\Temp\ccTzHSZB.s 			page 398


 18125 2b36 4C565F4C 		.ascii	"LV_LAYOUT_COLUMN_MID\000"
 18125      41594F55 
 18125      545F434F 
 18125      4C554D4E 
 18125      5F4D4944 
 18126              	.LASF185:
 18127 2b4b 4C565F53 		.ascii	"LV_STYLE_LINE_ROUNDED\000"
 18127      54594C45 
 18127      5F4C494E 
 18127      455F524F 
 18127      554E4445 
 18128              	.LASF490:
 18129 2b61 4C565F46 		.ascii	"LV_FIT_TIGHT\000"
 18129      49545F54 
 18129      49474854 
 18129      00
 18130              	.LASF297:
 18131 2b6e 7369676E 		.ascii	"signal_cb\000"
 18131      616C5F63 
 18131      6200
 18132              	.LASF701:
 18133 2b78 6C765F6D 		.ascii	"lv_mem_realloc\000"
 18133      656D5F72 
 18133      65616C6C 
 18133      6F6300
 18134              	.LASF693:
 18135 2b87 6C765F70 		.ascii	"lv_page_get_scrollable\000"
 18135      6167655F 
 18135      6765745F 
 18135      7363726F 
 18135      6C6C6162 
 18136              	.LASF739:
 18137 2b9e 6C765F74 		.ascii	"lv_theme_apply\000"
 18137      68656D65 
 18137      5F617070 
 18137      6C7900
 18138              	.LASF22:
 18139 2bad 75696E74 		.ascii	"uint32_t\000"
 18139      33325F74 
 18139      00
 18140              	.LASF548:
 18141 2bb6 62746E5F 		.ascii	"btn_id_act\000"
 18141      69645F61 
 18141      637400
 18142              	.LASF703:
 18143 2bc1 6C765F6F 		.ascii	"lv_obj_invalidate\000"
 18143      626A5F69 
 18143      6E76616C 
 18143      69646174 
 18143      6500
 18144              	.LASF55:
 18145 2bd3 4C565F41 		.ascii	"LV_ALIGN_OUT_LEFT_TOP\000"
 18145      4C49474E 
 18145      5F4F5554 
 18145      5F4C4546 
 18145      545F544F 
 18146              	.LASF485:
ARM GAS  C:\Users\strap\AppData\Local\Temp\ccTzHSZB.s 			page 399


 18147 2be9 4C565F4C 		.ascii	"LV_LAYOUT_PRETTY_BOTTOM\000"
 18147      41594F55 
 18147      545F5052 
 18147      45545459 
 18147      5F424F54 
 18148              	.LASF379:
 18149 2c01 6F626A5F 		.ascii	"obj_ll\000"
 18149      6C6C00
 18150              	.LASF712:
 18151 2c08 6C765F6F 		.ascii	"lv_obj_set_y\000"
 18151      626A5F73 
 18151      65745F79 
 18151      00
 18152              	.LASF554:
 18153 2c15 4C565F54 		.ascii	"LV_THEME_NONE\000"
 18153      48454D45 
 18153      5F4E4F4E 
 18153      4500
 18154              	.LASF76:
 18155 2c23 6C765F66 		.ascii	"lv_font_t\000"
 18155      6F6E745F 
 18155      7400
 18156              	.LASF363:
 18157 2c2d 6B657970 		.ascii	"keypad\000"
 18157      616400
 18158              	.LASF342:
 18159 2c34 67657374 		.ascii	"gesture_min_velocity\000"
 18159      7572655F 
 18159      6D696E5F 
 18159      76656C6F 
 18159      63697479 
 18160              	.LASF504:
 18161 2c49 4C565F53 		.ascii	"LV_SCROLLBAR_MODE_UNHIDE\000"
 18161      43524F4C 
 18161      4C424152 
 18161      5F4D4F44 
 18161      455F554E 
 18162              	.LASF757:
 18163 2c62 6C765F6F 		.ascii	"lv_obj_del\000"
 18163      626A5F64 
 18163      656C00
 18164              	.LASF214:
 18165 2c6d 69676E6F 		.ascii	"ignore_trans\000"
 18165      72655F74 
 18165      72616E73 
 18165      00
 18166              	.LASF7:
 18167 2c7a 73686F72 		.ascii	"short unsigned int\000"
 18167      7420756E 
 18167      7369676E 
 18167      65642069 
 18167      6E7400
 18168              	.LASF743:
 18169 2c8d 6C765F6F 		.ascii	"lv_obj_get_width_fit\000"
 18169      626A5F67 
 18169      65745F77 
 18169      69647468 
ARM GAS  C:\Users\strap\AppData\Local\Temp\ccTzHSZB.s 			page 400


 18169      5F666974 
 18170              	.LASF471:
 18171 2ca2 70617274 		.ascii	"part\000"
 18171      00
 18172              	.LASF410:
 18173 2ca7 4C565F45 		.ascii	"LV_EVENT_KEY\000"
 18173      56454E54 
 18173      5F4B4559 
 18173      00
 18174              	.LASF587:
 18175 2cb4 6C765F6F 		.ascii	"lv_obj_get_style_pad_inner\000"
 18175      626A5F67 
 18175      65745F73 
 18175      74796C65 
 18175      5F706164 
 18176              	.LASF25:
 18177 2ccf 6C765F63 		.ascii	"lv_coord_t\000"
 18177      6F6F7264 
 18177      5F7400
 18178              	.LASF318:
 18179 2cda 4C565F49 		.ascii	"LV_INDEV_TYPE_NONE\000"
 18179      4E444556 
 18179      5F545950 
 18179      455F4E4F 
 18179      4E4500
 18180              	.LASF163:
 18181 2ced 4C565F53 		.ascii	"LV_STYLE_VALUE_LINE_SPACE\000"
 18181      54594C45 
 18181      5F56414C 
 18181      55455F4C 
 18181      494E455F 
 18182              	.LASF267:
 18183 2d07 666C7573 		.ascii	"flush_cb\000"
 18183      685F6362 
 18183      00
 18184              	.LASF147:
 18185 2d10 4C565F53 		.ascii	"LV_STYLE_OUTLINE_COLOR\000"
 18185      54594C45 
 18185      5F4F5554 
 18185      4C494E45 
 18185      5F434F4C 
 18186              	.LASF74:
 18187 2d27 75736572 		.ascii	"user_data\000"
 18187      5F646174 
 18187      6100
 18188              	.LASF400:
 18189 2d31 4C565F45 		.ascii	"LV_EVENT_PRESS_LOST\000"
 18189      56454E54 
 18189      5F505245 
 18189      53535F4C 
 18189      4F535400 
 18190              	.LASF107:
 18191 2d45 706C6179 		.ascii	"playback_now\000"
 18191      6261636B 
 18191      5F6E6F77 
 18191      00
 18192              	.LASF753:
ARM GAS  C:\Users\strap\AppData\Local\Temp\ccTzHSZB.s 			page 401


 18193 2d52 6C765F6F 		.ascii	"lv_obj_clean_style_list\000"
 18193      626A5F63 
 18193      6C65616E 
 18193      5F737479 
 18193      6C655F6C 
 18194              	.LASF152:
 18195 2d6a 4C565F53 		.ascii	"LV_STYLE_SHADOW_SPREAD\000"
 18195      54594C45 
 18195      5F534841 
 18195      444F575F 
 18195      53505245 
 18196              	.LASF759:
 18197 2d81 6C76676C 		.ascii	"lvgl\\src\\lv_widgets\\lv_tabview.c\000"
 18197      5C737263 
 18197      5C6C765F 
 18197      77696467 
 18197      6574735C 
 18198              	.LASF615:
 18199 2da2 72656672 		.ascii	"refr_content_size\000"
 18199      5F636F6E 
 18199      74656E74 
 18199      5F73697A 
 18199      6500
 18200              	.LASF555:
 18201 2db4 4C565F54 		.ascii	"LV_THEME_SCR\000"
 18201      48454D45 
 18201      5F534352 
 18201      00
 18202              	.LASF68:
 18203 2dc1 6765745F 		.ascii	"get_glyph_dsc\000"
 18203      676C7970 
 18203      685F6473 
 18203      6300
 18204              	.LASF8:
 18205 2dcf 5F5F696E 		.ascii	"__int32_t\000"
 18205      7433325F 
 18205      7400
 18206              	.LASF329:
 18207 2dd9 6C765F64 		.ascii	"lv_drag_dir_t\000"
 18207      7261675F 
 18207      6469725F 
 18207      7400
 18208              	.LASF411:
 18209 2de7 4C565F45 		.ascii	"LV_EVENT_FOCUSED\000"
 18209      56454E54 
 18209      5F464F43 
 18209      55534544 
 18209      00
 18210              	.LASF385:
 18211 2df8 7265666F 		.ascii	"refocus_policy\000"
 18211      6375735F 
 18211      706F6C69 
 18211      637900
 18212              	.LASF368:
 18213 2e07 6C6F6E67 		.ascii	"long_pr_sent\000"
 18213      5F70725F 
 18213      73656E74 
ARM GAS  C:\Users\strap\AppData\Local\Temp\ccTzHSZB.s 			page 402


 18213      00
 18214              	.LASF619:
 18215 2e14 62675F62 		.ascii	"bg_bottom\000"
 18215      6F74746F 
 18215      6D00
 18216              	.LASF422:
 18217 2e1e 6C765F65 		.ascii	"lv_event_cb_t\000"
 18217      76656E74 
 18217      5F63625F 
 18217      7400
 18218              	.LASF460:
 18219 2e2c 4C565F53 		.ascii	"LV_STATE_FOCUSED\000"
 18219      54415445 
 18219      5F464F43 
 18219      55534544 
 18219      00
 18220              	.LASF574:
 18221 2e3d 5F4C565F 		.ascii	"_LV_THEME_CUSTOM_LAST\000"
 18221      5448454D 
 18221      455F4355 
 18221      53544F4D 
 18221      5F4C4153 
 18222              	.LASF578:
 18223 2e53 6C765F6F 		.ascii	"lv_obj_get_style_pad_top\000"
 18223      626A5F67 
 18223      65745F73 
 18223      74796C65 
 18223      5F706164 
 18224              	.LASF533:
 18225 2e6c 5F4C565F 		.ascii	"_LV_TABVIEW_PART_REAL_LAST\000"
 18225      54414256 
 18225      4945575F 
 18225      50415254 
 18225      5F524541 
 18226              	.LASF679:
 18227 2e87 616E6365 		.ascii	"ancestor_scrl_signal\000"
 18227      73746F72 
 18227      5F736372 
 18227      6C5F7369 
 18227      676E616C 
 18228              	.LASF343:
 18229 2e9c 67657374 		.ascii	"gesture_limit\000"
 18229      7572655F 
 18229      6C696D69 
 18229      7400
 18230              	.LASF613:
 18231 2eaa 62746E73 		.ascii	"btns_h\000"
 18231      5F6800
 18232              	.LASF212:
 18233 2eb1 6861735F 		.ascii	"has_trans\000"
 18233      7472616E 
 18233      7300
 18234              	.LASF537:
 18235 2ebb 4C565F42 		.ascii	"LV_BTNMATRIX_CTRL_CHECKABLE\000"
 18235      544E4D41 
 18235      54524958 
 18235      5F435452 
ARM GAS  C:\Users\strap\AppData\Local\Temp\ccTzHSZB.s 			page 403


 18235      4C5F4348 
 18236              	.LASF243:
 18237 2ed7 6C765F74 		.ascii	"lv_task_cb_t\000"
 18237      61736B5F 
 18237      63625F74 
 18237      00
 18238              	.LASF547:
 18239 2ee4 62746E5F 		.ascii	"btn_id_focused\000"
 18239      69645F66 
 18239      6F637573 
 18239      656400
 18240              	.LASF740:
 18241 2ef3 6C765F6D 		.ascii	"lv_mem_alloc\000"
 18241      656D5F61 
 18241      6C6C6F63 
 18241      00
 18242              	.LASF655:
 18243 2f00 70617261 		.ascii	"param\000"
 18243      6D00
 18244              	.LASF425:
 18245 2f06 4C565F53 		.ascii	"LV_SIGNAL_COORD_CHG\000"
 18245      49474E41 
 18245      4C5F434F 
 18245      4F52445F 
 18245      43484700 
 18246              	.LASF90:
 18247 2f1a 5F6C765F 		.ascii	"_lv_font_struct\000"
 18247      666F6E74 
 18247      5F737472 
 18247      75637400 
 18248              	.LASF612:
 18249 2f2a 62746E73 		.ascii	"btns_w\000"
 18249      5F7700
 18250              	.LASF365:
 18251 2f31 74797065 		.ascii	"types\000"
 18251      7300
 18252              	.LASF92:
 18253 2f37 5F6C765F 		.ascii	"_lv_anim_t\000"
 18253      616E696D 
 18253      5F7400
 18254              	.LASF239:
 18255 2f42 6E5F7369 		.ascii	"n_size\000"
 18255      7A6500
 18256              	.LASF375:
 18257 2f49 63757273 		.ascii	"cursor\000"
 18257      6F7200
 18258              	.LASF378:
 18259 2f50 5F6C765F 		.ascii	"_lv_group_t\000"
 18259      67726F75 
 18259      705F7400 
 18260              	.LASF405:
 18261 2f5c 4C565F45 		.ascii	"LV_EVENT_RELEASED\000"
 18261      56454E54 
 18261      5F52454C 
 18261      45415345 
 18261      4400
 18262              	.LASF145:
ARM GAS  C:\Users\strap\AppData\Local\Temp\ccTzHSZB.s 			page 404


 18263 2f6e 4C565F53 		.ascii	"LV_STYLE_OUTLINE_PAD\000"
 18263      54594C45 
 18263      5F4F5554 
 18263      4C494E45 
 18263      5F504144 
 18264              	.LASF397:
 18265 2f83 6C765F64 		.ascii	"lv_design_cb_t\000"
 18265      65736967 
 18265      6E5F6362 
 18265      5F7400
 18266              	.LASF721:
 18267 2f92 6C765F6F 		.ascii	"lv_obj_get_group\000"
 18267      626A5F67 
 18267      65745F67 
 18267      726F7570 
 18267      00
 18268              	.LASF756:
 18269 2fa3 6C765F6F 		.ascii	"lv_obj_allocate_ext_attr\000"
 18269      626A5F61 
 18269      6C6C6F63 
 18269      6174655F 
 18269      6578745F 
 18270              	.LASF380:
 18271 2fbc 6F626A5F 		.ascii	"obj_focus\000"
 18271      666F6375 
 18271      7300
 18272              	.LASF172:
 18273 2fc6 4C565F53 		.ascii	"LV_STYLE_TEXT_LETTER_SPACE\000"
 18273      54594C45 
 18273      5F544558 
 18273      545F4C45 
 18273      54544552 
 18274              		.ident	"GCC: (GNU Tools for ARM Embedded Processors) 5.4.1 20160609 (release) [ARM/embedded-5-bran
