ARM GAS  C:\Users\strap\AppData\Local\Temp\ccmc3zNC.s 			page 1


   1              		.syntax unified
   2              		.cpu cortex-m3
   3              		.fpu softvfp
   4              		.eabi_attribute 20, 1
   5              		.eabi_attribute 21, 1
   6              		.eabi_attribute 23, 3
   7              		.eabi_attribute 24, 1
   8              		.eabi_attribute 25, 1
   9              		.eabi_attribute 26, 1
  10              		.eabi_attribute 30, 1
  11              		.eabi_attribute 34, 1
  12              		.eabi_attribute 18, 4
  13              		.thumb
  14              		.syntax unified
  15              		.file	"lv_utils.c"
  16              		.text
  17              	.Ltext0:
  18              		.cfi_sections	.debug_frame
  19              		.section	.text._lv_utils_num_to_str,"ax",%progbits
  20              		.align	2
  21              		.global	_lv_utils_num_to_str
  22              		.thumb
  23              		.thumb_func
  24              		.type	_lv_utils_num_to_str, %function
  25              	_lv_utils_num_to_str:
  26              	.LFB5:
  27              		.file 1 "lvgl\\src\\lv_misc\\lv_utils.c"
   1:lvgl\src\lv_misc/lv_utils.c **** /**
   2:lvgl\src\lv_misc/lv_utils.c ****  * @file lv_utils.c
   3:lvgl\src\lv_misc/lv_utils.c ****  *
   4:lvgl\src\lv_misc/lv_utils.c ****  */
   5:lvgl\src\lv_misc/lv_utils.c **** 
   6:lvgl\src\lv_misc/lv_utils.c **** /*********************
   7:lvgl\src\lv_misc/lv_utils.c ****  *      INCLUDES
   8:lvgl\src\lv_misc/lv_utils.c ****  *********************/
   9:lvgl\src\lv_misc/lv_utils.c **** #include <stdbool.h>
  10:lvgl\src\lv_misc/lv_utils.c **** 
  11:lvgl\src\lv_misc/lv_utils.c **** #include "lv_utils.h"
  12:lvgl\src\lv_misc/lv_utils.c **** #include "lv_math.h"
  13:lvgl\src\lv_misc/lv_utils.c **** #include "lv_printf.h"
  14:lvgl\src\lv_misc/lv_utils.c **** #include "lv_txt.h"
  15:lvgl\src\lv_misc/lv_utils.c **** 
  16:lvgl\src\lv_misc/lv_utils.c **** /*********************
  17:lvgl\src\lv_misc/lv_utils.c ****  *      DEFINES
  18:lvgl\src\lv_misc/lv_utils.c ****  *********************/
  19:lvgl\src\lv_misc/lv_utils.c **** 
  20:lvgl\src\lv_misc/lv_utils.c **** /**********************
  21:lvgl\src\lv_misc/lv_utils.c ****  *      TYPEDEFS
  22:lvgl\src\lv_misc/lv_utils.c ****  **********************/
  23:lvgl\src\lv_misc/lv_utils.c **** 
  24:lvgl\src\lv_misc/lv_utils.c **** /**********************
  25:lvgl\src\lv_misc/lv_utils.c ****  *  STATIC PROTOTYPES
  26:lvgl\src\lv_misc/lv_utils.c ****  **********************/
  27:lvgl\src\lv_misc/lv_utils.c **** 
  28:lvgl\src\lv_misc/lv_utils.c **** /**********************
  29:lvgl\src\lv_misc/lv_utils.c ****  *  STATIC VARIABLES
  30:lvgl\src\lv_misc/lv_utils.c ****  **********************/
ARM GAS  C:\Users\strap\AppData\Local\Temp\ccmc3zNC.s 			page 2


  31:lvgl\src\lv_misc/lv_utils.c **** 
  32:lvgl\src\lv_misc/lv_utils.c **** /**********************
  33:lvgl\src\lv_misc/lv_utils.c ****  *      MACROS
  34:lvgl\src\lv_misc/lv_utils.c ****  **********************/
  35:lvgl\src\lv_misc/lv_utils.c **** 
  36:lvgl\src\lv_misc/lv_utils.c **** /**********************
  37:lvgl\src\lv_misc/lv_utils.c ****  *   GLOBAL FUNCTIONS
  38:lvgl\src\lv_misc/lv_utils.c ****  **********************/
  39:lvgl\src\lv_misc/lv_utils.c **** 
  40:lvgl\src\lv_misc/lv_utils.c **** /**
  41:lvgl\src\lv_misc/lv_utils.c ****  * Convert a number to string
  42:lvgl\src\lv_misc/lv_utils.c ****  * @param num a number
  43:lvgl\src\lv_misc/lv_utils.c ****  * @param buf pointer to a `char` buffer. The result will be stored here (max 10 elements)
  44:lvgl\src\lv_misc/lv_utils.c ****  * @return same as `buf` (just for convenience)
  45:lvgl\src\lv_misc/lv_utils.c ****  */
  46:lvgl\src\lv_misc/lv_utils.c **** char * _lv_utils_num_to_str(int32_t num, char * buf)
  47:lvgl\src\lv_misc/lv_utils.c **** {
  28              		.loc 1 47 0
  29              		.cfi_startproc
  30              		@ args = 0, pretend = 0, frame = 0
  31              		@ frame_needed = 0, uses_anonymous_args = 0
  32              		@ link register save eliminated.
  33              	.LVL0:
  48:lvgl\src\lv_misc/lv_utils.c ****     if(num == 0) {
  34              		.loc 1 48 0
  35 0000 28B9     		cbnz	r0, .L2
  49:lvgl\src\lv_misc/lv_utils.c ****         buf[0] = '0';
  36              		.loc 1 49 0
  37 0002 3023     		movs	r3, #48
  38 0004 0B70     		strb	r3, [r1]
  50:lvgl\src\lv_misc/lv_utils.c ****         buf[1] = '\0';
  39              		.loc 1 50 0
  40 0006 0023     		movs	r3, #0
  41 0008 4B70     		strb	r3, [r1, #1]
  51:lvgl\src\lv_misc/lv_utils.c ****         return buf;
  52:lvgl\src\lv_misc/lv_utils.c ****     }
  53:lvgl\src\lv_misc/lv_utils.c ****     int8_t digitCount = 0;
  54:lvgl\src\lv_misc/lv_utils.c ****     int8_t i          = 0;
  55:lvgl\src\lv_misc/lv_utils.c ****     if(num < 0) {
  56:lvgl\src\lv_misc/lv_utils.c ****         buf[digitCount++] = '-';
  57:lvgl\src\lv_misc/lv_utils.c ****         num               = LV_MATH_ABS(num);
  58:lvgl\src\lv_misc/lv_utils.c ****         ++i;
  59:lvgl\src\lv_misc/lv_utils.c ****     }
  60:lvgl\src\lv_misc/lv_utils.c ****     while(num) {
  61:lvgl\src\lv_misc/lv_utils.c ****         char digit        = num % 10;
  62:lvgl\src\lv_misc/lv_utils.c ****         buf[digitCount++] = digit + 48;
  63:lvgl\src\lv_misc/lv_utils.c ****         num /= 10;
  64:lvgl\src\lv_misc/lv_utils.c ****     }
  65:lvgl\src\lv_misc/lv_utils.c ****     buf[digitCount] = '\0';
  66:lvgl\src\lv_misc/lv_utils.c ****     digitCount--;
  67:lvgl\src\lv_misc/lv_utils.c ****     while(digitCount > i) {
  68:lvgl\src\lv_misc/lv_utils.c ****         char temp       = buf[i];
  69:lvgl\src\lv_misc/lv_utils.c ****         buf[i]          = buf[digitCount];
  70:lvgl\src\lv_misc/lv_utils.c ****         buf[digitCount] = temp;
  71:lvgl\src\lv_misc/lv_utils.c ****         digitCount--;
  72:lvgl\src\lv_misc/lv_utils.c ****         i++;
  73:lvgl\src\lv_misc/lv_utils.c ****     }
ARM GAS  C:\Users\strap\AppData\Local\Temp\ccmc3zNC.s 			page 3


  74:lvgl\src\lv_misc/lv_utils.c ****     return buf;
  75:lvgl\src\lv_misc/lv_utils.c **** }
  42              		.loc 1 75 0
  43 000a 0846     		mov	r0, r1
  44              	.LVL1:
  45 000c 7047     		bx	lr
  46              	.LVL2:
  47              	.L2:
  47:lvgl\src\lv_misc/lv_utils.c ****     if(num == 0) {
  48              		.loc 1 47 0
  49 000e 70B4     		push	{r4, r5, r6}
  50              		.cfi_def_cfa_offset 12
  51              		.cfi_offset 4, -12
  52              		.cfi_offset 5, -8
  53              		.cfi_offset 6, -4
  54 0010 0446     		mov	r4, r0
  55              	.LVL3:
  55:lvgl\src\lv_misc/lv_utils.c ****         buf[digitCount++] = '-';
  56              		.loc 1 55 0
  57 0012 0028     		cmp	r0, #0
  58 0014 07DA     		bge	.L9
  59              	.LVL4:
  56:lvgl\src\lv_misc/lv_utils.c ****         num               = LV_MATH_ABS(num);
  60              		.loc 1 56 0
  61 0016 2D23     		movs	r3, #45
  62 0018 0B70     		strb	r3, [r1]
  57:lvgl\src\lv_misc/lv_utils.c ****         ++i;
  63              		.loc 1 57 0
  64 001a 0028     		cmp	r0, #0
  65 001c B8BF     		it	lt
  66 001e 4442     		rsblt	r4, r0, #0
  67              	.LVL5:
  58:lvgl\src\lv_misc/lv_utils.c ****     }
  68              		.loc 1 58 0
  69 0020 0120     		movs	r0, #1
  56:lvgl\src\lv_misc/lv_utils.c ****         num               = LV_MATH_ABS(num);
  70              		.loc 1 56 0
  71 0022 0246     		mov	r2, r0
  72 0024 13E0     		b	.L5
  73              	.LVL6:
  74              	.L9:
  54:lvgl\src\lv_misc/lv_utils.c ****     if(num < 0) {
  75              		.loc 1 54 0
  76 0026 0020     		movs	r0, #0
  77              	.LVL7:
  53:lvgl\src\lv_misc/lv_utils.c ****     int8_t i          = 0;
  78              		.loc 1 53 0
  79 0028 0246     		mov	r2, r0
  80 002a 10E0     		b	.L5
  81              	.LVL8:
  82              	.L6:
  83              	.LBB2:
  61:lvgl\src\lv_misc/lv_utils.c ****         buf[digitCount++] = digit + 48;
  84              		.loc 1 61 0
  85 002c 124B     		ldr	r3, .L11
  86 002e 83FB0435 		smull	r3, r5, r3, r4
  87 0032 E317     		asrs	r3, r4, #31
ARM GAS  C:\Users\strap\AppData\Local\Temp\ccmc3zNC.s 			page 4


  88 0034 C3EBA503 		rsb	r3, r3, r5, asr #2
  89 0038 1E46     		mov	r6, r3
  90 003a 03EB8303 		add	r3, r3, r3, lsl #2
  91 003e 5D00     		lsls	r5, r3, #1
  92 0040 631B     		subs	r3, r4, r5
  93 0042 DBB2     		uxtb	r3, r3
  94              	.LVL9:
  62:lvgl\src\lv_misc/lv_utils.c ****         num /= 10;
  95              		.loc 1 62 0
  96 0044 551C     		adds	r5, r2, #1
  97              	.LVL10:
  98 0046 3033     		adds	r3, r3, #48
  99              	.LVL11:
 100 0048 8B54     		strb	r3, [r1, r2]
  63:lvgl\src\lv_misc/lv_utils.c ****     }
 101              		.loc 1 63 0
 102 004a 3446     		mov	r4, r6
 103              	.LVL12:
  62:lvgl\src\lv_misc/lv_utils.c ****         num /= 10;
 104              		.loc 1 62 0
 105 004c 6AB2     		sxtb	r2, r5
 106              	.LVL13:
 107              	.L5:
 108              	.LBE2:
  60:lvgl\src\lv_misc/lv_utils.c ****         char digit        = num % 10;
 109              		.loc 1 60 0
 110 004e 002C     		cmp	r4, #0
 111 0050 ECD1     		bne	.L6
  65:lvgl\src\lv_misc/lv_utils.c ****     digitCount--;
 112              		.loc 1 65 0
 113 0052 0023     		movs	r3, #0
 114 0054 8B54     		strb	r3, [r1, r2]
  66:lvgl\src\lv_misc/lv_utils.c ****     while(digitCount > i) {
 115              		.loc 1 66 0
 116 0056 531E     		subs	r3, r2, #1
 117 0058 5BB2     		sxtb	r3, r3
 118              	.LVL14:
  67:lvgl\src\lv_misc/lv_utils.c ****         char temp       = buf[i];
 119              		.loc 1 67 0
 120 005a 07E0     		b	.L7
 121              	.LVL15:
 122              	.L8:
 123              	.LBB3:
  68:lvgl\src\lv_misc/lv_utils.c ****         buf[i]          = buf[digitCount];
 124              		.loc 1 68 0
 125 005c 0A5C     		ldrb	r2, [r1, r0]	@ zero_extendqisi2
 126              	.LVL16:
  69:lvgl\src\lv_misc/lv_utils.c ****         buf[digitCount] = temp;
 127              		.loc 1 69 0
 128 005e CC5C     		ldrb	r4, [r1, r3]	@ zero_extendqisi2
 129 0060 0C54     		strb	r4, [r1, r0]
  70:lvgl\src\lv_misc/lv_utils.c ****         digitCount--;
 130              		.loc 1 70 0
 131 0062 CA54     		strb	r2, [r1, r3]
  71:lvgl\src\lv_misc/lv_utils.c ****         i++;
 132              		.loc 1 71 0
 133 0064 013B     		subs	r3, r3, #1
ARM GAS  C:\Users\strap\AppData\Local\Temp\ccmc3zNC.s 			page 5


 134              	.LVL17:
 135 0066 5BB2     		sxtb	r3, r3
 136              	.LVL18:
  72:lvgl\src\lv_misc/lv_utils.c ****     }
 137              		.loc 1 72 0
 138 0068 0130     		adds	r0, r0, #1
 139              	.LVL19:
 140 006a 40B2     		sxtb	r0, r0
 141              	.LVL20:
 142              	.L7:
 143              	.LBE3:
  67:lvgl\src\lv_misc/lv_utils.c ****         char temp       = buf[i];
 144              		.loc 1 67 0
 145 006c 8342     		cmp	r3, r0
 146 006e F5DC     		bgt	.L8
 147              		.loc 1 75 0
 148 0070 0846     		mov	r0, r1
 149              	.LVL21:
 150 0072 70BC     		pop	{r4, r5, r6}
 151              		.cfi_restore 6
 152              		.cfi_restore 5
 153              		.cfi_restore 4
 154              		.cfi_def_cfa_offset 0
 155 0074 7047     		bx	lr
 156              	.L12:
 157 0076 00BF     		.align	2
 158              	.L11:
 159 0078 67666666 		.word	1717986919
 160              		.cfi_endproc
 161              	.LFE5:
 162              		.size	_lv_utils_num_to_str, .-_lv_utils_num_to_str
 163              		.section	.text._lv_utils_bsearch,"ax",%progbits
 164              		.align	2
 165              		.global	_lv_utils_bsearch
 166              		.thumb
 167              		.thumb_func
 168              		.type	_lv_utils_bsearch, %function
 169              	_lv_utils_bsearch:
 170              	.LFB6:
  76:lvgl\src\lv_misc/lv_utils.c **** 
  77:lvgl\src\lv_misc/lv_utils.c **** /** Searches base[0] to base[n - 1] for an item that matches *key.
  78:lvgl\src\lv_misc/lv_utils.c ****  *
  79:lvgl\src\lv_misc/lv_utils.c ****  * @note The function cmp must return negative if its first
  80:lvgl\src\lv_misc/lv_utils.c ****  *  argument (the search key) is less that its second (a table entry),
  81:lvgl\src\lv_misc/lv_utils.c ****  *  zero if equal, and positive if greater.
  82:lvgl\src\lv_misc/lv_utils.c ****  *
  83:lvgl\src\lv_misc/lv_utils.c ****  *  @note Items in the array must be in ascending order.
  84:lvgl\src\lv_misc/lv_utils.c ****  *
  85:lvgl\src\lv_misc/lv_utils.c ****  * @param key    Pointer to item being searched for
  86:lvgl\src\lv_misc/lv_utils.c ****  * @param base   Pointer to first element to search
  87:lvgl\src\lv_misc/lv_utils.c ****  * @param n      Number of elements
  88:lvgl\src\lv_misc/lv_utils.c ****  * @param size   Size of each element
  89:lvgl\src\lv_misc/lv_utils.c ****  * @param cmp    Pointer to comparison function (see #lv_font_codeCompare as a comparison function
  90:lvgl\src\lv_misc/lv_utils.c ****  * example)
  91:lvgl\src\lv_misc/lv_utils.c ****  *
  92:lvgl\src\lv_misc/lv_utils.c ****  * @return a pointer to a matching item, or NULL if none exists.
  93:lvgl\src\lv_misc/lv_utils.c ****  */
ARM GAS  C:\Users\strap\AppData\Local\Temp\ccmc3zNC.s 			page 6


  94:lvgl\src\lv_misc/lv_utils.c **** void * _lv_utils_bsearch(const void * key, const void * base, uint32_t n, uint32_t size,
  95:lvgl\src\lv_misc/lv_utils.c ****                          int32_t (*cmp)(const void * pRef, const void * pElement))
  96:lvgl\src\lv_misc/lv_utils.c **** {
 171              		.loc 1 96 0
 172              		.cfi_startproc
 173              		@ args = 4, pretend = 0, frame = 0
 174              		@ frame_needed = 0, uses_anonymous_args = 0
 175              	.LVL22:
 176 0000 2DE9F047 		push	{r4, r5, r6, r7, r8, r9, r10, lr}
 177              		.cfi_def_cfa_offset 32
 178              		.cfi_offset 4, -32
 179              		.cfi_offset 5, -28
 180              		.cfi_offset 6, -24
 181              		.cfi_offset 7, -20
 182              		.cfi_offset 8, -16
 183              		.cfi_offset 9, -12
 184              		.cfi_offset 10, -8
 185              		.cfi_offset 14, -4
 186 0004 8246     		mov	r10, r0
 187 0006 8846     		mov	r8, r1
 188 0008 1446     		mov	r4, r2
 189 000a 1F46     		mov	r7, r3
 190 000c DDF82090 		ldr	r9, [sp, #32]
 191              	.LVL23:
  97:lvgl\src\lv_misc/lv_utils.c ****     const char * middle;
  98:lvgl\src\lv_misc/lv_utils.c ****     int32_t c;
  99:lvgl\src\lv_misc/lv_utils.c **** 
 100:lvgl\src\lv_misc/lv_utils.c ****     for(middle = base; n != 0;) {
 192              		.loc 1 100 0
 193 0010 13E0     		b	.L14
 194              	.LVL24:
 195              	.L18:
 101:lvgl\src\lv_misc/lv_utils.c ****         middle += (n / 2) * size;
 196              		.loc 1 101 0
 197 0012 6508     		lsrs	r5, r4, #1
 198 0014 07FB0586 		mla	r6, r7, r5, r8
 199              	.LVL25:
 102:lvgl\src\lv_misc/lv_utils.c ****         if((c = (*cmp)(key, middle)) > 0) {
 200              		.loc 1 102 0
 201 0018 3146     		mov	r1, r6
 202 001a 5046     		mov	r0, r10
 203 001c C847     		blx	r9
 204              	.LVL26:
 205 001e 0028     		cmp	r0, #0
 206 0020 08DD     		ble	.L15
 103:lvgl\src\lv_misc/lv_utils.c ****             n    = (n / 2) - ((n & 1) == 0);
 207              		.loc 1 103 0
 208 0022 14F0010F 		tst	r4, #1
 209 0026 0CBF     		ite	eq
 210 0028 0124     		moveq	r4, #1
 211              	.LVL27:
 212 002a 0024     		movne	r4, #0
 213 002c 2C1B     		subs	r4, r5, r4
 214              	.LVL28:
 104:lvgl\src\lv_misc/lv_utils.c ****             base = (middle += size);
 215              		.loc 1 104 0
 216 002e 06EB0708 		add	r8, r6, r7
ARM GAS  C:\Users\strap\AppData\Local\Temp\ccmc3zNC.s 			page 7


 217              	.LVL29:
 218 0032 02E0     		b	.L14
 219              	.LVL30:
 220              	.L15:
 105:lvgl\src\lv_misc/lv_utils.c ****         }
 106:lvgl\src\lv_misc/lv_utils.c ****         else if(c < 0) {
 221              		.loc 1 106 0
 222 0034 0028     		cmp	r0, #0
 223 0036 05DA     		bge	.L19
 107:lvgl\src\lv_misc/lv_utils.c ****             n /= 2;
 224              		.loc 1 107 0
 225 0038 2C46     		mov	r4, r5
 226              	.LVL31:
 227              	.L14:
 100:lvgl\src\lv_misc/lv_utils.c ****         middle += (n / 2) * size;
 228              		.loc 1 100 0 discriminator 1
 229 003a 002C     		cmp	r4, #0
 230 003c E9D1     		bne	.L18
 108:lvgl\src\lv_misc/lv_utils.c ****             middle = base;
 109:lvgl\src\lv_misc/lv_utils.c ****         }
 110:lvgl\src\lv_misc/lv_utils.c ****         else {
 111:lvgl\src\lv_misc/lv_utils.c ****             return (char *)middle;
 112:lvgl\src\lv_misc/lv_utils.c ****         }
 113:lvgl\src\lv_misc/lv_utils.c ****     }
 114:lvgl\src\lv_misc/lv_utils.c ****     return NULL;
 231              		.loc 1 114 0
 232 003e 0020     		movs	r0, #0
 233 0040 BDE8F087 		pop	{r4, r5, r6, r7, r8, r9, r10, pc}
 234              	.LVL32:
 235              	.L19:
 111:lvgl\src\lv_misc/lv_utils.c ****         }
 236              		.loc 1 111 0
 237 0044 3046     		mov	r0, r6
 238              	.LVL33:
 115:lvgl\src\lv_misc/lv_utils.c **** }
 239              		.loc 1 115 0
 240 0046 BDE8F087 		pop	{r4, r5, r6, r7, r8, r9, r10, pc}
 241              		.cfi_endproc
 242              	.LFE6:
 243              		.size	_lv_utils_bsearch, .-_lv_utils_bsearch
 244 004a 00BF     		.text
 245              	.Letext0:
 246              		.file 2 "c:\\program files (x86)\\cypress\\psoc creator\\4.4\\psoc creator\\import\\gnu\\arm\\5.4.
 247              		.file 3 "c:\\program files (x86)\\cypress\\psoc creator\\4.4\\psoc creator\\import\\gnu\\arm\\5.4.