ARM GAS  C:\Users\strap\AppData\Local\Temp\cci64Z2T.s 			page 1


   1              		.syntax unified
   2              		.cpu cortex-m3
   3              		.fpu softvfp
   4              		.eabi_attribute 20, 1
   5              		.eabi_attribute 21, 1
   6              		.eabi_attribute 23, 3
   7              		.eabi_attribute 24, 1
   8              		.eabi_attribute 25, 1
   9              		.eabi_attribute 26, 1
  10              		.eabi_attribute 30, 1
  11              		.eabi_attribute 34, 1
  12              		.eabi_attribute 18, 4
  13              		.thumb
  14              		.syntax unified
  15              		.file	"main.c"
  16              		.text
  17              	.Ltext0:
  18              		.cfi_sections	.debug_frame
  19              		.section	.text.voltage_ddlist_handler,"ax",%progbits
  20              		.align	2
  21              		.thumb
  22              		.thumb_func
  23              		.type	voltage_ddlist_handler, %function
  24              	voltage_ddlist_handler:
  25              	.LFB456:
  26              		.file 1 "main.c"
   1:main.c        **** #include "project.h"
   2:main.c        **** 
   3:main.c        **** #include <stdbool.h>
   4:main.c        **** #include <stdio.h>
   5:main.c        **** #include <string.h>
   6:main.c        **** 
   7:main.c        **** #include "lvgl/lvgl.h"
   8:main.c        **** #include "ili9341.h"
   9:main.c        **** 
  10:main.c        **** #include "spi_dma.h"
  11:main.c        **** #include "disp_spi.h"
  12:main.c        **** 
  13:main.c        **** #include "driver_generic.h"
  14:main.c        **** #include "psoc_platform.h"
  15:main.c        **** 
  16:main.c        **** #define NUM_ELEMENTS(x) (sizeof x / sizeof *x)
  17:main.c        **** 
  18:main.c        **** #define DISPLAY_BUFFER_SIZE (LV_HOR_RES_MAX * 10)
  19:main.c        **** 
  20:main.c        **** enum { FEED_FORM_CMD = 0x0C };
  21:main.c        **** 
  22:main.c        **** /* DMA Done handler */
  23:main.c        **** CY_ISR_PROTO(spi_tx_dma_done);
  24:main.c        **** /* SPI Tx Done handler */
  25:main.c        **** CY_ISR_PROTO(spi_tx_isr_handler);
  26:main.c        **** 
  27:main.c        **** void timer_tick_handler(void);
  28:main.c        **** 
  29:main.c        **** /* LVGL function declaration */
  30:main.c        **** static void create_application_screen(lv_obj_t *parent);
  31:main.c        **** static int16_t get_encoder_diff(void);
ARM GAS  C:\Users\strap\AppData\Local\Temp\cci64Z2T.s 			page 2


  32:main.c        **** static bool encoder_read(lv_indev_drv_t *drv, lv_indev_data_t *data);
  33:main.c        **** 
  34:main.c        **** /* MAIN APP */
  35:main.c        **** lv_obj_t *selected_option;
  36:main.c        **** 
  37:main.c        **** LV_EVENT_CB_DECLARE(button_callback);
  38:main.c        **** LV_EVENT_CB_DECLARE(parameter_list_container_event_handler);
  39:main.c        **** 
  40:main.c        **** static lv_obj_t *parameter_list_container;
  41:main.c        **** static lv_obj_t *parameter_options_container;
  42:main.c        **** 
  43:main.c        **** enum {
  44:main.c        ****     PARAMETER_LIST_BURST_TYPE   = 0,
  45:main.c        ****     PARAMETER_LIST_BURST_PULSES,
  46:main.c        ****     PARAMETER_LIST_PULSE_VOLTAGE,
  47:main.c        ****     PARAMETER_LIST_COUNT,
  48:main.c        **** };
  49:main.c        **** 
  50:main.c        **** static lv_obj_t *parameter_list[PARAMETER_LIST_COUNT];
  51:main.c        **** 
  52:main.c        **** lv_obj_t *shoot_btn;
  53:main.c        **** lv_obj_t *shoot_btn_label;
  54:main.c        **** 
  55:main.c        **** /* Widgets on Type option */
  56:main.c        **** lv_obj_t *continuous_cb;
  57:main.c        **** lv_obj_t *custom_shoot_cb;
  58:main.c        **** lv_obj_t *one_shoot_cb;
  59:main.c        **** lv_obj_t *custom_spinbox;
  60:main.c        **** lv_obj_t *type_param_ok_btn;
  61:main.c        **** 
  62:main.c        **** lv_obj_t *burst_type_list;
  63:main.c        **** 
  64:main.c        **** lv_obj_t *voltage_ddlist;
  65:main.c        **** lv_obj_t *voltage_ok_btn;
  66:main.c        **** lv_obj_t *pulses_ok_btn;
  67:main.c        **** 
  68:main.c        **** LV_EVENT_CB_DECLARE(burst_type_list_handler);
  69:main.c        **** LV_EVENT_CB_DECLARE(type_param_ok_callback);
  70:main.c        **** 
  71:main.c        **** lv_obj_t *pulses_spinbox;
  72:main.c        **** 
  73:main.c        **** static void create_type_container_widgets(lv_obj_t *parent);
  74:main.c        **** static void create_voltage_container_widgets(lv_obj_t *parent);
  75:main.c        **** static void create_pulses_container_widgets(lv_obj_t *parent);
  76:main.c        **** 
  77:main.c        **** struct parameter_list_s {
  78:main.c        ****     lv_obj_t *container;
  79:main.c        ****     lv_obj_t *parameter[PARAMETER_LIST_COUNT];
  80:main.c        **** };
  81:main.c        **** 
  82:main.c        **** struct parameter_list_s parameter_list_ssss;
  83:main.c        **** 
  84:main.c        **** lv_obj_t *one_shot_checkbox = NULL;
  85:main.c        **** lv_obj_t *continous_checkbox = NULL;
  86:main.c        **** 
  87:main.c        **** lv_obj_t *v24_checkbox = NULL;
  88:main.c        **** lv_obj_t *v48_checkbox = NULL;
ARM GAS  C:\Users\strap\AppData\Local\Temp\cci64Z2T.s 			page 3


  89:main.c        **** lv_obj_t *v72_checkbox = NULL;
  90:main.c        **** /* END OF MAIN APP */
  91:main.c        **** uint8_t qd_current_cnt = 0;
  92:main.c        **** uint8_t qd_old_cnt = 0;
  93:main.c        **** static const uint8_t QUAD_DEC_SW_PRESSED = 0;
  94:main.c        **** 
  95:main.c        **** /* Groups */
  96:main.c        **** static lv_group_t *parameter_list_g;
  97:main.c        **** static lv_group_t *burst_type_params_g;
  98:main.c        **** static lv_group_t *voltage_params_g;
  99:main.c        **** static lv_group_t *pulses_params_g;
 100:main.c        **** 
 101:main.c        **** /* Input device */
 102:main.c        **** static lv_indev_t* encoder_indev;
 103:main.c        **** 
 104:main.c        **** lv_obj_t *app_screen;
 105:main.c        **** 
 106:main.c        **** /* This struct is passed as lv_disp_drv_t.user_data, you should "register"
 107:main.c        ****  * your platform specific functions in here. */
 108:main.c        **** driver_generic_t ili9341_driver = {
 109:main.c        ****     .display_backlight_control  =   psoc_display_backlight_control,
 110:main.c        ****     .data_mode                  =   psoc_data_mode,
 111:main.c        ****     .delay_ms                   =   psoc_delay_ms,
 112:main.c        ****     .hw_reset                   =   NULL
 113:main.c        **** };
 114:main.c        **** 
 115:main.c        **** int main(void)
 116:main.c        **** {
 117:main.c        ****     /* Register interrupt handlers */
 118:main.c        ****     isr_SPI_TX_DMA_StartEx(spi_tx_dma_done);
 119:main.c        ****     isr_SPI_TX_StartEx(spi_tx_isr_handler);
 120:main.c        ****     
 121:main.c        ****     /* Start peripherals */
 122:main.c        ****     QuadDec_Start();
 123:main.c        ****     UART_Start();
 124:main.c        ****     SPI_Start();
 125:main.c        ****     
 126:main.c        ****     /* Initialize DMA Channel and configure it */
 127:main.c        ****     spi_initialize_dma();
 128:main.c        ****     
 129:main.c        ****     /* Setup SysTick timer for 1ms periodic interrupt */
 130:main.c        ****     CySysTickStart();
 131:main.c        ****     CySysTickSetCallback(0, timer_tick_handler);
 132:main.c        ****     CySysTickStop();
 133:main.c        ****     CySysTickClear();
 134:main.c        ****     
 135:main.c        ****     /* Enable interrupts */
 136:main.c        ****     CyGlobalIntEnable;
 137:main.c        ****     
 138:main.c        ****     /* Initialize LVGL */
 139:main.c        ****     lv_init();
 140:main.c        ****     
 141:main.c        ****     /* LVGL color buffers */
 142:main.c        ****     static lv_color_t buf1[DISPLAY_BUFFER_SIZE];
 143:main.c        ****     static lv_color_t buf2[DISPLAY_BUFFER_SIZE];
 144:main.c        ****     
 145:main.c        ****     /* Configure working buffer */
ARM GAS  C:\Users\strap\AppData\Local\Temp\cci64Z2T.s 			page 4


 146:main.c        ****     static lv_disp_buf_t disp_buf;
 147:main.c        ****     lv_disp_buf_init(&disp_buf, buf1, buf2, DISPLAY_BUFFER_SIZE);
 148:main.c        ****     
 149:main.c        ****     /* Setup display driver */
 150:main.c        ****     lv_disp_drv_t disp_drv;
 151:main.c        ****     lv_disp_drv_init(&disp_drv);
 152:main.c        ****     disp_drv.flush_cb = ili9341_flush;
 153:main.c        ****     disp_drv.buffer = &disp_buf;
 154:main.c        ****     
 155:main.c        ****     disp_drv.user_data = &ili9341_driver;
 156:main.c        ****     
 157:main.c        ****     lv_disp_drv_register(&disp_drv);
 158:main.c        ****     
 159:main.c        ****     /* Setup indev driver */
 160:main.c        ****     lv_indev_drv_t indev_drv;
 161:main.c        ****     lv_indev_drv_init(&indev_drv);
 162:main.c        ****     indev_drv.type = LV_INDEV_TYPE_ENCODER;
 163:main.c        ****     indev_drv.read_cb = encoder_read;
 164:main.c        ****     encoder_indev = lv_indev_drv_register(&indev_drv);
 165:main.c        ****     
 166:main.c        ****     /* Groups and input devices */
 167:main.c        ****     pulses_params_g = lv_group_create();
 168:main.c        ****     voltage_params_g = lv_group_create();
 169:main.c        ****     parameter_list_g = lv_group_create();
 170:main.c        ****     burst_type_params_g = lv_group_create();
 171:main.c        ****     
 172:main.c        ****     lv_indev_set_group(encoder_indev, parameter_list_g);
 173:main.c        ****     
 174:main.c        ****     /* Initialize ILI9341 display */
 175:main.c        ****     ili9341_init(&disp_drv, NULL);
 176:main.c        ****     
 177:main.c        ****     /* Start SysTick */
 178:main.c        ****     CySysTickStart();
 179:main.c        **** 
 180:main.c        ****     /* LVGL application */
 181:main.c        **** 
 182:main.c        ****     /* Main screen */
 183:main.c        ****     app_screen = lv_obj_create(NULL, NULL);
 184:main.c        ****     create_application_screen(app_screen);
 185:main.c        ****     lv_scr_load(app_screen);
 186:main.c        **** 
 187:main.c        **** #if 0
 188:main.c        ****     /* First screen */
 189:main.c        ****     lv_obj_t *scr = lv_disp_get_scr_act(NULL);
 190:main.c        ****     calibration_title_lbl = lv_label_create(scr, NULL);
 191:main.c        ****     lv_label_set_text(calibration_title_lbl, "Touch screen calibration");
 192:main.c        ****     lv_obj_align(calibration_title_lbl, NULL, LV_ALIGN_CENTER, 0, -50);
 193:main.c        ****     
 194:main.c        ****     calibration_timeout_lbl = lv_label_create(scr, NULL);
 195:main.c        ****     lv_label_set_text_fmt(calibration_timeout_lbl, calibration_timeout_text_fmt, touch_calibration_
 196:main.c        ****     lv_obj_align(calibration_timeout_lbl, NULL, LV_ALIGN_CENTER, 0, -20);
 197:main.c        ****     
 198:main.c        ****     /* TODO: Add callback to load main application (screen) */
 199:main.c        ****     skip_calibration_btn = lv_btn_create(scr, NULL);
 200:main.c        ****     lv_obj_align(skip_calibration_btn, NULL, LV_ALIGN_CENTER, 0, 50);
 201:main.c        ****     lv_obj_set_event_cb(skip_calibration_btn, skip_calibration_cb);
 202:main.c        ****     
ARM GAS  C:\Users\strap\AppData\Local\Temp\cci64Z2T.s 			page 5


 203:main.c        ****     lv_group_add_obj(g, skip_calibration_btn);
 204:main.c        ****     lv_group_focus_obj(skip_calibration_btn);
 205:main.c        ****     
 206:main.c        ****     skip_calibration_lbl = lv_label_create(skip_calibration_btn, NULL);
 207:main.c        ****     lv_label_set_text(skip_calibration_lbl, "Skip calibration");
 208:main.c        ****     
 209:main.c        ****     /* Create task */
 210:main.c        ****     timeout_task = lv_task_create(touch_calibration_timeout_task,
 211:main.c        ****         TOUCH_CALIBRATION_TASK_PERIOD_MS, LV_TASK_PRIO_HIGH, NULL);
 212:main.c        ****     lv_task_set_repeat_count(timeout_task, 6); /* Todo: replace magic number */
 213:main.c        **** #endif
 214:main.c        **** 
 215:main.c        ****     while (1) {
 216:main.c        ****         CyDelay(1);
 217:main.c        ****         lv_task_handler();
 218:main.c        ****     }
 219:main.c        **** }
 220:main.c        **** 
 221:main.c        **** void timer_tick_handler(void)
 222:main.c        **** {
 223:main.c        ****     lv_tick_inc(1);
 224:main.c        **** }
 225:main.c        **** 
 226:main.c        **** /* NOTE: The DMA done interrupt is being triggered when the DMA is done
 227:main.c        ****  * transferring data into the SPI TX FIFO, this means it's gets triggered
 228:main.c        ****  * even when the SPI TX FIFO still holds the last 4 byte of data.
 229:main.c        ****  *
 230:main.c        ****  * To know when spi is actually done transfering the data we can enable
 231:main.c        ****  * the SPI_INT_ON_SPI_DONE (and SPI_INT_ON_TX_NOT_FULL). */
 232:main.c        **** void spi_tx_dma_done(void)
 233:main.c        **** {    
 234:main.c        ****     spi_xfer_set_status(SPI_XFER_DONE);
 235:main.c        ****     
 236:main.c        ****     SPI_SetTxInterruptMode((0u << SPI_STS_TX_FIFO_NOT_FULL_SHIFT) | (1u << SPI_STS_SPI_DONE_SHIFT))
 237:main.c        **** }
 238:main.c        **** 
 239:main.c        **** /* SPI interrupt handler */
 240:main.c        **** void spi_tx_isr_handler(void)
 241:main.c        **** {
 242:main.c        ****     /* Clear the interrupt source flag */
 243:main.c        ****     volatile uint8_t spi_tx_sts = SPI_ReadTxStatus();
 244:main.c        ****     
 245:main.c        ****     /* If the DMA is done and we get the SPI_STS_SPI_DONE interrupt then
 246:main.c        ****      * the SPI FIFO is empty. */
 247:main.c        ****     if ((SPI_XFER_DONE == spi_xfer_get_status()) && (SPI_STS_SPI_DONE & spi_tx_sts)) {
 248:main.c        ****         
 249:main.c        ****         SS_Write(1);
 250:main.c        ****         
 251:main.c        ****         /* Data transfer is done, we can disable SPI interrupts */
 252:main.c        ****         SPI_SetTxInterruptMode(0);
 253:main.c        ****         spi_xfer_on_completion();
 254:main.c        ****         
 255:main.c        ****         /* Let LVGL the flush has been finished */
 256:main.c        ****         display_colors_sent_notification();
 257:main.c        ****     }
 258:main.c        **** }
 259:main.c        **** 
ARM GAS  C:\Users\strap\AppData\Local\Temp\cci64Z2T.s 			page 6


 260:main.c        **** static int16_t get_encoder_diff(void)
 261:main.c        **** {
 262:main.c        ****     int16_t diff = 0;
 263:main.c        ****     
 264:main.c        ****     qd_current_cnt = QuadDec_GetCounter();
 265:main.c        ****     diff = qd_current_cnt - qd_old_cnt;
 266:main.c        ****     qd_old_cnt = qd_current_cnt;
 267:main.c        **** 
 268:main.c        ****     return diff;
 269:main.c        **** }
 270:main.c        **** 
 271:main.c        **** static bool encoder_read(lv_indev_drv_t *drv, lv_indev_data_t *data)
 272:main.c        **** {
 273:main.c        ****     (void) drv;
 274:main.c        ****     
 275:main.c        ****     /* Number of steps since the previous read */
 276:main.c        ****     data->enc_diff = get_encoder_diff();
 277:main.c        ****     
 278:main.c        ****     /* Handle quadrature encoder button */
 279:main.c        ****     if(QUAD_DEC_SW_PRESSED == QuadDec_SW_Read()){
 280:main.c        ****         data->state = LV_INDEV_STATE_PR;
 281:main.c        ****     } else{
 282:main.c        ****         data->state = LV_INDEV_STATE_REL;
 283:main.c        ****     }
 284:main.c        **** 
 285:main.c        ****     return false;
 286:main.c        **** }
 287:main.c        **** 
 288:main.c        **** static void create_application_screen(lv_obj_t *parent)
 289:main.c        **** {
 290:main.c        **** #if 0
 291:main.c        ****     lv_obj_t *tabview = lv_tabview_create(app_screen, NULL);
 292:main.c        **** 
 293:main.c        ****     lv_obj_t *tab1 = lv_tabview_add_tab(tabview, "Configuration");
 294:main.c        ****     lv_obj_t *tab2 = lv_tabview_add_tab(tabview, "About");
 295:main.c        ****     
 296:main.c        ****     /* Calculate containers size */
 297:main.c        ****     lv_tabview_ext_t *tabview_ext = lv_obj_get_ext_attr(tabview);
 298:main.c        ****     
 299:main.c        ****     lv_coord_t tb_content_height = lv_obj_get_height_fit(tabview_ext->content);
 300:main.c        **** #endif
 301:main.c        **** 
 302:main.c        ****     lv_coord_t tb_content_height = lv_disp_get_ver_res(NULL);
 303:main.c        ****     lv_coord_t container_height = tb_content_height - 50;
 304:main.c        **** 
 305:main.c        ****     lv_coord_t tb_content_width = lv_disp_get_hor_res(NULL);
 306:main.c        ****     lv_coord_t container_width = (tb_content_width / 2) - 20;
 307:main.c        **** 
 308:main.c        ****     /* Add containers to tab1 */
 309:main.c        ****     parameter_list_container = lv_cont_create(parent, NULL);
 310:main.c        ****     lv_obj_set_size(parameter_list_container, container_width + 15, container_height);
 311:main.c        ****     lv_obj_align(parameter_list_container, NULL, LV_ALIGN_IN_LEFT_MID, 15, 0);
 312:main.c        ****     lv_cont_set_layout(parameter_list_container, LV_LAYOUT_COLUMN_LEFT);
 313:main.c        ****     
 314:main.c        ****     lv_obj_t *parameter_list_container_lbl = lv_label_create(parent, NULL);
 315:main.c        ****     lv_label_set_text(parameter_list_container_lbl, "Parameters");
 316:main.c        ****     lv_obj_align(parameter_list_container_lbl, parameter_list_container, LV_ALIGN_OUT_TOP_LEFT, 0, 
ARM GAS  C:\Users\strap\AppData\Local\Temp\cci64Z2T.s 			page 7


 317:main.c        **** 
 318:main.c        ****     parameter_options_container = lv_cont_create(parent, NULL);
 319:main.c        ****     lv_obj_set_size(parameter_options_container, container_width - 15, container_height);
 320:main.c        ****     lv_obj_align(parameter_options_container, NULL, LV_ALIGN_IN_RIGHT_MID, -15, 0);
 321:main.c        ****     /* TODO: Update layout */
 322:main.c        ****     lv_cont_set_layout(parameter_options_container, LV_LAYOUT_COLUMN_MID);
 323:main.c        ****     
 324:main.c        ****     lv_obj_t *parameter_options_container_lbl = lv_label_create(parent, NULL);
 325:main.c        ****     lv_label_set_text(parameter_options_container_lbl, "Options");
 326:main.c        ****     lv_obj_align(parameter_options_container_lbl, parameter_options_container, LV_ALIGN_OUT_TOP_LEF
 327:main.c        ****     
 328:main.c        ****     /* Add widgets to parameter_list_container */
 329:main.c        **** 
 330:main.c        ****     /* Container title */
 331:main.c        ****     parameter_list[PARAMETER_LIST_BURST_TYPE] = lv_checkbox_create(parameter_list_container, NULL);
 332:main.c        ****     lv_checkbox_set_text(parameter_list[PARAMETER_LIST_BURST_TYPE], "Burst Type.");
 333:main.c        ****     lv_obj_set_event_cb(parameter_list[PARAMETER_LIST_BURST_TYPE], parameter_list_container_event_h
 334:main.c        **** 
 335:main.c        ****     parameter_list[PARAMETER_LIST_BURST_PULSES] = lv_checkbox_create(parameter_list_container, NULL
 336:main.c        ****     lv_checkbox_set_text(parameter_list[PARAMETER_LIST_BURST_PULSES], "Pulses in burst.");
 337:main.c        ****     lv_obj_set_event_cb(parameter_list[PARAMETER_LIST_BURST_PULSES], parameter_list_container_event
 338:main.c        **** 
 339:main.c        ****     parameter_list[PARAMETER_LIST_PULSE_VOLTAGE] = lv_checkbox_create(parameter_list_container, NUL
 340:main.c        ****     lv_checkbox_set_text(parameter_list[PARAMETER_LIST_PULSE_VOLTAGE], "Pulse Voltage.");
 341:main.c        ****     lv_obj_set_event_cb(parameter_list[PARAMETER_LIST_PULSE_VOLTAGE], parameter_list_container_even
 342:main.c        ****     
 343:main.c        ****     shoot_btn = lv_btn_create(parameter_list_container, NULL);
 344:main.c        ****     lv_btn_set_fit2(shoot_btn, LV_FIT_PARENT, LV_FIT_NONE);
 345:main.c        ****     lv_obj_set_style_local_value_str(shoot_btn, LV_BTN_PART_MAIN, LV_STATE_DEFAULT, "Shoot!");
 346:main.c        ****     
 347:main.c        ****     lv_obj_set_event_cb(shoot_btn, button_callback);
 348:main.c        **** 
 349:main.c        ****     /* Add objects to the group */
 350:main.c        ****     lv_group_add_obj(parameter_list_g, parameter_list[PARAMETER_LIST_BURST_TYPE]);
 351:main.c        ****     lv_group_add_obj(parameter_list_g, parameter_list[PARAMETER_LIST_BURST_PULSES]);
 352:main.c        ****     lv_group_add_obj(parameter_list_g, parameter_list[PARAMETER_LIST_PULSE_VOLTAGE]);
 353:main.c        ****     lv_group_add_obj(parameter_list_g, shoot_btn);
 354:main.c        ****     
 355:main.c        ****     /* Focus on the top checkbox */
 356:main.c        ****     lv_group_focus_obj(parameter_list[PARAMETER_LIST_BURST_TYPE]);
 357:main.c        ****     
 358:main.c        ****     /* Create widgets for burst type option */
 359:main.c        ****     create_type_container_widgets(parameter_options_container);
 360:main.c        ****     /* Create widgets for voltage option */
 361:main.c        ****     create_voltage_container_widgets(parameter_options_container);
 362:main.c        ****     
 363:main.c        ****     create_pulses_container_widgets(parameter_options_container);
 364:main.c        **** }
 365:main.c        **** 
 366:main.c        **** /* NOTE: When any of the widgets on the list container is clicked the parameter container
 367:main.c        ****  * needs to be cleared and load the necessary widgets.
 368:main.c        ****  * 
 369:main.c        ****  * TODO: Use lv_obj_clean(parameter_options_container) to clean the container. */
 370:main.c        **** static void parameter_list_container_event_handler(lv_obj_t * obj, lv_event_t e)
 371:main.c        **** {
 372:main.c        ****     UART_PutString("parameter list handler");
 373:main.c        ****     UART_PutHexByte((uint8_t) e);
ARM GAS  C:\Users\strap\AppData\Local\Temp\cci64Z2T.s 			page 8


 374:main.c        ****     UART_PutCRLF();
 375:main.c        ****     
 376:main.c        ****     if(e == LV_EVENT_VALUE_CHANGED) {
 377:main.c        ****         if (parameter_list[PARAMETER_LIST_BURST_TYPE] == obj && lv_checkbox_is_checked(obj)) {
 378:main.c        ****             lv_checkbox_set_checked(parameter_list[PARAMETER_LIST_BURST_PULSES], false);
 379:main.c        ****             lv_checkbox_set_checked(parameter_list[PARAMETER_LIST_PULSE_VOLTAGE], false);
 380:main.c        ****             
 381:main.c        ****             lv_indev_set_group(encoder_indev, burst_type_params_g);
 382:main.c        ****             
 383:main.c        ****             /* Enable widgets on parameter container */
 384:main.c        ****             lv_obj_set_hidden(burst_type_list, false);
 385:main.c        ****             lv_obj_set_hidden(custom_spinbox, false);
 386:main.c        ****             lv_obj_set_hidden(type_param_ok_btn, false);
 387:main.c        ****             
 388:main.c        ****             lv_group_focus_obj(burst_type_list);
 389:main.c        ****             
 390:main.c        ****         } else if (parameter_list[PARAMETER_LIST_PULSE_VOLTAGE] == obj && lv_checkbox_is_checked(ob
 391:main.c        ****             lv_checkbox_set_checked(parameter_list[PARAMETER_LIST_BURST_TYPE], false);
 392:main.c        ****             lv_checkbox_set_checked(parameter_list[PARAMETER_LIST_BURST_PULSES], false);
 393:main.c        ****             
 394:main.c        ****             UART_PutString("Setting voltage");
 395:main.c        ****             
 396:main.c        ****             lv_indev_set_group(encoder_indev, voltage_params_g);
 397:main.c        ****             
 398:main.c        ****             /* Enable widgets on parameter container */
 399:main.c        ****             lv_obj_set_hidden(voltage_ddlist, false);
 400:main.c        ****             lv_obj_set_hidden(voltage_ok_btn, false);
 401:main.c        ****             
 402:main.c        ****             lv_group_focus_obj(voltage_ddlist);
 403:main.c        ****             
 404:main.c        ****         } else if (parameter_list[PARAMETER_LIST_BURST_PULSES] == obj && lv_checkbox_is_checked(obj
 405:main.c        ****             lv_checkbox_set_checked(parameter_list[PARAMETER_LIST_BURST_TYPE], false);
 406:main.c        ****             lv_checkbox_set_checked(parameter_list[PARAMETER_LIST_PULSE_VOLTAGE], false);
 407:main.c        ****             
 408:main.c        ****             lv_indev_set_group(encoder_indev, pulses_params_g);
 409:main.c        ****             
 410:main.c        ****             lv_obj_set_hidden(pulses_spinbox, false);
 411:main.c        ****             lv_obj_set_hidden(pulses_ok_btn, false);
 412:main.c        ****             
 413:main.c        ****             lv_group_focus_obj(pulses_spinbox);
 414:main.c        ****         }
 415:main.c        ****     }
 416:main.c        **** }
 417:main.c        **** 
 418:main.c        **** LV_EVENT_CB_DECLARE(button_callback)
 419:main.c        **** {
 420:main.c        ****     LV_UNUSED(obj);
 421:main.c        ****     
 422:main.c        ****     if ((LV_EVENT_CLICKED == e) || (LV_EVENT_LONG_PRESSED_REPEAT == e)) {
 423:main.c        ****         /* TODO: Get the selected option on the dropdown list */
 424:main.c        ****         uint16_t selected = lv_dropdown_get_selected(burst_type_list);
 425:main.c        ****         UART_PutHexInt(selected);
 426:main.c        ****         
 427:main.c        ****         /* Get the pulse burst parameters and load them into the hardware */
 428:main.c        ****         int32_t spinbox_value = lv_spinbox_get_value(custom_spinbox);
 429:main.c        ****         UART_PutHexInt((uint16_t) spinbox_value & 0xFFFF);
 430:main.c        ****         
ARM GAS  C:\Users\strap\AppData\Local\Temp\cci64Z2T.s 			page 9


 431:main.c        ****         /* Shoot! */
 432:main.c        ****     }
 433:main.c        **** }
 434:main.c        **** 
 435:main.c        **** LV_EVENT_CB_DECLARE(custom_shoot_cb_handler)
 436:main.c        **** {
 437:main.c        ****     LV_UNUSED(obj);
 438:main.c        ****     
 439:main.c        ****     if (e == LV_EVENT_LONG_PRESSED) {
 440:main.c        ****         UART_PutString("Long press\r\n");
 441:main.c        ****     }
 442:main.c        ****     
 443:main.c        ****     if (e == LV_EVENT_VALUE_CHANGED) {
 444:main.c        ****         lv_obj_set_hidden(custom_spinbox, false);
 445:main.c        ****         
 446:main.c        ****         lv_group_add_obj(burst_type_params_g, custom_spinbox);
 447:main.c        ****         
 448:main.c        ****         /* Focus the spinbox and enter in edit mode */
 449:main.c        ****         lv_group_focus_obj(custom_spinbox);
 450:main.c        ****         /* BUG: Spinbox doesn't enter edit mode */
 451:main.c        ****         lv_group_set_editing(burst_type_params_g, true);
 452:main.c        ****     }    
 453:main.c        **** }
 454:main.c        **** 
 455:main.c        **** LV_EVENT_CB_DECLARE(type_param_ok_callback)
 456:main.c        **** {
 457:main.c        ****     LV_UNUSED(obj);
 458:main.c        ****     
 459:main.c        ****     if (e == LV_EVENT_PRESSED) {
 460:main.c        ****         /* Hide Burst type widgets and go to the parameter list */
 461:main.c        ****         lv_obj_set_hidden(custom_spinbox, true);
 462:main.c        ****         lv_obj_set_hidden(burst_type_list, true);
 463:main.c        ****         lv_obj_set_hidden(type_param_ok_btn, true);
 464:main.c        ****         
 465:main.c        ****         lv_indev_set_group(encoder_indev, parameter_list_g);
 466:main.c        ****         UART_PutString("setting option");
 467:main.c        ****     }
 468:main.c        **** }
 469:main.c        **** 
 470:main.c        **** LV_EVENT_CB_DECLARE(custom_spinbox_handler)
 471:main.c        **** {
 472:main.c        ****     LV_UNUSED(obj);
 473:main.c        ****     
 474:main.c        ****     /* TODO: Check if the Custom option on the ddlist is selected */
 475:main.c        ****     if ((LV_EVENT_FOCUSED == e)) {
 476:main.c        ****         UART_PutString("Spinbox focused");
 477:main.c        ****         lv_textarea_set_cursor_hidden(custom_spinbox, false);
 478:main.c        ****     } else if ((LV_EVENT_DEFOCUSED == e)) {
 479:main.c        ****         UART_PutString("Spinbox defocused");
 480:main.c        ****         lv_textarea_set_cursor_hidden(custom_spinbox, true);
 481:main.c        ****     } else {
 482:main.c        ****         
 483:main.c        ****     }
 484:main.c        **** }
 485:main.c        **** 
 486:main.c        **** static void create_type_container_widgets(lv_obj_t *parent)
 487:main.c        **** {    
ARM GAS  C:\Users\strap\AppData\Local\Temp\cci64Z2T.s 			page 10


 488:main.c        ****     /* Widgets creation */
 489:main.c        ****     burst_type_list = lv_dropdown_create(parent, NULL);
 490:main.c        ****     custom_spinbox = lv_spinbox_create(parent, NULL);
 491:main.c        ****     type_param_ok_btn = lv_btn_create(parent, NULL);
 492:main.c        ****     
 493:main.c        ****     lv_dropdown_set_options(burst_type_list, "One-shoot\nInfinite\nCustom");
 494:main.c        ****     
 495:main.c        ****     lv_spinbox_set_range(custom_spinbox, 1, 128);
 496:main.c        ****     lv_spinbox_set_digit_format(custom_spinbox, 3, 0);
 497:main.c        ****     
 498:main.c        ****     /* BUG: Can't align spinbox label to the right of the spinbox with this code */
 499:main.c        ****     lv_textarea_set_cursor_hidden(custom_spinbox, true); // hide the cursor
 500:main.c        ****     lv_textarea_set_text_align(custom_spinbox, LV_LABEL_ALIGN_CENTER);
 501:main.c        ****     
 502:main.c        ****     /* Lets disable the spinbox so we can't focus in it with the encoder */
 503:main.c        ****     lv_obj_set_state(custom_spinbox, LV_STATE_DISABLED);
 504:main.c        ****     
 505:main.c        ****     /* Widgets style */
 506:main.c        ****     
 507:main.c        ****     /* Set the width reduced by the left and right padding. */
 508:main.c        ****     lv_coord_t parent_w = lv_obj_get_width(parent);
 509:main.c        ****     lv_obj_set_width_fit(burst_type_list, parent_w - 5);
 510:main.c        ****     lv_obj_set_width_fit(custom_spinbox, parent_w - 20);
 511:main.c        ****     
 512:main.c        ****     lv_obj_set_style_local_value_str(type_param_ok_btn, LV_BTN_PART_MAIN, LV_STATE_DEFAULT, "OK!");
 513:main.c        ****     lv_btn_set_fit2(type_param_ok_btn, LV_FIT_PARENT, LV_FIT_NONE);
 514:main.c        ****     
 515:main.c        ****     /* TODO: How to align the button to the bottom? */
 516:main.c        ****     lv_obj_align(type_param_ok_btn, NULL, LV_ALIGN_IN_BOTTOM_MID, 0, 0);
 517:main.c        ****     
 518:main.c        ****     /* Object event callbacks */
 519:main.c        ****     lv_obj_set_event_cb(burst_type_list, burst_type_list_handler);
 520:main.c        ****     // lv_obj_set_event_cb(custom_spinbox, custom_spinbox_handler);
 521:main.c        ****     lv_obj_set_event_cb(type_param_ok_btn, type_param_ok_callback);
 522:main.c        ****     
 523:main.c        ****     /* Adding new widgets intot the group so the encoder can choose them */
 524:main.c        ****     lv_group_add_obj(burst_type_params_g, burst_type_list);
 525:main.c        ****     lv_group_add_obj(burst_type_params_g, custom_spinbox);
 526:main.c        ****     lv_group_add_obj(burst_type_params_g, type_param_ok_btn);
 527:main.c        ****     
 528:main.c        ****     lv_obj_set_hidden(custom_spinbox, true);
 529:main.c        ****     lv_obj_set_hidden(burst_type_list, true);
 530:main.c        ****     lv_obj_set_hidden(type_param_ok_btn, true);
 531:main.c        **** }
 532:main.c        **** 
 533:main.c        **** LV_EVENT_CB_DECLARE(burst_type_list_handler)
 534:main.c        **** {
 535:main.c        ****     LV_UNUSED(obj);
 536:main.c        ****     
 537:main.c        ****     /* This event only gets triggered when the selected option is changed, it
 538:main.c        ****      * doesn't get triggered when the spinbox is unhidden. */
 539:main.c        ****     if(e == LV_EVENT_VALUE_CHANGED) {
 540:main.c        ****         uint16_t selected = lv_dropdown_get_selected(burst_type_list);
 541:main.c        ****         UART_PutHexInt(selected);
 542:main.c        ****         
 543:main.c        ****         /* TODO: Use an enum instead of the magic number. */
 544:main.c        ****         if (0x02 == selected) {
ARM GAS  C:\Users\strap\AppData\Local\Temp\cci64Z2T.s 			page 11


 545:main.c        ****             lv_obj_set_state(custom_spinbox, LV_STATE_DEFAULT);
 546:main.c        ****             lv_textarea_set_cursor_hidden(custom_spinbox, false);
 547:main.c        ****         
 548:main.c        ****             /* Focus the spinbox and enter in edit mode */
 549:main.c        ****             lv_group_focus_obj(custom_spinbox);
 550:main.c        ****             lv_group_set_editing(burst_type_params_g, true);
 551:main.c        ****         } else {
 552:main.c        ****             lv_obj_set_state(custom_spinbox, LV_STATE_DISABLED);
 553:main.c        ****             lv_textarea_set_cursor_hidden(custom_spinbox, true);
 554:main.c        ****         }
 555:main.c        ****     }
 556:main.c        **** }
 557:main.c        **** 
 558:main.c        **** LV_EVENT_CB_DECLARE(voltage_ok_btn_handler)
 559:main.c        **** {
 560:main.c        ****     LV_UNUSED(obj);
 561:main.c        ****     
 562:main.c        ****     if (e == LV_EVENT_PRESSED) {
 563:main.c        ****         lv_obj_set_hidden(voltage_ddlist, true);
 564:main.c        ****         lv_obj_set_hidden(voltage_ok_btn, true);
 565:main.c        ****     
 566:main.c        ****         lv_indev_set_group(encoder_indev, parameter_list_g);
 567:main.c        ****         // lv_group_focus_obj(shoot_btn);
 568:main.c        ****     }
 569:main.c        **** }
 570:main.c        **** 
 571:main.c        **** LV_EVENT_CB_DECLARE(voltage_ddlist_handler)
 572:main.c        **** {
  27              		.loc 1 572 0
  28              		.cfi_startproc
  29              		@ args = 0, pretend = 0, frame = 0
  30              		@ frame_needed = 0, uses_anonymous_args = 0
  31              		@ link register save eliminated.
  32              	.LVL0:
  33 0000 7047     		bx	lr
  34              		.cfi_endproc
  35              	.LFE456:
  36              		.size	voltage_ddlist_handler, .-voltage_ddlist_handler
  37 0002 00BF     		.section	.text.get_encoder_diff,"ax",%progbits
  38              		.align	2
  39              		.thumb
  40              		.thumb_func
  41              		.type	get_encoder_diff, %function
  42              	get_encoder_diff:
  43              	.LFB445:
 261:main.c        ****     int16_t diff = 0;
  44              		.loc 1 261 0
  45              		.cfi_startproc
  46              		@ args = 0, pretend = 0, frame = 0
  47              		@ frame_needed = 0, uses_anonymous_args = 0
 261:main.c        ****     int16_t diff = 0;
  48              		.loc 1 261 0
  49 0000 08B5     		push	{r3, lr}
  50              		.cfi_def_cfa_offset 8
  51              		.cfi_offset 3, -8
  52              		.cfi_offset 14, -4
  53              	.LVL1:
ARM GAS  C:\Users\strap\AppData\Local\Temp\cci64Z2T.s 			page 12


 264:main.c        ****     diff = qd_current_cnt - qd_old_cnt;
  54              		.loc 1 264 0
  55 0002 FFF7FEFF 		bl	QuadDec_GetCounter
  56              	.LVL2:
  57 0006 C0B2     		uxtb	r0, r0
  58 0008 024B     		ldr	r3, .L4
  59 000a 1870     		strb	r0, [r3]
 265:main.c        ****     qd_old_cnt = qd_current_cnt;
  60              		.loc 1 265 0
  61 000c 5A78     		ldrb	r2, [r3, #1]	@ zero_extendqisi2
  62              	.LVL3:
 266:main.c        **** 
  63              		.loc 1 266 0
  64 000e 5870     		strb	r0, [r3, #1]
 269:main.c        **** 
  65              		.loc 1 269 0
  66 0010 801A     		subs	r0, r0, r2
  67              	.LVL4:
  68 0012 08BD     		pop	{r3, pc}
  69              	.L5:
  70              		.align	2
  71              	.L4:
  72 0014 00000000 		.word	.LANCHOR0
  73              		.cfi_endproc
  74              	.LFE445:
  75              		.size	get_encoder_diff, .-get_encoder_diff
  76              		.section	.text.encoder_read,"ax",%progbits
  77              		.align	2
  78              		.thumb
  79              		.thumb_func
  80              		.type	encoder_read, %function
  81              	encoder_read:
  82              	.LFB446:
 272:main.c        ****     (void) drv;
  83              		.loc 1 272 0
  84              		.cfi_startproc
  85              		@ args = 0, pretend = 0, frame = 0
  86              		@ frame_needed = 0, uses_anonymous_args = 0
  87              	.LVL5:
  88 0000 10B5     		push	{r4, lr}
  89              		.cfi_def_cfa_offset 8
  90              		.cfi_offset 4, -8
  91              		.cfi_offset 14, -4
  92 0002 0C46     		mov	r4, r1
 276:main.c        ****     
  93              		.loc 1 276 0
  94 0004 FFF7FEFF 		bl	get_encoder_diff
  95              	.LVL6:
  96 0008 A081     		strh	r0, [r4, #12]	@ movhi
 279:main.c        ****         data->state = LV_INDEV_STATE_PR;
  97              		.loc 1 279 0
  98 000a FFF7FEFF 		bl	QuadDec_SW_Read
  99              	.LVL7:
 100 000e 10B9     		cbnz	r0, .L7
 280:main.c        ****     } else{
 101              		.loc 1 280 0
 102 0010 0123     		movs	r3, #1
ARM GAS  C:\Users\strap\AppData\Local\Temp\cci64Z2T.s 			page 13


 103 0012 A373     		strb	r3, [r4, #14]
 104 0014 01E0     		b	.L8
 105              	.L7:
 282:main.c        ****     }
 106              		.loc 1 282 0
 107 0016 0023     		movs	r3, #0
 108 0018 A373     		strb	r3, [r4, #14]
 109              	.L8:
 286:main.c        **** 
 110              		.loc 1 286 0
 111 001a 0020     		movs	r0, #0
 112 001c 10BD     		pop	{r4, pc}
 113              		.cfi_endproc
 114              	.LFE446:
 115              		.size	encoder_read, .-encoder_read
 116 001e 00BF     		.section	.text.button_callback,"ax",%progbits
 117              		.align	2
 118              		.thumb
 119              		.thumb_func
 120              		.type	button_callback, %function
 121              	button_callback:
 122              	.LFB449:
 419:main.c        ****     LV_UNUSED(obj);
 123              		.loc 1 419 0
 124              		.cfi_startproc
 125              		@ args = 0, pretend = 0, frame = 0
 126              		@ frame_needed = 0, uses_anonymous_args = 0
 127              	.LVL8:
 422:main.c        ****         /* TODO: Get the selected option on the dropdown list */
 128              		.loc 1 422 0
 129 0000 0539     		subs	r1, r1, #5
 130              	.LVL9:
 131 0002 C9B2     		uxtb	r1, r1
 132 0004 0129     		cmp	r1, #1
 133 0006 0ED8     		bhi	.L13
 419:main.c        ****     LV_UNUSED(obj);
 134              		.loc 1 419 0
 135 0008 08B5     		push	{r3, lr}
 136              		.cfi_def_cfa_offset 8
 137              		.cfi_offset 3, -8
 138              		.cfi_offset 14, -4
 139              	.LBB36:
 424:main.c        ****         UART_PutHexInt(selected);
 140              		.loc 1 424 0
 141 000a 074B     		ldr	r3, .L14
 142 000c 1868     		ldr	r0, [r3]
 143              	.LVL10:
 144 000e FFF7FEFF 		bl	lv_dropdown_get_selected
 145              	.LVL11:
 425:main.c        ****         
 146              		.loc 1 425 0
 147 0012 FFF7FEFF 		bl	UART_PutHexInt
 148              	.LVL12:
 428:main.c        ****         UART_PutHexInt((uint16_t) spinbox_value & 0xFFFF);
 149              		.loc 1 428 0
 150 0016 054B     		ldr	r3, .L14+4
 151 0018 1868     		ldr	r0, [r3]
ARM GAS  C:\Users\strap\AppData\Local\Temp\cci64Z2T.s 			page 14


 152 001a FFF7FEFF 		bl	lv_spinbox_get_value
 153              	.LVL13:
 429:main.c        ****         
 154              		.loc 1 429 0
 155 001e 80B2     		uxth	r0, r0
 156              	.LVL14:
 157 0020 FFF7FEFF 		bl	UART_PutHexInt
 158              	.LVL15:
 159 0024 08BD     		pop	{r3, pc}
 160              	.LVL16:
 161              	.L13:
 162              		.cfi_def_cfa_offset 0
 163              		.cfi_restore 3
 164              		.cfi_restore 14
 165 0026 7047     		bx	lr
 166              	.L15:
 167              		.align	2
 168              	.L14:
 169 0028 00000000 		.word	burst_type_list
 170 002c 00000000 		.word	custom_spinbox
 171              	.LBE36:
 172              		.cfi_endproc
 173              	.LFE449:
 174              		.size	button_callback, .-button_callback
 175              		.section	.text.type_param_ok_callback,"ax",%progbits
 176              		.align	2
 177              		.thumb
 178              		.thumb_func
 179              		.type	type_param_ok_callback, %function
 180              	type_param_ok_callback:
 181              	.LFB451:
 456:main.c        ****     LV_UNUSED(obj);
 182              		.loc 1 456 0
 183              		.cfi_startproc
 184              		@ args = 0, pretend = 0, frame = 0
 185              		@ frame_needed = 0, uses_anonymous_args = 0
 186              	.LVL17:
 459:main.c        ****         /* Hide Burst type widgets and go to the parameter list */
 187              		.loc 1 459 0
 188 0000 C1B9     		cbnz	r1, .L19
 456:main.c        ****     LV_UNUSED(obj);
 189              		.loc 1 456 0
 190 0002 08B5     		push	{r3, lr}
 191              		.cfi_def_cfa_offset 8
 192              		.cfi_offset 3, -8
 193              		.cfi_offset 14, -4
 461:main.c        ****         lv_obj_set_hidden(burst_type_list, true);
 194              		.loc 1 461 0
 195 0004 0121     		movs	r1, #1
 196              	.LVL18:
 197 0006 0C4B     		ldr	r3, .L20
 198 0008 1868     		ldr	r0, [r3]
 199              	.LVL19:
 200 000a FFF7FEFF 		bl	lv_obj_set_hidden
 201              	.LVL20:
 462:main.c        ****         lv_obj_set_hidden(type_param_ok_btn, true);
 202              		.loc 1 462 0
ARM GAS  C:\Users\strap\AppData\Local\Temp\cci64Z2T.s 			page 15


 203 000e 0121     		movs	r1, #1
 204 0010 0A4B     		ldr	r3, .L20+4
 205 0012 1868     		ldr	r0, [r3]
 206 0014 FFF7FEFF 		bl	lv_obj_set_hidden
 207              	.LVL21:
 463:main.c        ****         
 208              		.loc 1 463 0
 209 0018 0121     		movs	r1, #1
 210 001a 094B     		ldr	r3, .L20+8
 211 001c 1868     		ldr	r0, [r3]
 212 001e FFF7FEFF 		bl	lv_obj_set_hidden
 213              	.LVL22:
 465:main.c        ****         UART_PutString("setting option");
 214              		.loc 1 465 0
 215 0022 084B     		ldr	r3, .L20+12
 216 0024 5968     		ldr	r1, [r3, #4]
 217 0026 9868     		ldr	r0, [r3, #8]
 218 0028 FFF7FEFF 		bl	lv_indev_set_group
 219              	.LVL23:
 466:main.c        ****     }
 220              		.loc 1 466 0
 221 002c 0648     		ldr	r0, .L20+16
 222 002e FFF7FEFF 		bl	UART_PutString
 223              	.LVL24:
 224 0032 08BD     		pop	{r3, pc}
 225              	.LVL25:
 226              	.L19:
 227              		.cfi_def_cfa_offset 0
 228              		.cfi_restore 3
 229              		.cfi_restore 14
 230 0034 7047     		bx	lr
 231              	.L21:
 232 0036 00BF     		.align	2
 233              	.L20:
 234 0038 00000000 		.word	custom_spinbox
 235 003c 00000000 		.word	burst_type_list
 236 0040 00000000 		.word	type_param_ok_btn
 237 0044 00000000 		.word	.LANCHOR0
 238 0048 00000000 		.word	.LC0
 239              		.cfi_endproc
 240              	.LFE451:
 241              		.size	type_param_ok_callback, .-type_param_ok_callback
 242              		.section	.text.voltage_ok_btn_handler,"ax",%progbits
 243              		.align	2
 244              		.thumb
 245              		.thumb_func
 246              		.type	voltage_ok_btn_handler, %function
 247              	voltage_ok_btn_handler:
 248              	.LFB455:
 559:main.c        ****     LV_UNUSED(obj);
 249              		.loc 1 559 0
 250              		.cfi_startproc
 251              		@ args = 0, pretend = 0, frame = 0
 252              		@ frame_needed = 0, uses_anonymous_args = 0
 253              	.LVL26:
 562:main.c        ****         lv_obj_set_hidden(voltage_ddlist, true);
 254              		.loc 1 562 0
ARM GAS  C:\Users\strap\AppData\Local\Temp\cci64Z2T.s 			page 16


 255 0000 81B9     		cbnz	r1, .L25
 559:main.c        ****     LV_UNUSED(obj);
 256              		.loc 1 559 0
 257 0002 08B5     		push	{r3, lr}
 258              		.cfi_def_cfa_offset 8
 259              		.cfi_offset 3, -8
 260              		.cfi_offset 14, -4
 563:main.c        ****         lv_obj_set_hidden(voltage_ok_btn, true);
 261              		.loc 1 563 0
 262 0004 0121     		movs	r1, #1
 263              	.LVL27:
 264 0006 084B     		ldr	r3, .L26
 265 0008 1868     		ldr	r0, [r3]
 266              	.LVL28:
 267 000a FFF7FEFF 		bl	lv_obj_set_hidden
 268              	.LVL29:
 564:main.c        ****     
 269              		.loc 1 564 0
 270 000e 0121     		movs	r1, #1
 271 0010 064B     		ldr	r3, .L26+4
 272 0012 1868     		ldr	r0, [r3]
 273 0014 FFF7FEFF 		bl	lv_obj_set_hidden
 274              	.LVL30:
 566:main.c        ****         // lv_group_focus_obj(shoot_btn);
 275              		.loc 1 566 0
 276 0018 054B     		ldr	r3, .L26+8
 277 001a 5968     		ldr	r1, [r3, #4]
 278 001c 9868     		ldr	r0, [r3, #8]
 279 001e FFF7FEFF 		bl	lv_indev_set_group
 280              	.LVL31:
 281 0022 08BD     		pop	{r3, pc}
 282              	.LVL32:
 283              	.L25:
 284              		.cfi_def_cfa_offset 0
 285              		.cfi_restore 3
 286              		.cfi_restore 14
 287 0024 7047     		bx	lr
 288              	.L27:
 289 0026 00BF     		.align	2
 290              	.L26:
 291 0028 00000000 		.word	voltage_ddlist
 292 002c 00000000 		.word	voltage_ok_btn
 293 0030 00000000 		.word	.LANCHOR0
 294              		.cfi_endproc
 295              	.LFE455:
 296              		.size	voltage_ok_btn_handler, .-voltage_ok_btn_handler
 297              		.section	.text.pulses_ok_btn_handler,"ax",%progbits
 298              		.align	2
 299              		.thumb
 300              		.thumb_func
 301              		.type	pulses_ok_btn_handler, %function
 302              	pulses_ok_btn_handler:
 303              	.LFB458:
 573:main.c        ****     LV_UNUSED(obj);
 574:main.c        ****     
 575:main.c        ****     if (LV_EVENT_VALUE_CHANGED == e) {
 576:main.c        ****         
ARM GAS  C:\Users\strap\AppData\Local\Temp\cci64Z2T.s 			page 17


 577:main.c        ****     }
 578:main.c        **** }
 579:main.c        **** 
 580:main.c        **** static void create_voltage_container_widgets(lv_obj_t *parent)
 581:main.c        **** {
 582:main.c        ****     /* Widgets creation */
 583:main.c        ****     voltage_ddlist = lv_dropdown_create(parent, NULL);
 584:main.c        ****     voltage_ok_btn = lv_btn_create(parent, NULL);
 585:main.c        ****     
 586:main.c        ****     lv_dropdown_set_options(voltage_ddlist, "24V\n48V\n72V");
 587:main.c        ****     
 588:main.c        ****     /* Adding new widgets into the group so the encoder can choose them */
 589:main.c        ****     lv_group_add_obj(voltage_params_g, voltage_ddlist);
 590:main.c        ****     lv_group_add_obj(voltage_params_g, voltage_ok_btn);
 591:main.c        ****     
 592:main.c        ****     /* Widgets style */
 593:main.c        ****     lv_obj_set_style_local_value_str(voltage_ok_btn, LV_BTN_PART_MAIN, LV_STATE_DEFAULT, "OK!");
 594:main.c        ****     lv_btn_set_fit2(voltage_ok_btn,
 595:main.c        ****         LV_FIT_PARENT,  /* horizontal */
 596:main.c        ****         LV_FIT_NONE); /* vertical */
 597:main.c        ****     
 598:main.c        ****     /* Widgets event callbacks */
 599:main.c        ****     lv_obj_set_event_cb(voltage_ddlist, voltage_ddlist_handler);
 600:main.c        ****     lv_obj_set_event_cb(voltage_ok_btn, voltage_ok_btn_handler);
 601:main.c        ****     
 602:main.c        ****     lv_obj_set_hidden(voltage_ddlist, true);
 603:main.c        ****     lv_obj_set_hidden(voltage_ok_btn, true);
 604:main.c        **** }
 605:main.c        **** 
 606:main.c        **** LV_EVENT_CB_DECLARE(pulses_ok_btn_handler)
 607:main.c        **** {
 304              		.loc 1 607 0
 305              		.cfi_startproc
 306              		@ args = 0, pretend = 0, frame = 0
 307              		@ frame_needed = 0, uses_anonymous_args = 0
 308              	.LVL33:
 608:main.c        ****     LV_UNUSED(obj);
 609:main.c        ****     
 610:main.c        ****     if (LV_EVENT_PRESSED == e) {
 309              		.loc 1 610 0
 310 0000 B9B9     		cbnz	r1, .L31
 607:main.c        ****     LV_UNUSED(obj);
 311              		.loc 1 607 0
 312 0002 10B5     		push	{r4, lr}
 313              		.cfi_def_cfa_offset 8
 314              		.cfi_offset 4, -8
 315              		.cfi_offset 14, -4
 611:main.c        ****         /* Hide Burst type widgets and go to the parameter list */
 612:main.c        ****         lv_obj_set_hidden(pulses_ok_btn, true);
 316              		.loc 1 612 0
 317 0004 0121     		movs	r1, #1
 318              	.LVL34:
 319 0006 0B4B     		ldr	r3, .L32
 320 0008 1868     		ldr	r0, [r3]
 321              	.LVL35:
 322 000a FFF7FEFF 		bl	lv_obj_set_hidden
 323              	.LVL36:
ARM GAS  C:\Users\strap\AppData\Local\Temp\cci64Z2T.s 			page 18


 613:main.c        ****         lv_obj_set_hidden(pulses_spinbox, true);
 324              		.loc 1 613 0
 325 000e 0121     		movs	r1, #1
 326 0010 094B     		ldr	r3, .L32+4
 327 0012 1868     		ldr	r0, [r3]
 328 0014 FFF7FEFF 		bl	lv_obj_set_hidden
 329              	.LVL37:
 614:main.c        ****         
 615:main.c        ****         lv_indev_set_group(encoder_indev, parameter_list_g);
 330              		.loc 1 615 0
 331 0018 084C     		ldr	r4, .L32+8
 332 001a 6168     		ldr	r1, [r4, #4]
 333 001c A068     		ldr	r0, [r4, #8]
 334 001e FFF7FEFF 		bl	lv_indev_set_group
 335              	.LVL38:
 616:main.c        ****         lv_group_focus_obj(parameter_list[PARAMETER_LIST_BURST_PULSES]);
 336              		.loc 1 616 0
 337 0022 2069     		ldr	r0, [r4, #16]
 338 0024 FFF7FEFF 		bl	lv_group_focus_obj
 339              	.LVL39:
 617:main.c        ****         lv_checkbox_set_checked(parameter_list[PARAMETER_LIST_BURST_PULSES], true);
 340              		.loc 1 617 0
 341 0028 0121     		movs	r1, #1
 342 002a 2069     		ldr	r0, [r4, #16]
 343 002c FFF7FEFF 		bl	lv_checkbox_set_checked
 344              	.LVL40:
 345 0030 10BD     		pop	{r4, pc}
 346              	.LVL41:
 347              	.L31:
 348              		.cfi_def_cfa_offset 0
 349              		.cfi_restore 4
 350              		.cfi_restore 14
 351 0032 7047     		bx	lr
 352              	.L33:
 353              		.align	2
 354              	.L32:
 355 0034 00000000 		.word	pulses_ok_btn
 356 0038 00000000 		.word	pulses_spinbox
 357 003c 00000000 		.word	.LANCHOR0
 358              		.cfi_endproc
 359              	.LFE458:
 360              		.size	pulses_ok_btn_handler, .-pulses_ok_btn_handler
 361              		.section	.text.parameter_list_container_event_handler,"ax",%progbits
 362              		.align	2
 363              		.thumb
 364              		.thumb_func
 365              		.type	parameter_list_container_event_handler, %function
 366              	parameter_list_container_event_handler:
 367              	.LFB448:
 371:main.c        ****     UART_PutString("parameter list handler");
 368              		.loc 1 371 0
 369              		.cfi_startproc
 370              		@ args = 0, pretend = 0, frame = 0
 371              		@ frame_needed = 0, uses_anonymous_args = 0
 372              	.LVL42:
 373 0000 38B5     		push	{r3, r4, r5, lr}
 374              		.cfi_def_cfa_offset 16
ARM GAS  C:\Users\strap\AppData\Local\Temp\cci64Z2T.s 			page 19


 375              		.cfi_offset 3, -16
 376              		.cfi_offset 4, -12
 377              		.cfi_offset 5, -8
 378              		.cfi_offset 14, -4
 379 0002 0546     		mov	r5, r0
 380 0004 0C46     		mov	r4, r1
 372:main.c        ****     UART_PutHexByte((uint8_t) e);
 381              		.loc 1 372 0
 382 0006 3D48     		ldr	r0, .L39
 383              	.LVL43:
 384 0008 FFF7FEFF 		bl	UART_PutString
 385              	.LVL44:
 373:main.c        ****     UART_PutCRLF();
 386              		.loc 1 373 0
 387 000c 2046     		mov	r0, r4
 388 000e FFF7FEFF 		bl	UART_PutHexByte
 389              	.LVL45:
 374:main.c        ****     
 390              		.loc 1 374 0
 391 0012 FFF7FEFF 		bl	UART_PutCRLF
 392              	.LVL46:
 376:main.c        ****         if (parameter_list[PARAMETER_LIST_BURST_TYPE] == obj && lv_checkbox_is_checked(obj)) {
 393              		.loc 1 376 0
 394 0016 102C     		cmp	r4, #16
 395 0018 6FD1     		bne	.L34
 377:main.c        ****             lv_checkbox_set_checked(parameter_list[PARAMETER_LIST_BURST_PULSES], false);
 396              		.loc 1 377 0
 397 001a 394B     		ldr	r3, .L39+4
 398 001c DB68     		ldr	r3, [r3, #12]
 399 001e AB42     		cmp	r3, r5
 400 0020 23D1     		bne	.L36
 401              	.LVL47:
 402              	.LBB37:
 403              	.LBB38:
 404              		.file 2 "lvgl/src/lv_widgets/lv_checkbox.h"
   1:lvgl/src/lv_widgets/lv_checkbox.h **** /**
   2:lvgl/src/lv_widgets/lv_checkbox.h ****  * @file lv_cb.h
   3:lvgl/src/lv_widgets/lv_checkbox.h ****  *
   4:lvgl/src/lv_widgets/lv_checkbox.h ****  */
   5:lvgl/src/lv_widgets/lv_checkbox.h **** 
   6:lvgl/src/lv_widgets/lv_checkbox.h **** #ifndef LV_CHECKBOX_H
   7:lvgl/src/lv_widgets/lv_checkbox.h **** #define LV_CHECKBOX_H
   8:lvgl/src/lv_widgets/lv_checkbox.h **** 
   9:lvgl/src/lv_widgets/lv_checkbox.h **** #ifdef __cplusplus
  10:lvgl/src/lv_widgets/lv_checkbox.h **** extern "C" {
  11:lvgl/src/lv_widgets/lv_checkbox.h **** #endif
  12:lvgl/src/lv_widgets/lv_checkbox.h **** 
  13:lvgl/src/lv_widgets/lv_checkbox.h **** /*********************
  14:lvgl/src/lv_widgets/lv_checkbox.h ****  *      INCLUDES
  15:lvgl/src/lv_widgets/lv_checkbox.h ****  *********************/
  16:lvgl/src/lv_widgets/lv_checkbox.h **** #include "../lv_conf_internal.h"
  17:lvgl/src/lv_widgets/lv_checkbox.h **** 
  18:lvgl/src/lv_widgets/lv_checkbox.h **** #if LV_USE_CHECKBOX != 0
  19:lvgl/src/lv_widgets/lv_checkbox.h **** 
  20:lvgl/src/lv_widgets/lv_checkbox.h **** /*Testing of dependencies*/
  21:lvgl/src/lv_widgets/lv_checkbox.h **** #if LV_USE_BTN == 0
  22:lvgl/src/lv_widgets/lv_checkbox.h **** #error "lv_cb: lv_btn is required. Enable it in lv_conf.h (LV_USE_BTN  1) "
ARM GAS  C:\Users\strap\AppData\Local\Temp\cci64Z2T.s 			page 20


  23:lvgl/src/lv_widgets/lv_checkbox.h **** #endif
  24:lvgl/src/lv_widgets/lv_checkbox.h **** 
  25:lvgl/src/lv_widgets/lv_checkbox.h **** #if LV_USE_LABEL == 0
  26:lvgl/src/lv_widgets/lv_checkbox.h **** #error "lv_cb: lv_label is required. Enable it in lv_conf.h (LV_USE_LABEL  1) "
  27:lvgl/src/lv_widgets/lv_checkbox.h **** #endif
  28:lvgl/src/lv_widgets/lv_checkbox.h **** 
  29:lvgl/src/lv_widgets/lv_checkbox.h **** #include "../lv_core/lv_obj.h"
  30:lvgl/src/lv_widgets/lv_checkbox.h **** #include "lv_btn.h"
  31:lvgl/src/lv_widgets/lv_checkbox.h **** #include "lv_label.h"
  32:lvgl/src/lv_widgets/lv_checkbox.h **** 
  33:lvgl/src/lv_widgets/lv_checkbox.h **** /*********************
  34:lvgl/src/lv_widgets/lv_checkbox.h ****  *      DEFINES
  35:lvgl/src/lv_widgets/lv_checkbox.h ****  *********************/
  36:lvgl/src/lv_widgets/lv_checkbox.h **** 
  37:lvgl/src/lv_widgets/lv_checkbox.h **** /**********************
  38:lvgl/src/lv_widgets/lv_checkbox.h ****  *      TYPEDEFS
  39:lvgl/src/lv_widgets/lv_checkbox.h ****  **********************/
  40:lvgl/src/lv_widgets/lv_checkbox.h **** 
  41:lvgl/src/lv_widgets/lv_checkbox.h **** /*Data of check box*/
  42:lvgl/src/lv_widgets/lv_checkbox.h **** typedef struct {
  43:lvgl/src/lv_widgets/lv_checkbox.h ****     lv_btn_ext_t bg_btn; /*Ext. of ancestor*/
  44:lvgl/src/lv_widgets/lv_checkbox.h ****     /*New data for this type */
  45:lvgl/src/lv_widgets/lv_checkbox.h ****     lv_obj_t * bullet; /*Pointer to button*/
  46:lvgl/src/lv_widgets/lv_checkbox.h ****     lv_obj_t * label;  /*Pointer to label*/
  47:lvgl/src/lv_widgets/lv_checkbox.h **** } lv_checkbox_ext_t;
  48:lvgl/src/lv_widgets/lv_checkbox.h **** 
  49:lvgl/src/lv_widgets/lv_checkbox.h **** /** Checkbox styles. */
  50:lvgl/src/lv_widgets/lv_checkbox.h **** enum {
  51:lvgl/src/lv_widgets/lv_checkbox.h ****     LV_CHECKBOX_PART_BG = LV_BTN_PART_MAIN,  /**< Style of object background. */
  52:lvgl/src/lv_widgets/lv_checkbox.h ****     _LV_CHECKBOX_PART_VIRTUAL_LAST,
  53:lvgl/src/lv_widgets/lv_checkbox.h ****     LV_CHECKBOX_PART_BULLET = _LV_BTN_PART_REAL_LAST, /**< Style of box (released). */
  54:lvgl/src/lv_widgets/lv_checkbox.h ****     _LV_CHECKBOX_PART_REAL_LAST
  55:lvgl/src/lv_widgets/lv_checkbox.h **** };
  56:lvgl/src/lv_widgets/lv_checkbox.h **** typedef uint8_t lv_checkbox_style_t;
  57:lvgl/src/lv_widgets/lv_checkbox.h **** 
  58:lvgl/src/lv_widgets/lv_checkbox.h **** /**********************
  59:lvgl/src/lv_widgets/lv_checkbox.h ****  * GLOBAL PROTOTYPES
  60:lvgl/src/lv_widgets/lv_checkbox.h ****  **********************/
  61:lvgl/src/lv_widgets/lv_checkbox.h **** 
  62:lvgl/src/lv_widgets/lv_checkbox.h **** /**
  63:lvgl/src/lv_widgets/lv_checkbox.h ****  * Create a check box objects
  64:lvgl/src/lv_widgets/lv_checkbox.h ****  * @param par pointer to an object, it will be the parent of the new check box
  65:lvgl/src/lv_widgets/lv_checkbox.h ****  * @param copy pointer to a check box object, if not NULL then the new object will be copied from i
  66:lvgl/src/lv_widgets/lv_checkbox.h ****  * @return pointer to the created check box
  67:lvgl/src/lv_widgets/lv_checkbox.h ****  */
  68:lvgl/src/lv_widgets/lv_checkbox.h **** lv_obj_t * lv_checkbox_create(lv_obj_t * par, const lv_obj_t * copy);
  69:lvgl/src/lv_widgets/lv_checkbox.h **** 
  70:lvgl/src/lv_widgets/lv_checkbox.h **** /*=====================
  71:lvgl/src/lv_widgets/lv_checkbox.h ****  * Setter functions
  72:lvgl/src/lv_widgets/lv_checkbox.h ****  *====================*/
  73:lvgl/src/lv_widgets/lv_checkbox.h **** 
  74:lvgl/src/lv_widgets/lv_checkbox.h **** /**
  75:lvgl/src/lv_widgets/lv_checkbox.h ****  * Set the text of a check box. `txt` will be copied and may be deallocated
  76:lvgl/src/lv_widgets/lv_checkbox.h ****  * after this function returns.
  77:lvgl/src/lv_widgets/lv_checkbox.h ****  * @param cb pointer to a check box
  78:lvgl/src/lv_widgets/lv_checkbox.h ****  * @param txt the text of the check box. NULL to refresh with the current text.
  79:lvgl/src/lv_widgets/lv_checkbox.h ****  */
ARM GAS  C:\Users\strap\AppData\Local\Temp\cci64Z2T.s 			page 21


  80:lvgl/src/lv_widgets/lv_checkbox.h **** void lv_checkbox_set_text(lv_obj_t * cb, const char * txt);
  81:lvgl/src/lv_widgets/lv_checkbox.h **** 
  82:lvgl/src/lv_widgets/lv_checkbox.h **** /**
  83:lvgl/src/lv_widgets/lv_checkbox.h ****  * Set the text of a check box. `txt` must not be deallocated during the life
  84:lvgl/src/lv_widgets/lv_checkbox.h ****  * of this checkbox.
  85:lvgl/src/lv_widgets/lv_checkbox.h ****  * @param cb pointer to a check box
  86:lvgl/src/lv_widgets/lv_checkbox.h ****  * @param txt the text of the check box. NULL to refresh with the current text.
  87:lvgl/src/lv_widgets/lv_checkbox.h ****  */
  88:lvgl/src/lv_widgets/lv_checkbox.h **** void lv_checkbox_set_text_static(lv_obj_t * cb, const char * txt);
  89:lvgl/src/lv_widgets/lv_checkbox.h **** 
  90:lvgl/src/lv_widgets/lv_checkbox.h **** /**
  91:lvgl/src/lv_widgets/lv_checkbox.h ****  * Set the state of the check box
  92:lvgl/src/lv_widgets/lv_checkbox.h ****  * @param cb pointer to a check box object
  93:lvgl/src/lv_widgets/lv_checkbox.h ****  * @param checked true: make the check box checked; false: make it unchecked
  94:lvgl/src/lv_widgets/lv_checkbox.h ****  */
  95:lvgl/src/lv_widgets/lv_checkbox.h **** void lv_checkbox_set_checked(lv_obj_t * cb, bool checked);
  96:lvgl/src/lv_widgets/lv_checkbox.h **** 
  97:lvgl/src/lv_widgets/lv_checkbox.h **** /**
  98:lvgl/src/lv_widgets/lv_checkbox.h ****  * Make the check box inactive (disabled)
  99:lvgl/src/lv_widgets/lv_checkbox.h ****  * @param cb pointer to a check box object
 100:lvgl/src/lv_widgets/lv_checkbox.h ****  */
 101:lvgl/src/lv_widgets/lv_checkbox.h **** void lv_checkbox_set_disabled(lv_obj_t * cb);
 102:lvgl/src/lv_widgets/lv_checkbox.h **** 
 103:lvgl/src/lv_widgets/lv_checkbox.h **** /**
 104:lvgl/src/lv_widgets/lv_checkbox.h ****  * Set the state of a check box
 105:lvgl/src/lv_widgets/lv_checkbox.h ****  * @param cb pointer to a check box object
 106:lvgl/src/lv_widgets/lv_checkbox.h ****  * @param state the new state of the check box (from lv_btn_state_t enum)
 107:lvgl/src/lv_widgets/lv_checkbox.h ****  */
 108:lvgl/src/lv_widgets/lv_checkbox.h **** void lv_checkbox_set_state(lv_obj_t * cb, lv_btn_state_t state);
 109:lvgl/src/lv_widgets/lv_checkbox.h **** /*=====================
 110:lvgl/src/lv_widgets/lv_checkbox.h ****  * Getter functions
 111:lvgl/src/lv_widgets/lv_checkbox.h ****  *====================*/
 112:lvgl/src/lv_widgets/lv_checkbox.h **** 
 113:lvgl/src/lv_widgets/lv_checkbox.h **** /**
 114:lvgl/src/lv_widgets/lv_checkbox.h ****  * Get the text of a check box
 115:lvgl/src/lv_widgets/lv_checkbox.h ****  * @param cb pointer to check box object
 116:lvgl/src/lv_widgets/lv_checkbox.h ****  * @return pointer to the text of the check box
 117:lvgl/src/lv_widgets/lv_checkbox.h ****  */
 118:lvgl/src/lv_widgets/lv_checkbox.h **** const char * lv_checkbox_get_text(const lv_obj_t * cb);
 119:lvgl/src/lv_widgets/lv_checkbox.h **** 
 120:lvgl/src/lv_widgets/lv_checkbox.h **** /**
 121:lvgl/src/lv_widgets/lv_checkbox.h ****  * Get the current state of the check box
 122:lvgl/src/lv_widgets/lv_checkbox.h ****  * @param cb pointer to a check box object
 123:lvgl/src/lv_widgets/lv_checkbox.h ****  * @return true: checked; false: not checked
 124:lvgl/src/lv_widgets/lv_checkbox.h ****  */
 125:lvgl/src/lv_widgets/lv_checkbox.h **** static inline bool lv_checkbox_is_checked(const lv_obj_t * cb)
 126:lvgl/src/lv_widgets/lv_checkbox.h **** {
 127:lvgl/src/lv_widgets/lv_checkbox.h ****     return lv_btn_get_state(cb) == LV_BTN_STATE_RELEASED ? false : true;
 405              		.loc 2 127 0
 406 0022 2846     		mov	r0, r5
 407 0024 FFF7FEFF 		bl	lv_btn_get_state
 408              	.LVL48:
 409              	.LBE38:
 410              	.LBE37:
 377:main.c        ****             lv_checkbox_set_checked(parameter_list[PARAMETER_LIST_BURST_PULSES], false);
 411              		.loc 1 377 0
 412 0028 F8B1     		cbz	r0, .L36
ARM GAS  C:\Users\strap\AppData\Local\Temp\cci64Z2T.s 			page 22


 378:main.c        ****             lv_checkbox_set_checked(parameter_list[PARAMETER_LIST_PULSE_VOLTAGE], false);
 413              		.loc 1 378 0
 414 002a 354C     		ldr	r4, .L39+4
 415 002c 0021     		movs	r1, #0
 416 002e 2069     		ldr	r0, [r4, #16]
 417 0030 FFF7FEFF 		bl	lv_checkbox_set_checked
 418              	.LVL49:
 379:main.c        ****             
 419              		.loc 1 379 0
 420 0034 0021     		movs	r1, #0
 421 0036 6069     		ldr	r0, [r4, #20]
 422 0038 FFF7FEFF 		bl	lv_checkbox_set_checked
 423              	.LVL50:
 381:main.c        ****             
 424              		.loc 1 381 0
 425 003c A169     		ldr	r1, [r4, #24]
 426 003e A068     		ldr	r0, [r4, #8]
 427 0040 FFF7FEFF 		bl	lv_indev_set_group
 428              	.LVL51:
 384:main.c        ****             lv_obj_set_hidden(custom_spinbox, false);
 429              		.loc 1 384 0
 430 0044 2F4C     		ldr	r4, .L39+8
 431 0046 0021     		movs	r1, #0
 432 0048 2068     		ldr	r0, [r4]
 433 004a FFF7FEFF 		bl	lv_obj_set_hidden
 434              	.LVL52:
 385:main.c        ****             lv_obj_set_hidden(type_param_ok_btn, false);
 435              		.loc 1 385 0
 436 004e 0021     		movs	r1, #0
 437 0050 2D4B     		ldr	r3, .L39+12
 438 0052 1868     		ldr	r0, [r3]
 439 0054 FFF7FEFF 		bl	lv_obj_set_hidden
 440              	.LVL53:
 386:main.c        ****             
 441              		.loc 1 386 0
 442 0058 0021     		movs	r1, #0
 443 005a 2C4B     		ldr	r3, .L39+16
 444 005c 1868     		ldr	r0, [r3]
 445 005e FFF7FEFF 		bl	lv_obj_set_hidden
 446              	.LVL54:
 388:main.c        ****             
 447              		.loc 1 388 0
 448 0062 2068     		ldr	r0, [r4]
 449 0064 FFF7FEFF 		bl	lv_group_focus_obj
 450              	.LVL55:
 451 0068 38BD     		pop	{r3, r4, r5, pc}
 452              	.LVL56:
 453              	.L36:
 390:main.c        ****             lv_checkbox_set_checked(parameter_list[PARAMETER_LIST_BURST_TYPE], false);
 454              		.loc 1 390 0
 455 006a 254B     		ldr	r3, .L39+4
 456 006c 5B69     		ldr	r3, [r3, #20]
 457 006e 9D42     		cmp	r5, r3
 458 0070 21D1     		bne	.L37
 459              	.LVL57:
 460              	.LBB39:
 461              	.LBB40:
ARM GAS  C:\Users\strap\AppData\Local\Temp\cci64Z2T.s 			page 23


 462              		.loc 2 127 0
 463 0072 2846     		mov	r0, r5
 464 0074 FFF7FEFF 		bl	lv_btn_get_state
 465              	.LVL58:
 466              	.LBE40:
 467              	.LBE39:
 390:main.c        ****             lv_checkbox_set_checked(parameter_list[PARAMETER_LIST_BURST_TYPE], false);
 468              		.loc 1 390 0
 469 0078 E8B1     		cbz	r0, .L37
 391:main.c        ****             lv_checkbox_set_checked(parameter_list[PARAMETER_LIST_BURST_PULSES], false);
 470              		.loc 1 391 0
 471 007a 214C     		ldr	r4, .L39+4
 472 007c 0021     		movs	r1, #0
 473 007e E068     		ldr	r0, [r4, #12]
 474 0080 FFF7FEFF 		bl	lv_checkbox_set_checked
 475              	.LVL59:
 392:main.c        ****             
 476              		.loc 1 392 0
 477 0084 0021     		movs	r1, #0
 478 0086 2069     		ldr	r0, [r4, #16]
 479 0088 FFF7FEFF 		bl	lv_checkbox_set_checked
 480              	.LVL60:
 394:main.c        ****             
 481              		.loc 1 394 0
 482 008c 2048     		ldr	r0, .L39+20
 483 008e FFF7FEFF 		bl	UART_PutString
 484              	.LVL61:
 396:main.c        ****             
 485              		.loc 1 396 0
 486 0092 E169     		ldr	r1, [r4, #28]
 487 0094 A068     		ldr	r0, [r4, #8]
 488 0096 FFF7FEFF 		bl	lv_indev_set_group
 489              	.LVL62:
 399:main.c        ****             lv_obj_set_hidden(voltage_ok_btn, false);
 490              		.loc 1 399 0
 491 009a 1E4C     		ldr	r4, .L39+24
 492 009c 0021     		movs	r1, #0
 493 009e 2068     		ldr	r0, [r4]
 494 00a0 FFF7FEFF 		bl	lv_obj_set_hidden
 495              	.LVL63:
 400:main.c        ****             
 496              		.loc 1 400 0
 497 00a4 0021     		movs	r1, #0
 498 00a6 1C4B     		ldr	r3, .L39+28
 499 00a8 1868     		ldr	r0, [r3]
 500 00aa FFF7FEFF 		bl	lv_obj_set_hidden
 501              	.LVL64:
 402:main.c        ****             
 502              		.loc 1 402 0
 503 00ae 2068     		ldr	r0, [r4]
 504 00b0 FFF7FEFF 		bl	lv_group_focus_obj
 505              	.LVL65:
 506 00b4 38BD     		pop	{r3, r4, r5, pc}
 507              	.LVL66:
 508              	.L37:
 404:main.c        ****             lv_checkbox_set_checked(parameter_list[PARAMETER_LIST_BURST_TYPE], false);
 509              		.loc 1 404 0
ARM GAS  C:\Users\strap\AppData\Local\Temp\cci64Z2T.s 			page 24


 510 00b6 124B     		ldr	r3, .L39+4
 511 00b8 1B69     		ldr	r3, [r3, #16]
 512 00ba 9D42     		cmp	r5, r3
 513 00bc 1DD1     		bne	.L34
 514              	.LVL67:
 515              	.LBB41:
 516              	.LBB42:
 517              		.loc 2 127 0
 518 00be 2846     		mov	r0, r5
 519 00c0 FFF7FEFF 		bl	lv_btn_get_state
 520              	.LVL68:
 521              	.LBE42:
 522              	.LBE41:
 404:main.c        ****             lv_checkbox_set_checked(parameter_list[PARAMETER_LIST_BURST_TYPE], false);
 523              		.loc 1 404 0
 524 00c4 C8B1     		cbz	r0, .L34
 405:main.c        ****             lv_checkbox_set_checked(parameter_list[PARAMETER_LIST_PULSE_VOLTAGE], false);
 525              		.loc 1 405 0
 526 00c6 0E4C     		ldr	r4, .L39+4
 527 00c8 0021     		movs	r1, #0
 528 00ca E068     		ldr	r0, [r4, #12]
 529 00cc FFF7FEFF 		bl	lv_checkbox_set_checked
 530              	.LVL69:
 406:main.c        ****             
 531              		.loc 1 406 0
 532 00d0 0021     		movs	r1, #0
 533 00d2 6069     		ldr	r0, [r4, #20]
 534 00d4 FFF7FEFF 		bl	lv_checkbox_set_checked
 535              	.LVL70:
 408:main.c        ****             
 536              		.loc 1 408 0
 537 00d8 216A     		ldr	r1, [r4, #32]
 538 00da A068     		ldr	r0, [r4, #8]
 539 00dc FFF7FEFF 		bl	lv_indev_set_group
 540              	.LVL71:
 410:main.c        ****             lv_obj_set_hidden(pulses_ok_btn, false);
 541              		.loc 1 410 0
 542 00e0 0E4C     		ldr	r4, .L39+32
 543 00e2 0021     		movs	r1, #0
 544 00e4 2068     		ldr	r0, [r4]
 545 00e6 FFF7FEFF 		bl	lv_obj_set_hidden
 546              	.LVL72:
 411:main.c        ****             
 547              		.loc 1 411 0
 548 00ea 0021     		movs	r1, #0
 549 00ec 0C4B     		ldr	r3, .L39+36
 550 00ee 1868     		ldr	r0, [r3]
 551 00f0 FFF7FEFF 		bl	lv_obj_set_hidden
 552              	.LVL73:
 413:main.c        ****         }
 553              		.loc 1 413 0
 554 00f4 2068     		ldr	r0, [r4]
 555 00f6 FFF7FEFF 		bl	lv_group_focus_obj
 556              	.LVL74:
 557              	.L34:
 558 00fa 38BD     		pop	{r3, r4, r5, pc}
 559              	.LVL75:
ARM GAS  C:\Users\strap\AppData\Local\Temp\cci64Z2T.s 			page 25


 560              	.L40:
 561              		.align	2
 562              	.L39:
 563 00fc 10000000 		.word	.LC1
 564 0100 00000000 		.word	.LANCHOR0
 565 0104 00000000 		.word	burst_type_list
 566 0108 00000000 		.word	custom_spinbox
 567 010c 00000000 		.word	type_param_ok_btn
 568 0110 28000000 		.word	.LC2
 569 0114 00000000 		.word	voltage_ddlist
 570 0118 00000000 		.word	voltage_ok_btn
 571 011c 00000000 		.word	pulses_spinbox
 572 0120 00000000 		.word	pulses_ok_btn
 573              		.cfi_endproc
 574              	.LFE448:
 575              		.size	parameter_list_container_event_handler, .-parameter_list_container_event_handler
 576              		.section	.text.create_voltage_container_widgets,"ax",%progbits
 577              		.align	2
 578              		.thumb
 579              		.thumb_func
 580              		.type	create_voltage_container_widgets, %function
 581              	create_voltage_container_widgets:
 582              	.LFB457:
 581:main.c        ****     /* Widgets creation */
 583              		.loc 1 581 0
 584              		.cfi_startproc
 585              		@ args = 0, pretend = 0, frame = 0
 586              		@ frame_needed = 0, uses_anonymous_args = 0
 587              	.LVL76:
 588 0000 70B5     		push	{r4, r5, r6, lr}
 589              		.cfi_def_cfa_offset 16
 590              		.cfi_offset 4, -16
 591              		.cfi_offset 5, -12
 592              		.cfi_offset 6, -8
 593              		.cfi_offset 14, -4
 594 0002 82B0     		sub	sp, sp, #8
 595              		.cfi_def_cfa_offset 24
 596 0004 0446     		mov	r4, r0
 583:main.c        ****     voltage_ok_btn = lv_btn_create(parent, NULL);
 597              		.loc 1 583 0
 598 0006 0021     		movs	r1, #0
 599 0008 FFF7FEFF 		bl	lv_dropdown_create
 600              	.LVL77:
 601 000c 194D     		ldr	r5, .L43
 602 000e 2860     		str	r0, [r5]
 584:main.c        ****     
 603              		.loc 1 584 0
 604 0010 0021     		movs	r1, #0
 605 0012 2046     		mov	r0, r4
 606 0014 FFF7FEFF 		bl	lv_btn_create
 607              	.LVL78:
 608 0018 174C     		ldr	r4, .L43+4
 609              	.LVL79:
 610 001a 2060     		str	r0, [r4]
 586:main.c        ****     
 611              		.loc 1 586 0
 612 001c 1749     		ldr	r1, .L43+8
ARM GAS  C:\Users\strap\AppData\Local\Temp\cci64Z2T.s 			page 26


 613 001e 2868     		ldr	r0, [r5]
 614 0020 FFF7FEFF 		bl	lv_dropdown_set_options
 615              	.LVL80:
 589:main.c        ****     lv_group_add_obj(voltage_params_g, voltage_ok_btn);
 616              		.loc 1 589 0
 617 0024 164E     		ldr	r6, .L43+12
 618 0026 2968     		ldr	r1, [r5]
 619 0028 F069     		ldr	r0, [r6, #28]
 620 002a FFF7FEFF 		bl	lv_group_add_obj
 621              	.LVL81:
 590:main.c        ****     
 622              		.loc 1 590 0
 623 002e 2168     		ldr	r1, [r4]
 624 0030 F069     		ldr	r0, [r6, #28]
 625 0032 FFF7FEFF 		bl	lv_group_add_obj
 626              	.LVL82:
 627              	.LBB43:
 628              	.LBB44:
 629              		.file 3 "lvgl/src/lv_core/lv_obj_style_dec.h"
   1:lvgl/src/lv_core/lv_obj_style_dec.h **** 
   2:lvgl/src/lv_core/lv_obj_style_dec.h **** /**
   3:lvgl/src/lv_core/lv_obj_style_dec.h ****  * @file lv_obj_style_dec.h
   4:lvgl/src/lv_core/lv_obj_style_dec.h ****  *
   5:lvgl/src/lv_core/lv_obj_style_dec.h ****  */
   6:lvgl/src/lv_core/lv_obj_style_dec.h **** 
   7:lvgl/src/lv_core/lv_obj_style_dec.h **** #ifndef LV_OBJ_STYLE_DEC_H
   8:lvgl/src/lv_core/lv_obj_style_dec.h **** #define LV_OBJ_STYLE_DEC_H
   9:lvgl/src/lv_core/lv_obj_style_dec.h **** 
  10:lvgl/src/lv_core/lv_obj_style_dec.h **** #ifdef __cplusplus
  11:lvgl/src/lv_core/lv_obj_style_dec.h **** extern "C" {
  12:lvgl/src/lv_core/lv_obj_style_dec.h **** #endif
  13:lvgl/src/lv_core/lv_obj_style_dec.h **** 
  14:lvgl/src/lv_core/lv_obj_style_dec.h **** /*********************
  15:lvgl/src/lv_core/lv_obj_style_dec.h ****  *      DEFINES
  16:lvgl/src/lv_core/lv_obj_style_dec.h ****  *********************/
  17:lvgl/src/lv_core/lv_obj_style_dec.h **** 
  18:lvgl/src/lv_core/lv_obj_style_dec.h **** /**
  19:lvgl/src/lv_core/lv_obj_style_dec.h ****  * Macro to declare the most important style set/get API functions.
  20:lvgl/src/lv_core/lv_obj_style_dec.h ****  *
  21:lvgl/src/lv_core/lv_obj_style_dec.h ****  * Get the value of a style property from an object in the object's current state
  22:lvgl/src/lv_core/lv_obj_style_dec.h ****  * -----------------------------------------------------------------------------
  23:lvgl/src/lv_core/lv_obj_style_dec.h ****  *  - Get the value of a style property from an object in the object's current state.
  24:lvgl/src/lv_core/lv_obj_style_dec.h ****  *  - Transition animation is taken into account.
  25:lvgl/src/lv_core/lv_obj_style_dec.h ****  *  - If the property is not set in the object's styles check the parent(s) if the property can be 
  26:lvgl/src/lv_core/lv_obj_style_dec.h ****  *  - If still not found return a default value.
  27:lvgl/src/lv_core/lv_obj_style_dec.h ****  *  - For example:
  28:lvgl/src/lv_core/lv_obj_style_dec.h ****  *      `lv_style_int_t w = lv_obj_get_style_border_width(btn1, LV_BTN_PART_MAIN);`
  29:lvgl/src/lv_core/lv_obj_style_dec.h ****  *
  30:lvgl/src/lv_core/lv_obj_style_dec.h ****  * Set a local style property for an object in a given state
  31:lvgl/src/lv_core/lv_obj_style_dec.h ****  * ---------------------------------------------------------
  32:lvgl/src/lv_core/lv_obj_style_dec.h ****  *  - For example:
  33:lvgl/src/lv_core/lv_obj_style_dec.h ****  *      `lv_obj_set_style_local_border_width(btn1, LV_BTN_PART_MAIN, LV_STATE_PRESSED, 2);`
  34:lvgl/src/lv_core/lv_obj_style_dec.h ****  *
  35:lvgl/src/lv_core/lv_obj_style_dec.h ****  * Get a local style property's value of an object in a given state
  36:lvgl/src/lv_core/lv_obj_style_dec.h ****  * ----------------------------------------------------------------
  37:lvgl/src/lv_core/lv_obj_style_dec.h ****  *  - Return the best matching property in the given state.
  38:lvgl/src/lv_core/lv_obj_style_dec.h ****  *  - E.g. if `state` parameter is LV_STATE_PRESSED | LV_STATE_CHECKED` but the property defined on
ARM GAS  C:\Users\strap\AppData\Local\Temp\cci64Z2T.s 			page 27


  39:lvgl/src/lv_core/lv_obj_style_dec.h ****  *    `LV_STATE_PRESSED` and `LV_STATE_DEFAULT` the best matching state is `LV_STATE_PRESSED`
  40:lvgl/src/lv_core/lv_obj_style_dec.h ****  *    (because it has higher precedence) and it will be returned.
  41:lvgl/src/lv_core/lv_obj_style_dec.h ****  *  - If the property is not found even in `LV_STATE_DEFAULT` `-1` is returned.
  42:lvgl/src/lv_core/lv_obj_style_dec.h ****  *  - For example:
  43:lvgl/src/lv_core/lv_obj_style_dec.h ****  *      `//Type of result should be lv_style_int_t/lv_opa_t/lv_color_t/const void * according to th
  44:lvgl/src/lv_core/lv_obj_style_dec.h ****  *      `lv_style_int_t result;`
  45:lvgl/src/lv_core/lv_obj_style_dec.h ****  *      `lv_obj_get_style_local_border_width(btn1, LV_BTN_PART_MAIN, LV_STATE_PRESSED, &result);`
  46:lvgl/src/lv_core/lv_obj_style_dec.h ****  *      `if(weight > 0) ...the property is found and loaded into result...`
  47:lvgl/src/lv_core/lv_obj_style_dec.h ****  *
  48:lvgl/src/lv_core/lv_obj_style_dec.h ****  * Get the value from a style in a given state
  49:lvgl/src/lv_core/lv_obj_style_dec.h ****  * -------------------------------------------
  50:lvgl/src/lv_core/lv_obj_style_dec.h ****  * - The same rules applies to the return value then for "lv_obj_get_style_local_...()" above
  51:lvgl/src/lv_core/lv_obj_style_dec.h ****  * - For example
  52:lvgl/src/lv_core/lv_obj_style_dec.h ****  *      `int16_t weight = lv_style_get_border_width(&style1, LV_STATE_PRESSED, &result);`
  53:lvgl/src/lv_core/lv_obj_style_dec.h ****  *      `if(weight > 0) ...the property is found and loaded into result...`
  54:lvgl/src/lv_core/lv_obj_style_dec.h **** 
  55:lvgl/src/lv_core/lv_obj_style_dec.h ****  * Set a value in a style in a given state
  56:lvgl/src/lv_core/lv_obj_style_dec.h ****  * ---------------------------------------
  57:lvgl/src/lv_core/lv_obj_style_dec.h ****  * - For example
  58:lvgl/src/lv_core/lv_obj_style_dec.h ****  *      `lv_style_set_border_width(&style1, LV_STATE_PRESSED, 2);`
  59:lvgl/src/lv_core/lv_obj_style_dec.h ****  */
  60:lvgl/src/lv_core/lv_obj_style_dec.h **** 
  61:lvgl/src/lv_core/lv_obj_style_dec.h **** #define _OBJ_GET_STYLE_scalar(prop_name, func_name, value_type, style_type)                        
  62:lvgl/src/lv_core/lv_obj_style_dec.h ****     static inline value_type lv_obj_get_style_##func_name (const lv_obj_t * obj, uint8_t part)     
  63:lvgl/src/lv_core/lv_obj_style_dec.h ****     {                                                                                              
  64:lvgl/src/lv_core/lv_obj_style_dec.h ****         return (value_type) _lv_obj_get_style##style_type (obj, part, LV_STYLE_##prop_name);       
  65:lvgl/src/lv_core/lv_obj_style_dec.h ****     }
  66:lvgl/src/lv_core/lv_obj_style_dec.h **** 
  67:lvgl/src/lv_core/lv_obj_style_dec.h **** #define _OBJ_GET_STYLE_nonscalar(prop_name, func_name, value_type, style_type)                     
  68:lvgl/src/lv_core/lv_obj_style_dec.h ****     static inline value_type lv_obj_get_style_##func_name (const lv_obj_t * obj, uint8_t part)     
  69:lvgl/src/lv_core/lv_obj_style_dec.h ****     {                                                                                              
  70:lvgl/src/lv_core/lv_obj_style_dec.h ****         return _lv_obj_get_style##style_type (obj, part, LV_STYLE_##prop_name);                    
  71:lvgl/src/lv_core/lv_obj_style_dec.h ****     }
  72:lvgl/src/lv_core/lv_obj_style_dec.h **** 
  73:lvgl/src/lv_core/lv_obj_style_dec.h **** #define _OBJ_SET_STYLE_LOCAL_scalar(prop_name, func_name, value_type, style_type)                  
  74:lvgl/src/lv_core/lv_obj_style_dec.h ****     static inline void lv_obj_set_style_local_##func_name (lv_obj_t * obj, uint8_t part, lv_state_t
  75:lvgl/src/lv_core/lv_obj_style_dec.h ****     {                                                                                              
  76:lvgl/src/lv_core/lv_obj_style_dec.h ****         _lv_obj_set_style_local##style_type (obj, part, LV_STYLE_##prop_name | (state << LV_STYLE_S
  77:lvgl/src/lv_core/lv_obj_style_dec.h ****     }
  78:lvgl/src/lv_core/lv_obj_style_dec.h **** 
  79:lvgl/src/lv_core/lv_obj_style_dec.h **** #define _OBJ_SET_STYLE_LOCAL_nonscalar(prop_name, func_name, value_type, style_type)               
  80:lvgl/src/lv_core/lv_obj_style_dec.h ****     static inline void lv_obj_set_style_local_##func_name (lv_obj_t * obj, uint8_t part, lv_state_t
  81:lvgl/src/lv_core/lv_obj_style_dec.h ****     {                                                                                              
  82:lvgl/src/lv_core/lv_obj_style_dec.h ****         _lv_obj_set_style_local##style_type (obj, part, LV_STYLE_##prop_name | (state << LV_STYLE_S
  83:lvgl/src/lv_core/lv_obj_style_dec.h ****     }
  84:lvgl/src/lv_core/lv_obj_style_dec.h **** 
  85:lvgl/src/lv_core/lv_obj_style_dec.h **** #define _OBJ_SET_STYLE_scalar(prop_name, func_name, value_type, style_type)                        
  86:lvgl/src/lv_core/lv_obj_style_dec.h ****     static inline void lv_style_set_##func_name (lv_style_t * style, lv_state_t state, value_type v
  87:lvgl/src/lv_core/lv_obj_style_dec.h ****     {                                                                                              
  88:lvgl/src/lv_core/lv_obj_style_dec.h ****         _lv_style_set##style_type (style, LV_STYLE_##prop_name | (state << LV_STYLE_STATE_POS), val
  89:lvgl/src/lv_core/lv_obj_style_dec.h ****     }
  90:lvgl/src/lv_core/lv_obj_style_dec.h **** 
  91:lvgl/src/lv_core/lv_obj_style_dec.h **** #define _OBJ_SET_STYLE_nonscalar(prop_name, func_name, value_type, style_type)                     
  92:lvgl/src/lv_core/lv_obj_style_dec.h ****     static inline void lv_style_set_##func_name (lv_style_t * style, lv_state_t state, value_type v
  93:lvgl/src/lv_core/lv_obj_style_dec.h ****     {                                                                                              
  94:lvgl/src/lv_core/lv_obj_style_dec.h ****         _lv_style_set##style_type (style, LV_STYLE_##prop_name | (state << LV_STYLE_STATE_POS), val
  95:lvgl/src/lv_core/lv_obj_style_dec.h ****     }
ARM GAS  C:\Users\strap\AppData\Local\Temp\cci64Z2T.s 			page 28


  96:lvgl/src/lv_core/lv_obj_style_dec.h **** 
  97:lvgl/src/lv_core/lv_obj_style_dec.h **** #define _LV_OBJ_STYLE_SET_GET_DECLARE(prop_name, func_name, value_type, style_type, scalar)        
  98:lvgl/src/lv_core/lv_obj_style_dec.h ****     _OBJ_GET_STYLE_##scalar(prop_name, func_name, value_type, style_type)                          
  99:lvgl/src/lv_core/lv_obj_style_dec.h ****     _OBJ_SET_STYLE_LOCAL_##scalar(prop_name, func_name, value_type, style_type)                    
 100:lvgl/src/lv_core/lv_obj_style_dec.h ****     _OBJ_SET_STYLE_##scalar(prop_name, func_name, value_type, style_type)
 101:lvgl/src/lv_core/lv_obj_style_dec.h **** 
 102:lvgl/src/lv_core/lv_obj_style_dec.h **** _LV_OBJ_STYLE_SET_GET_DECLARE(RADIUS, radius, lv_style_int_t, _int, scalar)
 103:lvgl/src/lv_core/lv_obj_style_dec.h **** _LV_OBJ_STYLE_SET_GET_DECLARE(CLIP_CORNER, clip_corner, bool, _int, scalar)
 104:lvgl/src/lv_core/lv_obj_style_dec.h **** _LV_OBJ_STYLE_SET_GET_DECLARE(SIZE, size, lv_style_int_t, _int, scalar)
 105:lvgl/src/lv_core/lv_obj_style_dec.h **** _LV_OBJ_STYLE_SET_GET_DECLARE(TRANSFORM_WIDTH, transform_width, lv_style_int_t, _int, scalar)
 106:lvgl/src/lv_core/lv_obj_style_dec.h **** _LV_OBJ_STYLE_SET_GET_DECLARE(TRANSFORM_HEIGHT, transform_height, lv_style_int_t, _int, scalar)
 107:lvgl/src/lv_core/lv_obj_style_dec.h **** _LV_OBJ_STYLE_SET_GET_DECLARE(TRANSFORM_ANGLE, transform_angle, lv_style_int_t, _int, scalar)
 108:lvgl/src/lv_core/lv_obj_style_dec.h **** _LV_OBJ_STYLE_SET_GET_DECLARE(TRANSFORM_ZOOM, transform_zoom, lv_style_int_t, _int, scalar)
 109:lvgl/src/lv_core/lv_obj_style_dec.h **** _LV_OBJ_STYLE_SET_GET_DECLARE(OPA_SCALE, opa_scale, lv_opa_t, _opa, scalar)
 110:lvgl/src/lv_core/lv_obj_style_dec.h **** _LV_OBJ_STYLE_SET_GET_DECLARE(PAD_TOP, pad_top, lv_style_int_t, _int, scalar)
 111:lvgl/src/lv_core/lv_obj_style_dec.h **** _LV_OBJ_STYLE_SET_GET_DECLARE(PAD_BOTTOM, pad_bottom, lv_style_int_t, _int, scalar)
 112:lvgl/src/lv_core/lv_obj_style_dec.h **** _LV_OBJ_STYLE_SET_GET_DECLARE(PAD_LEFT, pad_left, lv_style_int_t, _int, scalar)
 113:lvgl/src/lv_core/lv_obj_style_dec.h **** _LV_OBJ_STYLE_SET_GET_DECLARE(PAD_RIGHT, pad_right, lv_style_int_t, _int, scalar)
 114:lvgl/src/lv_core/lv_obj_style_dec.h **** _LV_OBJ_STYLE_SET_GET_DECLARE(PAD_INNER, pad_inner, lv_style_int_t, _int, scalar)
 115:lvgl/src/lv_core/lv_obj_style_dec.h **** _LV_OBJ_STYLE_SET_GET_DECLARE(MARGIN_TOP, margin_top, lv_style_int_t, _int, scalar)
 116:lvgl/src/lv_core/lv_obj_style_dec.h **** _LV_OBJ_STYLE_SET_GET_DECLARE(MARGIN_BOTTOM, margin_bottom, lv_style_int_t, _int, scalar)
 117:lvgl/src/lv_core/lv_obj_style_dec.h **** _LV_OBJ_STYLE_SET_GET_DECLARE(MARGIN_LEFT, margin_left, lv_style_int_t, _int, scalar)
 118:lvgl/src/lv_core/lv_obj_style_dec.h **** _LV_OBJ_STYLE_SET_GET_DECLARE(MARGIN_RIGHT, margin_right, lv_style_int_t, _int, scalar)
 119:lvgl/src/lv_core/lv_obj_style_dec.h **** _LV_OBJ_STYLE_SET_GET_DECLARE(BG_BLEND_MODE, bg_blend_mode, lv_blend_mode_t, _int, scalar)
 120:lvgl/src/lv_core/lv_obj_style_dec.h **** _LV_OBJ_STYLE_SET_GET_DECLARE(BG_MAIN_STOP, bg_main_stop, lv_style_int_t, _int, scalar)
 121:lvgl/src/lv_core/lv_obj_style_dec.h **** _LV_OBJ_STYLE_SET_GET_DECLARE(BG_GRAD_STOP, bg_grad_stop, lv_style_int_t, _int, scalar)
 122:lvgl/src/lv_core/lv_obj_style_dec.h **** _LV_OBJ_STYLE_SET_GET_DECLARE(BG_GRAD_DIR, bg_grad_dir, lv_grad_dir_t, _int, scalar)
 123:lvgl/src/lv_core/lv_obj_style_dec.h **** _LV_OBJ_STYLE_SET_GET_DECLARE(BG_COLOR, bg_color, lv_color_t, _color, nonscalar)
 124:lvgl/src/lv_core/lv_obj_style_dec.h **** _LV_OBJ_STYLE_SET_GET_DECLARE(BG_GRAD_COLOR, bg_grad_color, lv_color_t, _color, nonscalar)
 125:lvgl/src/lv_core/lv_obj_style_dec.h **** _LV_OBJ_STYLE_SET_GET_DECLARE(BG_OPA, bg_opa, lv_opa_t, _opa, scalar)
 126:lvgl/src/lv_core/lv_obj_style_dec.h **** _LV_OBJ_STYLE_SET_GET_DECLARE(BORDER_WIDTH, border_width, lv_style_int_t, _int, scalar)
 127:lvgl/src/lv_core/lv_obj_style_dec.h **** _LV_OBJ_STYLE_SET_GET_DECLARE(BORDER_SIDE, border_side, lv_border_side_t, _int, scalar)
 128:lvgl/src/lv_core/lv_obj_style_dec.h **** _LV_OBJ_STYLE_SET_GET_DECLARE(BORDER_BLEND_MODE, border_blend_mode, lv_blend_mode_t, _int, scalar)
 129:lvgl/src/lv_core/lv_obj_style_dec.h **** _LV_OBJ_STYLE_SET_GET_DECLARE(BORDER_POST, border_post, bool, _int, scalar)
 130:lvgl/src/lv_core/lv_obj_style_dec.h **** _LV_OBJ_STYLE_SET_GET_DECLARE(BORDER_COLOR, border_color, lv_color_t, _color, nonscalar)
 131:lvgl/src/lv_core/lv_obj_style_dec.h **** _LV_OBJ_STYLE_SET_GET_DECLARE(BORDER_OPA, border_opa, lv_opa_t, _opa, scalar)
 132:lvgl/src/lv_core/lv_obj_style_dec.h **** _LV_OBJ_STYLE_SET_GET_DECLARE(OUTLINE_WIDTH, outline_width, lv_style_int_t, _int, scalar)
 133:lvgl/src/lv_core/lv_obj_style_dec.h **** _LV_OBJ_STYLE_SET_GET_DECLARE(OUTLINE_PAD, outline_pad, lv_style_int_t, _int, scalar)
 134:lvgl/src/lv_core/lv_obj_style_dec.h **** _LV_OBJ_STYLE_SET_GET_DECLARE(OUTLINE_BLEND_MODE, outline_blend_mode, lv_blend_mode_t, _int, scalar
 135:lvgl/src/lv_core/lv_obj_style_dec.h **** _LV_OBJ_STYLE_SET_GET_DECLARE(OUTLINE_COLOR, outline_color, lv_color_t, _color, nonscalar)
 136:lvgl/src/lv_core/lv_obj_style_dec.h **** _LV_OBJ_STYLE_SET_GET_DECLARE(OUTLINE_OPA, outline_opa, lv_opa_t, _opa, scalar)
 137:lvgl/src/lv_core/lv_obj_style_dec.h **** _LV_OBJ_STYLE_SET_GET_DECLARE(SHADOW_WIDTH, shadow_width, lv_style_int_t, _int, scalar)
 138:lvgl/src/lv_core/lv_obj_style_dec.h **** _LV_OBJ_STYLE_SET_GET_DECLARE(SHADOW_OFS_X, shadow_ofs_x, lv_style_int_t, _int, scalar)
 139:lvgl/src/lv_core/lv_obj_style_dec.h **** _LV_OBJ_STYLE_SET_GET_DECLARE(SHADOW_OFS_Y, shadow_ofs_y, lv_style_int_t, _int, scalar)
 140:lvgl/src/lv_core/lv_obj_style_dec.h **** _LV_OBJ_STYLE_SET_GET_DECLARE(SHADOW_SPREAD, shadow_spread, lv_style_int_t, _int, scalar)
 141:lvgl/src/lv_core/lv_obj_style_dec.h **** _LV_OBJ_STYLE_SET_GET_DECLARE(SHADOW_BLEND_MODE, shadow_blend_mode, lv_blend_mode_t, _int, scalar)
 142:lvgl/src/lv_core/lv_obj_style_dec.h **** _LV_OBJ_STYLE_SET_GET_DECLARE(SHADOW_COLOR, shadow_color, lv_color_t, _color, nonscalar)
 143:lvgl/src/lv_core/lv_obj_style_dec.h **** _LV_OBJ_STYLE_SET_GET_DECLARE(SHADOW_OPA, shadow_opa, lv_opa_t, _opa, scalar)
 144:lvgl/src/lv_core/lv_obj_style_dec.h **** _LV_OBJ_STYLE_SET_GET_DECLARE(PATTERN_REPEAT, pattern_repeat, bool, _int, scalar)
 145:lvgl/src/lv_core/lv_obj_style_dec.h **** _LV_OBJ_STYLE_SET_GET_DECLARE(PATTERN_BLEND_MODE, pattern_blend_mode, lv_blend_mode_t, _int, scalar
 146:lvgl/src/lv_core/lv_obj_style_dec.h **** _LV_OBJ_STYLE_SET_GET_DECLARE(PATTERN_RECOLOR, pattern_recolor, lv_color_t, _color, nonscalar)
 147:lvgl/src/lv_core/lv_obj_style_dec.h **** _LV_OBJ_STYLE_SET_GET_DECLARE(PATTERN_OPA, pattern_opa, lv_opa_t, _opa, scalar)
 148:lvgl/src/lv_core/lv_obj_style_dec.h **** _LV_OBJ_STYLE_SET_GET_DECLARE(PATTERN_RECOLOR_OPA, pattern_recolor_opa, lv_opa_t, _opa, scalar)
 149:lvgl/src/lv_core/lv_obj_style_dec.h **** _LV_OBJ_STYLE_SET_GET_DECLARE(PATTERN_IMAGE, pattern_image, const void *, _ptr, scalar)
 150:lvgl/src/lv_core/lv_obj_style_dec.h **** _LV_OBJ_STYLE_SET_GET_DECLARE(VALUE_LETTER_SPACE, value_letter_space, lv_style_int_t, _int, scalar)
 151:lvgl/src/lv_core/lv_obj_style_dec.h **** _LV_OBJ_STYLE_SET_GET_DECLARE(VALUE_LINE_SPACE, value_line_space, lv_style_int_t, _int, scalar)
 152:lvgl/src/lv_core/lv_obj_style_dec.h **** _LV_OBJ_STYLE_SET_GET_DECLARE(VALUE_BLEND_MODE, value_blend_mode, lv_blend_mode_t, _int, scalar)
ARM GAS  C:\Users\strap\AppData\Local\Temp\cci64Z2T.s 			page 29


 153:lvgl/src/lv_core/lv_obj_style_dec.h **** _LV_OBJ_STYLE_SET_GET_DECLARE(VALUE_OFS_X, value_ofs_x, lv_style_int_t, _int, scalar)
 154:lvgl/src/lv_core/lv_obj_style_dec.h **** _LV_OBJ_STYLE_SET_GET_DECLARE(VALUE_OFS_Y, value_ofs_y, lv_style_int_t, _int, scalar)
 155:lvgl/src/lv_core/lv_obj_style_dec.h **** _LV_OBJ_STYLE_SET_GET_DECLARE(VALUE_ALIGN, value_align, lv_align_t, _int, scalar)
 156:lvgl/src/lv_core/lv_obj_style_dec.h **** _LV_OBJ_STYLE_SET_GET_DECLARE(VALUE_COLOR, value_color, lv_color_t, _color, nonscalar)
 157:lvgl/src/lv_core/lv_obj_style_dec.h **** _LV_OBJ_STYLE_SET_GET_DECLARE(VALUE_OPA, value_opa, lv_opa_t, _opa, scalar)
 158:lvgl/src/lv_core/lv_obj_style_dec.h **** _LV_OBJ_STYLE_SET_GET_DECLARE(VALUE_FONT, value_font, const lv_font_t *, _ptr, scalar)
 159:lvgl/src/lv_core/lv_obj_style_dec.h **** _LV_OBJ_STYLE_SET_GET_DECLARE(VALUE_STR, value_str, const char *, _ptr, scalar)
 630              		.loc 3 159 0
 631 0036 134B     		ldr	r3, .L43+16
 632 0038 7F22     		movs	r2, #127
 633 003a 0021     		movs	r1, #0
 634 003c 2068     		ldr	r0, [r4]
 635 003e FFF7FEFF 		bl	_lv_obj_set_style_local_ptr
 636              	.LVL83:
 637              	.LBE44:
 638              	.LBE43:
 639              	.LBB45:
 640              	.LBB46:
 641              	.LBB47:
 642              		.file 4 "lvgl/src/lv_widgets/lv_cont.h"
   1:lvgl/src/lv_widgets/lv_cont.h **** /**
   2:lvgl/src/lv_widgets/lv_cont.h ****  * @file lv_cont.h
   3:lvgl/src/lv_widgets/lv_cont.h ****  *
   4:lvgl/src/lv_widgets/lv_cont.h ****  */
   5:lvgl/src/lv_widgets/lv_cont.h **** 
   6:lvgl/src/lv_widgets/lv_cont.h **** #ifndef LV_CONT_H
   7:lvgl/src/lv_widgets/lv_cont.h **** #define LV_CONT_H
   8:lvgl/src/lv_widgets/lv_cont.h **** 
   9:lvgl/src/lv_widgets/lv_cont.h **** #ifdef __cplusplus
  10:lvgl/src/lv_widgets/lv_cont.h **** extern "C" {
  11:lvgl/src/lv_widgets/lv_cont.h **** #endif
  12:lvgl/src/lv_widgets/lv_cont.h **** 
  13:lvgl/src/lv_widgets/lv_cont.h **** /*********************
  14:lvgl/src/lv_widgets/lv_cont.h ****  *      INCLUDES
  15:lvgl/src/lv_widgets/lv_cont.h ****  *********************/
  16:lvgl/src/lv_widgets/lv_cont.h **** #include "../lv_conf_internal.h"
  17:lvgl/src/lv_widgets/lv_cont.h **** 
  18:lvgl/src/lv_widgets/lv_cont.h **** #if LV_USE_CONT != 0
  19:lvgl/src/lv_widgets/lv_cont.h **** 
  20:lvgl/src/lv_widgets/lv_cont.h **** #include "../lv_core/lv_obj.h"
  21:lvgl/src/lv_widgets/lv_cont.h **** 
  22:lvgl/src/lv_widgets/lv_cont.h **** /*********************
  23:lvgl/src/lv_widgets/lv_cont.h ****  *      DEFINES
  24:lvgl/src/lv_widgets/lv_cont.h ****  *********************/
  25:lvgl/src/lv_widgets/lv_cont.h **** 
  26:lvgl/src/lv_widgets/lv_cont.h **** /**********************
  27:lvgl/src/lv_widgets/lv_cont.h ****  *      TYPEDEFS
  28:lvgl/src/lv_widgets/lv_cont.h ****  **********************/
  29:lvgl/src/lv_widgets/lv_cont.h **** 
  30:lvgl/src/lv_widgets/lv_cont.h **** /** Container layout options*/
  31:lvgl/src/lv_widgets/lv_cont.h **** enum {
  32:lvgl/src/lv_widgets/lv_cont.h ****     LV_LAYOUT_OFF = 0, /**< No layout */
  33:lvgl/src/lv_widgets/lv_cont.h ****     LV_LAYOUT_CENTER, /**< Center objects */
  34:lvgl/src/lv_widgets/lv_cont.h **** 
  35:lvgl/src/lv_widgets/lv_cont.h ****     /**
  36:lvgl/src/lv_widgets/lv_cont.h ****      * COULMN:
  37:lvgl/src/lv_widgets/lv_cont.h ****      * - Place the object below each other
ARM GAS  C:\Users\strap\AppData\Local\Temp\cci64Z2T.s 			page 30


  38:lvgl/src/lv_widgets/lv_cont.h ****      * - Keep `pad_top` space on the top
  39:lvgl/src/lv_widgets/lv_cont.h ****      * - Keep `pad_inner` space between the objects
  40:lvgl/src/lv_widgets/lv_cont.h ****      */
  41:lvgl/src/lv_widgets/lv_cont.h ****     LV_LAYOUT_COLUMN_LEFT,      /**< Column left align*/
  42:lvgl/src/lv_widgets/lv_cont.h ****     LV_LAYOUT_COLUMN_MID,       /**< Column middle align*/
  43:lvgl/src/lv_widgets/lv_cont.h ****     LV_LAYOUT_COLUMN_RIGHT,     /**< Column right align*/
  44:lvgl/src/lv_widgets/lv_cont.h **** 
  45:lvgl/src/lv_widgets/lv_cont.h ****     /**
  46:lvgl/src/lv_widgets/lv_cont.h ****      * ROW:
  47:lvgl/src/lv_widgets/lv_cont.h ****      * - Place the object next to each other
  48:lvgl/src/lv_widgets/lv_cont.h ****      * - Keep `pad_left` space on the left
  49:lvgl/src/lv_widgets/lv_cont.h ****      * - Keep `pad_inner` space between the objects
  50:lvgl/src/lv_widgets/lv_cont.h ****      * - If the object which applies the layout has `base_dir == LV_BIDI_DIR_RTL`
  51:lvgl/src/lv_widgets/lv_cont.h ****      *   the row will start from the right applying `pad.right` space
  52:lvgl/src/lv_widgets/lv_cont.h ****      */
  53:lvgl/src/lv_widgets/lv_cont.h ****     LV_LAYOUT_ROW_TOP,          /**< Row top align*/
  54:lvgl/src/lv_widgets/lv_cont.h ****     LV_LAYOUT_ROW_MID,          /**< Row middle align*/
  55:lvgl/src/lv_widgets/lv_cont.h ****     LV_LAYOUT_ROW_BOTTOM,       /**< Row bottom align*/
  56:lvgl/src/lv_widgets/lv_cont.h **** 
  57:lvgl/src/lv_widgets/lv_cont.h **** 
  58:lvgl/src/lv_widgets/lv_cont.h ****     /**
  59:lvgl/src/lv_widgets/lv_cont.h ****      * PRETTY:
  60:lvgl/src/lv_widgets/lv_cont.h ****      * - Place the object next to each other
  61:lvgl/src/lv_widgets/lv_cont.h ****      * - If there is no more space start a new row
  62:lvgl/src/lv_widgets/lv_cont.h ****      * - Respect `pad_left` and `pad_right` when determining the available space in a row
  63:lvgl/src/lv_widgets/lv_cont.h ****      * - Keep `pad_inner` space between the objects in the same row
  64:lvgl/src/lv_widgets/lv_cont.h ****      * - Keep `pad_inner` space between the objects in rows
  65:lvgl/src/lv_widgets/lv_cont.h ****      * - Divide the remaining horizontal space equally
  66:lvgl/src/lv_widgets/lv_cont.h ****      */
  67:lvgl/src/lv_widgets/lv_cont.h ****     LV_LAYOUT_PRETTY_TOP,       /**< Row top align*/
  68:lvgl/src/lv_widgets/lv_cont.h ****     LV_LAYOUT_PRETTY_MID,       /**< Row middle align*/
  69:lvgl/src/lv_widgets/lv_cont.h ****     LV_LAYOUT_PRETTY_BOTTOM,    /**< Row bottom align*/
  70:lvgl/src/lv_widgets/lv_cont.h **** 
  71:lvgl/src/lv_widgets/lv_cont.h ****     /**
  72:lvgl/src/lv_widgets/lv_cont.h ****      * GRID
  73:lvgl/src/lv_widgets/lv_cont.h ****      * - Place the object next to each other
  74:lvgl/src/lv_widgets/lv_cont.h ****      * - If there is no more space start a new row
  75:lvgl/src/lv_widgets/lv_cont.h ****      * - Respect `pad_left` and `pad_right` when determining the available space in a row
  76:lvgl/src/lv_widgets/lv_cont.h ****      * - Keep `pad_inner` space between the objects in the same row
  77:lvgl/src/lv_widgets/lv_cont.h ****      * - Keep `pad_inner` space between the objects in rows
  78:lvgl/src/lv_widgets/lv_cont.h ****      * - Unlike `PRETTY`, `GRID` always keep `pad_inner` space horizontally between objects
  79:lvgl/src/lv_widgets/lv_cont.h ****      *   so it doesn't divide the remaining horizontal space equally
  80:lvgl/src/lv_widgets/lv_cont.h ****      */
  81:lvgl/src/lv_widgets/lv_cont.h ****     LV_LAYOUT_GRID,   /**< Align same-sized object into a grid*/
  82:lvgl/src/lv_widgets/lv_cont.h **** 
  83:lvgl/src/lv_widgets/lv_cont.h ****     _LV_LAYOUT_LAST
  84:lvgl/src/lv_widgets/lv_cont.h **** };
  85:lvgl/src/lv_widgets/lv_cont.h **** typedef uint8_t lv_layout_t;
  86:lvgl/src/lv_widgets/lv_cont.h **** 
  87:lvgl/src/lv_widgets/lv_cont.h **** /**
  88:lvgl/src/lv_widgets/lv_cont.h ****  * How to resize the container around the children.
  89:lvgl/src/lv_widgets/lv_cont.h ****  */
  90:lvgl/src/lv_widgets/lv_cont.h **** enum {
  91:lvgl/src/lv_widgets/lv_cont.h ****     LV_FIT_NONE,  /**< Do not change the size automatically*/
  92:lvgl/src/lv_widgets/lv_cont.h ****     LV_FIT_TIGHT, /**< Shrink wrap around the children */
  93:lvgl/src/lv_widgets/lv_cont.h ****     LV_FIT_PARENT, /**< Align the size to the parent's edge*/
  94:lvgl/src/lv_widgets/lv_cont.h ****     LV_FIT_MAX,  /**< Align the size to the parent's edge first but if there is an object out of it
ARM GAS  C:\Users\strap\AppData\Local\Temp\cci64Z2T.s 			page 31


  95:lvgl/src/lv_widgets/lv_cont.h ****                      then get larger */
  96:lvgl/src/lv_widgets/lv_cont.h ****     _LV_FIT_LAST
  97:lvgl/src/lv_widgets/lv_cont.h **** };
  98:lvgl/src/lv_widgets/lv_cont.h **** typedef uint8_t lv_fit_t;
  99:lvgl/src/lv_widgets/lv_cont.h **** 
 100:lvgl/src/lv_widgets/lv_cont.h **** typedef struct {
 101:lvgl/src/lv_widgets/lv_cont.h ****     /*Inherited from 'base_obj' so no inherited ext. */ /*Ext. of ancestor*/
 102:lvgl/src/lv_widgets/lv_cont.h ****     /*New data for this type */
 103:lvgl/src/lv_widgets/lv_cont.h ****     lv_layout_t layout : 4;     /*A layout from 'lv_layout_t' enum*/
 104:lvgl/src/lv_widgets/lv_cont.h ****     lv_fit_t fit_left : 2;   /*A fit type from `lv_fit_t` enum */
 105:lvgl/src/lv_widgets/lv_cont.h ****     lv_fit_t fit_right : 2;  /*A fit type from `lv_fit_t` enum */
 106:lvgl/src/lv_widgets/lv_cont.h ****     lv_fit_t fit_top : 2;    /*A fit type from `lv_fit_t` enum */
 107:lvgl/src/lv_widgets/lv_cont.h ****     lv_fit_t fit_bottom : 2; /*A fit type from `lv_fit_t` enum */
 108:lvgl/src/lv_widgets/lv_cont.h **** } lv_cont_ext_t;
 109:lvgl/src/lv_widgets/lv_cont.h **** 
 110:lvgl/src/lv_widgets/lv_cont.h **** /*Part of the container*/
 111:lvgl/src/lv_widgets/lv_cont.h **** enum {
 112:lvgl/src/lv_widgets/lv_cont.h ****     LV_CONT_PART_MAIN = LV_OBJ_PART_MAIN,
 113:lvgl/src/lv_widgets/lv_cont.h ****     _LV_CONT_PART_VIRTUAL_LAST = _LV_OBJ_PART_VIRTUAL_LAST,
 114:lvgl/src/lv_widgets/lv_cont.h ****     _LV_CONT_PART_REAL_LAST = _LV_OBJ_PART_REAL_LAST,
 115:lvgl/src/lv_widgets/lv_cont.h **** };
 116:lvgl/src/lv_widgets/lv_cont.h **** 
 117:lvgl/src/lv_widgets/lv_cont.h **** /**********************
 118:lvgl/src/lv_widgets/lv_cont.h ****  * GLOBAL PROTOTYPES
 119:lvgl/src/lv_widgets/lv_cont.h ****  **********************/
 120:lvgl/src/lv_widgets/lv_cont.h **** 
 121:lvgl/src/lv_widgets/lv_cont.h **** /**
 122:lvgl/src/lv_widgets/lv_cont.h ****  * Create a container objects
 123:lvgl/src/lv_widgets/lv_cont.h ****  * @param par pointer to an object, it will be the parent of the new container
 124:lvgl/src/lv_widgets/lv_cont.h ****  * @param copy pointer to a container object, if not NULL then the new object will be copied from i
 125:lvgl/src/lv_widgets/lv_cont.h ****  * @return pointer to the created container
 126:lvgl/src/lv_widgets/lv_cont.h ****  */
 127:lvgl/src/lv_widgets/lv_cont.h **** lv_obj_t * lv_cont_create(lv_obj_t * par, const lv_obj_t * copy);
 128:lvgl/src/lv_widgets/lv_cont.h **** 
 129:lvgl/src/lv_widgets/lv_cont.h **** /*=====================
 130:lvgl/src/lv_widgets/lv_cont.h ****  * Setter functions
 131:lvgl/src/lv_widgets/lv_cont.h ****  *====================*/
 132:lvgl/src/lv_widgets/lv_cont.h **** 
 133:lvgl/src/lv_widgets/lv_cont.h **** /**
 134:lvgl/src/lv_widgets/lv_cont.h ****  * Set a layout on a container
 135:lvgl/src/lv_widgets/lv_cont.h ****  * @param cont pointer to a container object
 136:lvgl/src/lv_widgets/lv_cont.h ****  * @param layout a layout from 'lv_cont_layout_t'
 137:lvgl/src/lv_widgets/lv_cont.h ****  */
 138:lvgl/src/lv_widgets/lv_cont.h **** void lv_cont_set_layout(lv_obj_t * cont, lv_layout_t layout);
 139:lvgl/src/lv_widgets/lv_cont.h **** 
 140:lvgl/src/lv_widgets/lv_cont.h **** /**
 141:lvgl/src/lv_widgets/lv_cont.h ****  * Set the fit policy in all 4 directions separately.
 142:lvgl/src/lv_widgets/lv_cont.h ****  * It tell how to change the container's size automatically.
 143:lvgl/src/lv_widgets/lv_cont.h ****  * @param cont pointer to a container object
 144:lvgl/src/lv_widgets/lv_cont.h ****  * @param left left fit policy from `lv_fit_t`
 145:lvgl/src/lv_widgets/lv_cont.h ****  * @param right right fit policy from `lv_fit_t`
 146:lvgl/src/lv_widgets/lv_cont.h ****  * @param top top fit policy from `lv_fit_t`
 147:lvgl/src/lv_widgets/lv_cont.h ****  * @param bottom bottom fit policy from `lv_fit_t`
 148:lvgl/src/lv_widgets/lv_cont.h ****  */
 149:lvgl/src/lv_widgets/lv_cont.h **** void lv_cont_set_fit4(lv_obj_t * cont, lv_fit_t left, lv_fit_t right, lv_fit_t top, lv_fit_t bottom
 150:lvgl/src/lv_widgets/lv_cont.h **** 
 151:lvgl/src/lv_widgets/lv_cont.h **** /**
ARM GAS  C:\Users\strap\AppData\Local\Temp\cci64Z2T.s 			page 32


 152:lvgl/src/lv_widgets/lv_cont.h ****  * Set the fit policy horizontally and vertically separately.
 153:lvgl/src/lv_widgets/lv_cont.h ****  * It tells how to change the container's size automatically.
 154:lvgl/src/lv_widgets/lv_cont.h ****  * @param cont pointer to a container object
 155:lvgl/src/lv_widgets/lv_cont.h ****  * @param hor horizontal fit policy from `lv_fit_t`
 156:lvgl/src/lv_widgets/lv_cont.h ****  * @param ver vertical fit policy from `lv_fit_t`
 157:lvgl/src/lv_widgets/lv_cont.h ****  */
 158:lvgl/src/lv_widgets/lv_cont.h **** static inline void lv_cont_set_fit2(lv_obj_t * cont, lv_fit_t hor, lv_fit_t ver)
 159:lvgl/src/lv_widgets/lv_cont.h **** {
 160:lvgl/src/lv_widgets/lv_cont.h ****     lv_cont_set_fit4(cont, hor, hor, ver, ver);
 643              		.loc 4 160 0
 644 0042 0023     		movs	r3, #0
 645 0044 0093     		str	r3, [sp]
 646 0046 0222     		movs	r2, #2
 647 0048 1146     		mov	r1, r2
 648 004a 2068     		ldr	r0, [r4]
 649 004c FFF7FEFF 		bl	lv_cont_set_fit4
 650              	.LVL84:
 651              	.LBE47:
 652              	.LBE46:
 653              	.LBE45:
 599:main.c        ****     lv_obj_set_event_cb(voltage_ok_btn, voltage_ok_btn_handler);
 654              		.loc 1 599 0
 655 0050 0D49     		ldr	r1, .L43+20
 656 0052 2868     		ldr	r0, [r5]
 657 0054 FFF7FEFF 		bl	lv_obj_set_event_cb
 658              	.LVL85:
 600:main.c        ****     
 659              		.loc 1 600 0
 660 0058 0C49     		ldr	r1, .L43+24
 661 005a 2068     		ldr	r0, [r4]
 662 005c FFF7FEFF 		bl	lv_obj_set_event_cb
 663              	.LVL86:
 602:main.c        ****     lv_obj_set_hidden(voltage_ok_btn, true);
 664              		.loc 1 602 0
 665 0060 0121     		movs	r1, #1
 666 0062 2868     		ldr	r0, [r5]
 667 0064 FFF7FEFF 		bl	lv_obj_set_hidden
 668              	.LVL87:
 603:main.c        **** }
 669              		.loc 1 603 0
 670 0068 0121     		movs	r1, #1
 671 006a 2068     		ldr	r0, [r4]
 672 006c FFF7FEFF 		bl	lv_obj_set_hidden
 673              	.LVL88:
 604:main.c        **** 
 674              		.loc 1 604 0
 675 0070 02B0     		add	sp, sp, #8
 676              		.cfi_def_cfa_offset 16
 677              		@ sp needed
 678 0072 70BD     		pop	{r4, r5, r6, pc}
 679              	.L44:
 680              		.align	2
 681              	.L43:
 682 0074 00000000 		.word	voltage_ddlist
 683 0078 00000000 		.word	voltage_ok_btn
 684 007c 38000000 		.word	.LC3
 685 0080 00000000 		.word	.LANCHOR0
ARM GAS  C:\Users\strap\AppData\Local\Temp\cci64Z2T.s 			page 33


 686 0084 44000000 		.word	.LC4
 687 0088 00000000 		.word	voltage_ddlist_handler
 688 008c 00000000 		.word	voltage_ok_btn_handler
 689              		.cfi_endproc
 690              	.LFE457:
 691              		.size	create_voltage_container_widgets, .-create_voltage_container_widgets
 692              		.section	.text.create_type_container_widgets,"ax",%progbits
 693              		.align	2
 694              		.thumb
 695              		.thumb_func
 696              		.type	create_type_container_widgets, %function
 697              	create_type_container_widgets:
 698              	.LFB453:
 487:main.c        ****     /* Widgets creation */
 699              		.loc 1 487 0
 700              		.cfi_startproc
 701              		@ args = 0, pretend = 0, frame = 0
 702              		@ frame_needed = 0, uses_anonymous_args = 0
 703              	.LVL89:
 704 0000 F0B5     		push	{r4, r5, r6, r7, lr}
 705              		.cfi_def_cfa_offset 20
 706              		.cfi_offset 4, -20
 707              		.cfi_offset 5, -16
 708              		.cfi_offset 6, -12
 709              		.cfi_offset 7, -8
 710              		.cfi_offset 14, -4
 711 0002 83B0     		sub	sp, sp, #12
 712              		.cfi_def_cfa_offset 32
 713 0004 0746     		mov	r7, r0
 489:main.c        ****     custom_spinbox = lv_spinbox_create(parent, NULL);
 714              		.loc 1 489 0
 715 0006 0021     		movs	r1, #0
 716 0008 FFF7FEFF 		bl	lv_dropdown_create
 717              	.LVL90:
 718 000c 374E     		ldr	r6, .L47
 719 000e 3060     		str	r0, [r6]
 490:main.c        ****     type_param_ok_btn = lv_btn_create(parent, NULL);
 720              		.loc 1 490 0
 721 0010 0021     		movs	r1, #0
 722 0012 3846     		mov	r0, r7
 723 0014 FFF7FEFF 		bl	lv_spinbox_create
 724              	.LVL91:
 725 0018 354C     		ldr	r4, .L47+4
 726 001a 2060     		str	r0, [r4]
 491:main.c        ****     
 727              		.loc 1 491 0
 728 001c 0021     		movs	r1, #0
 729 001e 3846     		mov	r0, r7
 730 0020 FFF7FEFF 		bl	lv_btn_create
 731              	.LVL92:
 732 0024 334D     		ldr	r5, .L47+8
 733 0026 2860     		str	r0, [r5]
 493:main.c        ****     
 734              		.loc 1 493 0
 735 0028 3349     		ldr	r1, .L47+12
 736 002a 3068     		ldr	r0, [r6]
 737 002c FFF7FEFF 		bl	lv_dropdown_set_options
ARM GAS  C:\Users\strap\AppData\Local\Temp\cci64Z2T.s 			page 34


 738              	.LVL93:
 495:main.c        ****     lv_spinbox_set_digit_format(custom_spinbox, 3, 0);
 739              		.loc 1 495 0
 740 0030 8022     		movs	r2, #128
 741 0032 0121     		movs	r1, #1
 742 0034 2068     		ldr	r0, [r4]
 743 0036 FFF7FEFF 		bl	lv_spinbox_set_range
 744              	.LVL94:
 496:main.c        ****     
 745              		.loc 1 496 0
 746 003a 0022     		movs	r2, #0
 747 003c 0321     		movs	r1, #3
 748 003e 2068     		ldr	r0, [r4]
 749 0040 FFF7FEFF 		bl	lv_spinbox_set_digit_format
 750              	.LVL95:
 499:main.c        ****     lv_textarea_set_text_align(custom_spinbox, LV_LABEL_ALIGN_CENTER);
 751              		.loc 1 499 0
 752 0044 0121     		movs	r1, #1
 753 0046 2068     		ldr	r0, [r4]
 754 0048 FFF7FEFF 		bl	lv_textarea_set_cursor_hidden
 755              	.LVL96:
 500:main.c        ****     
 756              		.loc 1 500 0
 757 004c 0121     		movs	r1, #1
 758 004e 2068     		ldr	r0, [r4]
 759 0050 FFF7FEFF 		bl	lv_textarea_set_text_align
 760              	.LVL97:
 503:main.c        ****     
 761              		.loc 1 503 0
 762 0054 2021     		movs	r1, #32
 763 0056 2068     		ldr	r0, [r4]
 764 0058 FFF7FEFF 		bl	lv_obj_set_state
 765              	.LVL98:
 508:main.c        ****     lv_obj_set_width_fit(burst_type_list, parent_w - 5);
 766              		.loc 1 508 0
 767 005c 3846     		mov	r0, r7
 768 005e FFF7FEFF 		bl	lv_obj_get_width
 769              	.LVL99:
 509:main.c        ****     lv_obj_set_width_fit(custom_spinbox, parent_w - 20);
 770              		.loc 1 509 0
 771 0062 87B2     		uxth	r7, r0
 772              	.LVL100:
 773 0064 791F     		subs	r1, r7, #5
 774 0066 09B2     		sxth	r1, r1
 775 0068 3068     		ldr	r0, [r6]
 776              	.LVL101:
 777 006a FFF7FEFF 		bl	lv_obj_set_width_fit
 778              	.LVL102:
 510:main.c        ****     
 779              		.loc 1 510 0
 780 006e A7F11401 		sub	r1, r7, #20
 781 0072 09B2     		sxth	r1, r1
 782 0074 2068     		ldr	r0, [r4]
 783 0076 FFF7FEFF 		bl	lv_obj_set_width_fit
 784              	.LVL103:
 785              	.LBB48:
 786              	.LBB49:
ARM GAS  C:\Users\strap\AppData\Local\Temp\cci64Z2T.s 			page 35


 787              		.loc 3 159 0
 788 007a 204B     		ldr	r3, .L47+16
 789 007c 7F22     		movs	r2, #127
 790 007e 0021     		movs	r1, #0
 791 0080 2868     		ldr	r0, [r5]
 792 0082 FFF7FEFF 		bl	_lv_obj_set_style_local_ptr
 793              	.LVL104:
 794              	.LBE49:
 795              	.LBE48:
 796              	.LBB50:
 797              	.LBB51:
 798              	.LBB52:
 799              		.loc 4 160 0
 800 0086 0027     		movs	r7, #0
 801              	.LVL105:
 802 0088 0097     		str	r7, [sp]
 803 008a 3B46     		mov	r3, r7
 804 008c 0222     		movs	r2, #2
 805 008e 1146     		mov	r1, r2
 806 0090 2868     		ldr	r0, [r5]
 807 0092 FFF7FEFF 		bl	lv_cont_set_fit4
 808              	.LVL106:
 809              	.LBE52:
 810              	.LBE51:
 811              	.LBE50:
 516:main.c        ****     
 812              		.loc 1 516 0
 813 0096 0097     		str	r7, [sp]
 814 0098 3B46     		mov	r3, r7
 815 009a 0522     		movs	r2, #5
 816 009c 3946     		mov	r1, r7
 817 009e 2868     		ldr	r0, [r5]
 818 00a0 FFF7FEFF 		bl	lv_obj_align
 819              	.LVL107:
 519:main.c        ****     // lv_obj_set_event_cb(custom_spinbox, custom_spinbox_handler);
 820              		.loc 1 519 0
 821 00a4 1649     		ldr	r1, .L47+20
 822 00a6 3068     		ldr	r0, [r6]
 823 00a8 FFF7FEFF 		bl	lv_obj_set_event_cb
 824              	.LVL108:
 521:main.c        ****     
 825              		.loc 1 521 0
 826 00ac 1549     		ldr	r1, .L47+24
 827 00ae 2868     		ldr	r0, [r5]
 828 00b0 FFF7FEFF 		bl	lv_obj_set_event_cb
 829              	.LVL109:
 524:main.c        ****     lv_group_add_obj(burst_type_params_g, custom_spinbox);
 830              		.loc 1 524 0
 831 00b4 144F     		ldr	r7, .L47+28
 832 00b6 3168     		ldr	r1, [r6]
 833 00b8 B869     		ldr	r0, [r7, #24]
 834 00ba FFF7FEFF 		bl	lv_group_add_obj
 835              	.LVL110:
 525:main.c        ****     lv_group_add_obj(burst_type_params_g, type_param_ok_btn);
 836              		.loc 1 525 0
 837 00be 2168     		ldr	r1, [r4]
 838 00c0 B869     		ldr	r0, [r7, #24]
ARM GAS  C:\Users\strap\AppData\Local\Temp\cci64Z2T.s 			page 36


 839 00c2 FFF7FEFF 		bl	lv_group_add_obj
 840              	.LVL111:
 526:main.c        ****     
 841              		.loc 1 526 0
 842 00c6 2968     		ldr	r1, [r5]
 843 00c8 B869     		ldr	r0, [r7, #24]
 844 00ca FFF7FEFF 		bl	lv_group_add_obj
 845              	.LVL112:
 528:main.c        ****     lv_obj_set_hidden(burst_type_list, true);
 846              		.loc 1 528 0
 847 00ce 0121     		movs	r1, #1
 848 00d0 2068     		ldr	r0, [r4]
 849 00d2 FFF7FEFF 		bl	lv_obj_set_hidden
 850              	.LVL113:
 529:main.c        ****     lv_obj_set_hidden(type_param_ok_btn, true);
 851              		.loc 1 529 0
 852 00d6 0121     		movs	r1, #1
 853 00d8 3068     		ldr	r0, [r6]
 854 00da FFF7FEFF 		bl	lv_obj_set_hidden
 855              	.LVL114:
 530:main.c        **** }
 856              		.loc 1 530 0
 857 00de 0121     		movs	r1, #1
 858 00e0 2868     		ldr	r0, [r5]
 859 00e2 FFF7FEFF 		bl	lv_obj_set_hidden
 860              	.LVL115:
 531:main.c        **** 
 861              		.loc 1 531 0
 862 00e6 03B0     		add	sp, sp, #12
 863              		.cfi_def_cfa_offset 20
 864              		@ sp needed
 865 00e8 F0BD     		pop	{r4, r5, r6, r7, pc}
 866              	.L48:
 867 00ea 00BF     		.align	2
 868              	.L47:
 869 00ec 00000000 		.word	burst_type_list
 870 00f0 00000000 		.word	custom_spinbox
 871 00f4 00000000 		.word	type_param_ok_btn
 872 00f8 48000000 		.word	.LC5
 873 00fc 44000000 		.word	.LC4
 874 0100 00000000 		.word	burst_type_list_handler
 875 0104 00000000 		.word	type_param_ok_callback
 876 0108 00000000 		.word	.LANCHOR0
 877              		.cfi_endproc
 878              	.LFE453:
 879              		.size	create_type_container_widgets, .-create_type_container_widgets
 880              		.section	.text.create_pulses_container_widgets,"ax",%progbits
 881              		.align	2
 882              		.thumb
 883              		.thumb_func
 884              		.type	create_pulses_container_widgets, %function
 885              	create_pulses_container_widgets:
 886              	.LFB459:
 618:main.c        ****     }
 619:main.c        **** }
 620:main.c        **** 
 621:main.c        **** static void create_pulses_container_widgets(lv_obj_t *parent)
ARM GAS  C:\Users\strap\AppData\Local\Temp\cci64Z2T.s 			page 37


 622:main.c        **** {
 887              		.loc 1 622 0
 888              		.cfi_startproc
 889              		@ args = 0, pretend = 0, frame = 0
 890              		@ frame_needed = 0, uses_anonymous_args = 0
 891              	.LVL116:
 892 0000 F0B5     		push	{r4, r5, r6, r7, lr}
 893              		.cfi_def_cfa_offset 20
 894              		.cfi_offset 4, -20
 895              		.cfi_offset 5, -16
 896              		.cfi_offset 6, -12
 897              		.cfi_offset 7, -8
 898              		.cfi_offset 14, -4
 899 0002 83B0     		sub	sp, sp, #12
 900              		.cfi_def_cfa_offset 32
 901 0004 0646     		mov	r6, r0
 623:main.c        ****     pulses_spinbox = lv_spinbox_create(parent, NULL);
 902              		.loc 1 623 0
 903 0006 0021     		movs	r1, #0
 904 0008 FFF7FEFF 		bl	lv_spinbox_create
 905              	.LVL117:
 906 000c 234C     		ldr	r4, .L51
 907 000e 2060     		str	r0, [r4]
 624:main.c        ****     pulses_ok_btn = lv_btn_create(parent, NULL);
 908              		.loc 1 624 0
 909 0010 0021     		movs	r1, #0
 910 0012 3046     		mov	r0, r6
 911 0014 FFF7FEFF 		bl	lv_btn_create
 912              	.LVL118:
 913 0018 214D     		ldr	r5, .L51+4
 914 001a 2860     		str	r0, [r5]
 625:main.c        ****     
 626:main.c        ****     /* Adding new widgets into the group so the encoder can choose them */
 627:main.c        ****     lv_group_add_obj(pulses_params_g, pulses_spinbox);
 915              		.loc 1 627 0
 916 001c 214F     		ldr	r7, .L51+8
 917 001e 2168     		ldr	r1, [r4]
 918 0020 386A     		ldr	r0, [r7, #32]
 919 0022 FFF7FEFF 		bl	lv_group_add_obj
 920              	.LVL119:
 628:main.c        ****     lv_group_add_obj(pulses_params_g, pulses_ok_btn);
 921              		.loc 1 628 0
 922 0026 2968     		ldr	r1, [r5]
 923 0028 386A     		ldr	r0, [r7, #32]
 924 002a FFF7FEFF 		bl	lv_group_add_obj
 925              	.LVL120:
 629:main.c        ****     
 630:main.c        ****     lv_textarea_set_cursor_hidden(pulses_spinbox, false /* true */);
 926              		.loc 1 630 0
 927 002e 0021     		movs	r1, #0
 928 0030 2068     		ldr	r0, [r4]
 929 0032 FFF7FEFF 		bl	lv_textarea_set_cursor_hidden
 930              	.LVL121:
 631:main.c        ****     lv_textarea_set_text_align(pulses_spinbox, LV_LABEL_ALIGN_CENTER);
 931              		.loc 1 631 0
 932 0036 0121     		movs	r1, #1
 933 0038 2068     		ldr	r0, [r4]
ARM GAS  C:\Users\strap\AppData\Local\Temp\cci64Z2T.s 			page 38


 934 003a FFF7FEFF 		bl	lv_textarea_set_text_align
 935              	.LVL122:
 632:main.c        ****     
 633:main.c        ****     lv_coord_t parent_w = lv_obj_get_width(parent);
 936              		.loc 1 633 0
 937 003e 3046     		mov	r0, r6
 938 0040 FFF7FEFF 		bl	lv_obj_get_width
 939              	.LVL123:
 634:main.c        ****     lv_obj_set_width_fit(pulses_spinbox, parent_w - 20);
 940              		.loc 1 634 0
 941 0044 A0F11401 		sub	r1, r0, #20
 942 0048 09B2     		sxth	r1, r1
 943 004a 2068     		ldr	r0, [r4]
 944              	.LVL124:
 945 004c FFF7FEFF 		bl	lv_obj_set_width_fit
 946              	.LVL125:
 947              	.LBB53:
 948              	.LBB54:
 949              		.loc 3 159 0
 950 0050 154B     		ldr	r3, .L51+12
 951 0052 7F22     		movs	r2, #127
 952 0054 0021     		movs	r1, #0
 953 0056 2868     		ldr	r0, [r5]
 954 0058 FFF7FEFF 		bl	_lv_obj_set_style_local_ptr
 955              	.LVL126:
 956              	.LBE54:
 957              	.LBE53:
 958              	.LBB55:
 959              	.LBB56:
 960              	.LBB57:
 961              		.loc 4 160 0
 962 005c 0026     		movs	r6, #0
 963              	.LVL127:
 964 005e 0096     		str	r6, [sp]
 965 0060 3346     		mov	r3, r6
 966 0062 0222     		movs	r2, #2
 967 0064 1146     		mov	r1, r2
 968 0066 2868     		ldr	r0, [r5]
 969 0068 FFF7FEFF 		bl	lv_cont_set_fit4
 970              	.LVL128:
 971              	.LBE57:
 972              	.LBE56:
 973              	.LBE55:
 635:main.c        ****     
 636:main.c        ****     lv_obj_set_style_local_value_str(pulses_ok_btn, LV_BTN_PART_MAIN, LV_STATE_DEFAULT, "OK!");
 637:main.c        ****     lv_btn_set_fit2(pulses_ok_btn,
 638:main.c        ****         LV_FIT_PARENT,  /* horizontal */
 639:main.c        ****         LV_FIT_NONE); /* vertical */
 640:main.c        ****     
 641:main.c        ****     lv_obj_set_event_cb(pulses_ok_btn, pulses_ok_btn_handler);
 974              		.loc 1 641 0
 975 006c 0F49     		ldr	r1, .L51+16
 976 006e 2868     		ldr	r0, [r5]
 977 0070 FFF7FEFF 		bl	lv_obj_set_event_cb
 978              	.LVL129:
 642:main.c        ****     
 643:main.c        ****     lv_spinbox_set_range(pulses_spinbox, 1, 128);
ARM GAS  C:\Users\strap\AppData\Local\Temp\cci64Z2T.s 			page 39


 979              		.loc 1 643 0
 980 0074 8022     		movs	r2, #128
 981 0076 0121     		movs	r1, #1
 982 0078 2068     		ldr	r0, [r4]
 983 007a FFF7FEFF 		bl	lv_spinbox_set_range
 984              	.LVL130:
 644:main.c        ****     lv_spinbox_set_digit_format(pulses_spinbox, 3, 0);
 985              		.loc 1 644 0
 986 007e 3246     		mov	r2, r6
 987 0080 0321     		movs	r1, #3
 988 0082 2068     		ldr	r0, [r4]
 989 0084 FFF7FEFF 		bl	lv_spinbox_set_digit_format
 990              	.LVL131:
 645:main.c        **** 
 646:main.c        ****     lv_obj_set_hidden(pulses_spinbox, true);
 991              		.loc 1 646 0
 992 0088 0121     		movs	r1, #1
 993 008a 2068     		ldr	r0, [r4]
 994 008c FFF7FEFF 		bl	lv_obj_set_hidden
 995              	.LVL132:
 647:main.c        ****     lv_obj_set_hidden(pulses_ok_btn, true);
 996              		.loc 1 647 0
 997 0090 0121     		movs	r1, #1
 998 0092 2868     		ldr	r0, [r5]
 999 0094 FFF7FEFF 		bl	lv_obj_set_hidden
 1000              	.LVL133:
 648:main.c        **** }
 1001              		.loc 1 648 0
 1002 0098 03B0     		add	sp, sp, #12
 1003              		.cfi_def_cfa_offset 20
 1004              		@ sp needed
 1005 009a F0BD     		pop	{r4, r5, r6, r7, pc}
 1006              	.L52:
 1007              		.align	2
 1008              	.L51:
 1009 009c 00000000 		.word	pulses_spinbox
 1010 00a0 00000000 		.word	pulses_ok_btn
 1011 00a4 00000000 		.word	.LANCHOR0
 1012 00a8 44000000 		.word	.LC4
 1013 00ac 00000000 		.word	pulses_ok_btn_handler
 1014              		.cfi_endproc
 1015              	.LFE459:
 1016              		.size	create_pulses_container_widgets, .-create_pulses_container_widgets
 1017              		.section	.text.create_application_screen,"ax",%progbits
 1018              		.align	2
 1019              		.thumb
 1020              		.thumb_func
 1021              		.type	create_application_screen, %function
 1022              	create_application_screen:
 1023              	.LFB447:
 289:main.c        **** #if 0
 1024              		.loc 1 289 0
 1025              		.cfi_startproc
 1026              		@ args = 0, pretend = 0, frame = 0
 1027              		@ frame_needed = 0, uses_anonymous_args = 0
 1028              	.LVL134:
 1029 0000 2DE9F043 		push	{r4, r5, r6, r7, r8, r9, lr}
ARM GAS  C:\Users\strap\AppData\Local\Temp\cci64Z2T.s 			page 40


 1030              		.cfi_def_cfa_offset 28
 1031              		.cfi_offset 4, -28
 1032              		.cfi_offset 5, -24
 1033              		.cfi_offset 6, -20
 1034              		.cfi_offset 7, -16
 1035              		.cfi_offset 8, -12
 1036              		.cfi_offset 9, -8
 1037              		.cfi_offset 14, -4
 1038 0004 83B0     		sub	sp, sp, #12
 1039              		.cfi_def_cfa_offset 40
 1040 0006 0746     		mov	r7, r0
 302:main.c        ****     lv_coord_t container_height = tb_content_height - 50;
 1041              		.loc 1 302 0
 1042 0008 0020     		movs	r0, #0
 1043              	.LVL135:
 1044 000a FFF7FEFF 		bl	lv_disp_get_ver_res
 1045              	.LVL136:
 303:main.c        **** 
 1046              		.loc 1 303 0
 1047 000e 3238     		subs	r0, r0, #50
 1048              	.LVL137:
 1049 0010 0FFA80F8 		sxth	r8, r0
 1050              	.LVL138:
 305:main.c        ****     lv_coord_t container_width = (tb_content_width / 2) - 20;
 1051              		.loc 1 305 0
 1052 0014 0020     		movs	r0, #0
 1053 0016 FFF7FEFF 		bl	lv_disp_get_hor_res
 1054              	.LVL139:
 306:main.c        **** 
 1055              		.loc 1 306 0
 1056 001a 00EBD070 		add	r0, r0, r0, lsr #31
 1057              	.LVL140:
 1058 001e C0F34F06 		ubfx	r6, r0, #1, #16
 1059              	.LVL141:
 309:main.c        ****     lv_obj_set_size(parameter_list_container, container_width + 15, container_height);
 1060              		.loc 1 309 0
 1061 0022 0021     		movs	r1, #0
 1062 0024 3846     		mov	r0, r7
 1063 0026 FFF7FEFF 		bl	lv_cont_create
 1064              	.LVL142:
 1065 002a 514C     		ldr	r4, .L55
 1066 002c 6062     		str	r0, [r4, #36]
 310:main.c        ****     lv_obj_align(parameter_list_container, NULL, LV_ALIGN_IN_LEFT_MID, 15, 0);
 1067              		.loc 1 310 0
 1068 002e 711F     		subs	r1, r6, #5
 1069 0030 4246     		mov	r2, r8
 1070 0032 09B2     		sxth	r1, r1
 1071 0034 FFF7FEFF 		bl	lv_obj_set_size
 1072              	.LVL143:
 311:main.c        ****     lv_cont_set_layout(parameter_list_container, LV_LAYOUT_COLUMN_LEFT);
 1073              		.loc 1 311 0
 1074 0038 0025     		movs	r5, #0
 1075 003a 0095     		str	r5, [sp]
 1076 003c 0F23     		movs	r3, #15
 1077 003e 0722     		movs	r2, #7
 1078 0040 2946     		mov	r1, r5
 1079 0042 606A     		ldr	r0, [r4, #36]
ARM GAS  C:\Users\strap\AppData\Local\Temp\cci64Z2T.s 			page 41


 1080 0044 FFF7FEFF 		bl	lv_obj_align
 1081              	.LVL144:
 312:main.c        ****     
 1082              		.loc 1 312 0
 1083 0048 0221     		movs	r1, #2
 1084 004a 606A     		ldr	r0, [r4, #36]
 1085 004c FFF7FEFF 		bl	lv_cont_set_layout
 1086              	.LVL145:
 314:main.c        ****     lv_label_set_text(parameter_list_container_lbl, "Parameters");
 1087              		.loc 1 314 0
 1088 0050 2946     		mov	r1, r5
 1089 0052 3846     		mov	r0, r7
 1090 0054 FFF7FEFF 		bl	lv_label_create
 1091              	.LVL146:
 1092 0058 8146     		mov	r9, r0
 1093              	.LVL147:
 315:main.c        ****     lv_obj_align(parameter_list_container_lbl, parameter_list_container, LV_ALIGN_OUT_TOP_LEFT, 0, 
 1094              		.loc 1 315 0
 1095 005a 4649     		ldr	r1, .L55+4
 1096 005c FFF7FEFF 		bl	lv_label_set_text
 1097              	.LVL148:
 316:main.c        **** 
 1098              		.loc 1 316 0
 1099 0060 0095     		str	r5, [sp]
 1100 0062 2B46     		mov	r3, r5
 1101 0064 0922     		movs	r2, #9
 1102 0066 616A     		ldr	r1, [r4, #36]
 1103 0068 4846     		mov	r0, r9
 1104 006a FFF7FEFF 		bl	lv_obj_align
 1105              	.LVL149:
 318:main.c        ****     lv_obj_set_size(parameter_options_container, container_width - 15, container_height);
 1106              		.loc 1 318 0
 1107 006e 2946     		mov	r1, r5
 1108 0070 3846     		mov	r0, r7
 1109 0072 FFF7FEFF 		bl	lv_cont_create
 1110              	.LVL150:
 1111 0076 A062     		str	r0, [r4, #40]
 319:main.c        ****     lv_obj_align(parameter_options_container, NULL, LV_ALIGN_IN_RIGHT_MID, -15, 0);
 1112              		.loc 1 319 0
 1113 0078 A6F12301 		sub	r1, r6, #35
 1114 007c 4246     		mov	r2, r8
 1115 007e 09B2     		sxth	r1, r1
 1116 0080 FFF7FEFF 		bl	lv_obj_set_size
 1117              	.LVL151:
 320:main.c        ****     /* TODO: Update layout */
 1118              		.loc 1 320 0
 1119 0084 0095     		str	r5, [sp]
 1120 0086 6FF00E03 		mvn	r3, #14
 1121 008a 0822     		movs	r2, #8
 1122 008c 2946     		mov	r1, r5
 1123 008e A06A     		ldr	r0, [r4, #40]
 1124 0090 FFF7FEFF 		bl	lv_obj_align
 1125              	.LVL152:
 322:main.c        ****     
 1126              		.loc 1 322 0
 1127 0094 0321     		movs	r1, #3
 1128 0096 A06A     		ldr	r0, [r4, #40]
ARM GAS  C:\Users\strap\AppData\Local\Temp\cci64Z2T.s 			page 42


 1129 0098 FFF7FEFF 		bl	lv_cont_set_layout
 1130              	.LVL153:
 324:main.c        ****     lv_label_set_text(parameter_options_container_lbl, "Options");
 1131              		.loc 1 324 0
 1132 009c 2946     		mov	r1, r5
 1133 009e 3846     		mov	r0, r7
 1134 00a0 FFF7FEFF 		bl	lv_label_create
 1135              	.LVL154:
 1136 00a4 0646     		mov	r6, r0
 1137              	.LVL155:
 325:main.c        ****     lv_obj_align(parameter_options_container_lbl, parameter_options_container, LV_ALIGN_OUT_TOP_LEF
 1138              		.loc 1 325 0
 1139 00a6 3449     		ldr	r1, .L55+8
 1140 00a8 FFF7FEFF 		bl	lv_label_set_text
 1141              	.LVL156:
 326:main.c        ****     
 1142              		.loc 1 326 0
 1143 00ac 0095     		str	r5, [sp]
 1144 00ae 2B46     		mov	r3, r5
 1145 00b0 0922     		movs	r2, #9
 1146 00b2 A16A     		ldr	r1, [r4, #40]
 1147 00b4 3046     		mov	r0, r6
 1148 00b6 FFF7FEFF 		bl	lv_obj_align
 1149              	.LVL157:
 331:main.c        ****     lv_checkbox_set_text(parameter_list[PARAMETER_LIST_BURST_TYPE], "Burst Type.");
 1150              		.loc 1 331 0
 1151 00ba 2946     		mov	r1, r5
 1152 00bc 606A     		ldr	r0, [r4, #36]
 1153 00be FFF7FEFF 		bl	lv_checkbox_create
 1154              	.LVL158:
 1155 00c2 E060     		str	r0, [r4, #12]
 332:main.c        ****     lv_obj_set_event_cb(parameter_list[PARAMETER_LIST_BURST_TYPE], parameter_list_container_event_h
 1156              		.loc 1 332 0
 1157 00c4 2D49     		ldr	r1, .L55+12
 1158 00c6 FFF7FEFF 		bl	lv_checkbox_set_text
 1159              	.LVL159:
 333:main.c        **** 
 1160              		.loc 1 333 0
 1161 00ca 2D4E     		ldr	r6, .L55+16
 1162              	.LVL160:
 1163 00cc 3146     		mov	r1, r6
 1164 00ce E068     		ldr	r0, [r4, #12]
 1165 00d0 FFF7FEFF 		bl	lv_obj_set_event_cb
 1166              	.LVL161:
 335:main.c        ****     lv_checkbox_set_text(parameter_list[PARAMETER_LIST_BURST_PULSES], "Pulses in burst.");
 1167              		.loc 1 335 0
 1168 00d4 2946     		mov	r1, r5
 1169 00d6 606A     		ldr	r0, [r4, #36]
 1170 00d8 FFF7FEFF 		bl	lv_checkbox_create
 1171              	.LVL162:
 1172 00dc 2061     		str	r0, [r4, #16]
 336:main.c        ****     lv_obj_set_event_cb(parameter_list[PARAMETER_LIST_BURST_PULSES], parameter_list_container_event
 1173              		.loc 1 336 0
 1174 00de 2949     		ldr	r1, .L55+20
 1175 00e0 FFF7FEFF 		bl	lv_checkbox_set_text
 1176              	.LVL163:
 337:main.c        **** 
ARM GAS  C:\Users\strap\AppData\Local\Temp\cci64Z2T.s 			page 43


 1177              		.loc 1 337 0
 1178 00e4 3146     		mov	r1, r6
 1179 00e6 2069     		ldr	r0, [r4, #16]
 1180 00e8 FFF7FEFF 		bl	lv_obj_set_event_cb
 1181              	.LVL164:
 339:main.c        ****     lv_checkbox_set_text(parameter_list[PARAMETER_LIST_PULSE_VOLTAGE], "Pulse Voltage.");
 1182              		.loc 1 339 0
 1183 00ec 2946     		mov	r1, r5
 1184 00ee 606A     		ldr	r0, [r4, #36]
 1185 00f0 FFF7FEFF 		bl	lv_checkbox_create
 1186              	.LVL165:
 1187 00f4 6061     		str	r0, [r4, #20]
 340:main.c        ****     lv_obj_set_event_cb(parameter_list[PARAMETER_LIST_PULSE_VOLTAGE], parameter_list_container_even
 1188              		.loc 1 340 0
 1189 00f6 2449     		ldr	r1, .L55+24
 1190 00f8 FFF7FEFF 		bl	lv_checkbox_set_text
 1191              	.LVL166:
 341:main.c        ****     
 1192              		.loc 1 341 0
 1193 00fc 3146     		mov	r1, r6
 1194 00fe 6069     		ldr	r0, [r4, #20]
 1195 0100 FFF7FEFF 		bl	lv_obj_set_event_cb
 1196              	.LVL167:
 343:main.c        ****     lv_btn_set_fit2(shoot_btn, LV_FIT_PARENT, LV_FIT_NONE);
 1197              		.loc 1 343 0
 1198 0104 2946     		mov	r1, r5
 1199 0106 606A     		ldr	r0, [r4, #36]
 1200 0108 FFF7FEFF 		bl	lv_btn_create
 1201              	.LVL168:
 1202 010c 1F4E     		ldr	r6, .L55+28
 1203 010e 3060     		str	r0, [r6]
 1204              	.LVL169:
 1205              	.LBB58:
 1206              	.LBB59:
 1207              	.LBB60:
 1208              		.loc 4 160 0
 1209 0110 0095     		str	r5, [sp]
 1210 0112 2B46     		mov	r3, r5
 1211 0114 0222     		movs	r2, #2
 1212 0116 1146     		mov	r1, r2
 1213 0118 FFF7FEFF 		bl	lv_cont_set_fit4
 1214              	.LVL170:
 1215              	.LBE60:
 1216              	.LBE59:
 1217              	.LBE58:
 1218              	.LBB61:
 1219              	.LBB62:
 1220              		.loc 3 159 0
 1221 011c 1C4B     		ldr	r3, .L55+32
 1222 011e 7F22     		movs	r2, #127
 1223 0120 2946     		mov	r1, r5
 1224 0122 3068     		ldr	r0, [r6]
 1225 0124 FFF7FEFF 		bl	_lv_obj_set_style_local_ptr
 1226              	.LVL171:
 1227              	.LBE62:
 1228              	.LBE61:
 347:main.c        **** 
ARM GAS  C:\Users\strap\AppData\Local\Temp\cci64Z2T.s 			page 44


 1229              		.loc 1 347 0
 1230 0128 1A49     		ldr	r1, .L55+36
 1231 012a 3068     		ldr	r0, [r6]
 1232 012c FFF7FEFF 		bl	lv_obj_set_event_cb
 1233              	.LVL172:
 350:main.c        ****     lv_group_add_obj(parameter_list_g, parameter_list[PARAMETER_LIST_BURST_PULSES]);
 1234              		.loc 1 350 0
 1235 0130 E168     		ldr	r1, [r4, #12]
 1236 0132 6068     		ldr	r0, [r4, #4]
 1237 0134 FFF7FEFF 		bl	lv_group_add_obj
 1238              	.LVL173:
 351:main.c        ****     lv_group_add_obj(parameter_list_g, parameter_list[PARAMETER_LIST_PULSE_VOLTAGE]);
 1239              		.loc 1 351 0
 1240 0138 2169     		ldr	r1, [r4, #16]
 1241 013a 6068     		ldr	r0, [r4, #4]
 1242 013c FFF7FEFF 		bl	lv_group_add_obj
 1243              	.LVL174:
 352:main.c        ****     lv_group_add_obj(parameter_list_g, shoot_btn);
 1244              		.loc 1 352 0
 1245 0140 6169     		ldr	r1, [r4, #20]
 1246 0142 6068     		ldr	r0, [r4, #4]
 1247 0144 FFF7FEFF 		bl	lv_group_add_obj
 1248              	.LVL175:
 353:main.c        ****     
 1249              		.loc 1 353 0
 1250 0148 3168     		ldr	r1, [r6]
 1251 014a 6068     		ldr	r0, [r4, #4]
 1252 014c FFF7FEFF 		bl	lv_group_add_obj
 1253              	.LVL176:
 356:main.c        ****     
 1254              		.loc 1 356 0
 1255 0150 E068     		ldr	r0, [r4, #12]
 1256 0152 FFF7FEFF 		bl	lv_group_focus_obj
 1257              	.LVL177:
 359:main.c        ****     /* Create widgets for voltage option */
 1258              		.loc 1 359 0
 1259 0156 A06A     		ldr	r0, [r4, #40]
 1260 0158 FFF7FEFF 		bl	create_type_container_widgets
 1261              	.LVL178:
 361:main.c        ****     
 1262              		.loc 1 361 0
 1263 015c A06A     		ldr	r0, [r4, #40]
 1264 015e FFF7FEFF 		bl	create_voltage_container_widgets
 1265              	.LVL179:
 363:main.c        **** }
 1266              		.loc 1 363 0
 1267 0162 A06A     		ldr	r0, [r4, #40]
 1268 0164 FFF7FEFF 		bl	create_pulses_container_widgets
 1269              	.LVL180:
 364:main.c        **** 
 1270              		.loc 1 364 0
 1271 0168 03B0     		add	sp, sp, #12
 1272              		.cfi_def_cfa_offset 28
 1273              		@ sp needed
 1274 016a BDE8F083 		pop	{r4, r5, r6, r7, r8, r9, pc}
 1275              	.LVL181:
 1276              	.L56:
ARM GAS  C:\Users\strap\AppData\Local\Temp\cci64Z2T.s 			page 45


 1277 016e 00BF     		.align	2
 1278              	.L55:
 1279 0170 00000000 		.word	.LANCHOR0
 1280 0174 64000000 		.word	.LC6
 1281 0178 70000000 		.word	.LC7
 1282 017c 78000000 		.word	.LC8
 1283 0180 00000000 		.word	parameter_list_container_event_handler
 1284 0184 84000000 		.word	.LC9
 1285 0188 98000000 		.word	.LC10
 1286 018c 00000000 		.word	shoot_btn
 1287 0190 A8000000 		.word	.LC11
 1288 0194 00000000 		.word	button_callback
 1289              		.cfi_endproc
 1290              	.LFE447:
 1291              		.size	create_application_screen, .-create_application_screen
 1292              		.section	.text.burst_type_list_handler,"ax",%progbits
 1293              		.align	2
 1294              		.thumb
 1295              		.thumb_func
 1296              		.type	burst_type_list_handler, %function
 1297              	burst_type_list_handler:
 1298              	.LFB454:
 534:main.c        ****     LV_UNUSED(obj);
 1299              		.loc 1 534 0
 1300              		.cfi_startproc
 1301              		@ args = 0, pretend = 0, frame = 0
 1302              		@ frame_needed = 0, uses_anonymous_args = 0
 1303              	.LVL182:
 539:main.c        ****         uint16_t selected = lv_dropdown_get_selected(burst_type_list);
 1304              		.loc 1 539 0
 1305 0000 1029     		cmp	r1, #16
 1306 0002 25D1     		bne	.L61
 534:main.c        ****     LV_UNUSED(obj);
 1307              		.loc 1 534 0
 1308 0004 10B5     		push	{r4, lr}
 1309              		.cfi_def_cfa_offset 8
 1310              		.cfi_offset 4, -8
 1311              		.cfi_offset 14, -4
 1312              	.LBB63:
 540:main.c        ****         UART_PutHexInt(selected);
 1313              		.loc 1 540 0
 1314 0006 134B     		ldr	r3, .L62
 1315 0008 1868     		ldr	r0, [r3]
 1316              	.LVL183:
 1317 000a FFF7FEFF 		bl	lv_dropdown_get_selected
 1318              	.LVL184:
 1319 000e 0446     		mov	r4, r0
 1320              	.LVL185:
 541:main.c        ****         
 1321              		.loc 1 541 0
 1322 0010 FFF7FEFF 		bl	UART_PutHexInt
 1323              	.LVL186:
 544:main.c        ****             lv_obj_set_state(custom_spinbox, LV_STATE_DEFAULT);
 1324              		.loc 1 544 0
 1325 0014 022C     		cmp	r4, #2
 1326 0016 11D1     		bne	.L59
 545:main.c        ****             lv_textarea_set_cursor_hidden(custom_spinbox, false);
ARM GAS  C:\Users\strap\AppData\Local\Temp\cci64Z2T.s 			page 46


 1327              		.loc 1 545 0
 1328 0018 0F4C     		ldr	r4, .L62+4
 1329              	.LVL187:
 1330 001a 0021     		movs	r1, #0
 1331 001c 2068     		ldr	r0, [r4]
 1332 001e FFF7FEFF 		bl	lv_obj_set_state
 1333              	.LVL188:
 546:main.c        ****         
 1334              		.loc 1 546 0
 1335 0022 0021     		movs	r1, #0
 1336 0024 2068     		ldr	r0, [r4]
 1337 0026 FFF7FEFF 		bl	lv_textarea_set_cursor_hidden
 1338              	.LVL189:
 549:main.c        ****             lv_group_set_editing(burst_type_params_g, true);
 1339              		.loc 1 549 0
 1340 002a 2068     		ldr	r0, [r4]
 1341 002c FFF7FEFF 		bl	lv_group_focus_obj
 1342              	.LVL190:
 550:main.c        ****         } else {
 1343              		.loc 1 550 0
 1344 0030 0121     		movs	r1, #1
 1345 0032 0A4B     		ldr	r3, .L62+8
 1346 0034 9869     		ldr	r0, [r3, #24]
 1347 0036 FFF7FEFF 		bl	lv_group_set_editing
 1348              	.LVL191:
 1349 003a 10BD     		pop	{r4, pc}
 1350              	.LVL192:
 1351              	.L59:
 552:main.c        ****             lv_textarea_set_cursor_hidden(custom_spinbox, true);
 1352              		.loc 1 552 0
 1353 003c 064C     		ldr	r4, .L62+4
 1354              	.LVL193:
 1355 003e 2021     		movs	r1, #32
 1356 0040 2068     		ldr	r0, [r4]
 1357 0042 FFF7FEFF 		bl	lv_obj_set_state
 1358              	.LVL194:
 553:main.c        ****         }
 1359              		.loc 1 553 0
 1360 0046 0121     		movs	r1, #1
 1361 0048 2068     		ldr	r0, [r4]
 1362 004a FFF7FEFF 		bl	lv_textarea_set_cursor_hidden
 1363              	.LVL195:
 1364 004e 10BD     		pop	{r4, pc}
 1365              	.LVL196:
 1366              	.L61:
 1367              		.cfi_def_cfa_offset 0
 1368              		.cfi_restore 4
 1369              		.cfi_restore 14
 1370 0050 7047     		bx	lr
 1371              	.L63:
 1372 0052 00BF     		.align	2
 1373              	.L62:
 1374 0054 00000000 		.word	burst_type_list
 1375 0058 00000000 		.word	custom_spinbox
 1376 005c 00000000 		.word	.LANCHOR0
 1377              	.LBE63:
 1378              		.cfi_endproc
ARM GAS  C:\Users\strap\AppData\Local\Temp\cci64Z2T.s 			page 47


 1379              	.LFE454:
 1380              		.size	burst_type_list_handler, .-burst_type_list_handler
 1381              		.section	.text.timer_tick_handler,"ax",%progbits
 1382              		.align	2
 1383              		.global	timer_tick_handler
 1384              		.thumb
 1385              		.thumb_func
 1386              		.type	timer_tick_handler, %function
 1387              	timer_tick_handler:
 1388              	.LFB442:
 222:main.c        ****     lv_tick_inc(1);
 1389              		.loc 1 222 0
 1390              		.cfi_startproc
 1391              		@ args = 0, pretend = 0, frame = 0
 1392              		@ frame_needed = 0, uses_anonymous_args = 0
 1393 0000 08B5     		push	{r3, lr}
 1394              		.cfi_def_cfa_offset 8
 1395              		.cfi_offset 3, -8
 1396              		.cfi_offset 14, -4
 223:main.c        **** }
 1397              		.loc 1 223 0
 1398 0002 0120     		movs	r0, #1
 1399 0004 FFF7FEFF 		bl	lv_tick_inc
 1400              	.LVL197:
 1401 0008 08BD     		pop	{r3, pc}
 1402              		.cfi_endproc
 1403              	.LFE442:
 1404              		.size	timer_tick_handler, .-timer_tick_handler
 1405 000a 00BF     		.section	.text.spi_tx_dma_done,"ax",%progbits
 1406              		.align	2
 1407              		.global	spi_tx_dma_done
 1408              		.thumb
 1409              		.thumb_func
 1410              		.type	spi_tx_dma_done, %function
 1411              	spi_tx_dma_done:
 1412              	.LFB443:
 233:main.c        ****     spi_xfer_set_status(SPI_XFER_DONE);
 1413              		.loc 1 233 0
 1414              		.cfi_startproc
 1415              		@ args = 0, pretend = 0, frame = 0
 1416              		@ frame_needed = 0, uses_anonymous_args = 0
 1417 0000 08B5     		push	{r3, lr}
 1418              		.cfi_def_cfa_offset 8
 1419              		.cfi_offset 3, -8
 1420              		.cfi_offset 14, -4
 234:main.c        ****     
 1421              		.loc 1 234 0
 1422 0002 0120     		movs	r0, #1
 1423 0004 FFF7FEFF 		bl	spi_xfer_set_status
 1424              	.LVL198:
 236:main.c        **** }
 1425              		.loc 1 236 0
 1426 0008 0120     		movs	r0, #1
 1427 000a FFF7FEFF 		bl	SPI_SetTxInterruptMode
 1428              	.LVL199:
 1429 000e 08BD     		pop	{r3, pc}
 1430              		.cfi_endproc
ARM GAS  C:\Users\strap\AppData\Local\Temp\cci64Z2T.s 			page 48


 1431              	.LFE443:
 1432              		.size	spi_tx_dma_done, .-spi_tx_dma_done
 1433              		.section	.text.spi_tx_isr_handler,"ax",%progbits
 1434              		.align	2
 1435              		.global	spi_tx_isr_handler
 1436              		.thumb
 1437              		.thumb_func
 1438              		.type	spi_tx_isr_handler, %function
 1439              	spi_tx_isr_handler:
 1440              	.LFB444:
 241:main.c        ****     /* Clear the interrupt source flag */
 1441              		.loc 1 241 0
 1442              		.cfi_startproc
 1443              		@ args = 0, pretend = 0, frame = 8
 1444              		@ frame_needed = 0, uses_anonymous_args = 0
 1445 0000 00B5     		push	{lr}
 1446              		.cfi_def_cfa_offset 4
 1447              		.cfi_offset 14, -4
 1448 0002 83B0     		sub	sp, sp, #12
 1449              		.cfi_def_cfa_offset 16
 243:main.c        ****     
 1450              		.loc 1 243 0
 1451 0004 FFF7FEFF 		bl	SPI_ReadTxStatus
 1452              	.LVL200:
 1453 0008 8DF80700 		strb	r0, [sp, #7]
 247:main.c        ****         
 1454              		.loc 1 247 0
 1455 000c FFF7FEFF 		bl	spi_xfer_get_status
 1456              	.LVL201:
 1457 0010 0128     		cmp	r0, #1
 1458 0012 0DD1     		bne	.L68
 247:main.c        ****         
 1459              		.loc 1 247 0 is_stmt 0 discriminator 1
 1460 0014 9DF80730 		ldrb	r3, [sp, #7]	@ zero_extendqisi2
 1461 0018 13F0010F 		tst	r3, #1
 1462 001c 08D0     		beq	.L68
 249:main.c        ****         
 1463              		.loc 1 249 0 is_stmt 1
 1464 001e FFF7FEFF 		bl	SS_Write
 1465              	.LVL202:
 252:main.c        ****         spi_xfer_on_completion();
 1466              		.loc 1 252 0
 1467 0022 0020     		movs	r0, #0
 1468 0024 FFF7FEFF 		bl	SPI_SetTxInterruptMode
 1469              	.LVL203:
 253:main.c        ****         
 1470              		.loc 1 253 0
 1471 0028 FFF7FEFF 		bl	spi_xfer_on_completion
 1472              	.LVL204:
 256:main.c        ****     }
 1473              		.loc 1 256 0
 1474 002c FFF7FEFF 		bl	display_colors_sent_notification
 1475              	.LVL205:
 1476              	.L68:
 258:main.c        **** 
 1477              		.loc 1 258 0
 1478 0030 03B0     		add	sp, sp, #12
ARM GAS  C:\Users\strap\AppData\Local\Temp\cci64Z2T.s 			page 49


 1479              		.cfi_def_cfa_offset 4
 1480              		@ sp needed
 1481 0032 5DF804FB 		ldr	pc, [sp], #4
 1482              		.cfi_endproc
 1483              	.LFE444:
 1484              		.size	spi_tx_isr_handler, .-spi_tx_isr_handler
 1485 0036 00BF     		.section	.text.main,"ax",%progbits
 1486              		.align	2
 1487              		.global	main
 1488              		.thumb
 1489              		.thumb_func
 1490              		.type	main, %function
 1491              	main:
 1492              	.LFB441:
 116:main.c        ****     /* Register interrupt handlers */
 1493              		.loc 1 116 0
 1494              		.cfi_startproc
 1495              		@ args = 0, pretend = 0, frame = 80
 1496              		@ frame_needed = 0, uses_anonymous_args = 0
 1497 0000 30B5     		push	{r4, r5, lr}
 1498              		.cfi_def_cfa_offset 12
 1499              		.cfi_offset 4, -12
 1500              		.cfi_offset 5, -8
 1501              		.cfi_offset 14, -4
 1502 0002 95B0     		sub	sp, sp, #84
 1503              		.cfi_def_cfa_offset 96
 118:main.c        ****     isr_SPI_TX_StartEx(spi_tx_isr_handler);
 1504              		.loc 1 118 0
 1505 0004 3148     		ldr	r0, .L74
 1506 0006 FFF7FEFF 		bl	isr_SPI_TX_DMA_StartEx
 1507              	.LVL206:
 119:main.c        ****     
 1508              		.loc 1 119 0
 1509 000a 3148     		ldr	r0, .L74+4
 1510 000c FFF7FEFF 		bl	isr_SPI_TX_StartEx
 1511              	.LVL207:
 122:main.c        ****     UART_Start();
 1512              		.loc 1 122 0
 1513 0010 FFF7FEFF 		bl	QuadDec_Start
 1514              	.LVL208:
 123:main.c        ****     SPI_Start();
 1515              		.loc 1 123 0
 1516 0014 FFF7FEFF 		bl	UART_Start
 1517              	.LVL209:
 124:main.c        ****     
 1518              		.loc 1 124 0
 1519 0018 FFF7FEFF 		bl	SPI_Start
 1520              	.LVL210:
 127:main.c        ****     
 1521              		.loc 1 127 0
 1522 001c FFF7FEFF 		bl	spi_initialize_dma
 1523              	.LVL211:
 130:main.c        ****     CySysTickSetCallback(0, timer_tick_handler);
 1524              		.loc 1 130 0
 1525 0020 FFF7FEFF 		bl	CySysTickStart
 1526              	.LVL212:
 131:main.c        ****     CySysTickStop();
ARM GAS  C:\Users\strap\AppData\Local\Temp\cci64Z2T.s 			page 50


 1527              		.loc 1 131 0
 1528 0024 2B49     		ldr	r1, .L74+8
 1529 0026 0020     		movs	r0, #0
 1530 0028 FFF7FEFF 		bl	CySysTickSetCallback
 1531              	.LVL213:
 132:main.c        ****     CySysTickClear();
 1532              		.loc 1 132 0
 1533 002c FFF7FEFF 		bl	CySysTickStop
 1534              	.LVL214:
 133:main.c        ****     
 1535              		.loc 1 133 0
 1536 0030 FFF7FEFF 		bl	CySysTickClear
 1537              	.LVL215:
 136:main.c        ****     
 1538              		.loc 1 136 0
 1539              		.syntax unified
 1540              	@ 136 "main.c" 1
 1541 0034 62B6     		CPSIE   i
 1542              	@ 0 "" 2
 139:main.c        ****     
 1543              		.loc 1 139 0
 1544              		.thumb
 1545              		.syntax unified
 1546 0036 FFF7FEFF 		bl	lv_init
 1547              	.LVL216:
 147:main.c        ****     
 1548              		.loc 1 147 0
 1549 003a 274C     		ldr	r4, .L74+12
 1550 003c 274D     		ldr	r5, .L74+16
 1551 003e 4FF44863 		mov	r3, #3200
 1552 0042 04F12C02 		add	r2, r4, #44
 1553 0046 2649     		ldr	r1, .L74+20
 1554 0048 2846     		mov	r0, r5
 1555 004a FFF7FEFF 		bl	lv_disp_buf_init
 1556              	.LVL217:
 151:main.c        ****     disp_drv.flush_cb = ili9341_flush;
 1557              		.loc 1 151 0
 1558 004e 08A8     		add	r0, sp, #32
 1559 0050 FFF7FEFF 		bl	lv_disp_drv_init
 1560              	.LVL218:
 152:main.c        ****     disp_drv.buffer = &disp_buf;
 1561              		.loc 1 152 0
 1562 0054 234B     		ldr	r3, .L74+24
 1563 0056 0B93     		str	r3, [sp, #44]
 153:main.c        ****     
 1564              		.loc 1 153 0
 1565 0058 0995     		str	r5, [sp, #36]
 155:main.c        ****     
 1566              		.loc 1 155 0
 1567 005a 234B     		ldr	r3, .L74+28
 1568 005c 1393     		str	r3, [sp, #76]
 157:main.c        ****     
 1569              		.loc 1 157 0
 1570 005e 08A8     		add	r0, sp, #32
 1571 0060 FFF7FEFF 		bl	lv_disp_drv_register
 1572              	.LVL219:
 161:main.c        ****     indev_drv.type = LV_INDEV_TYPE_ENCODER;
ARM GAS  C:\Users\strap\AppData\Local\Temp\cci64Z2T.s 			page 51


 1573              		.loc 1 161 0
 1574 0064 6846     		mov	r0, sp
 1575 0066 FFF7FEFF 		bl	lv_indev_drv_init
 1576              	.LVL220:
 162:main.c        ****     indev_drv.read_cb = encoder_read;
 1577              		.loc 1 162 0
 1578 006a 0423     		movs	r3, #4
 1579 006c 8DF80030 		strb	r3, [sp]
 163:main.c        ****     encoder_indev = lv_indev_drv_register(&indev_drv);
 1580              		.loc 1 163 0
 1581 0070 1E4B     		ldr	r3, .L74+32
 1582 0072 0193     		str	r3, [sp, #4]
 164:main.c        ****     
 1583              		.loc 1 164 0
 1584 0074 6846     		mov	r0, sp
 1585 0076 FFF7FEFF 		bl	lv_indev_drv_register
 1586              	.LVL221:
 1587 007a A060     		str	r0, [r4, #8]
 167:main.c        ****     voltage_params_g = lv_group_create();
 1588              		.loc 1 167 0
 1589 007c FFF7FEFF 		bl	lv_group_create
 1590              	.LVL222:
 1591 0080 2062     		str	r0, [r4, #32]
 168:main.c        ****     parameter_list_g = lv_group_create();
 1592              		.loc 1 168 0
 1593 0082 FFF7FEFF 		bl	lv_group_create
 1594              	.LVL223:
 1595 0086 E061     		str	r0, [r4, #28]
 169:main.c        ****     burst_type_params_g = lv_group_create();
 1596              		.loc 1 169 0
 1597 0088 FFF7FEFF 		bl	lv_group_create
 1598              	.LVL224:
 1599 008c 6060     		str	r0, [r4, #4]
 170:main.c        ****     
 1600              		.loc 1 170 0
 1601 008e FFF7FEFF 		bl	lv_group_create
 1602              	.LVL225:
 1603 0092 A061     		str	r0, [r4, #24]
 172:main.c        ****     
 1604              		.loc 1 172 0
 1605 0094 6168     		ldr	r1, [r4, #4]
 1606 0096 A068     		ldr	r0, [r4, #8]
 1607 0098 FFF7FEFF 		bl	lv_indev_set_group
 1608              	.LVL226:
 175:main.c        ****     
 1609              		.loc 1 175 0
 1610 009c 0021     		movs	r1, #0
 1611 009e 08A8     		add	r0, sp, #32
 1612 00a0 FFF7FEFF 		bl	ili9341_init
 1613              	.LVL227:
 178:main.c        **** 
 1614              		.loc 1 178 0
 1615 00a4 FFF7FEFF 		bl	CySysTickStart
 1616              	.LVL228:
 183:main.c        ****     create_application_screen(app_screen);
 1617              		.loc 1 183 0
 1618 00a8 0021     		movs	r1, #0
ARM GAS  C:\Users\strap\AppData\Local\Temp\cci64Z2T.s 			page 52


 1619 00aa 0846     		mov	r0, r1
 1620 00ac FFF7FEFF 		bl	lv_obj_create
 1621              	.LVL229:
 1622 00b0 0F4C     		ldr	r4, .L74+36
 1623 00b2 2060     		str	r0, [r4]
 184:main.c        ****     lv_scr_load(app_screen);
 1624              		.loc 1 184 0
 1625 00b4 FFF7FEFF 		bl	create_application_screen
 1626              	.LVL230:
 1627              	.LBB64:
 1628              	.LBB65:
 1629              		.file 5 "lvgl/src/lv_core/lv_disp.h"
   1:lvgl/src/lv_core/lv_disp.h **** /**
   2:lvgl/src/lv_core/lv_disp.h ****  * @file lv_disp.h
   3:lvgl/src/lv_core/lv_disp.h ****  *
   4:lvgl/src/lv_core/lv_disp.h ****  */
   5:lvgl/src/lv_core/lv_disp.h **** 
   6:lvgl/src/lv_core/lv_disp.h **** #ifndef LV_DISP_H
   7:lvgl/src/lv_core/lv_disp.h **** #define LV_DISP_H
   8:lvgl/src/lv_core/lv_disp.h **** 
   9:lvgl/src/lv_core/lv_disp.h **** #ifdef __cplusplus
  10:lvgl/src/lv_core/lv_disp.h **** extern "C" {
  11:lvgl/src/lv_core/lv_disp.h **** #endif
  12:lvgl/src/lv_core/lv_disp.h **** 
  13:lvgl/src/lv_core/lv_disp.h **** /*********************
  14:lvgl/src/lv_core/lv_disp.h ****  *      INCLUDES
  15:lvgl/src/lv_core/lv_disp.h ****  *********************/
  16:lvgl/src/lv_core/lv_disp.h **** #include "../lv_hal/lv_hal.h"
  17:lvgl/src/lv_core/lv_disp.h **** #include "lv_obj.h"
  18:lvgl/src/lv_core/lv_disp.h **** 
  19:lvgl/src/lv_core/lv_disp.h **** /*********************
  20:lvgl/src/lv_core/lv_disp.h ****  *      DEFINES
  21:lvgl/src/lv_core/lv_disp.h ****  *********************/
  22:lvgl/src/lv_core/lv_disp.h **** 
  23:lvgl/src/lv_core/lv_disp.h **** /**********************
  24:lvgl/src/lv_core/lv_disp.h ****  *      TYPEDEFS
  25:lvgl/src/lv_core/lv_disp.h ****  **********************/
  26:lvgl/src/lv_core/lv_disp.h **** 
  27:lvgl/src/lv_core/lv_disp.h **** typedef enum {
  28:lvgl/src/lv_core/lv_disp.h ****     LV_SCR_LOAD_ANIM_NONE,
  29:lvgl/src/lv_core/lv_disp.h ****     LV_SCR_LOAD_ANIM_OVER_LEFT,
  30:lvgl/src/lv_core/lv_disp.h ****     LV_SCR_LOAD_ANIM_OVER_RIGHT,
  31:lvgl/src/lv_core/lv_disp.h ****     LV_SCR_LOAD_ANIM_OVER_TOP,
  32:lvgl/src/lv_core/lv_disp.h ****     LV_SCR_LOAD_ANIM_OVER_BOTTOM,
  33:lvgl/src/lv_core/lv_disp.h ****     LV_SCR_LOAD_ANIM_MOVE_LEFT,
  34:lvgl/src/lv_core/lv_disp.h ****     LV_SCR_LOAD_ANIM_MOVE_RIGHT,
  35:lvgl/src/lv_core/lv_disp.h ****     LV_SCR_LOAD_ANIM_MOVE_TOP,
  36:lvgl/src/lv_core/lv_disp.h ****     LV_SCR_LOAD_ANIM_MOVE_BOTTOM,
  37:lvgl/src/lv_core/lv_disp.h ****     LV_SCR_LOAD_ANIM_FADE_ON,
  38:lvgl/src/lv_core/lv_disp.h **** } lv_scr_load_anim_t;
  39:lvgl/src/lv_core/lv_disp.h **** 
  40:lvgl/src/lv_core/lv_disp.h **** /**********************
  41:lvgl/src/lv_core/lv_disp.h ****  * GLOBAL PROTOTYPES
  42:lvgl/src/lv_core/lv_disp.h ****  **********************/
  43:lvgl/src/lv_core/lv_disp.h **** 
  44:lvgl/src/lv_core/lv_disp.h **** /**
  45:lvgl/src/lv_core/lv_disp.h ****  * Return with a pointer to the active screen
ARM GAS  C:\Users\strap\AppData\Local\Temp\cci64Z2T.s 			page 53


  46:lvgl/src/lv_core/lv_disp.h ****  * @param disp pointer to display which active screen should be get. (NULL to use the default
  47:lvgl/src/lv_core/lv_disp.h ****  * screen)
  48:lvgl/src/lv_core/lv_disp.h ****  * @return pointer to the active screen object (loaded by 'lv_scr_load()')
  49:lvgl/src/lv_core/lv_disp.h ****  */
  50:lvgl/src/lv_core/lv_disp.h **** lv_obj_t * lv_disp_get_scr_act(lv_disp_t * disp);
  51:lvgl/src/lv_core/lv_disp.h **** 
  52:lvgl/src/lv_core/lv_disp.h **** /**
  53:lvgl/src/lv_core/lv_disp.h ****  * Return with a pointer to the previous screen. Only used during screen transitions.
  54:lvgl/src/lv_core/lv_disp.h ****  * @param disp pointer to display which previous screen should be get. (NULL to use the default
  55:lvgl/src/lv_core/lv_disp.h ****  * screen)
  56:lvgl/src/lv_core/lv_disp.h ****  * @return pointer to the previous screen object or NULL if not used now
  57:lvgl/src/lv_core/lv_disp.h ****  */
  58:lvgl/src/lv_core/lv_disp.h **** lv_obj_t * lv_disp_get_scr_prev(lv_disp_t * disp);
  59:lvgl/src/lv_core/lv_disp.h **** 
  60:lvgl/src/lv_core/lv_disp.h **** /**
  61:lvgl/src/lv_core/lv_disp.h ****  * Make a screen active
  62:lvgl/src/lv_core/lv_disp.h ****  * @param scr pointer to a screen
  63:lvgl/src/lv_core/lv_disp.h ****  */
  64:lvgl/src/lv_core/lv_disp.h **** void lv_disp_load_scr(lv_obj_t * scr);
  65:lvgl/src/lv_core/lv_disp.h **** 
  66:lvgl/src/lv_core/lv_disp.h **** /**
  67:lvgl/src/lv_core/lv_disp.h ****  * Return with the top layer. (Same on every screen and it is above the normal screen layer)
  68:lvgl/src/lv_core/lv_disp.h ****  * @param disp pointer to display which top layer should be get. (NULL to use the default screen)
  69:lvgl/src/lv_core/lv_disp.h ****  * @return pointer to the top layer object  (transparent screen sized lv_obj)
  70:lvgl/src/lv_core/lv_disp.h ****  */
  71:lvgl/src/lv_core/lv_disp.h **** lv_obj_t * lv_disp_get_layer_top(lv_disp_t * disp);
  72:lvgl/src/lv_core/lv_disp.h **** 
  73:lvgl/src/lv_core/lv_disp.h **** /**
  74:lvgl/src/lv_core/lv_disp.h ****  * Return with the sys. layer. (Same on every screen and it is above the normal screen and the top
  75:lvgl/src/lv_core/lv_disp.h ****  * layer)
  76:lvgl/src/lv_core/lv_disp.h ****  * @param disp pointer to display which sys. layer  should be get. (NULL to use the default screen)
  77:lvgl/src/lv_core/lv_disp.h ****  * @return pointer to the sys layer object  (transparent screen sized lv_obj)
  78:lvgl/src/lv_core/lv_disp.h ****  */
  79:lvgl/src/lv_core/lv_disp.h **** lv_obj_t * lv_disp_get_layer_sys(lv_disp_t * disp);
  80:lvgl/src/lv_core/lv_disp.h **** 
  81:lvgl/src/lv_core/lv_disp.h **** /**
  82:lvgl/src/lv_core/lv_disp.h ****  * Assign a screen to a display.
  83:lvgl/src/lv_core/lv_disp.h ****  * @param disp pointer to a display where to assign the screen
  84:lvgl/src/lv_core/lv_disp.h ****  * @param scr pointer to a screen object to assign
  85:lvgl/src/lv_core/lv_disp.h ****  */
  86:lvgl/src/lv_core/lv_disp.h **** void lv_disp_assign_screen(lv_disp_t * disp, lv_obj_t * scr);
  87:lvgl/src/lv_core/lv_disp.h **** 
  88:lvgl/src/lv_core/lv_disp.h **** 
  89:lvgl/src/lv_core/lv_disp.h **** /**
  90:lvgl/src/lv_core/lv_disp.h ****  * Set the background color of a display
  91:lvgl/src/lv_core/lv_disp.h ****  * @param disp pointer to a display
  92:lvgl/src/lv_core/lv_disp.h ****  * @param color color of the background
  93:lvgl/src/lv_core/lv_disp.h ****  */
  94:lvgl/src/lv_core/lv_disp.h **** void lv_disp_set_bg_color(lv_disp_t * disp, lv_color_t color);
  95:lvgl/src/lv_core/lv_disp.h **** 
  96:lvgl/src/lv_core/lv_disp.h **** /**
  97:lvgl/src/lv_core/lv_disp.h ****  * Set the background image of a display
  98:lvgl/src/lv_core/lv_disp.h ****  * @param disp pointer to a display
  99:lvgl/src/lv_core/lv_disp.h ****  * @param img_src path to file or pointer to an `lv_img_dsc_t` variable
 100:lvgl/src/lv_core/lv_disp.h ****  */
 101:lvgl/src/lv_core/lv_disp.h **** void lv_disp_set_bg_image(lv_disp_t * disp, const void  * img_src);
 102:lvgl/src/lv_core/lv_disp.h **** 
ARM GAS  C:\Users\strap\AppData\Local\Temp\cci64Z2T.s 			page 54


 103:lvgl/src/lv_core/lv_disp.h **** /**
 104:lvgl/src/lv_core/lv_disp.h ****  * Opacity of the background
 105:lvgl/src/lv_core/lv_disp.h ****  * @param disp pointer to a display
 106:lvgl/src/lv_core/lv_disp.h ****  * @param opa opacity (0..255)
 107:lvgl/src/lv_core/lv_disp.h ****  */
 108:lvgl/src/lv_core/lv_disp.h **** void lv_disp_set_bg_opa(lv_disp_t * disp, lv_opa_t opa);
 109:lvgl/src/lv_core/lv_disp.h **** 
 110:lvgl/src/lv_core/lv_disp.h **** #if LV_USE_ANIMATION
 111:lvgl/src/lv_core/lv_disp.h **** 
 112:lvgl/src/lv_core/lv_disp.h **** /**
 113:lvgl/src/lv_core/lv_disp.h ****  * Switch screen with animation
 114:lvgl/src/lv_core/lv_disp.h ****  * @param scr pointer to the new screen to load
 115:lvgl/src/lv_core/lv_disp.h ****  * @param anim_type type of the animation from `lv_scr_load_anim_t`. E.g.  `LV_SCR_LOAD_ANIM_MOVE_L
 116:lvgl/src/lv_core/lv_disp.h ****  * @param time time of the animation
 117:lvgl/src/lv_core/lv_disp.h ****  * @param delay delay before the transition
 118:lvgl/src/lv_core/lv_disp.h ****  * @param auto_del true: automatically delete the old screen
 119:lvgl/src/lv_core/lv_disp.h ****  */
 120:lvgl/src/lv_core/lv_disp.h **** void lv_scr_load_anim(lv_obj_t * scr, lv_scr_load_anim_t anim_type, uint32_t time, uint32_t delay, 
 121:lvgl/src/lv_core/lv_disp.h **** 
 122:lvgl/src/lv_core/lv_disp.h **** #endif
 123:lvgl/src/lv_core/lv_disp.h **** /**
 124:lvgl/src/lv_core/lv_disp.h ****  * Get elapsed time since last user activity on a display (e.g. click)
 125:lvgl/src/lv_core/lv_disp.h ****  * @param disp pointer to an display (NULL to get the overall smallest inactivity)
 126:lvgl/src/lv_core/lv_disp.h ****  * @return elapsed ticks (milliseconds) since the last activity
 127:lvgl/src/lv_core/lv_disp.h ****  */
 128:lvgl/src/lv_core/lv_disp.h **** uint32_t lv_disp_get_inactive_time(const lv_disp_t * disp);
 129:lvgl/src/lv_core/lv_disp.h **** 
 130:lvgl/src/lv_core/lv_disp.h **** /**
 131:lvgl/src/lv_core/lv_disp.h ****  * Manually trigger an activity on a display
 132:lvgl/src/lv_core/lv_disp.h ****  * @param disp pointer to an display (NULL to use the default display)
 133:lvgl/src/lv_core/lv_disp.h ****  */
 134:lvgl/src/lv_core/lv_disp.h **** void lv_disp_trig_activity(lv_disp_t * disp);
 135:lvgl/src/lv_core/lv_disp.h **** 
 136:lvgl/src/lv_core/lv_disp.h **** /**
 137:lvgl/src/lv_core/lv_disp.h ****  * Clean any CPU cache that is related to the display.
 138:lvgl/src/lv_core/lv_disp.h ****  * @param disp pointer to an display (NULL to use the default display)
 139:lvgl/src/lv_core/lv_disp.h ****  */
 140:lvgl/src/lv_core/lv_disp.h **** void lv_disp_clean_dcache(lv_disp_t * disp);
 141:lvgl/src/lv_core/lv_disp.h **** 
 142:lvgl/src/lv_core/lv_disp.h **** /**
 143:lvgl/src/lv_core/lv_disp.h ****  * Get a pointer to the screen refresher task to
 144:lvgl/src/lv_core/lv_disp.h ****  * modify its parameters with `lv_task_...` functions.
 145:lvgl/src/lv_core/lv_disp.h ****  * @param disp pointer to a display
 146:lvgl/src/lv_core/lv_disp.h ****  * @return pointer to the display refresher task. (NULL on error)
 147:lvgl/src/lv_core/lv_disp.h ****  */
 148:lvgl/src/lv_core/lv_disp.h **** lv_task_t * _lv_disp_get_refr_task(lv_disp_t * disp);
 149:lvgl/src/lv_core/lv_disp.h **** 
 150:lvgl/src/lv_core/lv_disp.h **** /*------------------------------------------------
 151:lvgl/src/lv_core/lv_disp.h ****  * To improve backward compatibility
 152:lvgl/src/lv_core/lv_disp.h ****  * Recommended only if you have one display
 153:lvgl/src/lv_core/lv_disp.h ****  *------------------------------------------------*/
 154:lvgl/src/lv_core/lv_disp.h **** 
 155:lvgl/src/lv_core/lv_disp.h **** /**
 156:lvgl/src/lv_core/lv_disp.h ****  * Get the active screen of the default display
 157:lvgl/src/lv_core/lv_disp.h ****  * @return pointer to the active screen
 158:lvgl/src/lv_core/lv_disp.h ****  */
 159:lvgl/src/lv_core/lv_disp.h **** static inline lv_obj_t * lv_scr_act(void)
ARM GAS  C:\Users\strap\AppData\Local\Temp\cci64Z2T.s 			page 55


 160:lvgl/src/lv_core/lv_disp.h **** {
 161:lvgl/src/lv_core/lv_disp.h ****     return lv_disp_get_scr_act(lv_disp_get_default());
 162:lvgl/src/lv_core/lv_disp.h **** }
 163:lvgl/src/lv_core/lv_disp.h **** 
 164:lvgl/src/lv_core/lv_disp.h **** /**
 165:lvgl/src/lv_core/lv_disp.h ****  * Get the top layer  of the default display
 166:lvgl/src/lv_core/lv_disp.h ****  * @return pointer to the top layer
 167:lvgl/src/lv_core/lv_disp.h ****  */
 168:lvgl/src/lv_core/lv_disp.h **** static inline lv_obj_t * lv_layer_top(void)
 169:lvgl/src/lv_core/lv_disp.h **** {
 170:lvgl/src/lv_core/lv_disp.h ****     return lv_disp_get_layer_top(lv_disp_get_default());
 171:lvgl/src/lv_core/lv_disp.h **** }
 172:lvgl/src/lv_core/lv_disp.h **** 
 173:lvgl/src/lv_core/lv_disp.h **** /**
 174:lvgl/src/lv_core/lv_disp.h ****  * Get the active screen of the default display
 175:lvgl/src/lv_core/lv_disp.h ****  * @return  pointer to the sys layer
 176:lvgl/src/lv_core/lv_disp.h ****  */
 177:lvgl/src/lv_core/lv_disp.h **** static inline lv_obj_t * lv_layer_sys(void)
 178:lvgl/src/lv_core/lv_disp.h **** {
 179:lvgl/src/lv_core/lv_disp.h ****     return lv_disp_get_layer_sys(lv_disp_get_default());
 180:lvgl/src/lv_core/lv_disp.h **** }
 181:lvgl/src/lv_core/lv_disp.h **** 
 182:lvgl/src/lv_core/lv_disp.h **** static inline void lv_scr_load(lv_obj_t * scr)
 183:lvgl/src/lv_core/lv_disp.h **** {
 184:lvgl/src/lv_core/lv_disp.h ****     lv_disp_load_scr(scr);
 1630              		.loc 5 184 0
 1631 00b8 2068     		ldr	r0, [r4]
 1632 00ba FFF7FEFF 		bl	lv_disp_load_scr
 1633              	.LVL231:
 1634              	.L72:
 1635              	.LBE65:
 1636              	.LBE64:
 216:main.c        ****         lv_task_handler();
 1637              		.loc 1 216 0 discriminator 1
 1638 00be 0120     		movs	r0, #1
 1639 00c0 FFF7FEFF 		bl	CyDelay
 1640              	.LVL232:
 217:main.c        ****     }
 1641              		.loc 1 217 0 discriminator 1
 1642 00c4 FFF7FEFF 		bl	lv_task_handler
 1643              	.LVL233:
 1644 00c8 F9E7     		b	.L72
 1645              	.L75:
 1646 00ca 00BF     		.align	2
 1647              	.L74:
 1648 00cc 00000000 		.word	spi_tx_dma_done
 1649 00d0 00000000 		.word	spi_tx_isr_handler
 1650 00d4 00000000 		.word	timer_tick_handler
 1651 00d8 00000000 		.word	.LANCHOR0
 1652 00dc 2C320000 		.word	.LANCHOR2-188
 1653 00e0 2C190000 		.word	.LANCHOR1+2100
 1654 00e4 00000000 		.word	ili9341_flush
 1655 00e8 00000000 		.word	.LANCHOR3
 1656 00ec 00000000 		.word	encoder_read
 1657 00f0 00000000 		.word	app_screen
 1658              		.cfi_endproc
 1659              	.LFE441:
ARM GAS  C:\Users\strap\AppData\Local\Temp\cci64Z2T.s 			page 56


 1660              		.size	main, .-main
 1661              		.global	ili9341_driver
 1662              		.comm	app_screen,4,4
 1663              		.global	qd_old_cnt
 1664              		.global	qd_current_cnt
 1665              		.global	v72_checkbox
 1666              		.global	v48_checkbox
 1667              		.global	v24_checkbox
 1668              		.global	continous_checkbox
 1669              		.global	one_shot_checkbox
 1670              		.comm	parameter_list_ssss,16,4
 1671              		.comm	pulses_spinbox,4,4
 1672              		.comm	pulses_ok_btn,4,4
 1673              		.comm	voltage_ok_btn,4,4
 1674              		.comm	voltage_ddlist,4,4
 1675              		.comm	burst_type_list,4,4
 1676              		.comm	type_param_ok_btn,4,4
 1677              		.comm	custom_spinbox,4,4
 1678              		.comm	one_shoot_cb,4,4
 1679              		.comm	custom_shoot_cb,4,4
 1680              		.comm	continuous_cb,4,4
 1681              		.comm	shoot_btn_label,4,4
 1682              		.comm	shoot_btn,4,4
 1683              		.comm	selected_option,4,4
 1684              		.data
 1685              		.align	2
 1686              		.set	.LANCHOR3,. + 0
 1687              		.type	ili9341_driver, %object
 1688              		.size	ili9341_driver, 24
 1689              	ili9341_driver:
 1690 0000 00000000 		.word	psoc_display_backlight_control
 1691 0004 00000000 		.word	psoc_data_mode
 1692 0008 00000000 		.word	psoc_delay_ms
 1693 000c 00000000 		.space	8
 1693      00000000 
 1694 0014 00000000 		.word	0
 1695              		.section	.rodata.str1.4,"aMS",%progbits,1
 1696              		.align	2
 1697              	.LC0:
 1698 0000 73657474 		.ascii	"setting option\000"
 1698      696E6720 
 1698      6F707469 
 1698      6F6E00
 1699 000f 00       		.space	1
 1700              	.LC1:
 1701 0010 70617261 		.ascii	"parameter list handler\000"
 1701      6D657465 
 1701      72206C69 
 1701      73742068 
 1701      616E646C 
 1702 0027 00       		.space	1
 1703              	.LC2:
 1704 0028 53657474 		.ascii	"Setting voltage\000"
 1704      696E6720 
 1704      766F6C74 
 1704      61676500 
 1705              	.LC3:
ARM GAS  C:\Users\strap\AppData\Local\Temp\cci64Z2T.s 			page 57


 1706 0038 3234560A 		.ascii	"24V\01248V\01272V\000"
 1706      3438560A 
 1706      37325600 
 1707              	.LC4:
 1708 0044 4F4B2100 		.ascii	"OK!\000"
 1709              	.LC5:
 1710 0048 4F6E652D 		.ascii	"One-shoot\012Infinite\012Custom\000"
 1710      73686F6F 
 1710      740A496E 
 1710      66696E69 
 1710      74650A43 
 1711 0062 0000     		.space	2
 1712              	.LC6:
 1713 0064 50617261 		.ascii	"Parameters\000"
 1713      6D657465 
 1713      727300
 1714 006f 00       		.space	1
 1715              	.LC7:
 1716 0070 4F707469 		.ascii	"Options\000"
 1716      6F6E7300 
 1717              	.LC8:
 1718 0078 42757273 		.ascii	"Burst Type.\000"
 1718      74205479 
 1718      70652E00 
 1719              	.LC9:
 1720 0084 50756C73 		.ascii	"Pulses in burst.\000"
 1720      65732069 
 1720      6E206275 
 1720      7273742E 
 1720      00
 1721 0095 000000   		.space	3
 1722              	.LC10:
 1723 0098 50756C73 		.ascii	"Pulse Voltage.\000"
 1723      6520566F 
 1723      6C746167 
 1723      652E00
 1724 00a7 00       		.space	1
 1725              	.LC11:
 1726 00a8 53686F6F 		.ascii	"Shoot!\000"
 1726      742100
 1727              		.bss
 1728              		.align	2
 1729              		.set	.LANCHOR0,. + 0
 1730              		.set	.LANCHOR1,. + 4344
 1731              		.set	.LANCHOR2,. + 13032
 1732              		.type	qd_current_cnt, %object
 1733              		.size	qd_current_cnt, 1
 1734              	qd_current_cnt:
 1735 0000 00       		.space	1
 1736              		.type	qd_old_cnt, %object
 1737              		.size	qd_old_cnt, 1
 1738              	qd_old_cnt:
 1739 0001 00       		.space	1
 1740 0002 0000     		.space	2
 1741              		.type	parameter_list_g, %object
 1742              		.size	parameter_list_g, 4
 1743              	parameter_list_g:
ARM GAS  C:\Users\strap\AppData\Local\Temp\cci64Z2T.s 			page 58


 1744 0004 00000000 		.space	4
 1745              		.type	encoder_indev, %object
 1746              		.size	encoder_indev, 4
 1747              	encoder_indev:
 1748 0008 00000000 		.space	4
 1749              		.type	parameter_list, %object
 1750              		.size	parameter_list, 12
 1751              	parameter_list:
 1752 000c 00000000 		.space	12
 1752      00000000 
 1752      00000000 
 1753              		.type	burst_type_params_g, %object
 1754              		.size	burst_type_params_g, 4
 1755              	burst_type_params_g:
 1756 0018 00000000 		.space	4
 1757              		.type	voltage_params_g, %object
 1758              		.size	voltage_params_g, 4
 1759              	voltage_params_g:
 1760 001c 00000000 		.space	4
 1761              		.type	pulses_params_g, %object
 1762              		.size	pulses_params_g, 4
 1763              	pulses_params_g:
 1764 0020 00000000 		.space	4
 1765              		.type	parameter_list_container, %object
 1766              		.size	parameter_list_container, 4
 1767              	parameter_list_container:
 1768 0024 00000000 		.space	4
 1769              		.type	parameter_options_container, %object
 1770              		.size	parameter_options_container, 4
 1771              	parameter_options_container:
 1772 0028 00000000 		.space	4
 1773              		.type	buf2.12277, %object
 1774              		.size	buf2.12277, 6400
 1775              	buf2.12277:
 1776 002c 00000000 		.space	6400
 1776      00000000 
 1776      00000000 
 1776      00000000 
 1776      00000000 
 1777              		.type	buf1.12276, %object
 1778              		.size	buf1.12276, 6400
 1779              	buf1.12276:
 1780 192c 00000000 		.space	6400
 1780      00000000 
 1780      00000000 
 1780      00000000 
 1780      00000000 
 1781              		.type	disp_buf.12278, %object
 1782              		.size	disp_buf.12278, 36
 1783              	disp_buf.12278:
 1784 322c 00000000 		.space	36
 1784      00000000 
 1784      00000000 
 1784      00000000 
 1784      00000000 
 1785              		.type	v72_checkbox, %object
 1786              		.size	v72_checkbox, 4
ARM GAS  C:\Users\strap\AppData\Local\Temp\cci64Z2T.s 			page 59


 1787              	v72_checkbox:
 1788 3250 00000000 		.space	4
 1789              		.type	v48_checkbox, %object
 1790              		.size	v48_checkbox, 4
 1791              	v48_checkbox:
 1792 3254 00000000 		.space	4
 1793              		.type	v24_checkbox, %object
 1794              		.size	v24_checkbox, 4
 1795              	v24_checkbox:
 1796 3258 00000000 		.space	4
 1797              		.type	continous_checkbox, %object
 1798              		.size	continous_checkbox, 4
 1799              	continous_checkbox:
 1800 325c 00000000 		.space	4
 1801              		.type	one_shot_checkbox, %object
 1802              		.size	one_shot_checkbox, 4
 1803              	one_shot_checkbox:
 1804 3260 00000000 		.space	4
 1805              		.text
 1806              	.Letext0:
 1807              		.file 6 "c:\\program files (x86)\\cypress\\psoc creator\\4.4\\psoc creator\\import\\gnu\\arm\\5.4.
 1808              		.file 7 "c:\\program files (x86)\\cypress\\psoc creator\\4.4\\psoc creator\\import\\gnu\\arm\\5.4.
 1809              		.file 8 "Generated_Source\\PSoC5/cytypes.h"
 1810              		.file 9 "c:\\program files (x86)\\cypress\\psoc creator\\4.4\\psoc creator\\import\\gnu\\arm\\5.4.
 1811              		.file 10 "lvgl/src/lv_misc/../../../lv_conf.h"
 1812              		.file 11 "lvgl/src/lv_misc/lv_types.h"
 1813              		.file 12 "lvgl/src/lv_misc/lv_ll.h"
 1814              		.file 13 "lvgl/src/lv_misc/lv_task.h"
 1815              		.file 14 "lvgl/src/lv_hal/../lv_misc/lv_color.h"
 1816              		.file 15 "lvgl/src/lv_hal/../lv_misc/lv_area.h"
 1817              		.file 16 "lvgl/src/lv_hal/lv_hal_disp.h"
 1818              		.file 17 "lvgl/src/lv_core/lv_obj.h"
 1819              		.file 18 "lvgl/src/lv_hal/lv_hal_indev.h"
 1820              		.file 19 "lvgl/src/lv_core/lv_group.h"
 1821              		.file 20 "lvgl/src/lv_core/lv_style.h"
 1822              		.file 21 "lvgl/src/lv_core/../lv_draw/../lv_misc/lv_bidi.h"
 1823              		.file 22 "lvgl/src/lv_widgets/lv_btn.h"
 1824              		.file 23 "lvgl/src/lv_widgets/lv_label.h"
 1825              		.file 24 "lvgl/src/lv_widgets/lv_page.h"
 1826              		.file 25 "lvgl/src/lv_widgets/lv_textarea.h"
 1827              		.file 26 "./driver_generic.h"
 1828              		.file 27 "spi_dma.h"
 1829              		.file 28 "Generated_Source\\PSoC5/core_cm3.h"
 1830              		.file 29 "Generated_Source\\PSoC5/QuadDec.h"
 1831              		.file 30 "Generated_Source\\PSoC5/QuadDec_SW.h"
 1832              		.file 31 "lvgl/src/lv_widgets/lv_dropdown.h"
 1833              		.file 32 "Generated_Source\\PSoC5/UART.h"
 1834              		.file 33 "lvgl/src/lv_widgets/lv_spinbox.h"
 1835              		.file 34 "lvgl/src/lv_core/lv_indev.h"
 1836              		.file 35 "lvgl/src/lv_hal/lv_hal_tick.h"
 1837              		.file 36 "Generated_Source\\PSoC5/SPI.h"
 1838              		.file 37 "Generated_Source\\PSoC5/SS.h"
 1839              		.file 38 ".\\ili9341/disp_spi.h"
 1840              		.file 39 "Generated_Source\\PSoC5/isr_SPI_TX_DMA.h"
 1841              		.file 40 "Generated_Source\\PSoC5/isr_SPI_TX.h"
 1842              		.file 41 "Generated_Source\\PSoC5/CyLib.h"
 1843              		.file 42 ".\\ili9341/ili9341.h"
ARM GAS  C:\Users\strap\AppData\Local\Temp\cci64Z2T.s 			page 60

