ARM GAS  C:\Users\strap\AppData\Local\Temp\cci64Z2T.s 			page 1


   1              		.syntax unified
   2              		.cpu cortex-m3
   3              		.fpu softvfp
   4              		.eabi_attribute 20, 1
   5              		.eabi_attribute 21, 1
   6              		.eabi_attribute 23, 3
   7              		.eabi_attribute 24, 1
   8              		.eabi_attribute 25, 1
   9              		.eabi_attribute 26, 1
  10              		.eabi_attribute 30, 1
  11              		.eabi_attribute 34, 1
  12              		.eabi_attribute 18, 4
  13              		.thumb
  14              		.syntax unified
  15              		.file	"main.c"
  16              		.text
  17              	.Ltext0:
  18              		.cfi_sections	.debug_frame
  19              		.section	.text.voltage_ddlist_handler,"ax",%progbits
  20              		.align	2
  21              		.thumb
  22              		.thumb_func
  23              		.type	voltage_ddlist_handler, %function
  24              	voltage_ddlist_handler:
  25              	.LFB456:
  26              		.file 1 "main.c"
   1:main.c        **** #include "project.h"
   2:main.c        **** 
   3:main.c        **** #include <stdbool.h>
   4:main.c        **** #include <stdio.h>
   5:main.c        **** #include <string.h>
   6:main.c        **** 
   7:main.c        **** #include "lvgl/lvgl.h"
   8:main.c        **** #include "ili9341.h"
   9:main.c        **** 
  10:main.c        **** #include "spi_dma.h"
  11:main.c        **** #include "disp_spi.h"
  12:main.c        **** 
  13:main.c        **** #include "driver_generic.h"
  14:main.c        **** #include "psoc_platform.h"
  15:main.c        **** 
  16:main.c        **** #define NUM_ELEMENTS(x) (sizeof x / sizeof *x)
  17:main.c        **** 
  18:main.c        **** #define DISPLAY_BUFFER_SIZE (LV_HOR_RES_MAX * 10)
  19:main.c        **** 
  20:main.c        **** enum { FEED_FORM_CMD = 0x0C };
  21:main.c        **** 
  22:main.c        **** /* DMA Done handler */
  23:main.c        **** CY_ISR_PROTO(spi_tx_dma_done);
  24:main.c        **** /* SPI Tx Done handler */
  25:main.c        **** CY_ISR_PROTO(spi_tx_isr_handler);
  26:main.c        **** 
  27:main.c        **** void timer_tick_handler(void);
  28:main.c        **** 
  29:main.c        **** /* LVGL function declaration */
  30:main.c        **** static void create_application_screen(lv_obj_t *parent);
  31:main.c        **** static int16_t get_encoder_diff(void);
ARM GAS  C:\Users\strap\AppData\Local\Temp\cci64Z2T.s 			page 2


  32:main.c        **** static bool encoder_read(lv_indev_drv_t *drv, lv_indev_data_t *data);
  33:main.c        **** 
  34:main.c        **** /* MAIN APP */
  35:main.c        **** lv_obj_t *selected_option;
  36:main.c        **** 
  37:main.c        **** LV_EVENT_CB_DECLARE(button_callback);
  38:main.c        **** LV_EVENT_CB_DECLARE(parameter_list_container_event_handler);
  39:main.c        **** 
  40:main.c        **** static lv_obj_t *parameter_list_container;
  41:main.c        **** static lv_obj_t *parameter_options_container;
  42:main.c        **** 
  43:main.c        **** enum {
  44:main.c        ****     PARAMETER_LIST_BURST_TYPE   = 0,
  45:main.c        ****     PARAMETER_LIST_BURST_PULSES,
  46:main.c        ****     PARAMETER_LIST_PULSE_VOLTAGE,
  47:main.c        ****     PARAMETER_LIST_COUNT,
  48:main.c        **** };
  49:main.c        **** 
  50:main.c        **** static lv_obj_t *parameter_list[PARAMETER_LIST_COUNT];
  51:main.c        **** 
  52:main.c        **** lv_obj_t *shoot_btn;
  53:main.c        **** lv_obj_t *shoot_btn_label;
  54:main.c        **** 
  55:main.c        **** /* Widgets on Type option */
  56:main.c        **** lv_obj_t *continuous_cb;
  57:main.c        **** lv_obj_t *custom_shoot_cb;
  58:main.c        **** lv_obj_t *one_shoot_cb;
  59:main.c        **** lv_obj_t *custom_spinbox;
  60:main.c        **** lv_obj_t *type_param_ok_btn;
  61:main.c        **** 
  62:main.c        **** lv_obj_t *burst_type_list;
  63:main.c        **** 
  64:main.c        **** lv_obj_t *voltage_ddlist;
  65:main.c        **** lv_obj_t *voltage_ok_btn;
  66:main.c        **** lv_obj_t *pulses_ok_btn;
  67:main.c        **** 
  68:main.c        **** LV_EVENT_CB_DECLARE(burst_type_list_handler);
  69:main.c        **** LV_EVENT_CB_DECLARE(type_param_ok_callback);
  70:main.c        **** 
  71:main.c        **** lv_obj_t *pulses_spinbox;
  72:main.c        **** 
  73:main.c        **** static void create_type_container_widgets(lv_obj_t *parent);
  74:main.c        **** static void create_voltage_container_widgets(lv_obj_t *parent);
  75:main.c        **** static void create_pulses_container_widgets(lv_obj_t *parent);
  76:main.c        **** 
  77:main.c        **** struct parameter_list_s {
  78:main.c        ****     lv_obj_t *container;
  79:main.c        ****     lv_obj_t *parameter[PARAMETER_LIST_COUNT];
  80:main.c        **** };
  81:main.c        **** 
  82:main.c        **** struct parameter_list_s parameter_list_ssss;
  83:main.c        **** 
  84:main.c        **** lv_obj_t *one_shot_checkbox = NULL;
  85:main.c        **** lv_obj_t *continous_checkbox = NULL;
  86:main.c        **** 
  87:main.c        **** lv_obj_t *v24_checkbox = NULL;
  88:main.c        **** lv_obj_t *v48_checkbox = NULL;
ARM GAS  C:\Users\strap\AppData\Local\Temp\cci64Z2T.s 			page 3


  89:main.c        **** lv_obj_t *v72_checkbox = NULL;
  90:main.c        **** /* END OF MAIN APP */
  91:main.c        **** uint8_t qd_current_cnt = 0;
  92:main.c        **** uint8_t qd_old_cnt = 0;
  93:main.c        **** static const uint8_t QUAD_DEC_SW_PRESSED = 0;
  94:main.c        **** 
  95:main.c        **** /* Groups */
  96:main.c        **** static lv_group_t *parameter_list_g;
  97:main.c        **** static lv_group_t *burst_type_params_g;
  98:main.c        **** static lv_group_t *voltage_params_g;
  99:main.c        **** static lv_group_t *pulses_params_g;
 100:main.c        **** 
 101:main.c        **** /* Input device */
 102:main.c        **** static lv_indev_t* encoder_indev;
 103:main.c        **** 
 104:main.c        **** lv_obj_t *app_screen;
 105:main.c        **** 
 106:main.c        **** /* This struct is passed as lv_disp_drv_t.user_data, you should "register"
 107:main.c        ****  * your platform specific functions in here. */
 108:main.c        **** driver_generic_t ili9341_driver = {
 109:main.c        ****     .display_backlight_control  =   psoc_display_backlight_control,
 110:main.c        ****     .data_mode                  =   psoc_data_mode,
 111:main.c        ****     .delay_ms                   =   psoc_delay_ms,
 112:main.c        ****     .hw_reset                   =   NULL
 113:main.c        **** };
 114:main.c        **** 
 115:main.c        **** int main(void)
 116:main.c        **** {
 117:main.c        ****     /* Register interrupt handlers */
 118:main.c        ****     isr_SPI_TX_DMA_StartEx(spi_tx_dma_done);
 119:main.c        ****     isr_SPI_TX_StartEx(spi_tx_isr_handler);
 120:main.c        ****     
 121:main.c        ****     /* Start peripherals */
 122:main.c        ****     QuadDec_Start();
 123:main.c        ****     UART_Start();
 124:main.c        ****     SPI_Start();
 125:main.c        ****     
 126:main.c        ****     /* Initialize DMA Channel and configure it */
 127:main.c        ****     spi_initialize_dma();
 128:main.c        ****     
 129:main.c        ****     /* Setup SysTick timer for 1ms periodic interrupt */
 130:main.c        ****     CySysTickStart();
 131:main.c        ****     CySysTickSetCallback(0, timer_tick_handler);
 132:main.c        ****     CySysTickStop();
 133:main.c        ****     CySysTickClear();
 134:main.c        ****     
 135:main.c        ****     /* Enable interrupts */
 136:main.c        ****     CyGlobalIntEnable;
 137:main.c        ****     
 138:main.c        ****     /* Initialize LVGL */
 139:main.c        ****     lv_init();
 140:main.c        ****     
 141:main.c        ****     /* LVGL color buffers */
 142:main.c        ****     static lv_color_t buf1[DISPLAY_BUFFER_SIZE];
 143:main.c        ****     static lv_color_t buf2[DISPLAY_BUFFER_SIZE];
 144:main.c        ****     
 145:main.c        ****     /* Configure working buffer */
ARM GAS  C:\Users\strap\AppData\Local\Temp\cci64Z2T.s 			page 4


 146:main.c        ****     static lv_disp_buf_t disp_buf;
 147:main.c        ****     lv_disp_buf_init(&disp_buf, buf1, buf2, DISPLAY_BUFFER_SIZE);
 148:main.c        ****     
 149:main.c        ****     /* Setup display driver */
 150:main.c        ****     lv_disp_drv_t disp_drv;
 151:main.c        ****     lv_disp_drv_init(&disp_drv);
 152:main.c        ****     disp_drv.flush_cb = ili9341_flush;
 153:main.c        ****     disp_drv.buffer = &disp_buf;
 154:main.c        ****     
 155:main.c        ****     disp_drv.user_data = &ili9341_driver;
 156:main.c        ****     
 157:main.c        ****     lv_disp_drv_register(&disp_drv);
 158:main.c        ****     
 159:main.c        ****     /* Setup indev driver */
 160:main.c        ****     lv_indev_drv_t indev_drv;
 161:main.c        ****     lv_indev_drv_init(&indev_drv);
 162:main.c        ****     indev_drv.type = LV_INDEV_TYPE_ENCODER;
 163:main.c        ****     indev_drv.read_cb = encoder_read;
 164:main.c        ****     encoder_indev = lv_indev_drv_register(&indev_drv);
 165:main.c        ****     
 166:main.c        ****     /* Groups and input devices */
 167:main.c        ****     pulses_params_g = lv_group_create();
 168:main.c        ****     voltage_params_g = lv_group_create();
 169:main.c        ****     parameter_list_g = lv_group_create();
 170:main.c        ****     burst_type_params_g = lv_group_create();
 171:main.c        ****     
 172:main.c        ****     lv_indev_set_group(encoder_indev, parameter_list_g);
 173:main.c        ****     
 174:main.c        ****     /* Initialize ILI9341 display */
 175:main.c        ****     ili9341_init(&disp_drv, NULL);
 176:main.c        ****     
 177:main.c        ****     /* Start SysTick */
 178:main.c        ****     CySysTickStart();
 179:main.c        **** 
 180:main.c        ****     /* LVGL application */
 181:main.c        **** 
 182:main.c        ****     /* Main screen */
 183:main.c        ****     app_screen = lv_obj_create(NULL, NULL);
 184:main.c        ****     create_application_screen(app_screen);
 185:main.c        ****     lv_scr_load(app_screen);
 186:main.c        **** 
 187:main.c        **** #if 0
 188:main.c        ****     /* First screen */
 189:main.c        ****     lv_obj_t *scr = lv_disp_get_scr_act(NULL);
 190:main.c        ****     calibration_title_lbl = lv_label_create(scr, NULL);
 191:main.c        ****     lv_label_set_text(calibration_title_lbl, "Touch screen calibration");
 192:main.c        ****     lv_obj_align(calibration_title_lbl, NULL, LV_ALIGN_CENTER, 0, -50);
 193:main.c        ****     
 194:main.c        ****     calibration_timeout_lbl = lv_label_create(scr, NULL);
 195:main.c        ****     lv_label_set_text_fmt(calibration_timeout_lbl, calibration_timeout_text_fmt, touch_calibration_
 196:main.c        ****     lv_obj_align(calibration_timeout_lbl, NULL, LV_ALIGN_CENTER, 0, -20);
 197:main.c        ****     
 198:main.c        ****     /* TODO: Add callback to load main application (screen) */
 199:main.c        ****     skip_calibration_btn = lv_btn_create(scr, NULL);
 200:main.c        ****     lv_obj_align(skip_calibration_btn, NULL, LV_ALIGN_CENTER, 0, 50);
 201:main.c        ****     lv_obj_set_event_cb(skip_calibration_btn, skip_calibration_cb);
 202:main.c        ****     
ARM GAS  C:\Users\strap\AppData\Local\Temp\cci64Z2T.s 			page 5


 203:main.c        ****     lv_group_add_obj(g, skip_calibration_btn);
 204:main.c        ****     lv_group_focus_obj(skip_calibration_btn);
 205:main.c        ****     
 206:main.c        ****     skip_calibration_lbl = lv_label_create(skip_calibration_btn, NULL);
 207:main.c        ****     lv_label_set_text(skip_calibration_lbl, "Skip calibration");
 208:main.c        ****     
 209:main.c        ****     /* Create task */
 210:main.c        ****     timeout_task = lv_task_create(touch_calibration_timeout_task,
 211:main.c        ****         TOUCH_CALIBRATION_TASK_PERIOD_MS, LV_TASK_PRIO_HIGH, NULL);
 212:main.c        ****     lv_task_set_repeat_count(timeout_task, 6); /* Todo: replace magic number */
 213:main.c        **** #endif
 214:main.c        **** 
 215:main.c        ****     while (1) {
 216:main.c        ****         CyDelay(1);
 217:main.c        ****         lv_task_handler();
 218:main.c        ****     }
 219:main.c        **** }
 220:main.c        **** 
 221:main.c        **** void timer_tick_handler(void)
 222:main.c        **** {
 223:main.c        ****     lv_tick_inc(1);
 224:main.c        **** }
 225:main.c        **** 
 226:main.c        **** /* NOTE: The DMA done interrupt is being triggered when the DMA is done
 227:main.c        ****  * transferring data into the SPI TX FIFO, this means it's gets triggered
 228:main.c        ****  * even when the SPI TX FIFO still holds the last 4 byte of data.
 229:main.c        ****  *
 230:main.c        ****  * To know when spi is actually done transfering the data we can enable
 231:main.c        ****  * the SPI_INT_ON_SPI_DONE (and SPI_INT_ON_TX_NOT_FULL). */
 232:main.c        **** void spi_tx_dma_done(void)
 233:main.c        **** {    
 234:main.c        ****     spi_xfer_set_status(SPI_XFER_DONE);
 235:main.c        ****     
 236:main.c        ****     SPI_SetTxInterruptMode((0u << SPI_STS_TX_FIFO_NOT_FULL_SHIFT) | (1u << SPI_STS_SPI_DONE_SHIFT))
 237:main.c        **** }
 238:main.c        **** 
 239:main.c        **** /* SPI interrupt handler */
 240:main.c        **** void spi_tx_isr_handler(void)
 241:main.c        **** {
 242:main.c        ****     /* Clear the interrupt source flag */
 243:main.c        ****     volatile uint8_t spi_tx_sts = SPI_ReadTxStatus();
 244:main.c        ****     
 245:main.c        ****     /* If the DMA is done and we get the SPI_STS_SPI_DONE interrupt then
 246:main.c        ****      * the SPI FIFO is empty. */
 247:main.c        ****     if ((SPI_XFER_DONE == spi_xfer_get_status()) && (SPI_STS_SPI_DONE & spi_tx_sts)) {
 248:main.c        ****         
 249:main.c        ****         SS_Write(1);
 250:main.c        ****         
 251:main.c        ****         /* Data transfer is done, we can disable SPI interrupts */
 252:main.c        ****         SPI_SetTxInterruptMode(0);
 253:main.c        ****         spi_xfer_on_completion();
 254:main.c        ****         
 255:main.c        ****         /* Let LVGL the flush has been finished */
 256:main.c        ****         display_colors_sent_notification();
 257:main.c        ****     }
 258:main.c        **** }
 259:main.c        **** 
ARM GAS  C:\Users\strap\AppData\Local\Temp\cci64Z2T.s 			page 6


 260:main.c        **** static int16_t get_encoder_diff(void)
 261:main.c        **** {
 262:main.c        ****     int16_t diff = 0;
 263:main.c        ****     
 264:main.c        ****     qd_current_cnt = QuadDec_GetCounter();
 265:main.c        ****     diff = qd_current_cnt - qd_old_cnt;
 266:main.c        ****     qd_old_cnt = qd_current_cnt;
 267:main.c        **** 
 268:main.c        ****     return diff;
 269:main.c        **** }
 270:main.c        **** 
 271:main.c        **** static bool encoder_read(lv_indev_drv_t *drv, lv_indev_data_t *data)
 272:main.c        **** {
 273:main.c        ****     (void) drv;
 274:main.c        ****     
 275:main.c        ****     /* Number of steps since the previous read */
 276:main.c        ****     data->enc_diff = get_encoder_diff();
 277:main.c        ****     
 278:main.c        ****     /* Handle quadrature encoder button */
 279:main.c        ****     if(QUAD_DEC_SW_PRESSED == QuadDec_SW_Read()){
 280:main.c        ****         data->state = LV_INDEV_STATE_PR;
 281:main.c        ****     } else{
 282:main.c        ****         data->state = LV_INDEV_STATE_REL;
 283:main.c        ****     }
 284:main.c        **** 
 285:main.c        ****     return false;
 286:main.c        **** }
 287:main.c        **** 
 288:main.c        **** static void create_application_screen(lv_obj_t *parent)
 289:main.c        **** {
 290:main.c        **** #if 0
 291:main.c        ****     lv_obj_t *tabview = lv_tabview_create(app_screen, NULL);
 292:main.c        **** 
 293:main.c        ****     lv_obj_t *tab1 = lv_tabview_add_tab(tabview, "Configuration");
 294:main.c        ****     lv_obj_t *tab2 = lv_tabview_add_tab(tabview, "About");
 295:main.c        ****     
 296:main.c        ****     /* Calculate containers size */
 297:main.c        ****     lv_tabview_ext_t *tabview_ext = lv_obj_get_ext_attr(tabview);
 298:main.c        ****     
 299:main.c        ****     lv_coord_t tb_content_height = lv_obj_get_height_fit(tabview_ext->content);
 300:main.c        **** #endif
 301:main.c        **** 
 302:main.c        ****     lv_coord_t tb_content_height = lv_disp_get_ver_res(NULL);
 303:main.c        ****     lv_coord_t container_height = tb_content_height - 50;
 304:main.c        **** 
 305:main.c        ****     lv_coord_t tb_content_width = lv_disp_get_hor_res(NULL);
 306:main.c        ****     lv_coord_t container_width = (tb_content_width / 2) - 20;
 307:main.c        **** 
 308:main.c        ****     /* Add containers to tab1 */
 309:main.c        ****     parameter_list_container = lv_cont_create(parent, NULL);
 310:main.c        ****     lv_obj_set_size(parameter_list_container, container_width + 15, container_height);
 311:main.c        ****     lv_obj_align(parameter_list_container, NULL, LV_ALIGN_IN_LEFT_MID, 15, 0);
 312:main.c        ****     lv_cont_set_layout(parameter_list_container, LV_LAYOUT_COLUMN_LEFT);
 313:main.c        ****     
 314:main.c        ****     lv_obj_t *parameter_list_container_lbl = lv_label_create(parent, NULL);
 315:main.c        ****     lv_label_set_text(parameter_list_container_lbl, "Parameters");
 316:main.c        ****     lv_obj_align(parameter_list_container_lbl, parameter_list_container, LV_ALIGN_OUT_TOP_LEFT, 0, 
ARM GAS  C:\Users\strap\AppData\Local\Temp\cci64Z2T.s 			page 7


 317:main.c        **** 
 318:main.c        ****     parameter_options_container = lv_cont_create(parent, NULL);
 319:main.c        ****     lv_obj_set_size(parameter_options_container, container_width - 15, container_height);
 320:main.c        ****     lv_obj_align(parameter_options_container, NULL, LV_ALIGN_IN_RIGHT_MID, -15, 0);
 321:main.c        ****     /* TODO: Update layout */
 322:main.c        ****     lv_cont_set_layout(parameter_options_container, LV_LAYOUT_COLUMN_MID);
 323:main.c        ****     
 324:main.c        ****     lv_obj_t *parameter_options_container_lbl = lv_label_create(parent, NULL);
 325:main.c        ****     lv_label_set_text(parameter_options_container_lbl, "Options");
 326:main.c        ****     lv_obj_align(parameter_options_container_lbl, parameter_options_container, LV_ALIGN_OUT_TOP_LEF
 327:main.c        ****     
 328:main.c        ****     /* Add widgets to parameter_list_container */
 329:main.c        **** 
 330:main.c        ****     /* Container title */
 331:main.c        ****     parameter_list[PARAMETER_LIST_BURST_TYPE] = lv_checkbox_create(parameter_list_container, NULL);
 332:main.c        ****     lv_checkbox_set_text(parameter_list[PARAMETER_LIST_BURST_TYPE], "Burst Type.");
 333:main.c        ****     lv_obj_set_event_cb(parameter_list[PARAMETER_LIST_BURST_TYPE], parameter_list_container_event_h
 334:main.c        **** 
 335:main.c        ****     parameter_list[PARAMETER_LIST_BURST_PULSES] = lv_checkbox_create(parameter_list_container, NULL
 336:main.c        ****     lv_checkbox_set_text(parameter_list[PARAMETER_LIST_BURST_PULSES], "Pulses in burst.");
 337:main.c        ****     lv_obj_set_event_cb(parameter_list[PARAMETER_LIST_BURST_PULSES], parameter_list_container_event
 338:main.c        **** 
 339:main.c        ****     parameter_list[PARAMETER_LIST_PULSE_VOLTAGE] = lv_checkbox_create(parameter_list_container, NUL
 340:main.c        ****     lv_checkbox_set_text(parameter_list[PARAMETER_LIST_PULSE_VOLTAGE], "Pulse Voltage.");
 341:main.c        ****     lv_obj_set_event_cb(parameter_list[PARAMETER_LIST_PULSE_VOLTAGE], parameter_list_container_even
 342:main.c        ****     
 343:main.c        ****     shoot_btn = lv_btn_create(parameter_list_container, NULL);
 344:main.c        ****     lv_btn_set_fit2(shoot_btn, LV_FIT_PARENT, LV_FIT_NONE);
 345:main.c        ****     lv_obj_set_style_local_value_str(shoot_btn, LV_BTN_PART_MAIN, LV_STATE_DEFAULT, "Shoot!");
 346:main.c        ****     
 347:main.c        ****     lv_obj_set_event_cb(shoot_btn, button_callback);
 348:main.c        **** 
 349:main.c        ****     /* Add objects to the group */
 350:main.c        ****     lv_group_add_obj(parameter_list_g, parameter_list[PARAMETER_LIST_BURST_TYPE]);
 351:main.c        ****     lv_group_add_obj(parameter_list_g, parameter_list[PARAMETER_LIST_BURST_PULSES]);
 352:main.c        ****     lv_group_add_obj(parameter_list_g, parameter_list[PARAMETER_LIST_PULSE_VOLTAGE]);
 353:main.c        ****     lv_group_add_obj(parameter_list_g, shoot_btn);
 354:main.c        ****     
 355:main.c        ****     /* Focus on the top checkbox */
 356:main.c        ****     lv_group_focus_obj(parameter_list[PARAMETER_LIST_BURST_TYPE]);
 357:main.c        ****     
 358:main.c        ****     /* Create widgets for burst type option */
 359:main.c        ****     create_type_container_widgets(parameter_options_container);
 360:main.c        ****     /* Create widgets for voltage option */
 361:main.c        ****     create_voltage_container_widgets(parameter_options_container);
 362:main.c        ****     
 363:main.c        ****     create_pulses_container_widgets(parameter_options_container);
 364:main.c        **** }
 365:main.c        **** 
 366:main.c        **** /* NOTE: When any of the widgets on the list container is clicked the parameter container
 367:main.c        ****  * needs to be cleared and load the necessary widgets.
 368:main.c        ****  * 
 369:main.c        ****  * TODO: Use lv_obj_clean(parameter_options_container) to clean the container. */
 370:main.c        **** static void parameter_list_container_event_handler(lv_obj_t * obj, lv_event_t e)
 371:main.c        **** {
 372:main.c        ****     UART_PutString("parameter list handler");
 373:main.c        ****     UART_PutHexByte((uint8_t) e);
ARM GAS  C:\Users\strap\AppData\Local\Temp\cci64Z2T.s 			page 8


 374:main.c        ****     UART_PutCRLF();
 375:main.c        ****     
 376:main.c        ****     if(e == LV_EVENT_VALUE_CHANGED) {
 377:main.c        ****         if (parameter_list[PARAMETER_LIST_BURST_TYPE] == obj && lv_checkbox_is_checked(obj)) {
 378:main.c        ****             lv_checkbox_set_checked(parameter_list[PARAMETER_LIST_BURST_PULSES], false);
 379:main.c        ****             lv_checkbox_set_checked(parameter_list[PARAMETER_LIST_PULSE_VOLTAGE], false);
 380:main.c        ****             
 381:main.c        ****             lv_indev_set_group(encoder_indev, burst_type_params_g);
 382:main.c        ****             
 383:main.c        ****             /* Enable widgets on parameter container */
 384:main.c        ****             lv_obj_set_hidden(burst_type_list, false);
 385:main.c        ****             lv_obj_set_hidden(custom_spinbox, false);
 386:main.c        ****             lv_obj_set_hidden(type_param_ok_btn, false);
 387:main.c        ****             
 388:main.c        ****             lv_group_focus_obj(burst_type_list);
 389:main.c        ****             
 390:main.c        ****         } else if (parameter_list[PARAMETER_LIST_PULSE_VOLTAGE] == obj && lv_checkbox_is_checked(ob
 391:main.c        ****             lv_checkbox_set_checked(parameter_list[PARAMETER_LIST_BURST_TYPE], false);
 392:main.c        ****             lv_checkbox_set_checked(parameter_list[PARAMETER_LIST_BURST_PULSES], false);
 393:main.c        ****             
 394:main.c        ****             UART_PutString("Setting voltage");
 395:main.c        ****             
 396:main.c        ****             lv_indev_set_group(encoder_indev, voltage_params_g);
 397:main.c        ****             
 398:main.c        ****             /* Enable widgets on parameter container */
 399:main.c        ****             lv_obj_set_hidden(voltage_ddlist, false);
 400:main.c        ****             lv_obj_set_hidden(voltage_ok_btn, false);
 401:main.c        ****             
 402:main.c        ****             lv_group_focus_obj(voltage_ddlist);
 403:main.c        ****             
 404:main.c        ****         } else if (parameter_list[PARAMETER_LIST_BURST_PULSES] == obj && lv_checkbox_is_checked(obj
 405:main.c        ****             lv_checkbox_set_checked(parameter_list[PARAMETER_LIST_BURST_TYPE], false);
 406:main.c        ****             lv_checkbox_set_checked(parameter_list[PARAMETER_LIST_PULSE_VOLTAGE], false);
 407:main.c        ****             
 408:main.c        ****             lv_indev_set_group(encoder_indev, pulses_params_g);
 409:main.c        ****             
 410:main.c        ****             lv_obj_set_hidden(pulses_spinbox, false);
 411:main.c        ****             lv_obj_set_hidden(pulses_ok_btn, false);
 412:main.c        ****             
 413:main.c        ****             lv_group_focus_obj(pulses_spinbox);
 414:main.c        ****         }
 415:main.c        ****     }
 416:main.c        **** }
 417:main.c        **** 
 418:main.c        **** LV_EVENT_CB_DECLARE(button_callback)
 419:main.c        **** {
 420:main.c        ****     LV_UNUSED(obj);
 421:main.c        ****     
 422:main.c        ****     if ((LV_EVENT_CLICKED == e) || (LV_EVENT_LONG_PRESSED_REPEAT == e)) {
 423:main.c        ****         /* TODO: Get the selected option on the dropdown list */
 424:main.c        ****         uint16_t selected = lv_dropdown_get_selected(burst_type_list);
 425:main.c        ****         UART_PutHexInt(selected);
 426:main.c        ****         
 427:main.c        ****         /* Get the pulse burst parameters and load them into the hardware */
 428:main.c        ****         int32_t spinbox_value = lv_spinbox_get_value(custom_spinbox);
 429:main.c        ****         UART_PutHexInt((uint16_t) spinbox_value & 0xFFFF);
 430:main.c        ****         
ARM GAS  C:\Users\strap\AppData\Local\Temp\cci64Z2T.s 			page 9


 431:main.c        ****         /* Shoot! */
 432:main.c        ****     }
 433:main.c        **** }
 434:main.c        **** 
 435:main.c        **** LV_EVENT_CB_DECLARE(custom_shoot_cb_handler)
 436:main.c        **** {
 437:main.c        ****     LV_UNUSED(obj);
 438:main.c        ****     
 439:main.c        ****     if (e == LV_EVENT_LONG_PRESSED) {
 440:main.c        ****         UART_PutString("Long press\r\n");
 441:main.c        ****     }
 442:main.c        ****     
 443:main.c        ****     if (e == LV_EVENT_VALUE_CHANGED) {
 444:main.c        ****         lv_obj_set_hidden(custom_spinbox, false);
 445:main.c        ****         
 446:main.c        ****         lv_group_add_obj(burst_type_params_g, custom_spinbox);
 447:main.c        ****         
 448:main.c        ****         /* Focus the spinbox and enter in edit mode */
 449:main.c        ****         lv_group_focus_obj(custom_spinbox);
 450:main.c        ****         /* BUG: Spinbox doesn't enter edit mode */
 451:main.c        ****         lv_group_set_editing(burst_type_params_g, true);
 452:main.c        ****     }    
 453:main.c        **** }
 454:main.c        **** 
 455:main.c        **** LV_EVENT_CB_DECLARE(type_param_ok_callback)
 456:main.c        **** {
 457:main.c        ****     LV_UNUSED(obj);
 458:main.c        ****     
 459:main.c        ****     if (e == LV_EVENT_PRESSED) {
 460:main.c        ****         /* Hide Burst type widgets and go to the parameter list */
 461:main.c        ****         lv_obj_set_hidden(custom_spinbox, true);
 462:main.c        ****         lv_obj_set_hidden(burst_type_list, true);
 463:main.c        ****         lv_obj_set_hidden(type_param_ok_btn, true);
 464:main.c        ****         
 465:main.c        ****         lv_indev_set_group(encoder_indev, parameter_list_g);
 466:main.c        ****         UART_PutString("setting option");
 467:main.c        ****     }
 468:main.c        **** }
 469:main.c        **** 
 470:main.c        **** LV_EVENT_CB_DECLARE(custom_spinbox_handler)
 471:main.c        **** {
 472:main.c        ****     LV_UNUSED(obj);
 473:main.c        ****     
 474:main.c        ****     /* TODO: Check if the Custom option on the ddlist is selected */
 475:main.c        ****     if ((LV_EVENT_FOCUSED == e)) {
 476:main.c        ****         UART_PutString("Spinbox focused");
 477:main.c        ****         lv_textarea_set_cursor_hidden(custom_spinbox, false);
 478:main.c        ****     } else if ((LV_EVENT_DEFOCUSED == e)) {
 479:main.c        ****         UART_PutString("Spinbox defocused");
 480:main.c        ****         lv_textarea_set_cursor_hidden(custom_spinbox, true);
 481:main.c        ****     } else {
 482:main.c        ****         
 483:main.c        ****     }
 484:main.c        **** }
 485:main.c        **** 
 486:main.c        **** static void create_type_container_widgets(lv_obj_t *parent)
 487:main.c        **** {    
ARM GAS  C:\Users\strap\AppData\Local\Temp\cci64Z2T.s 			page 10


 488:main.c        ****     /* Widgets creation */
 489:main.c        ****     burst_type_list = lv_dropdown_create(parent, NULL);
 490:main.c        ****     custom_spinbox = lv_spinbox_create(parent, NULL);
 491:main.c        ****     type_param_ok_btn = lv_btn_create(parent, NULL);
 492:main.c        ****     
 493:main.c        ****     lv_dropdown_set_options(burst_type_list, "One-shoot\nInfinite\nCustom");
 494:main.c        ****     
 495:main.c        ****     lv_spinbox_set_range(custom_spinbox, 1, 128);
 496:main.c        ****     lv_spinbox_set_digit_format(custom_spinbox, 3, 0);
 497:main.c        ****     
 498:main.c        ****     /* BUG: Can't align spinbox label to the right of the spinbox with this code */
 499:main.c        ****     lv_textarea_set_cursor_hidden(custom_spinbox, true); // hide the cursor
 500:main.c        ****     lv_textarea_set_text_align(custom_spinbox, LV_LABEL_ALIGN_CENTER);
 501:main.c        ****     
 502:main.c        ****     /* Lets disable the spinbox so we can't focus in it with the encoder */
 503:main.c        ****     lv_obj_set_state(custom_spinbox, LV_STATE_DISABLED);
 504:main.c        ****     
 505:main.c        ****     /* Widgets style */
 506:main.c        ****     
 507:main.c        ****     /* Set the width reduced by the left and right padding. */
 508:main.c        ****     lv_coord_t parent_w = lv_obj_get_width(parent);
 509:main.c        ****     lv_obj_set_width_fit(burst_type_list, parent_w - 5);
 510:main.c        ****     lv_obj_set_width_fit(custom_spinbox, parent_w - 20);
 511:main.c        ****     
 512:main.c        ****     lv_obj_set_style_local_value_str(type_param_ok_btn, LV_BTN_PART_MAIN, LV_STATE_DEFAULT, "OK!");
 513:main.c        ****     lv_btn_set_fit2(type_param_ok_btn, LV_FIT_PARENT, LV_FIT_NONE);
 514:main.c        ****     
 515:main.c        ****     /* TODO: How to align the button to the bottom? */
 516:main.c        ****     lv_obj_align(type_param_ok_btn, NULL, LV_ALIGN_IN_BOTTOM_MID, 0, 0);
 517:main.c        ****     
 518:main.c        ****     /* Object event callbacks */
 519:main.c        ****     lv_obj_set_event_cb(burst_type_list, burst_type_list_handler);
 520:main.c        ****     // lv_obj_set_event_cb(custom_spinbox, custom_spinbox_handler);
 521:main.c        ****     lv_obj_set_event_cb(type_param_ok_btn, type_param_ok_callback);
 522:main.c        ****     
 523:main.c        ****     /* Adding new widgets intot the group so the encoder can choose them */
 524:main.c        ****     lv_group_add_obj(burst_type_params_g, burst_type_list);
 525:main.c        ****     lv_group_add_obj(burst_type_params_g, custom_spinbox);
 526:main.c        ****     lv_group_add_obj(burst_type_params_g, type_param_ok_btn);
 527:main.c        ****     
 528:main.c        ****     lv_obj_set_hidden(custom_spinbox, true);
 529:main.c        ****     lv_obj_set_hidden(burst_type_list, true);
 530:main.c        ****     lv_obj_set_hidden(type_param_ok_btn, true);
 531:main.c        **** }
 532:main.c        **** 
 533:main.c        **** LV_EVENT_CB_DECLARE(burst_type_list_handler)
 534:main.c        **** {
 535:main.c        ****     LV_UNUSED(obj);
 536:main.c        ****     
 537:main.c        ****     /* This event only gets triggered when the selected option is changed, it
 538:main.c        ****      * doesn't get triggered when the spinbox is unhidden. */
 539:main.c        ****     if(e == LV_EVENT_VALUE_CHANGED) {
 540:main.c        ****         uint16_t selected = lv_dropdown_get_selected(burst_type_list);
 541:main.c        ****         UART_PutHexInt(selected);
 542:main.c        ****         
 543:main.c        ****         /* TODO: Use an enum instead of the magic number. */
 544:main.c        ****         if (0x02 == selected) {
ARM GAS  C:\Users\strap\AppData\Local\Temp\cci64Z2T.s 			page 11


 545:main.c        ****             lv_obj_set_state(custom_spinbox, LV_STATE_DEFAULT);
 546:main.c        ****             lv_textarea_set_cursor_hidden(custom_spinbox, false);
 547:main.c        ****         
 548:main.c        ****             /* Focus the spinbox and enter in edit mode */
 549:main.c        ****             lv_group_focus_obj(custom_spinbox);
 550:main.c        ****             lv_group_set_editing(burst_type_params_g, true);
 551:main.c        ****         } else {
 552:main.c        ****             lv_obj_set_state(custom_spinbox, LV_STATE_DISABLED);
 553:main.c        ****             lv_textarea_set_cursor_hidden(custom_spinbox, true);
 554:main.c        ****         }
 555:main.c        ****     }
 556:main.c        **** }
 557:main.c        **** 
 558:main.c        **** LV_EVENT_CB_DECLARE(voltage_ok_btn_handler)
 559:main.c        **** {
 560:main.c        ****     LV_UNUSED(obj);
 561:main.c        ****     
 562:main.c        ****     if (e == LV_EVENT_PRESSED) {
 563:main.c        ****         lv_obj_set_hidden(voltage_ddlist, true);
 564:main.c        ****         lv_obj_set_hidden(voltage_ok_btn, true);
 565:main.c        ****     
 566:main.c        ****         lv_indev_set_group(encoder_indev, parameter_list_g);
 567:main.c        ****         // lv_group_focus_obj(shoot_btn);
 568:main.c        ****     }
 569:main.c        **** }
 570:main.c        **** 
 571:main.c        **** LV_EVENT_CB_DECLARE(voltage_ddlist_handler)
 572:main.c        **** {
  27              		.loc 1 572 0
  28              		.cfi_startproc
  29              		@ args = 0, pretend = 0, frame = 0
  30              		@ frame_needed = 0, uses_anonymous_args = 0
  31              		@ link register save eliminated.
  32              	.LVL0:
  33 0000 7047     		bx	lr
  34              		.cfi_endproc
  35              	.LFE456:
  36              		.size	voltage_ddlist_handler, .-voltage_ddlist_handler
  37 0002 00BF     		.section	.text.get_encoder_diff,"ax",%progbits
  38              		.align	2
  39              		.thumb
  40              		.thumb_func
  41              		.type	get_encoder_diff, %function
  42              	get_encoder_diff:
  43              	.LFB445:
 261:main.c        ****     int16_t diff = 0;
  44              		.loc 1 261 0
  45              		.cfi_startproc
  46              		@ args = 0, pretend = 0, frame = 0
  47              		@ frame_needed = 0, uses_anonymous_args = 0
 261:main.c        ****     int16_t diff = 0;
  48              		.loc 1 261 0
  49 0000 08B5     		push	{r3, lr}
  50              		.cfi_def_cfa_offset 8
  51              		.cfi_offset 3, -8
  52              		.cfi_offset 14, -4
  53              	.LVL1:
ARM GAS  C:\Users\strap\AppData\Local\Temp\cci64Z2T.s 			page 12


 264:main.c        ****     diff = qd_current_cnt - qd_old_cnt;
  54              		.loc 1 264 0
  55 0002 FFF7FEFF 		bl	QuadDec_GetCounter
  56              	.LVL2:
  57 0006 C0B2     		uxtb	r0, r0
  58 0008 024B     		ldr	r3, .L4
  59 000a 1870     		strb	r0, [r3]
 265:main.c        ****     qd_old_cnt = qd_current_cnt;
  60              		.loc 1 265 0
  61 000c 5A78     		ldrb	r2, [r3, #1]	@ zero_extendqisi2
  62              	.LVL3:
 266:main.c        **** 
  63              		.loc 1 266 0
  64 000e 5870     		strb	r0, [r3, #1]
 269:main.c        **** 
  65              		.loc 1 269 0
  66 0010 801A     		subs	r0, r0, r2
  67              	.LVL4:
  68 0012 08BD     		pop	{r3, pc}
  69              	.L5:
  70              		.align	2
  71              	.L4:
  72 0014 00000000 		.word	.LANCHOR0
  73              		.cfi_endproc
  74              	.LFE445:
  75              		.size	get_encoder_diff, .-get_encoder_diff
  76              		.section	.text.encoder_read,"ax",%progbits
  77              		.align	2
  78              		.thumb
  79              		.thumb_func
  80              		.type	encoder_read, %function
  81              	encoder_read:
  82              	.LFB446:
 272:main.c        ****     (void) drv;
  83              		.loc 1 272 0
  84              		.cfi_startproc
  85              		@ args = 0, pretend = 0, frame = 0
  86              		@ frame_needed = 0, uses_anonymous_args = 0
  87              	.LVL5:
  88 0000 10B5     		push	{r4, lr}
  89              		.cfi_def_cfa_offset 8
  90              		.cfi_offset 4, -8
  91              		.cfi_offset 14, -4
  92 0002 0C46     		mov	r4, r1
 276:main.c        ****     
  93              		.loc 1 276 0
  94 0004 FFF7FEFF 		bl	get_encoder_diff
  95              	.LVL6:
  96 0008 A081     		strh	r0, [r4, #12]	@ movhi
 279:main.c        ****         data->state = LV_INDEV_STATE_PR;
  97              		.loc 1 279 0
  98 000a FFF7FEFF 		bl	QuadDec_SW_Read
  99              	.LVL7:
 100 000e 10B9     		cbnz	r0, .L7
 280:main.c        ****     } else{
 101              		.loc 1 280 0
 102 0010 0123     		movs	r3, #1
ARM GAS  C:\Users\strap\AppData\Local\Temp\cci64Z2T.s 			page 13


 103 0012 A373     		strb	r3, [r4, #14]
 104 0014 01E0     		b	.L8
 105              	.L7:
 282:main.c        ****     }
 106              		.loc 1 282 0
 107 0016 0023     		movs	r3, #0
 108 0018 A373     		strb	r3, [r4, #14]
 109              	.L8:
 286:main.c        **** 
 110              		.loc 1 286 0
 111 001a 0020     		movs	r0, #0
 112 001c 10BD     		pop	{r4, pc}
 113              		.cfi_endproc
 114              	.LFE446:
 115              		.size	encoder_read, .-encoder_read
 116 001e 00BF     		.section	.text.button_callback,"ax",%progbits
 117              		.align	2
 118              		.thumb
 119              		.thumb_func
 120              		.type	button_callback, %function
 121              	button_callback:
 122              	.LFB449:
 419:main.c        ****     LV_UNUSED(obj);
 123              		.loc 1 419 0
 124              		.cfi_startproc
 125              		@ args = 0, pretend = 0, frame = 0
 126              		@ frame_needed = 0, uses_anonymous_args = 0
 127              	.LVL8:
 422:main.c        ****         /* TODO: Get the selected option on the dropdown list */
 128              		.loc 1 422 0
 129 0000 0539     		subs	r1, r1, #5
 130              	.LVL9:
 131 0002 C9B2     		uxtb	r1, r1
 132 0004 0129     		cmp	r1, #1
 133 0006 0ED8     		bhi	.L13
 419:main.c        ****     LV_UNUSED(obj);
 134              		.loc 1 419 0
 135 0008 08B5     		push	{r3, lr}
 136              		.cfi_def_cfa_offset 8
 137              		.cfi_offset 3, -8
 138              		.cfi_offset 14, -4
 139              	.LBB36:
 424:main.c        ****         UART_PutHexInt(selected);
 140              		.loc 1 424 0
 141 000a 074B     		ldr	r3, .L14
 142 000c 1868     		ldr	r0, [r3]
 143              	.LVL10:
 144 000e FFF7FEFF 		bl	lv_dropdown_get_selected
 145              	.LVL11:
 425:main.c        ****         
 146              		.loc 1 425 0
 147 0012 FFF7FEFF 		bl	UART_PutHexInt
 148              	.LVL12:
 428:main.c        ****         UART_PutHexInt((uint16_t) spinbox_value & 0xFFFF);
 149              		.loc 1 428 0
 150 0016 054B     		ldr	r3, .L14+4
 151 0018 1868     		ldr	r0, [r3]
ARM GAS  C:\Users\strap\AppData\Local\Temp\cci64Z2T.s 			page 14


 152 001a FFF7FEFF 		bl	lv_spinbox_get_value
 153              	.LVL13:
 429:main.c        ****         
 154              		.loc 1 429 0
 155 001e 80B2     		uxth	r0, r0
 156              	.LVL14:
 157 0020 FFF7FEFF 		bl	UART_PutHexInt
 158              	.LVL15:
 159 0024 08BD     		pop	{r3, pc}
 160              	.LVL16:
 161              	.L13:
 162              		.cfi_def_cfa_offset 0
 163              		.cfi_restore 3
 164              		.cfi_restore 14
 165 0026 7047     		bx	lr
 166              	.L15:
 167              		.align	2
 168              	.L14:
 169 0028 00000000 		.word	burst_type_list
 170 002c 00000000 		.word	custom_spinbox
 171              	.LBE36:
 172              		.cfi_endproc
 173              	.LFE449:
 174              		.size	button_callback, .-button_callback
 175              		.section	.text.type_param_ok_callback,"ax",%progbits
 176              		.align	2
 177              		.thumb
 178              		.thumb_func
 179              		.type	type_param_ok_callback, %function
 180              	type_param_ok_callback:
 181              	.LFB451:
 456:main.c        ****     LV_UNUSED(obj);
 182              		.loc 1 456 0
 183              		.cfi_startproc
 184              		@ args = 0, pretend = 0, frame = 0
 185              		@ frame_needed = 0, uses_anonymous_args = 0
 186              	.LVL17:
 459:main.c        ****         /* Hide Burst type widgets and go to the parameter list */
 187              		.loc 1 459 0
 188 0000 C1B9     		cbnz	r1, .L19
 456:main.c        ****     LV_UNUSED(obj);
 189              		.loc 1 456 0
 190 0002 08B5     		push	{r3, lr}
 191              		.cfi_def_cfa_offset 8
 192              		.cfi_offset 3, -8
 193              		.cfi_offset 14, -4
 461:main.c        ****         lv_obj_set_hidden(burst_type_list, true);
 194              		.loc 1 461 0
 195 0004 0121     		movs	r1, #1
 196              	.LVL18:
 197 0006 0C4B     		ldr	r3, .L20
 198 0008 1868     		ldr	r0, [r3]
 199              	.LVL19:
 200 000a FFF7FEFF 		bl	lv_obj_set_hidden
 201              	.LVL20:
 462:main.c        ****         lv_obj_set_hidden(type_param_ok_btn, true);
 202              		.loc 1 462 0
ARM GAS  C:\Users\strap\AppData\Local\Temp\cci64Z2T.s 			page 15


 203 000e 0121     		movs	r1, #1
 204 0010 0A4B     		ldr	r3, .L20+4
 205 0012 1868     		ldr	r0, [r3]
 206 0014 FFF7FEFF 		bl	lv_obj_set_hidden
 207              	.LVL21:
 463:main.c        ****         
 208              		.loc 1 463 0
 209 0018 0121     		movs	r1, #1
 210 001a 094B     		ldr	r3, .L20+8
 211 001c 1868     		ldr	r0, [r3]
 212 001e FFF7FEFF 		bl	lv_obj_set_hidden
 213              	.LVL22:
 465:main.c        ****         UART_PutString("setting option");
 214              		.loc 1 465 0
 215 0022 084B     		ldr	r3, .L20+12
 216 0024 5968     		ldr	r1, [r3, #4]
 217 0026 9868     		ldr	r0, [r3, #8]
 218 0028 FFF7FEFF 		bl	lv_indev_set_group
 219              	.LVL23:
 466:main.c        ****     }
 220              		.loc 1 466 0
 221 002c 0648     		ldr	r0, .L20+16
 222 002e FFF7FEFF 		bl	UART_PutString
 223              	.LVL24:
 224 0032 08BD     		pop	{r3, pc}
 225              	.LVL25:
 226              	.L19:
 227              		.cfi_def_cfa_offset 0
 228              		.cfi_restore 3
 229              		.cfi_restore 14
 230 0034 7047     		bx	lr
 231              	.L21:
 232 0036 00BF     		.align	2
 233              	.L20:
 234 0038 00000000 		.word	custom_spinbox
 235 003c 00000000 		.word	burst_type_list
 236 0040 00000000 		.word	type_param_ok_btn
 237 0044 00000000 		.word	.LANCHOR0
 238 0048 00000000 		.word	.LC0
 239              		.cfi_endproc
 240              	.LFE451:
 241              		.size	type_param_ok_callback, .-type_param_ok_callback
 242              		.section	.text.voltage_ok_btn_handler,"ax",%progbits
 243              		.align	2
 244              		.thumb
 245              		.thumb_func
 246              		.type	voltage_ok_btn_handler, %function
 247              	voltage_ok_btn_handler:
 248              	.LFB455:
 559:main.c        ****     LV_UNUSED(obj);
 249              		.loc 1 559 0
 250              		.cfi_startproc
 251              		@ args = 0, pretend = 0, frame = 0
 252              		@ frame_needed = 0, uses_anonymous_args = 0
 253              	.LVL26:
 562:main.c        ****         lv_obj_set_hidden(voltage_ddlist, true);
 254              		.loc 1 562 0
ARM GAS  C:\Users\strap\AppData\Local\Temp\cci64Z2T.s 			page 16


 255 0000 81B9     		cbnz	r1, .L25
 559:main.c        ****     LV_UNUSED(obj);
 256              		.loc 1 559 0
 257 0002 08B5     		push	{r3, lr}
 258              		.cfi_def_cfa_offset 8
 259              		.cfi_offset 3, -8
 260              		.cfi_offset 14, -4
 563:main.c        ****         lv_obj_set_hidden(voltage_ok_btn, true);
 261              		.loc 1 563 0
 262 0004 0121     		movs	r1, #1
 263              	.LVL27:
 264 0006 084B     		ldr	r3, .L26
 265 0008 1868     		ldr	r0, [r3]
 266              	.LVL28:
 267 000a FFF7FEFF 		bl	lv_obj_set_hidden
 268              	.LVL29:
 564:main.c        ****     
 269              		.loc 1 564 0
 270 000e 0121     		movs	r1, #1
 271 0010 064B     		ldr	r3, .L26+4
 272 0012 1868     		ldr	r0, [r3]
 273 0014 FFF7FEFF 		bl	lv_obj_set_hidden
 274              	.LVL30:
 566:main.c        ****         // lv_group_focus_obj(shoot_btn);
 275              		.loc 1 566 0
 276 0018 054B     		ldr	r3, .L26+8
 277 001a 5968     		ldr	r1, [r3, #4]
 278 001c 9868     		ldr	r0, [r3, #8]
 279 001e FFF7FEFF 		bl	lv_indev_set_group
 280              	.LVL31:
 281 0022 08BD     		pop	{r3, pc}
 282              	.LVL32:
 283              	.L25:
 284              		.cfi_def_cfa_offset 0
 285              		.cfi_restore 3
 286              		.cfi_restore 14
 287 0024 7047     		bx	lr
 288              	.L27:
 289 0026 00BF     		.align	2
 290              	.L26:
 291 0028 00000000 		.word	voltage_ddlist
 292 002c 00000000 		.word	voltage_ok_btn
 293 0030 00000000 		.word	.LANCHOR0
 294              		.cfi_endproc
 295              	.LFE455:
 296              		.size	voltage_ok_btn_handler, .-voltage_ok_btn_handler
 297              		.section	.text.pulses_ok_btn_handler,"ax",%progbits
 298              		.align	2
 299              		.thumb
 300              		.thumb_func
 301              		.type	pulses_ok_btn_handler, %function
 302              	pulses_ok_btn_handler:
 303              	.LFB458:
 573:main.c        ****     LV_UNUSED(obj);
 574:main.c        ****     
 575:main.c        ****     if (LV_EVENT_VALUE_CHANGED == e) {
 576:main.c        ****         
ARM GAS  C:\Users\strap\AppData\Local\Temp\cci64Z2T.s 			page 17


 577:main.c        ****     }
 578:main.c        **** }
 579:main.c        **** 
 580:main.c        **** static void create_voltage_container_widgets(lv_obj_t *parent)
 581:main.c        **** {
 582:main.c        ****     /* Widgets creation */
 583:main.c        ****     voltage_ddlist = lv_dropdown_create(parent, NULL);
 584:main.c        ****     voltage_ok_btn = lv_btn_create(parent, NULL);
 585:main.c        ****     
 586:main.c        ****     lv_dropdown_set_options(voltage_ddlist, "24V\n48V\n72V");
 587:main.c        ****     
 588:main.c        ****     /* Adding new widgets into the group so the encoder can choose them */
 589:main.c        ****     lv_group_add_obj(voltage_params_g, voltage_ddlist);
 590:main.c        ****     lv_group_add_obj(voltage_params_g, voltage_ok_btn);
 591:main.c        ****     
 592:main.c        ****     /* Widgets style */
 593:main.c        ****     lv_obj_set_style_local_value_str(voltage_ok_btn, LV_BTN_PART_MAIN, LV_STATE_DEFAULT, "OK!");
 594:main.c        ****     lv_btn_set_fit2(voltage_ok_btn,
 595:main.c        ****         LV_FIT_PARENT,  /* horizontal */
 596:main.c        ****         LV_FIT_NONE); /* vertical */
 597:main.c        ****     
 598:main.c        ****     /* Widgets event callbacks */
 599:main.c        ****     lv_obj_set_event_cb(voltage_ddlist, voltage_ddlist_handler);
 600:main.c        ****     lv_obj_set_event_cb(voltage_ok_btn, voltage_ok_btn_handler);
 601:main.c        ****     
 602:main.c        ****     lv_obj_set_hidden(voltage_ddlist, true);
 603:main.c        ****     lv_obj_set_hidden(voltage_ok_btn, true);
 604:main.c        **** }
 605:main.c        **** 
 606:main.c        **** LV_EVENT_CB_DECLARE(pulses_ok_btn_handler)
 607:main.c        **** {
 304              		.loc 1 607 0
 305              		.cfi_startproc
 306              		@ args = 0, pretend = 0, frame = 0
 307              		@ frame_needed = 0, uses_anonymous_args = 0
 308              	.LVL33:
 608:main.c        ****     LV_UNUSED(obj);
 609:main.c        ****     
 610:main.c        ****     if (LV_EVENT_PRESSED == e) {
 309              		.loc 1 610 0
 310 0000 B9B9     		cbnz	r1, .L31
 607:main.c        ****     LV_UNUSED(obj);
 311              		.loc 1 607 0
 312 0002 10B5     		push	{r4, lr}
 313              		.cfi_def_cfa_offset 8
 314              		.cfi_offset 4, -8
 315              		.cfi_offset 14, -4
 611:main.c        ****         /* Hide Burst type widgets and go to the parameter list */
 612:main.c        ****         lv_obj_set_hidden(pulses_ok_btn, true);
 316              		.loc 1 612 0
 317 0004 0121     		movs	r1, #1
 318              	.LVL34:
 319 0006 0B4B     		ldr	r3, .L32
 320 0008 1868     		ldr	r0, [r3]
 321              	.LVL35:
 322 000a FFF7FEFF 		bl	lv_obj_set_hidden
 323              	.LVL36:
ARM GAS  C:\Users\strap\AppData\Local\Temp\cci64Z2T.s 			page 18


 613:main.c        ****         lv_obj_set_hidden(pulses_spinbox, true);
 324              		.loc 1 613 0
 325 000e 0121     		movs	r1, #1
 326 0010 094B     		ldr	r3, .L32+4
 327 0012 1868     		ldr	r0, [r3]
 328 0014 FFF7FEFF 		bl	lv_obj_set_hidden
 329              	.LVL37:
 614:main.c        ****         
 615:main.c        ****         lv_indev_set_group(encoder_indev, parameter_list_g);
 330              		.loc 1 615 0
 331 0018 084C     		ldr	r4, .L32+8
 332 001a 6168     		ldr	r1, [r4, #4]
 333 001c A068     		ldr	r0, [r4, #8]
 334 001e FFF7FEFF 		bl	lv_indev_set_group
 335              	.LVL38:
 616:main.c        ****         lv_group_focus_obj(parameter_list[PARAMETER_LIST_BURST_PULSES]);
 336              		.loc 1 616 0
 337 0022 2069     		ldr	r0, [r4, #16]
 338 0024 FFF7FEFF 		bl	lv_group_focus_obj
 339              	.LVL39:
 617:main.c        ****         lv_checkbox_set_checked(parameter_list[PARAMETER_LIST_BURST_PULSES], true);
 340              		.loc 1 617 0
 341 0028 0121     		movs	r1, #1
 342 002a 2069     		ldr	r0, [r4, #16]
 343 002c FFF7FEFF 		bl	lv_checkbox_set_checked
 344              	.LVL40:
 345 0030 10BD     		pop	{r4, pc}
 346              	.LVL41:
 347              	.L31:
 348              		.cfi_def_cfa_offset 0
 349              		.cfi_restore 4
 350              		.cfi_restore 14
 351 0032 7047     		bx	lr
 352              	.L33:
 353              		.align	2
 354              	.L32:
 355 0034 00000000 		.word	pulses_ok_btn
 356 0038 00000000 		.word	pulses_spinbox
 357 003c 00000000 		.word	.LANCHOR0
 358              		.cfi_endproc
 359              	.LFE458:
 360              		.size	pulses_ok_btn_handler, .-pulses_ok_btn_handler
 361              		.section	.text.parameter_list_container_event_handler,"ax",%progbits
 362              		.align	2
 363              		.thumb
 364              		.thumb_func
 365              		.type	parameter_list_container_event_handler, %function
 366              	parameter_list_container_event_handler:
 367              	.LFB448:
 371:main.c        ****     UART_PutString("parameter list handler");
 368              		.loc 1 371 0
 369              		.cfi_startproc
 370              		@ args = 0, pretend = 0, frame = 0
 371              		@ frame_needed = 0, uses_anonymous_args = 0
 372              	.LVL42:
 373 0000 38B5     		push	{r3, r4, r5, lr}
 374              		.cfi_def_cfa_offset 16
ARM GAS  C:\Users\strap\AppData\Local\Temp\cci64Z2T.s 			page 19


 375              		.cfi_offset 3, -16
 376              		.cfi_offset 4, -12
 377              		.cfi_offset 5, -8
 378              		.cfi_offset 14, -4
 379 0002 0546     		mov	r5, r0
 380 0004 0C46     		mov	r4, r1
 372:main.c        ****     UART_PutHexByte((uint8_t) e);
 381              		.loc 1 372 0
 382 0006 3D48     		ldr	r0, .L39
 383              	.LVL43:
 384 0008 FFF7FEFF 		bl	UART_PutString
 385              	.LVL44:
 373:main.c        ****     UART_PutCRLF();
 386              		.loc 1 373 0
 387 000c 2046     		mov	r0, r4
 388 000e FFF7FEFF 		bl	UART_PutHexByte
 389              	.LVL45:
 374:main.c        ****     
 390              		.loc 1 374 0
 391 0012 FFF7FEFF 		bl	UART_PutCRLF
 392              	.LVL46:
 376:main.c        ****         if (parameter_list[PARAMETER_LIST_BURST_TYPE] == obj && lv_checkbox_is_checked(obj)) {
 393              		.loc 1 376 0
 394 0016 102C     		cmp	r4, #16
 395 0018 6FD1     		bne	.L34
 377:main.c        ****             lv_checkbox_set_checked(parameter_list[PARAMETER_LIST_BURST_PULSES], false);
 396              		.loc 1 377 0
 397 001a 394B     		ldr	r3, .L39+4
 398 001c DB68     		ldr	r3, [r3, #12]
 399 001e AB42     		cmp	r3, r5
 400 0020 23D1     		bne	.L36
 401              	.LVL47:
 402              	.LBB37:
 403              	.LBB38:
 404              		.file 2 "lvgl/src/lv_widgets/lv_checkbox.h"
   1:lvgl/src/lv_widgets/lv_checkbox.h **** /**
   2:lvgl/src/lv_widgets/lv_checkbox.h ****  * @file lv_cb.h
   3:lvgl/src/lv_widgets/lv_checkbox.h ****  *
   4:lvgl/src/lv_widgets/lv_checkbox.h ****  */
   5:lvgl/src/lv_widgets/lv_checkbox.h **** 
   6:lvgl/src/lv_widgets/lv_checkbox.h **** #ifndef LV_CHECKBOX_H
   7:lvgl/src/lv_widgets/lv_checkbox.h **** #define LV_CHECKBOX_H
   8:lvgl/src/lv_widgets/lv_checkbox.h **** 
   9:lvgl/src/lv_widgets/lv_checkbox.h **** #ifdef __cplusplus
  10:lvgl/src/lv_widgets/lv_checkbox.h **** extern "C" {
  11:lvgl/src/lv_widgets/lv_checkbox.h **** #endif
  12:lvgl/src/lv_widgets/lv_checkbox.h **** 
  13:lvgl/src/lv_widgets/lv_checkbox.h **** /*********************
  14:lvgl/src/lv_widgets/lv_checkbox.h ****  *      INCLUDES
  15:lvgl/src/lv_widgets/lv_checkbox.h ****  *********************/
  16:lvgl/src/lv_widgets/lv_checkbox.h **** #include "../lv_conf_internal.h"
  17:lvgl/src/lv_widgets/lv_checkbox.h **** 
  18:lvgl/src/lv_widgets/lv_checkbox.h **** #if LV_USE_CHECKBOX != 0
  19:lvgl/src/lv_widgets/lv_checkbox.h **** 
  20:lvgl/src/lv_widgets/lv_checkbox.h **** /*Testing of dependencies*/
  21:lvgl/src/lv_widgets/lv_checkbox.h **** #if LV_USE_BTN == 0
  22:lvgl/src/lv_widgets/lv_checkbox.h **** #error "lv_cb: lv_btn is required. Enable it in lv_conf.h (LV_USE_BTN  1) "
ARM GAS  C:\Users\strap\AppData\Local\Temp\cci64Z2T.s 			page 20


  23:lvgl/src/lv_widgets/lv_checkbox.h **** #endif
  24:lvgl/src/lv_widgets/lv_checkbox.h **** 
  25:lvgl/src/lv_widgets/lv_checkbox.h **** #if LV_USE_LABEL == 0
  26:lvgl/src/lv_widgets/lv_checkbox.h **** #error "lv_cb: lv_label is required. Enable it in lv_conf.h (LV_USE_LABEL  1) "
  27:lvgl/src/lv_widgets/lv_checkbox.h **** #endif
  28:lvgl/src/lv_widgets/lv_checkbox.h **** 
  29:lvgl/src/lv_widgets/lv_checkbox.h **** #include "../lv_core/lv_obj.h"
  30:lvgl/src/lv_widgets/lv_checkbox.h **** #include "lv_btn.h"
  31:lvgl/src/lv_widgets/lv_checkbox.h **** #include "lv_label.h"
  32:lvgl/src/lv_widgets/lv_checkbox.h **** 
  33:lvgl/src/lv_widgets/lv_checkbox.h **** /*********************
  34:lvgl/src/lv_widgets/lv_checkbox.h ****  *      DEFINES
  35:lvgl/src/lv_widgets/lv_checkbox.h ****  *********************/
  36:lvgl/src/lv_widgets/lv_checkbox.h **** 
  37:lvgl/src/lv_widgets/lv_checkbox.h **** /**********************
  38:lvgl/src/lv_widgets/lv_checkbox.h ****  *      TYPEDEFS
  39:lvgl/src/lv_widgets/lv_checkbox.h ****  **********************/
  40:lvgl/src/lv_widgets/lv_checkbox.h **** 
  41:lvgl/src/lv_widgets/lv_checkbox.h **** /*Data of check box*/
  42:lvgl/src/lv_widgets/lv_checkbox.h **** typedef struct {
  43:lvgl/src/lv_widgets/lv_checkbox.h ****     lv_btn_ext_t bg_btn; /*Ext. of ancestor*/
  44:lvgl/src/lv_widgets/lv_checkbox.h ****     /*New data for this type */
  45:lvgl/src/lv_widgets/lv_checkbox.h ****     lv_obj_t * bullet; /*Pointer to button*/
  46:lvgl/src/lv_widgets/lv_checkbox.h ****     lv_obj_t * label;  /*Pointer to label*/
  47:lvgl/src/lv_widgets/lv_checkbox.h **** } lv_checkbox_ext_t;
  48:lvgl/src/lv_widgets/lv_checkbox.h **** 
  49:lvgl/src/lv_widgets/lv_checkbox.h **** /** Checkbox styles. */
  50:lvgl/src/lv_widgets/lv_checkbox.h **** enum {
  51:lvgl/src/lv_widgets/lv_checkbox.h ****     LV_CHECKBOX_PART_BG = LV_BTN_PART_MAIN,  /**< Style of object background. */
  52:lvgl/src/lv_widgets/lv_checkbox.h ****     _LV_CHECKBOX_PART_VIRTUAL_LAST,
  53:lvgl/src/lv_widgets/lv_checkbox.h ****     LV_CHECKBOX_PART_BULLET = _LV_BTN_PART_REAL_LAST, /**< Style of box (released). */
  54:lvgl/src/lv_widgets/lv_checkbox.h ****     _LV_CHECKBOX_PART_REAL_LAST
  55:lvgl/src/lv_widgets/lv_checkbox.h **** };
  56:lvgl/src/lv_widgets/lv_checkbox.h **** typedef uint8_t lv_checkbox_style_t;
  57:lvgl/src/lv_widgets/lv_checkbox.h **** 
  58:lvgl/src/lv_widgets/lv_checkbox.h **** /**********************
  59:lvgl/src/lv_widgets/lv_checkbox.h ****  * GLOBAL PROTOTYPES
  60:lvgl/src/lv_widgets/lv_checkbox.h ****  **********************/
  61:lvgl/src/lv_widgets/lv_checkbox.h **** 
  62:lvgl/src/lv_widgets/lv_checkbox.h **** /**
  63:lvgl/src/lv_widgets/lv_checkbox.h ****  * Create a check box objects
  64:lvgl/src/lv_widgets/lv_checkbox.h ****  * @param par pointer to an object, it will be the parent of the new check box
  65:lvgl/src/lv_widgets/lv_checkbox.h ****  * @param copy pointer to a check box object, if not NULL then the new object will be copied from i
  66:lvgl/src/lv_widgets/lv_checkbox.h ****  * @return pointer to the created check box
  67:lvgl/src/lv_widgets/lv_checkbox.h ****  */
  68:lvgl/src/lv_widgets/lv_checkbox.h **** lv_obj_t * lv_checkbox_create(lv_obj_t * par, const lv_obj_t * copy);
  69:lvgl/src/lv_widgets/lv_checkbox.h **** 
  70:lvgl/src/lv_widgets/lv_checkbox.h **** /*=====================
  71:lvgl/src/lv_widgets/lv_checkbox.h ****  * Setter functions
  72:lvgl/src/lv_widgets/lv_checkbox.h ****  *====================*/
  73:lvgl/src/lv_widgets/lv_checkbox.h **** 
  74:lvgl/src/lv_widgets/lv_checkbox.h **** /**
  75:lvgl/src/lv_widgets/lv_checkbox.h ****  * Set the text of a check box. `txt` will be copied and may be deallocated
  76:lvgl/src/lv_widgets/lv_checkbox.h ****  * after this function returns.
  77:lvgl/src/lv_widgets/lv_checkbox.h ****  * @param cb pointer to a check box
  78:lvgl/src/lv_widgets/lv_checkbox.h ****  * @param txt the text of the check box. NULL to refresh with the current text.
  79:lvgl/src/lv_widgets/lv_checkbox.h ****  */
ARM GAS  C:\Users\strap\AppData\Local\Temp\cci64Z2T.s 			page 21


  80:lvgl/src/lv_widgets/lv_checkbox.h **** void lv_checkbox_set_text(lv_obj_t * cb, const char * txt);
  81:lvgl/src/lv_widgets/lv_checkbox.h **** 
  82:lvgl/src/lv_widgets/lv_checkbox.h **** /**
  83:lvgl/src/lv_widgets/lv_checkbox.h ****  * Set the text of a check box. `txt` must not be deallocated during the life
  84:lvgl/src/lv_widgets/lv_checkbox.h ****  * of this checkbox.
  85:lvgl/src/lv_widgets/lv_checkbox.h ****  * @param cb pointer to a check box
  86:lvgl/src/lv_widgets/lv_checkbox.h ****  * @param txt the text of the check box. NULL to refresh with the current text.
  87:lvgl/src/lv_widgets/lv_checkbox.h ****  */
  88:lvgl/src/lv_widgets/lv_checkbox.h **** void lv_checkbox_set_text_static(lv_obj_t * cb, const char * txt);
  89:lvgl/src/lv_widgets/lv_checkbox.h **** 
  90:lvgl/src/lv_widgets/lv_checkbox.h **** /**
  91:lvgl/src/lv_widgets/lv_checkbox.h ****  * Set the state of the check box
  92:lvgl/src/lv_widgets/lv_checkbox.h ****  * @param cb pointer to a check box object
  93:lvgl/src/lv_widgets/lv_checkbox.h ****  * @param checked true: make the check box checked; false: make it unchecked
  94:lvgl/src/lv_widgets/lv_checkbox.h ****  */
  95:lvgl/src/lv_widgets/lv_checkbox.h **** void lv_checkbox_set_checked(lv_obj_t * cb, bool checked);
  96:lvgl/src/lv_widgets/lv_checkbox.h **** 
  97:lvgl/src/lv_widgets/lv_checkbox.h **** /**
  98:lvgl/src/lv_widgets/lv_checkbox.h ****  * Make the check box inactive (disabled)
  99:lvgl/src/lv_widgets/lv_checkbox.h ****  * @param cb pointer to a check box object
 100:lvgl/src/lv_widgets/lv_checkbox.h ****  */
 101:lvgl/src/lv_widgets/lv_checkbox.h **** void lv_checkbox_set_disabled(lv_obj_t * cb);
 102:lvgl/src/lv_widgets/lv_checkbox.h **** 
 103:lvgl/src/lv_widgets/lv_checkbox.h **** /**
 104:lvgl/src/lv_widgets/lv_checkbox.h ****  * Set the state of a check box
 105:lvgl/src/lv_widgets/lv_checkbox.h ****  * @param cb pointer to a check box object
 106:lvgl/src/lv_widgets/lv_checkbox.h ****  * @param state the new state of the check box (from lv_btn_state_t enum)
 107:lvgl/src/lv_widgets/lv_checkbox.h ****  */
 108:lvgl/src/lv_widgets/lv_checkbox.h **** void lv_checkbox_set_state(lv_obj_t * cb, lv_btn_state_t state);
 109:lvgl/src/lv_widgets/lv_checkbox.h **** /*=====================
 110:lvgl/src/lv_widgets/lv_checkbox.h ****  * Getter functions
 111:lvgl/src/lv_widgets/lv_checkbox.h ****  *====================*/
 112:lvgl/src/lv_widgets/lv_checkbox.h **** 
 113:lvgl/src/lv_widgets/lv_checkbox.h **** /**
 114:lvgl/src/lv_widgets/lv_checkbox.h ****  * Get the text of a check box
 115:lvgl/src/lv_widgets/lv_checkbox.h ****  * @param cb pointer to check box object
 116:lvgl/src/lv_widgets/lv_checkbox.h ****  * @return pointer to the text of the check box
 117:lvgl/src/lv_widgets/lv_checkbox.h ****  */
 118:lvgl/src/lv_widgets/lv_checkbox.h **** const char * lv_checkbox_get_text(const lv_obj_t * cb);
 119:lvgl/src/lv_widgets/lv_checkbox.h **** 
 120:lvgl/src/lv_widgets/lv_checkbox.h **** /**
 121:lvgl/src/lv_widgets/lv_checkbox.h ****  * Get the current state of the check box
 122:lvgl/src/lv_widgets/lv_checkbox.h ****  * @param cb pointer to a check box object
 123:lvgl/src/lv_widgets/lv_checkbox.h ****  * @return true: checked; false: not checked
 124:lvgl/src/lv_widgets/lv_checkbox.h ****  */
 125:lvgl/src/lv_widgets/lv_checkbox.h **** static inline bool lv_checkbox_is_checked(const lv_obj_t * cb)
 126:lvgl/src/lv_widgets/lv_checkbox.h **** {
 127:lvgl/src/lv_widgets/lv_checkbox.h ****     return lv_btn_get_state(cb) == LV_BTN_STATE_RELEASED ? false : true;
 405              		.loc 2 127 0
 406 0022 2846     		mov	r0, r5
 407 0024 FFF7FEFF 		bl	lv_btn_get_state
 408              	.LVL48:
 409              	.LBE38:
 410              	.LBE37:
 377:main.c        ****             lv_checkbox_set_checked(parameter_list[PARAMETER_LIST_BURST_PULSES], false);
 411              		.loc 1 377 0
 412 0028 F8B1     		cbz	r0, .L36
ARM GAS  C:\Users\strap\AppData\Local\Temp\cci64Z2T.s 			page 22


 378:main.c        ****             lv_checkbox_set_checked(parameter_list[PARAMETER_LIST_PULSE_VOLTAGE], false);
 413              		.loc 1 378 0
 414 002a 354C     		ldr	r4, .L39+4
 415 002c 0021     		movs	r1, #0
 416 002e 2069     		ldr	r0, [r4, #16]
 417 0030 FFF7FEFF 		bl	lv_checkbox_set_checked
 418              	.LVL49:
 379:main.c        ****             
 419              		.loc 1 379 0
 420 0034 0021     		movs	r1, #0
 421 0036 6069     		ldr	r0, [r4, #20]
 422 0038 FFF7FEFF 		bl	lv_checkbox_set_checked
 423              	.LVL50:
 381:main.c        ****             
 424              		.loc 1 381 0
 425 003c A169     		ldr	r1, [r4, #24]
 426 003e A068     		ldr	r0, [r4, #8]
 427 0040 FFF7FEFF 		bl	lv_indev_set_group
 428              	.LVL51:
 384:main.c        ****             lv_obj_set_hidden(custom_spinbox, false);
 429              		.loc 1 384 0
 430 0044 2F4C     		ldr	r4, .L39+8
 431 0046 0021     		movs	r1, #0
 432 0048 2068     		ldr	r0, [r4]
 433 004a FFF7FEFF 		bl	lv_obj_set_hidden
 434              	.LVL52:
 385:main.c        ****             lv_obj_set_hidden(type_param_ok_btn, false);
 435              		.loc 1 385 0
 436 004e 0021     		movs	r1, #0
 437 0050 2D4B     		ldr	r3, .L39+12
 438 0052 1868     		ldr	r0, [r3]
 439 0054 FFF7FEFF 		bl	lv_obj_set_hidden
 440              	.LVL53:
 386:main.c        ****             
 441              		.loc 1 386 0
 442 0058 0021     		movs	r1, #0
 443 005a 2C4B     		ldr	r3, .L39+16
 444 005c 1868     		ldr	r0, [r3]
 445 005e FFF7FEFF 		bl	lv_obj_set_hidden
 446              	.LVL54:
 388:main.c        ****             
 447              		.loc 1 388 0
 448 0062 2068     		ldr	r0, [r4]
 449 0064 FFF7FEFF 		bl	lv_group_focus_obj
 450              	.LVL55:
 451 0068 38BD     		pop	{r3, r4, r5, pc}
 452              	.LVL56:
 453              	.L36:
 390:main.c        ****             lv_checkbox_set_checked(parameter_list[PARAMETER_LIST_BURST_TYPE], false);
 454              		.loc 1 390 0
 455 006a 254B     		ldr	r3, .L39+4
 456 006c 5B69     		ldr	r3, [r3, #20]
 457 006e 9D42     		cmp	r5, r3
 458 0070 21D1     		bne	.L37
 459              	.LVL57:
 460              	.LBB39:
 461              	.LBB40:
ARM GAS  C:\Users\strap\AppData\Local\Temp\cci64Z2T.s 			page 23


 462              		.loc 2 127 0
 463 0072 2846     		mov	r0, r5
 464 0074 FFF7FEFF 		bl	lv_btn_get_state
 465              	.LVL58:
 466              	.LBE40:
 467              	.LBE39:
 390:main.c        ****             lv_checkbox_set_checked(parameter_list[PARAMETER_LIST_BURST_TYPE], false);
 468              		.loc 1 390 0
 469 0078 E8B1     		cbz	r0, .L37
 391:main.c        ****             lv_checkbox_set_checked(parameter_list[PARAMETER_LIST_BURST_PULSES], false);
 470              		.loc 1 391 0
 471 007a 214C     		ldr	r4, .L39+4
 472 007c 0021     		movs	r1, #0
 473 007e E068     		ldr	r0, [r4, #12]
 474 0080 FFF7FEFF 		bl	lv_checkbox_set_checked
 475              	.LVL59:
 392:main.c        ****             
 476              		.loc 1 392 0
 477 0084 0021     		movs	r1, #0
 478 0086 2069     		ldr	r0, [r4, #16]
 479 0088 FFF7FEFF 		bl	lv_checkbox_set_checked
 480              	.LVL60:
 394:main.c        ****             
 481              		.loc 1 394 0
 482 008c 2048     		ldr	r0, .L39+20
 483 008e FFF7FEFF 		bl	UART_PutString
 484              	.LVL61:
 396:main.c        ****             
 485              		.loc 1 396 0
 486 0092 E169     		ldr	r1, [r4, #28]
 487 0094 A068     		ldr	r0, [r4, #8]
 488 0096 FFF7FEFF 		bl	lv_indev_set_group
 489              	.LVL62:
 399:main.c        ****             lv_obj_set_hidden(voltage_ok_btn, false);
 490              		.loc 1 399 0
 491 009a 1E4C     		ldr	r4, .L39+24
 492 009c 0021     		movs	r1, #0
 493 009e 2068     		ldr	r0, [r4]
 494 00a0 FFF7FEFF 		bl	lv_obj_set_hidden
 495              	.LVL63:
 400:main.c        ****             
 496              		.loc 1 400 0
 497 00a4 0021     		movs	r1, #0
 498 00a6 1C4B     		ldr	r3, .L39+28
 499 00a8 1868     		ldr	r0, [r3]
 500 00aa FFF7FEFF 		bl	lv_obj_set_hidden
 501              	.LVL64:
 402:main.c        ****             
 502              		.loc 1 402 0
 503 00ae 2068     		ldr	r0, [r4]
 504 00b0 FFF7FEFF 		bl	lv_group_focus_obj
 505              	.LVL65:
 506 00b4 38BD     		pop	{r3, r4, r5, pc}
 507              	.LVL66:
 508              	.L37:
 404:main.c        ****             lv_checkbox_set_checked(parameter_list[PARAMETER_LIST_BURST_TYPE], false);
 509              		.loc 1 404 0
ARM GAS  C:\Users\strap\AppData\Local\Temp\cci64Z2T.s 			page 24


 510 00b6 124B     		ldr	r3, .L39+4
 511 00b8 1B69     		ldr	r3, [r3, #16]
 512 00ba 9D42     		cmp	r5, r3
 513 00bc 1DD1     		bne	.L34
 514              	.LVL67:
 515              	.LBB41:
 516              	.LBB42:
 517              		.loc 2 127 0
 518 00be 2846     		mov	r0, r5
 519 00c0 FFF7FEFF 		bl	lv_btn_get_state
 520              	.LVL68:
 521              	.LBE42:
 522              	.LBE41:
 404:main.c        ****             lv_checkbox_set_checked(parameter_list[PARAMETER_LIST_BURST_TYPE], false);
 523              		.loc 1 404 0
 524 00c4 C8B1     		cbz	r0, .L34
 405:main.c        ****             lv_checkbox_set_checked(parameter_list[PARAMETER_LIST_PULSE_VOLTAGE], false);
 525              		.loc 1 405 0
 526 00c6 0E4C     		ldr	r4, .L39+4
 527 00c8 0021     		movs	r1, #0
 528 00ca E068     		ldr	r0, [r4, #12]
 529 00cc FFF7FEFF 		bl	lv_checkbox_set_checked
 530              	.LVL69:
 406:main.c        ****             
 531              		.loc 1 406 0
 532 00d0 0021     		movs	r1, #0
 533 00d2 6069     		ldr	r0, [r4, #20]
 534 00d4 FFF7FEFF 		bl	lv_checkbox_set_checked
 535              	.LVL70:
 408:main.c        ****             
 536              		.loc 1 408 0
 537 00d8 216A     		ldr	r1, [r4, #32]
 538 00da A068     		ldr	r0, [r4, #8]
 539 00dc FFF7FEFF 		bl	lv_indev_set_group
 540              	.LVL71:
 410:main.c        ****             lv_obj_set_hidden(pulses_ok_btn, false);
 541              		.loc 1 410 0
 542 00e0 0E4C     		ldr	r4, .L39+32
 543 00e2 0021     		movs	r1, #0
 544 00e4 2068     		ldr	r0, [r4]
 545 00e6 FFF7FEFF 		bl	lv_obj_set_hidden
 546              	.LVL72:
 411:main.c        ****             
 547              		.loc 1 411 0
 548 00ea 0021     		movs	r1, #0
 549 00ec 0C4B     		ldr	r3, .L39+36
 550 00ee 1868     		ldr	r0, [r3]
 551 00f0 FFF7FEFF 		bl	lv_obj_set_hidden
 552              	.LVL73:
 413:main.c        ****         }
 553              		.loc 1 413 0
 554 00f4 2068     		ldr	r0, [r4]
 555 00f6 FFF7FEFF 		bl	lv_group_focus_obj
 556              	.LVL74:
 557              	.L34:
 558 00fa 38BD     		pop	{r3, r4, r5, pc}
 559              	.LVL75:
ARM GAS  C:\Users\strap\AppData\Local\Temp\cci64Z2T.s 			page 25


 560              	.L40:
 561              		.align	2
 562              	.L39:
 563 00fc 10000000 		.word	.LC1
 564 0100 00000000 		.word	.LANCHOR0
 565 0104 00000000 		.word	burst_type_list
 566 0108 00000000 		.word	custom_spinbox
 567 010c 00000000 		.word	type_param_ok_btn
 568 0110 28000000 		.word	.LC2
 569 0114 00000000 		.word	voltage_ddlist
 570 0118 00000000 		.word	voltage_ok_btn
 571 011c 00000000 		.word	pulses_spinbox
 572 0120 00000000 		.word	pulses_ok_btn
 573              		.cfi_endproc
 574              	.LFE448:
 575              		.size	parameter_list_container_event_handler, .-parameter_list_container_event_handler
 576              		.section	.text.create_voltage_container_widgets,"ax",%progbits
 577              		.align	2
 578              		.thumb
 579              		.thumb_func
 580              		.type	create_voltage_container_widgets, %function
 581              	create_voltage_container_widgets:
 582              	.LFB457:
 581:main.c        ****     /* Widgets creation */
 583              		.loc 1 581 0
 584              		.cfi_startproc
 585              		@ args = 0, pretend = 0, frame = 0
 586              		@ frame_needed = 0, uses_anonymous_args = 0
 587              	.LVL76:
 588 0000 70B5     		push	{r4, r5, r6, lr}
 589              		.cfi_def_cfa_offset 16
 590              		.cfi_offset 4, -16
 591              		.cfi_offset 5, -12
 592              		.cfi_offset 6, -8
 593              		.cfi_offset 14, -4
 594 0002 82B0     		sub	sp, sp, #8
 595              		.cfi_def_cfa_offset 24
 596 0004 0446     		mov	r4, r0
 583:main.c        ****     voltage_ok_btn = lv_btn_create(parent, NULL);
 597              		.loc 1 583 0
 598 0006 0021     		movs	r1, #0
 599 0008 FFF7FEFF 		bl	lv_dropdown_create
 600              	.LVL77:
 601 000c 194D     		ldr	r5, .L43
 602 000e 2860     		str	r0, [r5]
 584:main.c        ****     
 603              		.loc 1 584 0
 604 0010 0021     		movs	r1, #0
 605 0012 2046     		mov	r0, r4
 606 0014 FFF7FEFF 		bl	lv_btn_create
 607              	.LVL78:
 608 0018 174C     		ldr	r4, .L43+4
 609              	.LVL79:
 610 001a 2060     		str	r0, [r4]
 586:main.c        ****     
 611              		.loc 1 586 0
 612 001c 1749     		ldr	r1, .L43+8
ARM GAS  C:\Users\strap\AppData\Local\Temp\cci64Z2T.s 			page 26


 613 001e 2868     		ldr	r0, [r5]
 614 0020 FFF7FEFF 		bl	lv_dropdown_set_options
 615              	.LVL80:
 589:main.c        ****     lv_group_add_obj(voltage_params_g, voltage_ok_btn);
 616              		.loc 1 589 0
 617 0024 164E     		ldr	r6, .L43+12
 618 0026 2968     		ldr	r1, [r5]
 619 0028 F069     		ldr	r0, [r6, #28]
 620 002a FFF7FEFF 		bl	lv_group_add_obj
 621              	.LVL81:
 590:main.c        ****     
 622              		.loc 1 590 0
 623 002e 2168     		ldr	r1, [r4]
 624 0030 F069     		ldr	r0, [r6, #28]
 625 0032 FFF7FEFF 		bl	lv_group_add_obj
 626              	.LVL82:
 627              	.LBB43:
 628              	.LBB44:
 629              		.file 3 "lvgl/src/lv_core/lv_obj_style_dec.h"
   1:lvgl/src/lv_core/lv_obj_style_dec.h **** 
   2:lvgl/src/lv_core/lv_obj_style_dec.h **** /**
   3:lvgl/src/lv_core/lv_obj_style_dec.h ****  * @file lv_obj_style_dec.h
   4:lvgl/src/lv_core/lv_obj_style_dec.h ****  *
   5:lvgl/src/lv_core/lv_obj_style_dec.h ****  */
   6:lvgl/src/lv_core/lv_obj_style_dec.h **** 
   7:lvgl/src/lv_core/lv_obj_style_dec.h **** #ifndef LV_OBJ_STYLE_DEC_H
   8:lvgl/src/lv_core/lv_obj_style_dec.h **** #define LV_OBJ_STYLE_DEC_H
   9:lvgl/src/lv_core/lv_obj_style_dec.h **** 
  10:lvgl/src/lv_core/lv_obj_style_dec.h **** #ifdef __cplusplus
  11:lvgl/src/lv_core/lv_obj_style_dec.h **** extern "C" {
  12:lvgl/src/lv_core/lv_obj_style_dec.h **** #endif
  13:lvgl/src/lv_core/lv_obj_style_dec.h **** 
  14:lvgl/src/lv_core/lv_obj_style_dec.h **** /*********************
  15:lvgl/src/lv_core/lv_obj_style_dec.h ****  *      DEFINES
  16:lvgl/src/lv_core/lv_obj_style_dec.h ****  *********************/
  17:lvgl/src/lv_core/lv_obj_style_dec.h **** 
  18:lvgl/src/lv_core/lv_obj_style_dec.h **** /**
  19:lvgl/src/lv_core/lv_obj_style_dec.h ****  * Macro to declare the most important style set/get API functions.
  20:lvgl/src/lv_core/lv_obj_style_dec.h ****  *
  21:lvgl/src/lv_core/lv_obj_style_dec.h ****  * Get the value of a style property from an object in the object's current state
  22:lvgl/src/lv_core/lv_obj_style_dec.h ****  * -----------------------------------------------------------------------------
  23:lvgl/src/lv_core/lv_obj_style_dec.h ****  *  - Get the value of a style property from an object in the object's current state.
  24:lvgl/src/lv_core/lv_obj_style_dec.h ****  *  - Transition animation is taken into account.
  25:lvgl/src/lv_core/lv_obj_style_dec.h ****  *  - If the property is not set in the object's styles check the parent(s) if the property can be 
  26:lvgl/src/lv_core/lv_obj_style_dec.h ****  *  - If still not found return a default value.
  27:lvgl/src/lv_core/lv_obj_style_dec.h ****  *  - For example:
  28:lvgl/src/lv_core/lv_obj_style_dec.h ****  *      `lv_style_int_t w = lv_obj_get_style_border_width(btn1, LV_BTN_PART_MAIN);`
  29:lvgl/src/lv_core/lv_obj_style_dec.h ****  *
  30:lvgl/src/lv_core/lv_obj_style_dec.h ****  * Set a local style property for an object in a given state
  31:lvgl/src/lv_core/lv_obj_style_dec.h ****  * ---------------------------------------------------------
  32:lvgl/src/lv_core/lv_obj_style_dec.h ****  *  - For example:
  33:lvgl/src/lv_core/lv_obj_style_dec.h ****  *      `lv_obj_set_style_local_border_width(btn1, LV_BTN_PART_MAIN, LV_STATE_PRESSED, 2);`
  34:lvgl/src/lv_core/lv_obj_style_dec.h ****  *
  35:lvgl/src/lv_core/lv_obj_style_dec.h ****  * Get a local style property's value of an object in a given state
  36:lvgl/src/lv_core/lv_obj_style_dec.h ****  * ----------------------------------------------------------------
  37:lvgl/src/lv_core/lv_obj_style_dec.h ****  *  - Return the best matching property in the given state.
  38:lvgl/src/lv_core/lv_obj_style_dec.h ****  *  - E.g. if `state` parameter is LV_STATE_PRESSED | LV_STATE_CHECKED` but the property defined on
ARM GAS  C:\Users\strap\AppData\Local\Temp\cci64Z2T.s 			page 27


  39:lvgl/src/lv_core/lv_obj_style_dec.h ****  *    `LV_STATE_PRESSED` and `LV_STATE_DEFAULT` the best matching state is `LV_STATE_PRESSED`
  40:lvgl/src/lv_core/lv_obj_style_dec.h ****  *    (because it has higher precedence) and it will be returned.
  41:lvgl/src/lv_core/lv_obj_style_dec.h ****  *  - If the property is not found even in `LV_STATE_DEFAULT` `-1` is returned.
  42:lvgl/src/lv_core/lv_obj_style_dec.h ****  *  - For example:
  43:lvgl/src/lv_core/lv_obj_style_dec.h ****  *      `//Type of result should be lv_style_int_t/lv_opa_t/lv_color_t/const void * according to th
  44:lvgl/src/lv_core/lv_obj_style_dec.h ****  *      `lv_style_int_t result;`
  45:lvgl/src/lv_core/lv_obj_style_dec.h ****  *      `lv_obj_get_style_local_border_width(btn1, LV_BTN_PART_MAIN, LV_STATE_PRESSED, &result);`
  46:lvgl/src/lv_core/lv_obj_style_dec.h ****  *      `if(weight > 0) ...the property is found and loaded into result...`
  47:lvgl/src/lv_core/lv_obj_style_dec.h ****  *
  48:lvgl/src/lv_core/lv_obj_style_dec.h ****  * Get the value from a style in a given state
  49:lvgl/src/lv_core/lv_obj_style_dec.h ****  * -------------------------------------------
  50:lvgl/src/lv_core/lv_obj_style_dec.h ****  * - The same rules applies to the return value then for "lv_obj_get_style_local_...()" above
  51:lvgl/src/lv_core/lv_obj_style_dec.h ****  * - For example
  52:lvgl/src/lv_core/lv_obj_style_dec.h ****  *      `int16_t weight = lv_style_get_border_width(&style1, LV_STATE_PRESSED, &result);`
  53:lvgl/src/lv_core/lv_obj_style_dec.h ****  *      `if(weight > 0) ...the property is found and loaded into result...`
  54:lvgl/src/lv_core/lv_obj_style_dec.h **** 
  55:lvgl/src/lv_core/lv_obj_style_dec.h ****  * Set a value in a style in a given state
  56:lvgl/src/lv_core/lv_obj_style_dec.h ****  * ---------------------------------------
  57:lvgl/src/lv_core/lv_obj_style_dec.h ****  * - For example
  58:lvgl/src/lv_core/lv_obj_style_dec.h ****  *      `lv_style_set_border_width(&style1, LV_STATE_PRESSED, 2);`
  59:lvgl/src/lv_core/lv_obj_style_dec.h ****  */
  60:lvgl/src/lv_core/lv_obj_style_dec.h **** 
  61:lvgl/src/lv_core/lv_obj_style_dec.h **** #define _OBJ_GET_STYLE_scalar(prop_name, func_name, value_type, style_type)                        
  62:lvgl/src/lv_core/lv_obj_style_dec.h ****     static inline value_type lv_obj_get_style_##func_name (const lv_obj_t * obj, uint8_t part)     
  63:lvgl/src/lv_core/lv_obj_style_dec.h ****     {                                                                                              
  64:lvgl/src/lv_core/lv_obj_style_dec.h ****         return (value_type) _lv_obj_get_style##style_type (obj, part, LV_STYLE_##prop_name);       
  65:lvgl/src/lv_core/lv_obj_style_dec.h ****     }
  66:lvgl/src/lv_core/lv_obj_style_dec.h **** 
  67:lvgl/src/lv_core/lv_obj_style_dec.h **** #define _OBJ_GET_STYLE_nonscalar(prop_name, func_name, value_type, style_type)                     
  68:lvgl/src/lv_core/lv_obj_style_dec.h ****     static inline value_type lv_obj_get_style_##func_name (const lv_obj_t * obj, uint8_t part)     
  69:lvgl/src/lv_core/lv_obj_style_dec.h ****     {                                                                                              
  70:lvgl/src/lv_core/lv_obj_style_dec.h ****         return _lv_obj_get_style##style_type (obj, part, LV_STYLE_##prop_name);                    
  71:lvgl/src/lv_core/lv_obj_style_dec.h ****     }
  72:lvgl/src/lv_core/lv_obj_style_dec.h **** 
  73:lvgl/src/lv_core/lv_obj_style_dec.h **** #define _OBJ_SET_STYLE_LOCAL_scalar(prop_name, func_name, value_type, style_type)                  
  74:lvgl/src/lv_core/lv_obj_style_dec.h ****     static inline void lv_obj_set_style_local_##func_name (lv_obj_t * obj, uint8_t part, lv_state_t
  75:lvgl/src/lv_core/lv_obj_style_dec.h ****     {                                                                                              
  76:lvgl/src/lv_core/lv_obj_style_dec.h ****         _lv_obj_set_style_local##style_type (obj, part, LV_STYLE_##prop_name | (state << LV_STYLE_S
  77:lvgl/src/lv_core/lv_obj_style_dec.h ****     }
  78:lvgl/src/lv_core/lv_obj_style_dec.h **** 
  79:lvgl/src/lv_core/lv_obj_style_dec.h **** #define _OBJ_SET_STYLE_LOCAL_nonscalar(prop_name, func_name, value_type, style_type)               
  80:lvgl/src/lv_core/lv_obj_style_dec.h ****     static inline void lv_obj_set_style_local_##func_name (lv_obj_t * obj, uint8_t part, lv_state_t
  81:lvgl/src/lv_core/lv_obj_style_dec.h ****     {                                                                                              
  82:lvgl/src/lv_core/lv_obj_style_dec.h ****         _lv_obj_set_style_local##style_type (obj, part, LV_STYLE_##prop_name | (state << LV_STYLE_S
  83:lvgl/src/lv_core/lv_obj_style_dec.h ****     }
  84:lvgl/src/lv_core/lv_obj_style_dec.h **** 
  85:lvgl/src/lv_core/lv_obj_style_dec.h **** #define _OBJ_SET_STYLE_scalar(prop_name, func_name, value_type, style_type)                        
  86:lvgl/src/lv_core/lv_obj_style_dec.h ****     static inline void lv_style_set_##func_name (lv_style_t * style, lv_state_t state, value_type v
  87:lvgl/src/lv_core/lv_obj_style_dec.h ****     {                                                                                              
  88:lvgl/src/lv_core/lv_obj_style_dec.h ****         _lv_style_set##style_type (style, LV_STYLE_##prop_name | (state << LV_STYLE_STATE_POS), val
  89:lvgl/src/lv_core/lv_obj_style_dec.h ****     }
  90:lvgl/src/lv_core/lv_obj_style_dec.h **** 
  91:lvgl/src/lv_core/lv_obj_style_dec.h **** #define _OBJ_SET_STYLE_nonscalar(prop_name, func_name, value_type, style_type)                     
  92:lvgl/src/lv_core/lv_obj_style_dec.h ****     static inline void lv_style_set_##func_name (lv_style_t * style, lv_state_t state, value_type v
  93:lvgl/src/lv_core/lv_obj_style_dec.h ****     {                                                                                              
  94:lvgl/src/lv_core/lv_obj_style_dec.h ****         _lv_style_set##style_type (style, LV_STYLE_##prop_name | (state << LV_STYLE_STATE_POS), val
  95:lvgl/src/lv_core/lv_obj_style_dec.h ****     }
ARM GAS  C:\Users\strap\AppData\Local\Temp\cci64Z2T.s 			page 28


  96:lvgl/src/lv_core/lv_obj_style_dec.h **** 
  97:lvgl/src/lv_core/lv_obj_style_dec.h **** #define _LV_OBJ_STYLE_SET_GET_DECLARE(prop_name, func_name, value_type, style_type, scalar)        
  98:lvgl/src/lv_core/lv_obj_style_dec.h ****     _OBJ_GET_STYLE_##scalar(prop_name, func_name, value_type, style_type)                          
  99:lvgl/src/lv_core/lv_obj_style_dec.h ****     _OBJ_SET_STYLE_LOCAL_##scalar(prop_name, func_name, value_type, style_type)                    
 100:lvgl/src/lv_core/lv_obj_style_dec.h ****     _OBJ_SET_STYLE_##scalar(prop_name, func_name, value_type, style_type)
 101:lvgl/src/lv_core/lv_obj_style_dec.h **** 
 102:lvgl/src/lv_core/lv_obj_style_dec.h **** _LV_OBJ_STYLE_SET_GET_DECLARE(RADIUS, radius, lv_style_int_t, _int, scalar)
 103:lvgl/src/lv_core/lv_obj_style_dec.h **** _LV_OBJ_STYLE_SET_GET_DECLARE(CLIP_CORNER, clip_corner, bool, _int, scalar)
 104:lvgl/src/lv_core/lv_obj_style_dec.h **** _LV_OBJ_STYLE_SET_GET_DECLARE(SIZE, size, lv_style_int_t, _int, scalar)
 105:lvgl/src/lv_core/lv_obj_style_dec.h **** _LV_OBJ_STYLE_SET_GET_DECLARE(TRANSFORM_WIDTH, transform_width, lv_style_int_t, _int, scalar)
 106:lvgl/src/lv_core/lv_obj_style_dec.h **** _LV_OBJ_STYLE_SET_GET_DECLARE(TRANSFORM_HEIGHT, transform_height, lv_style_int_t, _int, scalar)
 107:lvgl/src/lv_core/lv_obj_style_dec.h **** _LV_OBJ_STYLE_SET_GET_DECLARE(TRANSFORM_ANGLE, transform_angle, lv_style_int_t, _int, scalar)
 108:lvgl/src/lv_core/lv_obj_style_dec.h **** _LV_OBJ_STYLE_SET_GET_DECLARE(TRANSFORM_ZOOM, transform_zoom, lv_style_int_t, _int, scalar)
 109:lvgl/src/lv_core/lv_obj_style_dec.h **** _LV_OBJ_STYLE_SET_GET_DECLARE(OPA_SCALE, opa_scale, lv_opa_t, _opa, scalar)
 110:lvgl/src/lv_core/lv_obj_style_dec.h **** _LV_OBJ_STYLE_SET_GET_DECLARE(PAD_TOP, pad_top, lv_style_int_t, _int, scalar)
 111:lvgl/src/lv_core/lv_obj_style_dec.h **** _LV_OBJ_STYLE_SET_GET_DECLARE(PAD_BOTTOM, pad_bottom, lv_style_int_t, _int, scalar)
 112:lvgl/src/lv_core/lv_obj_style_dec.h **** _LV_OBJ_STYLE_SET_GET_DECLARE(PAD_LEFT, pad_left, lv_style_int_t, _int, scalar)
 113:lvgl/src/lv_core/lv_obj_style_dec.h **** _LV_OBJ_STYLE_SET_GET_DECLARE(PAD_RIGHT, pad_right, lv_style_int_t, _int, scalar)
 114:lvgl/src/lv_core/lv_obj_style_dec.h **** _LV_OBJ_STYLE_SET_GET_DECLARE(PAD_INNER, pad_inner, lv_style_int_t, _int, scalar)
 115:lvgl/src/lv_core/lv_obj_style_dec.h **** _LV_OBJ_STYLE_SET_GET_DECLARE(MARGIN_TOP, margin_top, lv_style_int_t, _int, scalar)
 116:lvgl/src/lv_core/lv_obj_style_dec.h **** _LV_OBJ_STYLE_SET_GET_DECLARE(MARGIN_BOTTOM, margin_bottom, lv_style_int_t, _int, scalar)
 117:lvgl/src/lv_core/lv_obj_style_dec.h **** _LV_OBJ_STYLE_SET_GET_DECLARE(MARGIN_LEFT, margin_left, lv_style_int_t, _int, scalar)
 118:lvgl/src/lv_core/lv_obj_style_dec.h **** _LV_OBJ_STYLE_SET_GET_DECLARE(MARGIN_RIGHT, margin_right, lv_style_int_t, _int, scalar)
 119:lvgl/src/lv_core/lv_obj_style_dec.h **** _LV_OBJ_STYLE_SET_GET_DECLARE(BG_BLEND_MODE, bg_blend_mode, lv_blend_mode_t, _int, scalar)
 120:lvgl/src/lv_core/lv_obj_style_dec.h **** _LV_OBJ_STYLE_SET_GET_DECLARE(BG_MAIN_STOP, bg_main_stop, lv_style_int_t, _int, scalar)
 121:lvgl/src/lv_core/lv_obj_style_dec.h **** _LV_OBJ_STYLE_SET_GET_DECLARE(BG_GRAD_STOP, bg_grad_stop, lv_style_int_t, _int, scalar)
 122:lvgl/src/lv_core/lv_obj_style_dec.h **** _LV_OBJ_STYLE_SET_GET_DECLARE(BG_GRAD_DIR, bg_grad_dir, lv_grad_dir_t, _int, scalar)
 123:lvgl/src/lv_core/lv_obj_style_dec.h **** _LV_OBJ_STYLE_SET_GET_DECLARE(BG_COLOR, bg_color, lv_color_t, _color, nonscalar)
 124:lvgl/src/lv_core/lv_obj_style_dec.h **** _LV_OBJ_STYLE_SET_GET_DECLARE(BG_GRAD_COLOR, bg_grad_color, lv_color_t, _color, nonscalar)
 125:lvgl/src/lv_core/lv_obj_style_dec.h **** _LV_OBJ_STYLE_SET_GET_DECLARE(BG_OPA, bg_opa, lv_opa_t, _opa, scalar)
 126:lvgl/src/lv_core/lv_obj_style_dec.h **** _LV_OBJ_STYLE_SET_GET_DECLARE(BORDER_WIDTH, border_width, lv_style_int_t, _int, scalar)
 127:lvgl/src/lv_core/lv_obj_style_dec.h **** _LV_OBJ_STYLE_SET_GET_DECLARE(BORDER_SIDE, border_side, lv_border_side_t, _int, scalar)
 128:lvgl/src/lv_core/lv_obj_style_dec.h **** _LV_OBJ_STYLE_SET_GET_DECLARE(BORDER_BLEND_MODE, border_blend_mode, lv_blend_mode_t, _int, scalar)
 129:lvgl/src/lv_core/lv_obj_style_dec.h **** _LV_OBJ_STYLE_SET_GET_DECLARE(BORDER_POST, border_post, bool, _int, scalar)
 130:lvgl/src/lv_core/lv_obj_style_dec.h **** _LV_OBJ_STYLE_SET_GET_DECLARE(BORDER_COLOR, border_color, lv_color_t, _color, nonscalar)
 131:lvgl/src/lv_core/lv_obj_style_dec.h **** _LV_OBJ_STYLE_SET_GET_DECLARE(BORDER_OPA, border_opa, lv_opa_t, _opa, scalar)
 132:lvgl/src/lv_core/lv_obj_style_dec.h **** _LV_OBJ_STYLE_SET_GET_DECLARE(OUTLINE_WIDTH, outline_width, lv_style_int_t, _int, scalar)
 133:lvgl/src/lv_core/lv_obj_style_dec.h **** _LV_OBJ_STYLE_SET_GET_DECLARE(OUTLINE_PAD, outline_pad, lv_style_int_t, _int, scalar)
 134:lvgl/src/lv_core/lv_obj_style_dec.h **** _LV_OBJ_STYLE_SET_GET_DECLARE(OUTLINE_BLEND_MODE, outline_blend_mode, lv_blend_mode_t, _int, scalar
 135:lvgl/src/lv_core/lv_obj_style_dec.h **** _LV_OBJ_STYLE_SET_GET_DECLARE(OUTLINE_COLOR, outline_color, lv_color_t, _color, nonscalar)
 136:lvgl/src/lv_core/lv_obj_style_dec.h **** _LV_OBJ_STYLE_SET_GET_DECLARE(OUTLINE_OPA, outline_opa, lv_opa_t, _opa, scalar)
 137:lvgl/src/lv_core/lv_obj_style_dec.h **** _LV_OBJ_STYLE_SET_GET_DECLARE(SHADOW_WIDTH, shadow_width, lv_style_int_t, _int, scalar)
 138:lvgl/src/lv_core/lv_obj_style_dec.h **** _LV_OBJ_STYLE_SET_GET_DECLARE(SHADOW_OFS_X, shadow_ofs_x, lv_style_int_t, _int, scalar)
 139:lvgl/src/lv_core/lv_obj_style_dec.h **** _LV_OBJ_STYLE_SET_GET_DECLARE(SHADOW_OFS_Y, shadow_ofs_y, lv_style_int_t, _int, scalar)
 140:lvgl/src/lv_core/lv_obj_style_dec.h **** _LV_OBJ_STYLE_SET_GET_DECLARE(SHADOW_SPREAD, shadow_spread, lv_style_int_t, _int, scalar)
 141:lvgl/src/lv_core/lv_obj_style_dec.h **** _LV_OBJ_STYLE_SET_GET_DECLARE(SHADOW_BLEND_MODE, shadow_blend_mode, lv_blend_mode_t, _int, scalar)
 142:lvgl/src/lv_core/lv_obj_style_dec.h **** _LV_OBJ_STYLE_SET_GET_DECLARE(SHADOW_COLOR, shadow_color, lv_color_t, _color, nonscalar)
 143:lvgl/src/lv_core/lv_obj_style_dec.h **** _LV_OBJ_STYLE_SET_GET_DECLARE(SHADOW_OPA, shadow_opa, lv_opa_t, _opa, scalar)
 144:lvgl/src/lv_core/lv_obj_style_dec.h **** _LV_OBJ_STYLE_SET_GET_DECLARE(PATTERN_REPEAT, pattern_repeat, bool, _int, scalar)
 145:lvgl/src/lv_core/lv_obj_style_dec.h **** _LV_OBJ_STYLE_SET_GET_DECLARE(PATTERN_BLEND_MODE, pattern_blend_mode, lv_blend_mode_t, _int, scalar
 146:lvgl/src/lv_core/lv_obj_style_dec.h **** _LV_OBJ_STYLE_SET_GET_DECLARE(PATTERN_RECOLOR, pattern_recolor, lv_color_t, _color, nonscalar)
 147:lvgl/src/lv_core/lv_obj_style_dec.h **** _LV_OBJ_STYLE_SET_GET_DECLARE(PATTERN_OPA, pattern_opa, lv_opa_t, _opa, scalar)
 148:lvgl/src/lv_core/lv_obj_style_dec.h **** _LV_OBJ_STYLE_SET_GET_DECLARE(PATTERN_RECOLOR_OPA, pattern_recolor_opa, lv_opa_t, _opa, scalar)
 149:lvgl/src/lv_core/lv_obj_style_dec.h **** _LV_OBJ_STYLE_SET_GET_DECLARE(PATTERN_IMAGE, pattern_image, const void *, _ptr, scalar)
 150:lvgl/src/lv_core/lv_obj_style_dec.h **** _LV_OBJ_STYLE_SET_GET_DECLARE(VALUE_LETTER_SPACE, value_letter_space, lv_style_int_t, _int, scalar)
 151:lvgl/src/lv_core/lv_obj_style_dec.h **** _LV_OBJ_STYLE_SET_GET_DECLARE(VALUE_LINE_SPACE, value_line_space, lv_style_int_t, _int, scalar)
 152:lvgl/src/lv_core/lv_obj_style_dec.h **** _LV_OBJ_STYLE_SET_GET_DECLARE(VALUE_BLEND_MODE, value_blend_mode, lv_blend_mode_t, _int, scalar)
ARM GAS  C:\Users\strap\AppData\Local\Temp\cci64Z2T.s 			page 29


 153:lvgl/src/lv_core/lv_obj_style_dec.h **** _LV_OBJ_STYLE_SET_GET_DECLARE(VALUE_OFS_X, value_ofs_x, lv_style_int_t, _int, scalar)
 154:lvgl/src/lv_core/lv_obj_style_dec.h **** _LV_OBJ_STYLE_SET_GET_DECLARE(VALUE_OFS_Y, value_ofs_y, lv_style_int_t, _int, scalar)
 155:lvgl/src/lv_core/lv_obj_style_dec.h **** _LV_OBJ_STYLE_SET_GET_DECLARE(VALUE_ALIGN, value_align, lv_align_t, _int, scalar)
 156:lvgl/src/lv_core/lv_obj_style_dec.h **** _LV_OBJ_STYLE_SET_GET_DECLARE(VALUE_COLOR, value_color, lv_color_t, _color, nonscalar)
 157:lvgl/src/lv_core/lv_obj_style_dec.h **** _LV_OBJ_STYLE_SET_GET_DECLARE(VALUE_OPA, value_opa, lv_opa_t, _opa, scalar)
 158:lvgl/src/lv_core/lv_obj_style_dec.h **** _LV_OBJ_STYLE_SET_GET_DECLARE(VALUE_FONT, value_font, const lv_font_t *, _ptr, scalar)
 159:lvgl/src/lv_core/lv_obj_style_dec.h **** _LV_OBJ_STYLE_SET_GET_DECLARE(VALUE_STR, value_str, const char *, _ptr, scalar)
 630              		.loc 3 159 0
 631 0036 134B     		ldr	r3, .L43+16
 632 0038 7F22     		movs	r2, #127
 633 003a 0021     		movs	r1, #0
 634 003c 2068     		ldr	r0, [r4]
 635 003e FFF7FEFF 		bl	_lv_obj_set_style_local_ptr
 636              	.LVL83:
 637              	.LBE44:
 638              	.LBE43:
 639              	.LBB45:
 640              	.LBB46:
 641              	.LBB47:
 642              		.file 4 "lvgl/src/lv_widgets/lv_cont.h"
   1:lvgl/src/lv_widgets/lv_cont.h **** /**
   2:lvgl/src/lv_widgets/lv_cont.h ****  * @file lv_cont.h
   3:lvgl/src/lv_widgets/lv_cont.h ****  *
   4:lvgl/src/lv_widgets/lv_cont.h ****  */
   5:lvgl/src/lv_widgets/lv_cont.h **** 
   6:lvgl/src/lv_widgets/lv_cont.h **** #ifndef LV_CONT_H
   7:lvgl/src/lv_widgets/lv_cont.h **** #define LV_CONT_H
   8:lvgl/src/lv_widgets/lv_cont.h **** 
   9:lvgl/src/lv_widgets/lv_cont.h **** #ifdef __cplusplus
  10:lvgl/src/lv_widgets/lv_cont.h **** extern "C" {
  11:lvgl/src/lv_widgets/lv_cont.h **** #endif
  12:lvgl/src/lv_widgets/lv_cont.h **** 
  13:lvgl/src/lv_widgets/lv_cont.h **** /*********************
  14:lvgl/src/lv_widgets/lv_cont.h ****  *      INCLUDES
  15:lvgl/src/lv_widgets/lv_cont.h ****  *********************/
  16:lvgl/src/lv_widgets/lv_cont.h **** #include "../lv_conf_internal.h"
  17:lvgl/src/lv_widgets/lv_cont.h **** 
  18:lvgl/src/lv_widgets/lv_cont.h **** #if LV_USE_CONT != 0
  19:lvgl/src/lv_widgets/lv_cont.h **** 
  20:lvgl/src/lv_widgets/lv_cont.h **** #include "../lv_core/lv_obj.h"
  21:lvgl/src/lv_widgets/lv_cont.h **** 
  22:lvgl/src/lv_widgets/lv_cont.h **** /*********************
  23:lvgl/src/lv_widgets/lv_cont.h ****  *      DEFINES
  24:lvgl/src/lv_widgets/lv_cont.h ****  *********************/
  25:lvgl/src/lv_widgets/lv_cont.h **** 
  26:lvgl/src/lv_widgets/lv_cont.h **** /**********************
  27:lvgl/src/lv_widgets/lv_cont.h ****  *      TYPEDEFS
  28:lvgl/src/lv_widgets/lv_cont.h ****  **********************/
  29:lvgl/src/lv_widgets/lv_cont.h **** 
  30:lvgl/src/lv_widgets/lv_cont.h **** /** Container layout options*/
  31:lvgl/src/lv_widgets/lv_cont.h **** enum {
  32:lvgl/src/lv_widgets/lv_cont.h ****     LV_LAYOUT_OFF = 0, /**< No layout */
  33:lvgl/src/lv_widgets/lv_cont.h ****     LV_LAYOUT_CENTER, /**< Center objects */
  34:lvgl/src/lv_widgets/lv_cont.h **** 
  35:lvgl/src/lv_widgets/lv_cont.h ****     /**
  36:lvgl/src/lv_widgets/lv_cont.h ****      * COULMN:
  37:lvgl/src/lv_widgets/lv_cont.h ****      * - Place the object below each other
ARM GAS  C:\Users\strap\AppData\Local\Temp\cci64Z2T.s 			page 30


  38:lvgl/src/lv_widgets/lv_cont.h ****      * - Keep `pad_top` space on the top
  39:lvgl/src/lv_widgets/lv_cont.h ****      * - Keep `pad_inner` space between the objects
  40:lvgl/src/lv_widgets/lv_cont.h ****      */
  41:lvgl/src/lv_widgets/lv_cont.h ****     LV_LAYOUT_COLUMN_LEFT,      /**< Column left align*/
  42:lvgl/src/lv_widgets/lv_cont.h ****     LV_LAYOUT_COLUMN_MID,       /**< Column middle align*/
  43:lvgl/src/lv_widgets/lv_cont.h ****     LV_LAYOUT_COLUMN_RIGHT,     /**< Column right align*/
  44:lvgl/src/lv_widgets/lv_cont.h **** 
  45:lvgl/src/lv_widgets/lv_cont.h ****     /**
  46:lvgl/src/lv_widgets/lv_cont.h ****      * ROW:
  47:lvgl/src/lv_widgets/lv_cont.h ****      * - Place the object next to each other
  48:lvgl/src/lv_widgets/lv_cont.h ****      * - Keep `pad_left` space on the left
  49:lvgl/src/lv_widgets/lv_cont.h ****      * - Keep `pad_inner` space between the objects
  50:lvgl/src/lv_widgets/lv_cont.h ****      * - If the object which applies the layout has `base_dir == LV_BIDI_DIR_RTL`
  51:lvgl/src/lv_widgets/lv_cont.h ****      *   the row will start from the right applying `pad.right` space
  52:lvgl/src/lv_widgets/lv_cont.h ****      */
  53:lvgl/src/lv_widgets/lv_cont.h ****     LV_LAYOUT_ROW_TOP,          /**< Row top align*/
  54:lvgl/src/lv_widgets/lv_cont.h ****     LV_LAYOUT_ROW_MID,          /**< Row middle align*/
  55:lvgl/src/lv_widgets/lv_cont.h ****     LV_LAYOUT_ROW_BOTTOM,       /**< Row bottom align*/
  56:lvgl/src/lv_widgets/lv_cont.h **** 
  57:lvgl/src/lv_widgets/lv_cont.h **** 
  58:lvgl/src/lv_widgets/lv_cont.h ****     /**
  59:lvgl/src/lv_widgets/lv_cont.h ****      * PRETTY:
  60:lvgl/src/lv_widgets/lv_cont.h ****      * - Place the object next to each other
  61:lvgl/src/lv_widgets/lv_cont.h ****      * - If there is no more space start a new row
  62:lvgl/src/lv_widgets/lv_cont.h ****      * - Respect `pad_left` and `pad_right` when determining the available space in a row
  63:lvgl/src/lv_widgets/lv_cont.h ****      * - Keep `pad_inner` space between the objects in the same row
  64:lvgl/src/lv_widgets/lv_cont.h ****      * - Keep `pad_inner` space between the objects in rows
  65:lvgl/src/lv_widgets/lv_cont.h ****      * - Divide the remaining horizontal space equally
  66:lvgl/src/lv_widgets/lv_cont.h ****      */
  67:lvgl/src/lv_widgets/lv_cont.h ****     LV_LAYOUT_PRETTY_TOP,       /**< Row top align*/
  68:lvgl/src/lv_widgets/lv_cont.h ****     LV_LAYOUT_PRETTY_MID,       /**< Row middle align*/
  69:lvgl/src/lv_widgets/lv_cont.h ****     LV_LAYOUT_PRETTY_BOTTOM,    /**< Row bottom align*/
  70:lvgl/src/lv_widgets/lv_cont.h **** 
  71:lvgl/src/lv_widgets/lv_cont.h ****     /**
  72:lvgl/src/lv_widgets/lv_cont.h ****      * GRID
  73:lvgl/src/lv_widgets/lv_cont.h ****      * - Place the object next to each other
  74:lvgl/src/lv_widgets/lv_cont.h ****      * - If there is no more space start a new row
  75:lvgl/src/lv_widgets/lv_cont.h ****      * - Respect `pad_left` and `pad_right` when determining the available space in a row
  76:lvgl/src/lv_widgets/lv_cont.h ****      * - Keep `pad_inner` space between the objects in the same row
  77:lvgl/src/lv_widgets/lv_cont.h ****      * - Keep `pad_inner` space between the objects in rows
  78:lvgl/src/lv_widgets/lv_cont.h ****      * - Unlike `PRETTY`, `GRID` always keep `pad_inner` space horizontally between objects
  79:lvgl/src/lv_widgets/lv_cont.h ****      *   so it doesn't divide the remaining horizontal space equally
  80:lvgl/src/lv_widgets/lv_cont.h ****      */
  81:lvgl/src/lv_widgets/lv_cont.h ****     LV_LAYOUT_GRID,   /**< Align same-sized object into a grid*/
  82:lvgl/src/lv_widgets/lv_cont.h **** 
  83:lvgl/src/lv_widgets/lv_cont.h ****     _LV_LAYOUT_LAST
  84:lvgl/src/lv_widgets/lv_cont.h **** };
  85:lvgl/src/lv_widgets/lv_cont.h **** typedef uint8_t lv_layout_t;
  86:lvgl/src/lv_widgets/lv_cont.h **** 
  87:lvgl/src/lv_widgets/lv_cont.h **** /**
  88:lvgl/src/lv_widgets/lv_cont.h ****  * How to resize the container around the children.
  89:lvgl/src/lv_widgets/lv_cont.h ****  */
  90:lvgl/src/lv_widgets/lv_cont.h **** enum {
  91:lvgl/src/lv_widgets/lv_cont.h ****     LV_FIT_NONE,  /**< Do not change the size automatically*/
  92:lvgl/src/lv_widgets/lv_cont.h ****     LV_FIT_TIGHT, /**< Shrink wrap around the children */
  93:lvgl/src/lv_widgets/lv_cont.h ****     LV_FIT_PARENT, /**< Align the size to the parent's edge*/
  94:lvgl/src/lv_widgets/lv_cont.h ****     LV_FIT_MAX,  /**< Align the size to the parent's edge first but if there is an object out of it
ARM GAS  C:\Users\strap\AppData\Local\Temp\cci64Z2T.s 			page 31


  95:lvgl/src/lv_widgets/lv_cont.h ****                      then get larger */
  96:lvgl/src/lv_widgets/lv_cont.h ****     _LV_FIT_LAST
  97:lvgl/src/lv_widgets/lv_cont.h **** };
  98:lvgl/src/lv_widgets/lv_cont.h **** typedef uint8_t lv_fit_t;
  99:lvgl/src/lv_widgets/lv_cont.h **** 
 100:lvgl/src/lv_widgets/lv_cont.h **** typedef struct {
 101:lvgl/src/lv_widgets/lv_cont.h ****     /*Inherited from 'base_obj' so no inherited ext. */ /*Ext. of ancestor*/
 102:lvgl/src/lv_widgets/lv_cont.h ****     /*New data for this type */
 103:lvgl/src/lv_widgets/lv_cont.h ****     lv_layout_t layout : 4;     /*A layout from 'lv_layout_t' enum*/
 104:lvgl/src/lv_widgets/lv_cont.h ****     lv_fit_t fit_left : 2;   /*A fit type from `lv_fit_t` enum */
 105:lvgl/src/lv_widgets/lv_cont.h ****     lv_fit_t fit_right : 2;  /*A fit type from `lv_fit_t` enum */
 106:lvgl/src/lv_widgets/lv_cont.h ****     lv_fit_t fit_top : 2;    /*A fit type from `lv_fit_t` enum */
 107:lvgl/src/lv_widgets/lv_cont.h ****     lv_fit_t fit_bottom : 2; /*A fit type from `lv_fit_t` enum */
 108:lvgl/src/lv_widgets/lv_cont.h **** } lv_cont_ext_t;
 109:lvgl/src/lv_widgets/lv_cont.h **** 
 110:lvgl/src/lv_widgets/lv_cont.h **** /*Part of the container*/
 111:lvgl/src/lv_widgets/lv_cont.h **** enum {
 112:lvgl/src/lv_widgets/lv_cont.h ****     LV_CONT_PART_MAIN = LV_OBJ_PART_MAIN,
 113:lvgl/src/lv_widgets/lv_cont.h ****     _LV_CONT_PART_VIRTUAL_LAST = _LV_OBJ_PART_VIRTUAL_LAST,
 114:lvgl/src/lv_widgets/lv_cont.h ****     _LV_CONT_PART_REAL_LAST = _LV_OBJ_PART_REAL_LAST,
 115:lvgl/src/lv_widgets/lv_cont.h **** };
 116:lvgl/src/lv_widgets/lv_cont.h **** 
 117:lvgl/src/lv_widgets/lv_cont.h **** /**********************
 118:lvgl/src/lv_widgets/lv_cont.h ****  * GLOBAL PROTOTYPES
 119:lvgl/src/lv_widgets/lv_cont.h ****  **********************/
 120:lvgl/src/lv_widgets/lv_cont.h **** 
 121:lvgl/src/lv_widgets/lv_cont.h **** /**
 122:lvgl/src/lv_widgets/lv_cont.h ****  * Create a container objects
 123:lvgl/src/lv_widgets/lv_cont.h ****  * @param par pointer to an object, it will be the parent of the new container
 124:lvgl/src/lv_widgets/lv_cont.h ****  * @param copy pointer to a container object, if not NULL then the new object will be copied from i
 125:lvgl/src/lv_widgets/lv_cont.h ****  * @return pointer to the created container
 126:lvgl/src/lv_widgets/lv_cont.h ****  */
 127:lvgl/src/lv_widgets/lv_cont.h **** lv_obj_t * lv_cont_create(lv_obj_t * par, const lv_obj_t * copy);
 128:lvgl/src/lv_widgets/lv_cont.h **** 
 129:lvgl/src/lv_widgets/lv_cont.h **** /*=====================
 130:lvgl/src/lv_widgets/lv_cont.h ****  * Setter functions
 131:lvgl/src/lv_widgets/lv_cont.h ****  *====================*/
 132:lvgl/src/lv_widgets/lv_cont.h **** 
 133:lvgl/src/lv_widgets/lv_cont.h **** /**
 134:lvgl/src/lv_widgets/lv_cont.h ****  * Set a layout on a container
 135:lvgl/src/lv_widgets/lv_cont.h ****  * @param cont pointer to a container object
 136:lvgl/src/lv_widgets/lv_cont.h ****  * @param layout a layout from 'lv_cont_layout_t'
 137:lvgl/src/lv_widgets/lv_cont.h ****  */
 138:lvgl/src/lv_widgets/lv_cont.h **** void lv_cont_set_layout(lv_obj_t * cont, lv_layout_t layout);
 139:lvgl/src/lv_widgets/lv_cont.h **** 
 140:lvgl/src/lv_widgets/lv_cont.h **** /**
 141:lvgl/src/lv_widgets/lv_cont.h ****  * Set the fit policy in all 4 directions separately.
 142:lvgl/src/lv_widgets/lv_cont.h ****  * It tell how to change the container's size automatically.
 143:lvgl/src/lv_widgets/lv_cont.h ****  * @param cont pointer to a container object
 144:lvgl/src/lv_widgets/lv_cont.h ****  * @param left left fit policy from `lv_fit_t`
 145:lvgl/src/lv_widgets/lv_cont.h ****  * @param right right fit policy from `lv_fit_t`
 146:lvgl/src/lv_widgets/lv_cont.h ****  * @param top top fit policy from `lv_fit_t`
 147:lvgl/src/lv_widgets/lv_cont.h ****  * @param bottom bottom fit policy from `lv_fit_t`
 148:lvgl/src/lv_widgets/lv_cont.h ****  */
 149:lvgl/src/lv_widgets/lv_cont.h **** void lv_cont_set_fit4(lv_obj_t * cont, lv_fit_t left, lv_fit_t right, lv_fit_t top, lv_fit_t bottom
 150:lvgl/src/lv_widgets/lv_cont.h **** 
 151:lvgl/src/lv_widgets/lv_cont.h **** /**
ARM GAS  C:\Users\strap\AppData\Local\Temp\cci64Z2T.s 			page 32


 152:lvgl/src/lv_widgets/lv_cont.h ****  * Set the fit policy horizontally and vertically separately.
 153:lvgl/src/lv_widgets/lv_cont.h ****  * It tells how to change the container's size automatically.
 154:lvgl/src/lv_widgets/lv_cont.h ****  * @param cont pointer to a container object
 155:lvgl/src/lv_widgets/lv_cont.h ****  * @param hor horizontal fit policy from `lv_fit_t`
 156:lvgl/src/lv_widgets/lv_cont.h ****  * @param ver vertical fit policy from `lv_fit_t`
 157:lvgl/src/lv_widgets/lv_cont.h ****  */
 158:lvgl/src/lv_widgets/lv_cont.h **** static inline void lv_cont_set_fit2(lv_obj_t * cont, lv_fit_t hor, lv_fit_t ver)
 159:lvgl/src/lv_widgets/lv_cont.h **** {
 160:lvgl/src/lv_widgets/lv_cont.h ****     lv_cont_set_fit4(cont, hor, hor, ver, ver);
 643              		.loc 4 160 0
 644 0042 0023     		movs	r3, #0
 645 0044 0093     		str	r3, [sp]
 646 0046 0222     		movs	r2, #2
 647 0048 1146     		mov	r1, r2
 648 004a 2068     		ldr	r0, [r4]
 649 004c FFF7FEFF 		bl	lv_cont_set_fit4
 650              	.LVL84:
 651              	.LBE47:
 652              	.LBE46:
 653              	.LBE45:
 599:main.c        ****     lv_obj_set_event_cb(voltage_ok_btn, voltage_ok_btn_handler);
 654              		.loc 1 599 0
 655 0050 0D49     		ldr	r1, .L43+20
 656 0052 2868     		ldr	r0, [r5]
 657 0054 FFF7FEFF 		bl	lv_obj_set_event_cb
 658              	.LVL85:
 600:main.c        ****     
 659              		.loc 1 600 0
 660 0058 0C49     		ldr	r1, .L43+24
 661 005a 2068     		ldr	r0, [r4]
 662 005c FFF7FEFF 		bl	lv_obj_set_event_cb
 663              	.LVL86:
 602:main.c        ****     lv_obj_set_hidden(voltage_ok_btn, true);
 664              		.loc 1 602 0
 665 0060 0121     		movs	r1, #1
 666 0062 2868     		ldr	r0, [r5]
 667 0064 FFF7FEFF 		bl	lv_obj_set_hidden
 668              	.LVL87:
 603:main.c        **** }
 669              		.loc 1 603 0
 670 0068 0121     		movs	r1, #1
 671 006a 2068     		ldr	r0, [r4]
 672 006c FFF7FEFF 		bl	lv_obj_set_hidden
 673              	.LVL88:
 604:main.c        **** 
 674              		.loc 1 604 0
 675 0070 02B0     		add	sp, sp, #8
 676              		.cfi_def_cfa_offset 16
 677              		@ sp needed
 678 0072 70BD     		pop	{r4, r5, r6, pc}
 679              	.L44:
 680              		.align	2
 681              	.L43:
 682 0074 00000000 		.word	voltage_ddlist
 683 0078 00000000 		.word	voltage_ok_btn
 684 007c 38000000 		.word	.LC3
 685 0080 00000000 		.word	.LANCHOR0
ARM GAS  C:\Users\strap\AppData\Local\Temp\cci64Z2T.s 			page 33


 686 0084 44000000 		.word	.LC4
 687 0088 00000000 		.word	voltage_ddlist_handler
 688 008c 00000000 		.word	voltage_ok_btn_handler
 689              		.cfi_endproc
 690              	.LFE457:
 691              		.size	create_voltage_container_widgets, .-create_voltage_container_widgets
 692              		.section	.text.create_type_container_widgets,"ax",%progbits
 693              		.align	2
 694              		.thumb
 695              		.thumb_func
 696              		.type	create_type_container_widgets, %function
 697              	create_type_container_widgets:
 698              	.LFB453:
 487:main.c        ****     /* Widgets creation */
 699              		.loc 1 487 0
 700              		.cfi_startproc
 701              		@ args = 0, pretend = 0, frame = 0
 702              		@ frame_needed = 0, uses_anonymous_args = 0
 703              	.LVL89:
 704 0000 F0B5     		push	{r4, r5, r6, r7, lr}
 705              		.cfi_def_cfa_offset 20
 706              		.cfi_offset 4, -20
 707              		.cfi_offset 5, -16
 708              		.cfi_offset 6, -12
 709              		.cfi_offset 7, -8
 710              		.cfi_offset 14, -4
 711 0002 83B0     		sub	sp, sp, #12
 712              		.cfi_def_cfa_offset 32
 713 0004 0746     		mov	r7, r0
 489:main.c        ****     custom_spinbox = lv_spinbox_create(parent, NULL);
 714              		.loc 1 489 0
 715 0006 0021     		movs	r1, #0
 716 0008 FFF7FEFF 		bl	lv_dropdown_create
 717              	.LVL90:
 718 000c 374E     		ldr	r6, .L47
 719 000e 3060     		str	r0, [r6]
 490:main.c        ****     type_param_ok_btn = lv_btn_create(parent, NULL);
 720              		.loc 1 490 0
 721 0010 0021     		movs	r1, #0
 722 0012 3846     		mov	r0, r7
 723 0014 FFF7FEFF 		bl	lv_spinbox_create
 724              	.LVL91:
 725 0018 354C     		ldr	r4, .L47+4
 726 001a 2060     		str	r0, [r4]
 491:main.c        ****     
 727              		.loc 1 491 0
 728 001c 0021     		movs	r1, #0
 729 001e 3846     		mov	r0, r7
 730 0020 FFF7FEFF 		bl	lv_btn_create
 731              	.LVL92:
 732 0024 334D     		ldr	r5, .L47+8
 733 0026 2860     		str	r0, [r5]
 493:main.c        ****     
 734              		.loc 1 493 0
 735 0028 3349     		ldr	r1, .L47+12
 736 002a 3068     		ldr	r0, [r6]
 737 002c FFF7FEFF 		bl	lv_dropdown_set_options
ARM GAS  C:\Users\strap\AppData\Local\Temp\cci64Z2T.s 			page 34


 738              	.LVL93:
 495:main.c        ****     lv_spinbox_set_digit_format(custom_spinbox, 3, 0);
 739              		.loc 1 495 0
 740 0030 8022     		movs	r2, #128
 741 0032 0121     		movs	r1, #1
 742 0034 2068     		ldr	r0, [r4]
 743 0036 FFF7FEFF 		bl	lv_spinbox_set_range
 744              	.LVL94:
 496:main.c        ****     
 745              		.loc 1 496 0
 746 003a 0022     		movs	r2, #0
 747 003c 0321     		movs	r1, #3
 748 003e 2068     		ldr	r0, [r4]
 749 0040 FFF7FEFF 		bl	lv_spinbox_set_digit_format
 750              	.LVL95:
 499:main.c        ****     lv_textarea_set_text_align(custom_spinbox, LV_LABEL_ALIGN_CENTER);
 751              		.loc 1 499 0
 752 0044 0121     		movs	r1, #1
 753 0046 2068     		ldr	r0, [r4]
 754 0048 FFF7FEFF 		bl	lv_textarea_set_cursor_hidden
 755              	.LVL96:
 500:main.c        ****     
 756              		.loc 1 500 0
 757 004c 0121     		movs	r1, #1
 758 004e 2068     		ldr	r0, [r4]
 759 0050 FFF7FEFF 		bl	lv_textarea_set_text_align
 760              	.LVL97:
 503:main.c        ****     
 761              		.loc 1 503 0
 762 0054 2021     		movs	r1, #32
 763 0056 2068     		ldr	r0, [r4]
 764 0058 FFF7FEFF 		bl	lv_obj_set_state
 765              	.LVL98:
 508:main.c        ****     lv_obj_set_width_fit(burst_type_list, parent_w - 5);
 766              		.loc 1 508 0
 767 005c 3846     		mov	r0, r7
 768 005e FFF7FEFF 		bl	lv_obj_get_width
 769              	.LVL99:
 509:main.c        ****     lv_obj_set_width_fit(custom_spinbox, parent_w - 20);
 770              		.loc 1 509 0
 771 0062 87B2     		uxth	r7, r0
 772              	.LVL100:
 773 0064 791F     		subs	r1, r7, #5
 774 0066 09B2     		sxth	r1, r1
 775 0068 3068     		ldr	r0, [r6]
 776              	.LVL101:
 777 006a FFF7FEFF 		bl	lv_obj_set_width_fit
 778              	.LVL102:
 510:main.c        ****     
 779              		.loc 1 510 0
 780 006e A7F11401 		sub	r1, r7, #20
 781 0072 09B2     		sxth	r1, r1
 782 0074 2068     		ldr	r0, [r4]
 783 0076 FFF7FEFF 		bl	lv_obj_set_width_fit
 784              	.LVL103:
 785              	.LBB48:
 786              	.LBB49:
ARM GAS  C:\Users\strap\AppData\Local\Temp\cci64Z2T.s 			page 35


 787              		.loc 3 159 0
 788 007a 204B     		ldr	r3, .L47+16
 789 007c 7F22     		movs	r2, #127
 790 007e 0021     		movs	r1, #0
 791 0080 2868     		ldr	r0, [r5]
 792 0082 FFF7FEFF 		bl	_lv_obj_set_style_local_ptr
 793              	.LVL104:
 794              	.LBE49:
 795              	.LBE48:
 796              	.LBB50:
 797              	.LBB51:
 798              	.LBB52:
 799              		.loc 4 160 0
 800 0086 0027     		movs	r7, #0
 801              	.LVL105:
 802 0088 0097     		str	r7, [sp]
 803 008a 3B46     		mov	r3, r7
 804 008c 0222     		movs	r2, #2
 805 008e 1146     		mov	r1, r2
 806 0090 2868     		ldr	r0, [r5]
 807 0092 FFF7FEFF 		bl	lv_cont_set_fit4
 808              	.LVL106:
 809              	.LBE52:
 810              	.LBE51:
 811              	.LBE50:
 516:main.c        ****     
 812              		.loc 1 516 0
 813 0096 0097     		str	r7, [sp]
 814 0098 3B46     		mov	r3, r7
 815 009a 0522     		movs	r2, #5
 816 009c 3946     		mov	r1, r7
 817 009e 2868     		ldr	r0, [r5]
 818 00a0 FFF7FEFF 		bl	lv_obj_align
 819              	.LVL107:
 519:main.c        ****     // lv_obj_set_event_cb(custom_spinbox, custom_spinbox_handler);
 820              		.loc 1 519 0
 821 00a4 1649     		ldr	r1, .L47+20
 822 00a6 3068     		ldr	r0, [r6]
 823 00a8 FFF7FEFF 		bl	lv_obj_set_event_cb
 824              	.LVL108:
 521:main.c        ****     
 825              		.loc 1 521 0
 826 00ac 1549     		ldr	r1, .L47+24
 827 00ae 2868     		ldr	r0, [r5]
 828 00b0 FFF7FEFF 		bl	lv_obj_set_event_cb
 829              	.LVL109:
 524:main.c        ****     lv_group_add_obj(burst_type_params_g, custom_spinbox);
 830              		.loc 1 524 0
 831 00b4 144F     		ldr	r7, .L47+28
 832 00b6 3168     		ldr	r1, [r6]
 833 00b8 B869     		ldr	r0, [r7, #24]
 834 00ba FFF7FEFF 		bl	lv_group_add_obj
 835              	.LVL110:
 525:main.c        ****     lv_group_add_obj(burst_type_params_g, type_param_ok_btn);
 836              		.loc 1 525 0
 837 00be 2168     		ldr	r1, [r4]
 838 00c0 B869     		ldr	r0, [r7, #24]
ARM GAS  C:\Users\strap\AppData\Local\Temp\cci64Z2T.s 			page 36


 839 00c2 FFF7FEFF 		bl	lv_group_add_obj
 840              	.LVL111:
 526:main.c        ****     
 841              		.loc 1 526 0
 842 00c6 2968     		ldr	r1, [r5]
 843 00c8 B869     		ldr	r0, [r7, #24]
 844 00ca FFF7FEFF 		bl	lv_group_add_obj
 845              	.LVL112:
 528:main.c        ****     lv_obj_set_hidden(burst_type_list, true);
 846              		.loc 1 528 0
 847 00ce 0121     		movs	r1, #1
 848 00d0 2068     		ldr	r0, [r4]
 849 00d2 FFF7FEFF 		bl	lv_obj_set_hidden
 850              	.LVL113:
 529:main.c        ****     lv_obj_set_hidden(type_param_ok_btn, true);
 851              		.loc 1 529 0
 852 00d6 0121     		movs	r1, #1
 853 00d8 3068     		ldr	r0, [r6]
 854 00da FFF7FEFF 		bl	lv_obj_set_hidden
 855              	.LVL114:
 530:main.c        **** }
 856              		.loc 1 530 0
 857 00de 0121     		movs	r1, #1
 858 00e0 2868     		ldr	r0, [r5]
 859 00e2 FFF7FEFF 		bl	lv_obj_set_hidden
 860              	.LVL115:
 531:main.c        **** 
 861              		.loc 1 531 0
 862 00e6 03B0     		add	sp, sp, #12
 863              		.cfi_def_cfa_offset 20
 864              		@ sp needed
 865 00e8 F0BD     		pop	{r4, r5, r6, r7, pc}
 866              	.L48:
 867 00ea 00BF     		.align	2
 868              	.L47:
 869 00ec 00000000 		.word	burst_type_list
 870 00f0 00000000 		.word	custom_spinbox
 871 00f4 00000000 		.word	type_param_ok_btn
 872 00f8 48000000 		.word	.LC5
 873 00fc 44000000 		.word	.LC4
 874 0100 00000000 		.word	burst_type_list_handler
 875 0104 00000000 		.word	type_param_ok_callback
 876 0108 00000000 		.word	.LANCHOR0
 877              		.cfi_endproc
 878              	.LFE453:
 879              		.size	create_type_container_widgets, .-create_type_container_widgets
 880              		.section	.text.create_pulses_container_widgets,"ax",%progbits
 881              		.align	2
 882              		.thumb
 883              		.thumb_func
 884              		.type	create_pulses_container_widgets, %function
 885              	create_pulses_container_widgets:
 886              	.LFB459:
 618:main.c        ****     }
 619:main.c        **** }
 620:main.c        **** 
 621:main.c        **** static void create_pulses_container_widgets(lv_obj_t *parent)
ARM GAS  C:\Users\strap\AppData\Local\Temp\cci64Z2T.s 			page 37


 622:main.c        **** {
 887              		.loc 1 622 0
 888              		.cfi_startproc
 889              		@ args = 0, pretend = 0, frame = 0
 890              		@ frame_needed = 0, uses_anonymous_args = 0
 891              	.LVL116:
 892 0000 F0B5     		push	{r4, r5, r6, r7, lr}
 893              		.cfi_def_cfa_offset 20
 894              		.cfi_offset 4, -20
 895              		.cfi_offset 5, -16
 896              		.cfi_offset 6, -12
 897              		.cfi_offset 7, -8
 898              		.cfi_offset 14, -4
 899 0002 83B0     		sub	sp, sp, #12
 900              		.cfi_def_cfa_offset 32
 901 0004 0646     		mov	r6, r0
 623:main.c        ****     pulses_spinbox = lv_spinbox_create(parent, NULL);
 902              		.loc 1 623 0
 903 0006 0021     		movs	r1, #0
 904 0008 FFF7FEFF 		bl	lv_spinbox_create
 905              	.LVL117:
 906 000c 234C     		ldr	r4, .L51
 907 000e 2060     		str	r0, [r4]
 624:main.c        ****     pulses_ok_btn = lv_btn_create(parent, NULL);
 908              		.loc 1 624 0
 909 0010 0021     		movs	r1, #0
 910 0012 3046     		mov	r0, r6
 911 0014 FFF7FEFF 		bl	lv_btn_create
 912              	.LVL118:
 913 0018 214D     		ldr	r5, .L51+4
 914 001a 2860     		str	r0, [r5]
 625:main.c        ****     
 626:main.c        ****     /* Adding new widgets into the group so the encoder can choose them */
 627:main.c        ****     lv_group_add_obj(pulses_params_g, pulses_spinbox);
 915              		.loc 1 627 0
 916 001c 214F     		ldr	r7, .L51+8
 917 001e 2168     		ldr	r1, [r4]
 918 0020 386A     		ldr	r0, [r7, #32]
 919 0022 FFF7FEFF 		bl	lv_group_add_obj
 920              	.LVL119:
 628:main.c        ****     lv_group_add_obj(pulses_params_g, pulses_ok_btn);
 921              		.loc 1 628 0
 922 0026 2968     		ldr	r1, [r5]
 923 0028 386A     		ldr	r0, [r7, #32]
 924 002a FFF7FEFF 		bl	lv_group_add_obj
 925              	.LVL120:
 629:main.c        ****     
 630:main.c        ****     lv_textarea_set_cursor_hidden(pulses_spinbox, false /* true */);
 926              		.loc 1 630 0
 927 002e 0021     		movs	r1, #0
 928 0030 2068     		ldr	r0, [r4]
 929 0032 FFF7FEFF 		bl	lv_textarea_set_cursor_hidden
 930              	.LVL121:
 631:main.c        ****     lv_textarea_set_text_align(pulses_spinbox, LV_LABEL_ALIGN_CENTER);
 931              		.loc 1 631 0
 932 0036 0121     		movs	r1, #1
 933 0038 2068     		ldr	r0, [r4]
ARM GAS  C:\Users\strap\AppData\Local\Temp\cci64Z2T.s 			page 38


 934 003a FFF7FEFF 		bl	lv_textarea_set_text_align
 935              	.LVL122:
 632:main.c        ****     
 633:main.c        ****     lv_coord_t parent_w = lv_obj_get_width(parent);
 936              		.loc 1 633 0
 937 003e 3046     		mov	r0, r6
 938 0040 FFF7FEFF 		bl	lv_obj_get_width
 939              	.LVL123:
 634:main.c        ****     lv_obj_set_width_fit(pulses_spinbox, parent_w - 20);
 940              		.loc 1 634 0
 941 0044 A0F11401 		sub	r1, r0, #20
 942 0048 09B2     		sxth	r1, r1
 943 004a 2068     		ldr	r0, [r4]
 944              	.LVL124:
 945 004c FFF7FEFF 		bl	lv_obj_set_width_fit
 946              	.LVL125:
 947              	.LBB53:
 948              	.LBB54:
 949              		.loc 3 159 0
 950 0050 154B     		ldr	r3, .L51+12
 951 0052 7F22     		movs	r2, #127
 952 0054 0021     		movs	r1, #0
 953 0056 2868     		ldr	r0, [r5]
 954 0058 FFF7FEFF 		bl	_lv_obj_set_style_local_ptr
 955              	.LVL126:
 956              	.LBE54:
 957              	.LBE53:
 958              	.LBB55:
 959              	.LBB56:
 960              	.LBB57:
 961              		.loc 4 160 0
 962 005c 0026     		movs	r6, #0
 963              	.LVL127:
 964 005e 0096     		str	r6, [sp]
 965 0060 3346     		mov	r3, r6
 966 0062 0222     		movs	r2, #2
 967 0064 1146     		mov	r1, r2
 968 0066 2868     		ldr	r0, [r5]
 969 0068 FFF7FEFF 		bl	lv_cont_set_fit4
 970              	.LVL128:
 971              	.LBE57:
 972              	.LBE56:
 973              	.LBE55:
 635:main.c        ****     
 636:main.c        ****     lv_obj_set_style_local_value_str(pulses_ok_btn, LV_BTN_PART_MAIN, LV_STATE_DEFAULT, "OK!");
 637:main.c        ****     lv_btn_set_fit2(pulses_ok_btn,
 638:main.c        ****         LV_FIT_PARENT,  /* horizontal */
 639:main.c        ****         LV_FIT_NONE); /* vertical */
 640:main.c        ****     
 641:main.c        ****     lv_obj_set_event_cb(pulses_ok_btn, pulses_ok_btn_handler);
 974              		.loc 1 641 0
 975 006c 0F49     		ldr	r1, .L51+16
 976 006e 2868     		ldr	r0, [r5]
 977 0070 FFF7FEFF 		bl	lv_obj_set_event_cb
 978              	.LVL129:
 642:main.c        ****     
 643:main.c        ****     lv_spinbox_set_range(pulses_spinbox, 1, 128);
ARM GAS  C:\Users\strap\AppData\Local\Temp\cci64Z2T.s 			page 39


 979              		.loc 1 643 0
 980 0074 8022     		movs	r2, #128
 981 0076 0121     		movs	r1, #1
 982 0078 2068     		ldr	r0, [r4]
 983 007a FFF7FEFF 		bl	lv_spinbox_set_range
 984              	.LVL130:
 644:main.c        ****     lv_spinbox_set_digit_format(pulses_spinbox, 3, 0);
 985              		.loc 1 644 0
 986 007e 3246     		mov	r2, r6
 987 0080 0321     		movs	r1, #3
 988 0082 2068     		ldr	r0, [r4]
 989 0084 FFF7FEFF 		bl	lv_spinbox_set_digit_format
 990              	.LVL131:
 645:main.c        **** 
 646:main.c        ****     lv_obj_set_hidden(pulses_spinbox, true);
 991              		.loc 1 646 0
 992 0088 0121     		movs	r1, #1
 993 008a 2068     		ldr	r0, [r4]
 994 008c FFF7FEFF 		bl	lv_obj_set_hidden
 995              	.LVL132:
 647:main.c        ****     lv_obj_set_hidden(pulses_ok_btn, true);
 996              		.loc 1 647 0
 997 0090 0121     		movs	r1, #1
 998 0092 2868     		ldr	r0, [r5]
 999 0094 FFF7FEFF 		bl	lv_obj_set_hidden
 1000              	.LVL133:
 648:main.c        **** }
 1001              		.loc 1 648 0
 1002 0098 03B0     		add	sp, sp, #12
 1003              		.cfi_def_cfa_offset 20
 1004              		@ sp needed
 1005 009a F0BD     		pop	{r4, r5, r6, r7, pc}
 1006              	.L52:
 1007              		.align	2
 1008              	.L51:
 1009 009c 00000000 		.word	pulses_spinbox
 1010 00a0 00000000 		.word	pulses_ok_btn
 1011 00a4 00000000 		.word	.LANCHOR0
 1012 00a8 44000000 		.word	.LC4
 1013 00ac 00000000 		.word	pulses_ok_btn_handler
 1014              		.cfi_endproc
 1015              	.LFE459:
 1016              		.size	create_pulses_container_widgets, .-create_pulses_container_widgets
 1017              		.section	.text.create_application_screen,"ax",%progbits
 1018              		.align	2
 1019              		.thumb
 1020              		.thumb_func
 1021              		.type	create_application_screen, %function
 1022              	create_application_screen:
 1023              	.LFB447:
 289:main.c        **** #if 0
 1024              		.loc 1 289 0
 1025              		.cfi_startproc
 1026              		@ args = 0, pretend = 0, frame = 0
 1027              		@ frame_needed = 0, uses_anonymous_args = 0
 1028              	.LVL134:
 1029 0000 2DE9F043 		push	{r4, r5, r6, r7, r8, r9, lr}
ARM GAS  C:\Users\strap\AppData\Local\Temp\cci64Z2T.s 			page 40


 1030              		.cfi_def_cfa_offset 28
 1031              		.cfi_offset 4, -28
 1032              		.cfi_offset 5, -24
 1033              		.cfi_offset 6, -20
 1034              		.cfi_offset 7, -16
 1035              		.cfi_offset 8, -12
 1036              		.cfi_offset 9, -8
 1037              		.cfi_offset 14, -4
 1038 0004 83B0     		sub	sp, sp, #12
 1039              		.cfi_def_cfa_offset 40
 1040 0006 0746     		mov	r7, r0
 302:main.c        ****     lv_coord_t container_height = tb_content_height - 50;
 1041              		.loc 1 302 0
 1042 0008 0020     		movs	r0, #0
 1043              	.LVL135:
 1044 000a FFF7FEFF 		bl	lv_disp_get_ver_res
 1045              	.LVL136:
 303:main.c        **** 
 1046              		.loc 1 303 0
 1047 000e 3238     		subs	r0, r0, #50
 1048              	.LVL137:
 1049 0010 0FFA80F8 		sxth	r8, r0
 1050              	.LVL138:
 305:main.c        ****     lv_coord_t container_width = (tb_content_width / 2) - 20;
 1051              		.loc 1 305 0
 1052 0014 0020     		movs	r0, #0
 1053 0016 FFF7FEFF 		bl	lv_disp_get_hor_res
 1054              	.LVL139:
 306:main.c        **** 
 1055              		.loc 1 306 0
 1056 001a 00EBD070 		add	r0, r0, r0, lsr #31
 1057              	.LVL140:
 1058 001e C0F34F06 		ubfx	r6, r0, #1, #16
 1059              	.LVL141:
 309:main.c        ****     lv_obj_set_size(parameter_list_container, container_width + 15, container_height);
 1060              		.loc 1 309 0
 1061 0022 0021     		movs	r1, #0
 1062 0024 3846     		mov	r0, r7
 1063 0026 FFF7FEFF 		bl	lv_cont_create
 1064              	.LVL142:
 1065 002a 514C     		ldr	r4, .L55
 1066 002c 6062     		str	r0, [r4, #36]
 310:main.c        ****     lv_obj_align(parameter_list_container, NULL, LV_ALIGN_IN_LEFT_MID, 15, 0);
 1067              		.loc 1 310 0
 1068 002e 711F     		subs	r1, r6, #5
 1069 0030 4246     		mov	r2, r8
 1070 0032 09B2     		sxth	r1, r1
 1071 0034 FFF7FEFF 		bl	lv_obj_set_size
 1072              	.LVL143:
 311:main.c        ****     lv_cont_set_layout(parameter_list_container, LV_LAYOUT_COLUMN_LEFT);
 1073              		.loc 1 311 0
 1074 0038 0025     		movs	r5, #0
 1075 003a 0095     		str	r5, [sp]
 1076 003c 0F23     		movs	r3, #15
 1077 003e 0722     		movs	r2, #7
 1078 0040 2946     		mov	r1, r5
 1079 0042 606A     		ldr	r0, [r4, #36]
ARM GAS  C:\Users\strap\AppData\Local\Temp\cci64Z2T.s 			page 41


 1080 0044 FFF7FEFF 		bl	lv_obj_align
 1081              	.LVL144:
 312:main.c        ****     
 1082              		.loc 1 312 0
 1083 0048 0221     		movs	r1, #2
 1084 004a 606A     		ldr	r0, [r4, #36]
 1085 004c FFF7FEFF 		bl	lv_cont_set_layout
 1086              	.LVL145:
 314:main.c        ****     lv_label_set_text(parameter_list_container_lbl, "Parameters");
 1087              		.loc 1 314 0
 1088 0050 2946     		mov	r1, r5
 1089 0052 3846     		mov	r0, r7
 1090 0054 FFF7FEFF 		bl	lv_label_create
 1091              	.LVL146:
 1092 0058 8146     		mov	r9, r0
 1093              	.LVL147:
 315:main.c        ****     lv_obj_align(parameter_list_container_lbl, parameter_list_container, LV_ALIGN_OUT_TOP_LEFT, 0, 
 1094              		.loc 1 315 0
 1095 005a 4649     		ldr	r1, .L55+4
 1096 005c FFF7FEFF 		bl	lv_label_set_text
 1097              	.LVL148:
 316:main.c        **** 
 1098              		.loc 1 316 0
 1099 0060 0095     		str	r5, [sp]
 1100 0062 2B46     		mov	r3, r5
 1101 0064 0922     		movs	r2, #9
 1102 0066 616A     		ldr	r1, [r4, #36]
 1103 0068 4846     		mov	r0, r9
 1104 006a FFF7FEFF 		bl	lv_obj_align
 1105              	.LVL149:
 318:main.c        ****     lv_obj_set_size(parameter_options_container, container_width - 15, container_height);
 1106              		.loc 1 318 0
 1107 006e 2946     		mov	r1, r5
 1108 0070 3846     		mov	r0, r7
 1109 0072 FFF7FEFF 		bl	lv_cont_create
 1110              	.LVL150:
 1111 0076 A062     		str	r0, [r4, #40]
 319:main.c        ****     lv_obj_align(parameter_options_container, NULL, LV_ALIGN_IN_RIGHT_MID, -15, 0);
 1112              		.loc 1 319 0
 1113 0078 A6F12301 		sub	r1, r6, #35
 1114 007c 4246     		mov	r2, r8
 1115 007e 09B2     		sxth	r1, r1
 1116 0080 FFF7FEFF 		bl	lv_obj_set_size
 1117              	.LVL151:
 320:main.c        ****     /* TODO: Update layout */
 1118              		.loc 1 320 0
 1119 0084 0095     		str	r5, [sp]
 1120 0086 6FF00E03 		mvn	r3, #14
 1121 008a 0822     		movs	r2, #8
 1122 008c 2946     		mov	r1, r5
 1123 008e A06A     		ldr	r0, [r4, #40]
 1124 0090 FFF7FEFF 		bl	lv_obj_align
 1125              	.LVL152:
 322:main.c        ****     
 1126              		.loc 1 322 0
 1127 0094 0321     		movs	r1, #3
 1128 0096 A06A     		ldr	r0, [r4, #40]
ARM GAS  C:\Users\strap\AppData\Local\Temp\cci64Z2T.s 			page 42


 1129 0098 FFF7FEFF 		bl	lv_cont_set_layout
 1130              	.LVL153:
 324:main.c        ****     lv_label_set_text(parameter_options_container_lbl, "Options");
 1131              		.loc 1 324 0
 1132 009c 2946     		mov	r1, r5
 1133 009e 3846     		mov	r0, r7
 1134 00a0 FFF7FEFF 		bl	lv_label_create
 1135              	.LVL154:
 1136 00a4 0646     		mov	r6, r0
 1137              	.LVL155:
 325:main.c        ****     lv_obj_align(parameter_options_container_lbl, parameter_options_container, LV_ALIGN_OUT_TOP_LEF
 1138              		.loc 1 325 0
 1139 00a6 3449     		ldr	r1, .L55+8
 1140 00a8 FFF7FEFF 		bl	lv_label_set_text
 1141              	.LVL156:
 326:main.c        ****     
 1142              		.loc 1 326 0
 1143 00ac 0095     		str	r5, [sp]
 1144 00ae 2B46     		mov	r3, r5
 1145 00b0 0922     		movs	r2, #9
 1146 00b2 A16A     		ldr	r1, [r4, #40]
 1147 00b4 3046     		mov	r0, r6
 1148 00b6 FFF7FEFF 		bl	lv_obj_align
 1149              	.LVL157:
 331:main.c        ****     lv_checkbox_set_text(parameter_list[PARAMETER_LIST_BURST_TYPE], "Burst Type.");
 1150              		.loc 1 331 0
 1151 00ba 2946     		mov	r1, r5
 1152 00bc 606A     		ldr	r0, [r4, #36]
 1153 00be FFF7FEFF 		bl	lv_checkbox_create
 1154              	.LVL158:
 1155 00c2 E060     		str	r0, [r4, #12]
 332:main.c        ****     lv_obj_set_event_cb(parameter_list[PARAMETER_LIST_BURST_TYPE], parameter_list_container_event_h
 1156              		.loc 1 332 0
 1157 00c4 2D49     		ldr	r1, .L55+12
 1158 00c6 FFF7FEFF 		bl	lv_checkbox_set_text
 1159              	.LVL159:
 333:main.c        **** 
 1160              		.loc 1 333 0
 1161 00ca 2D4E     		ldr	r6, .L55+16
 1162              	.LVL160:
 1163 00cc 3146     		mov	r1, r6
 1164 00ce E068     		ldr	r0, [r4, #12]
 1165 00d0 FFF7FEFF 		bl	lv_obj_set_event_cb
 1166              	.LVL161:
 335:main.c        ****     lv_checkbox_set_text(parameter_list[PARAMETER_LIST_BURST_PULSES], "Pulses in burst.");
 1167              		.loc 1 335 0
 1168 00d4 2946     		mov	r1, r5
 1169 00d6 606A     		ldr	r0, [r4, #36]
 1170 00d8 FFF7FEFF 		bl	lv_checkbox_create
 1171              	.LVL162:
 1172 00dc 2061     		str	r0, [r4, #16]
 336:main.c        ****     lv_obj_set_event_cb(parameter_list[PARAMETER_LIST_BURST_PULSES], parameter_list_container_event
 1173              		.loc 1 336 0
 1174 00de 2949     		ldr	r1, .L55+20
 1175 00e0 FFF7FEFF 		bl	lv_checkbox_set_text
 1176              	.LVL163:
 337:main.c        **** 
ARM GAS  C:\Users\strap\AppData\Local\Temp\cci64Z2T.s 			page 43


 1177              		.loc 1 337 0
 1178 00e4 3146     		mov	r1, r6
 1179 00e6 2069     		ldr	r0, [r4, #16]
 1180 00e8 FFF7FEFF 		bl	lv_obj_set_event_cb
 1181              	.LVL164:
 339:main.c        ****     lv_checkbox_set_text(parameter_list[PARAMETER_LIST_PULSE_VOLTAGE], "Pulse Voltage.");
 1182              		.loc 1 339 0
 1183 00ec 2946     		mov	r1, r5
 1184 00ee 606A     		ldr	r0, [r4, #36]
 1185 00f0 FFF7FEFF 		bl	lv_checkbox_create
 1186              	.LVL165:
 1187 00f4 6061     		str	r0, [r4, #20]
 340:main.c        ****     lv_obj_set_event_cb(parameter_list[PARAMETER_LIST_PULSE_VOLTAGE], parameter_list_container_even
 1188              		.loc 1 340 0
 1189 00f6 2449     		ldr	r1, .L55+24
 1190 00f8 FFF7FEFF 		bl	lv_checkbox_set_text
 1191              	.LVL166:
 341:main.c        ****     
 1192              		.loc 1 341 0
 1193 00fc 3146     		mov	r1, r6
 1194 00fe 6069     		ldr	r0, [r4, #20]
 1195 0100 FFF7FEFF 		bl	lv_obj_set_event_cb
 1196              	.LVL167:
 343:main.c        ****     lv_btn_set_fit2(shoot_btn, LV_FIT_PARENT, LV_FIT_NONE);
 1197              		.loc 1 343 0
 1198 0104 2946     		mov	r1, r5
 1199 0106 606A     		ldr	r0, [r4, #36]
 1200 0108 FFF7FEFF 		bl	lv_btn_create
 1201              	.LVL168:
 1202 010c 1F4E     		ldr	r6, .L55+28
 1203 010e 3060     		str	r0, [r6]
 1204              	.LVL169:
 1205              	.LBB58:
 1206              	.LBB59:
 1207              	.LBB60:
 1208              		.loc 4 160 0
 1209 0110 0095     		str	r5, [sp]
 1210 0112 2B46     		mov	r3, r5
 1211 0114 0222     		movs	r2, #2
 1212 0116 1146     		mov	r1, r2
 1213 0118 FFF7FEFF 		bl	lv_cont_set_fit4
 1214              	.LVL170:
 1215              	.LBE60:
 1216              	.LBE59:
 1217              	.LBE58:
 1218              	.LBB61:
 1219              	.LBB62:
 1220              		.loc 3 159 0
 1221 011c 1C4B     		ldr	r3, .L55+32
 1222 011e 7F22     		movs	r2, #127
 1223 0120 2946     		mov	r1, r5
 1224 0122 3068     		ldr	r0, [r6]
 1225 0124 FFF7FEFF 		bl	_lv_obj_set_style_local_ptr
 1226              	.LVL171:
 1227              	.LBE62:
 1228              	.LBE61:
 347:main.c        **** 
ARM GAS  C:\Users\strap\AppData\Local\Temp\cci64Z2T.s 			page 44


 1229              		.loc 1 347 0
 1230 0128 1A49     		ldr	r1, .L55+36
 1231 012a 3068     		ldr	r0, [r6]
 1232 012c FFF7FEFF 		bl	lv_obj_set_event_cb
 1233              	.LVL172:
 350:main.c        ****     lv_group_add_obj(parameter_list_g, parameter_list[PARAMETER_LIST_BURST_PULSES]);
 1234              		.loc 1 350 0
 1235 0130 E168     		ldr	r1, [r4, #12]
 1236 0132 6068     		ldr	r0, [r4, #4]
 1237 0134 FFF7FEFF 		bl	lv_group_add_obj
 1238              	.LVL173:
 351:main.c        ****     lv_group_add_obj(parameter_list_g, parameter_list[PARAMETER_LIST_PULSE_VOLTAGE]);
 1239              		.loc 1 351 0
 1240 0138 2169     		ldr	r1, [r4, #16]
 1241 013a 6068     		ldr	r0, [r4, #4]
 1242 013c FFF7FEFF 		bl	lv_group_add_obj
 1243              	.LVL174:
 352:main.c        ****     lv_group_add_obj(parameter_list_g, shoot_btn);
 1244              		.loc 1 352 0
 1245 0140 6169     		ldr	r1, [r4, #20]
 1246 0142 6068     		ldr	r0, [r4, #4]
 1247 0144 FFF7FEFF 		bl	lv_group_add_obj
 1248              	.LVL175:
 353:main.c        ****     
 1249              		.loc 1 353 0
 1250 0148 3168     		ldr	r1, [r6]
 1251 014a 6068     		ldr	r0, [r4, #4]
 1252 014c FFF7FEFF 		bl	lv_group_add_obj
 1253              	.LVL176:
 356:main.c        ****     
 1254              		.loc 1 356 0
 1255 0150 E068     		ldr	r0, [r4, #12]
 1256 0152 FFF7FEFF 		bl	lv_group_focus_obj
 1257              	.LVL177:
 359:main.c        ****     /* Create widgets for voltage option */
 1258              		.loc 1 359 0
 1259 0156 A06A     		ldr	r0, [r4, #40]
 1260 0158 FFF7FEFF 		bl	create_type_container_widgets
 1261              	.LVL178:
 361:main.c        ****     
 1262              		.loc 1 361 0
 1263 015c A06A     		ldr	r0, [r4, #40]
 1264 015e FFF7FEFF 		bl	create_voltage_container_widgets
 1265              	.LVL179:
 363:main.c        **** }
 1266              		.loc 1 363 0
 1267 0162 A06A     		ldr	r0, [r4, #40]
 1268 0164 FFF7FEFF 		bl	create_pulses_container_widgets
 1269              	.LVL180:
 364:main.c        **** 
 1270              		.loc 1 364 0
 1271 0168 03B0     		add	sp, sp, #12
 1272              		.cfi_def_cfa_offset 28
 1273              		@ sp needed
 1274 016a BDE8F083 		pop	{r4, r5, r6, r7, r8, r9, pc}
 1275              	.LVL181:
 1276              	.L56:
ARM GAS  C:\Users\strap\AppData\Local\Temp\cci64Z2T.s 			page 45


 1277 016e 00BF     		.align	2
 1278              	.L55:
 1279 0170 00000000 		.word	.LANCHOR0
 1280 0174 64000000 		.word	.LC6
 1281 0178 70000000 		.word	.LC7
 1282 017c 78000000 		.word	.LC8
 1283 0180 00000000 		.word	parameter_list_container_event_handler
 1284 0184 84000000 		.word	.LC9
 1285 0188 98000000 		.word	.LC10
 1286 018c 00000000 		.word	shoot_btn
 1287 0190 A8000000 		.word	.LC11
 1288 0194 00000000 		.word	button_callback
 1289              		.cfi_endproc
 1290              	.LFE447:
 1291              		.size	create_application_screen, .-create_application_screen
 1292              		.section	.text.burst_type_list_handler,"ax",%progbits
 1293              		.align	2
 1294              		.thumb
 1295              		.thumb_func
 1296              		.type	burst_type_list_handler, %function
 1297              	burst_type_list_handler:
 1298              	.LFB454:
 534:main.c        ****     LV_UNUSED(obj);
 1299              		.loc 1 534 0
 1300              		.cfi_startproc
 1301              		@ args = 0, pretend = 0, frame = 0
 1302              		@ frame_needed = 0, uses_anonymous_args = 0
 1303              	.LVL182:
 539:main.c        ****         uint16_t selected = lv_dropdown_get_selected(burst_type_list);
 1304              		.loc 1 539 0
 1305 0000 1029     		cmp	r1, #16
 1306 0002 25D1     		bne	.L61
 534:main.c        ****     LV_UNUSED(obj);
 1307              		.loc 1 534 0
 1308 0004 10B5     		push	{r4, lr}
 1309              		.cfi_def_cfa_offset 8
 1310              		.cfi_offset 4, -8
 1311              		.cfi_offset 14, -4
 1312              	.LBB63:
 540:main.c        ****         UART_PutHexInt(selected);
 1313              		.loc 1 540 0
 1314 0006 134B     		ldr	r3, .L62
 1315 0008 1868     		ldr	r0, [r3]
 1316              	.LVL183:
 1317 000a FFF7FEFF 		bl	lv_dropdown_get_selected
 1318              	.LVL184:
 1319 000e 0446     		mov	r4, r0
 1320              	.LVL185:
 541:main.c        ****         
 1321              		.loc 1 541 0
 1322 0010 FFF7FEFF 		bl	UART_PutHexInt
 1323              	.LVL186:
 544:main.c        ****             lv_obj_set_state(custom_spinbox, LV_STATE_DEFAULT);
 1324              		.loc 1 544 0
 1325 0014 022C     		cmp	r4, #2
 1326 0016 11D1     		bne	.L59
 545:main.c        ****             lv_textarea_set_cursor_hidden(custom_spinbox, false);
ARM GAS  C:\Users\strap\AppData\Local\Temp\cci64Z2T.s 			page 46


 1327              		.loc 1 545 0
 1328 0018 0F4C     		ldr	r4, .L62+4
 1329              	.LVL187:
 1330 001a 0021     		movs	r1, #0
 1331 001c 2068     		ldr	r0, [r4]
 1332 001e FFF7FEFF 		bl	lv_obj_set_state
 1333              	.LVL188:
 546:main.c        ****         
 1334              		.loc 1 546 0
 1335 0022 0021     		movs	r1, #0
 1336 0024 2068     		ldr	r0, [r4]
 1337 0026 FFF7FEFF 		bl	lv_textarea_set_cursor_hidden
 1338              	.LVL189:
 549:main.c        ****             lv_group_set_editing(burst_type_params_g, true);
 1339              		.loc 1 549 0
 1340 002a 2068     		ldr	r0, [r4]
 1341 002c FFF7FEFF 		bl	lv_group_focus_obj
 1342              	.LVL190:
 550:main.c        ****         } else {
 1343              		.loc 1 550 0
 1344 0030 0121     		movs	r1, #1
 1345 0032 0A4B     		ldr	r3, .L62+8
 1346 0034 9869     		ldr	r0, [r3, #24]
 1347 0036 FFF7FEFF 		bl	lv_group_set_editing
 1348              	.LVL191:
 1349 003a 10BD     		pop	{r4, pc}
 1350              	.LVL192:
 1351              	.L59:
 552:main.c        ****             lv_textarea_set_cursor_hidden(custom_spinbox, true);
 1352              		.loc 1 552 0
 1353 003c 064C     		ldr	r4, .L62+4
 1354              	.LVL193:
 1355 003e 2021     		movs	r1, #32
 1356 0040 2068     		ldr	r0, [r4]
 1357 0042 FFF7FEFF 		bl	lv_obj_set_state
 1358              	.LVL194:
 553:main.c        ****         }
 1359              		.loc 1 553 0
 1360 0046 0121     		movs	r1, #1
 1361 0048 2068     		ldr	r0, [r4]
 1362 004a FFF7FEFF 		bl	lv_textarea_set_cursor_hidden
 1363              	.LVL195:
 1364 004e 10BD     		pop	{r4, pc}
 1365              	.LVL196:
 1366              	.L61:
 1367              		.cfi_def_cfa_offset 0
 1368              		.cfi_restore 4
 1369              		.cfi_restore 14
 1370 0050 7047     		bx	lr
 1371              	.L63:
 1372 0052 00BF     		.align	2
 1373              	.L62:
 1374 0054 00000000 		.word	burst_type_list
 1375 0058 00000000 		.word	custom_spinbox
 1376 005c 00000000 		.word	.LANCHOR0
 1377              	.LBE63:
 1378              		.cfi_endproc
ARM GAS  C:\Users\strap\AppData\Local\Temp\cci64Z2T.s 			page 47


 1379              	.LFE454:
 1380              		.size	burst_type_list_handler, .-burst_type_list_handler
 1381              		.section	.text.timer_tick_handler,"ax",%progbits
 1382              		.align	2
 1383              		.global	timer_tick_handler
 1384              		.thumb
 1385              		.thumb_func
 1386              		.type	timer_tick_handler, %function
 1387              	timer_tick_handler:
 1388              	.LFB442:
 222:main.c        ****     lv_tick_inc(1);
 1389              		.loc 1 222 0
 1390              		.cfi_startproc
 1391              		@ args = 0, pretend = 0, frame = 0
 1392              		@ frame_needed = 0, uses_anonymous_args = 0
 1393 0000 08B5     		push	{r3, lr}
 1394              		.cfi_def_cfa_offset 8
 1395              		.cfi_offset 3, -8
 1396              		.cfi_offset 14, -4
 223:main.c        **** }
 1397              		.loc 1 223 0
 1398 0002 0120     		movs	r0, #1
 1399 0004 FFF7FEFF 		bl	lv_tick_inc
 1400              	.LVL197:
 1401 0008 08BD     		pop	{r3, pc}
 1402              		.cfi_endproc
 1403              	.LFE442:
 1404              		.size	timer_tick_handler, .-timer_tick_handler
 1405 000a 00BF     		.section	.text.spi_tx_dma_done,"ax",%progbits
 1406              		.align	2
 1407              		.global	spi_tx_dma_done
 1408              		.thumb
 1409              		.thumb_func
 1410              		.type	spi_tx_dma_done, %function
 1411              	spi_tx_dma_done:
 1412              	.LFB443:
 233:main.c        ****     spi_xfer_set_status(SPI_XFER_DONE);
 1413              		.loc 1 233 0
 1414              		.cfi_startproc
 1415              		@ args = 0, pretend = 0, frame = 0
 1416              		@ frame_needed = 0, uses_anonymous_args = 0
 1417 0000 08B5     		push	{r3, lr}
 1418              		.cfi_def_cfa_offset 8
 1419              		.cfi_offset 3, -8
 1420              		.cfi_offset 14, -4
 234:main.c        ****     
 1421              		.loc 1 234 0
 1422 0002 0120     		movs	r0, #1
 1423 0004 FFF7FEFF 		bl	spi_xfer_set_status
 1424              	.LVL198:
 236:main.c        **** }
 1425              		.loc 1 236 0
 1426 0008 0120     		movs	r0, #1
 1427 000a FFF7FEFF 		bl	SPI_SetTxInterruptMode
 1428              	.LVL199:
 1429 000e 08BD     		pop	{r3, pc}
 1430              		.cfi_endproc
ARM GAS  C:\Users\strap\AppData\Local\Temp\cci64Z2T.s 			page 48


 1431              	.LFE443:
 1432              		.size	spi_tx_dma_done, .-spi_tx_dma_done
 1433              		.section	.text.spi_tx_isr_handler,"ax",%progbits
 1434              		.align	2
 1435              		.global	spi_tx_isr_handler
 1436              		.thumb
 1437              		.thumb_func
 1438              		.type	spi_tx_isr_handler, %function
 1439              	spi_tx_isr_handler:
 1440              	.LFB444:
 241:main.c        ****     /* Clear the interrupt source flag */
 1441              		.loc 1 241 0
 1442              		.cfi_startproc
 1443              		@ args = 0, pretend = 0, frame = 8
 1444              		@ frame_needed = 0, uses_anonymous_args = 0
 1445 0000 00B5     		push	{lr}
 1446              		.cfi_def_cfa_offset 4
 1447              		.cfi_offset 14, -4
 1448 0002 83B0     		sub	sp, sp, #12
 1449              		.cfi_def_cfa_offset 16
 243:main.c        ****     
 1450              		.loc 1 243 0
 1451 0004 FFF7FEFF 		bl	SPI_ReadTxStatus
 1452              	.LVL200:
 1453 0008 8DF80700 		strb	r0, [sp, #7]
 247:main.c        ****         
 1454              		.loc 1 247 0
 1455 000c FFF7FEFF 		bl	spi_xfer_get_status
 1456              	.LVL201:
 1457 0010 0128     		cmp	r0, #1
 1458 0012 0DD1     		bne	.L68
 247:main.c        ****         
 1459              		.loc 1 247 0 is_stmt 0 discriminator 1
 1460 0014 9DF80730 		ldrb	r3, [sp, #7]	@ zero_extendqisi2
 1461 0018 13F0010F 		tst	r3, #1
 1462 001c 08D0     		beq	.L68
 249:main.c        ****         
 1463              		.loc 1 249 0 is_stmt 1
 1464 001e FFF7FEFF 		bl	SS_Write
 1465              	.LVL202:
 252:main.c        ****         spi_xfer_on_completion();
 1466              		.loc 1 252 0
 1467 0022 0020     		movs	r0, #0
 1468 0024 FFF7FEFF 		bl	SPI_SetTxInterruptMode
 1469              	.LVL203:
 253:main.c        ****         
 1470              		.loc 1 253 0
 1471 0028 FFF7FEFF 		bl	spi_xfer_on_completion
 1472              	.LVL204:
 256:main.c        ****     }
 1473              		.loc 1 256 0
 1474 002c FFF7FEFF 		bl	display_colors_sent_notification
 1475              	.LVL205:
 1476              	.L68:
 258:main.c        **** 
 1477              		.loc 1 258 0
 1478 0030 03B0     		add	sp, sp, #12
ARM GAS  C:\Users\strap\AppData\Local\Temp\cci64Z2T.s 			page 49


 1479              		.cfi_def_cfa_offset 4
 1480              		@ sp needed
 1481 0032 5DF804FB 		ldr	pc, [sp], #4
 1482              		.cfi_endproc
 1483              	.LFE444:
 1484              		.size	spi_tx_isr_handler, .-spi_tx_isr_handler
 1485 0036 00BF     		.section	.text.main,"ax",%progbits
 1486              		.align	2
 1487              		.global	main
 1488              		.thumb
 1489              		.thumb_func
 1490              		.type	main, %function
 1491              	main:
 1492              	.LFB441:
 116:main.c        ****     /* Register interrupt handlers */
 1493              		.loc 1 116 0
 1494              		.cfi_startproc
 1495              		@ args = 0, pretend = 0, frame = 80
 1496              		@ frame_needed = 0, uses_anonymous_args = 0
 1497 0000 30B5     		push	{r4, r5, lr}
 1498              		.cfi_def_cfa_offset 12
 1499              		.cfi_offset 4, -12
 1500              		.cfi_offset 5, -8
 1501              		.cfi_offset 14, -4
 1502 0002 95B0     		sub	sp, sp, #84
 1503              		.cfi_def_cfa_offset 96
 118:main.c        ****     isr_SPI_TX_StartEx(spi_tx_isr_handler);
 1504              		.loc 1 118 0
 1505 0004 3148     		ldr	r0, .L74
 1506 0006 FFF7FEFF 		bl	isr_SPI_TX_DMA_StartEx
 1507              	.LVL206:
 119:main.c        ****     
 1508              		.loc 1 119 0
 1509 000a 3148     		ldr	r0, .L74+4
 1510 000c FFF7FEFF 		bl	isr_SPI_TX_StartEx
 1511              	.LVL207:
 122:main.c        ****     UART_Start();
 1512              		.loc 1 122 0
 1513 0010 FFF7FEFF 		bl	QuadDec_Start
 1514              	.LVL208:
 123:main.c        ****     SPI_Start();
 1515              		.loc 1 123 0
 1516 0014 FFF7FEFF 		bl	UART_Start
 1517              	.LVL209:
 124:main.c        ****     
 1518              		.loc 1 124 0
 1519 0018 FFF7FEFF 		bl	SPI_Start
 1520              	.LVL210:
 127:main.c        ****     
 1521              		.loc 1 127 0
 1522 001c FFF7FEFF 		bl	spi_initialize_dma
 1523              	.LVL211:
 130:main.c        ****     CySysTickSetCallback(0, timer_tick_handler);
 1524              		.loc 1 130 0
 1525 0020 FFF7FEFF 		bl	CySysTickStart
 1526              	.LVL212:
 131:main.c        ****     CySysTickStop();
ARM GAS  C:\Users\strap\AppData\Local\Temp\cci64Z2T.s 			page 50


 1527              		.loc 1 131 0
 1528 0024 2B49     		ldr	r1, .L74+8
 1529 0026 0020     		movs	r0, #0
 1530 0028 FFF7FEFF 		bl	CySysTickSetCallback
 1531              	.LVL213:
 132:main.c        ****     CySysTickClear();
 1532              		.loc 1 132 0
 1533 002c FFF7FEFF 		bl	CySysTickStop
 1534              	.LVL214:
 133:main.c        ****     
 1535              		.loc 1 133 0
 1536 0030 FFF7FEFF 		bl	CySysTickClear
 1537              	.LVL215:
 136:main.c        ****     
 1538              		.loc 1 136 0
 1539              		.syntax unified
 1540              	@ 136 "main.c" 1
 1541 0034 62B6     		CPSIE   i
 1542              	@ 0 "" 2
 139:main.c        ****     
 1543              		.loc 1 139 0
 1544              		.thumb
 1545              		.syntax unified
 1546 0036 FFF7FEFF 		bl	lv_init
 1547              	.LVL216:
 147:main.c        ****     
 1548              		.loc 1 147 0
 1549 003a 274C     		ldr	r4, .L74+12
 1550 003c 274D     		ldr	r5, .L74+16
 1551 003e 4FF44863 		mov	r3, #3200
 1552 0042 04F12C02 		add	r2, r4, #44
 1553 0046 2649     		ldr	r1, .L74+20
 1554 0048 2846     		mov	r0, r5
 1555 004a FFF7FEFF 		bl	lv_disp_buf_init
 1556              	.LVL217:
 151:main.c        ****     disp_drv.flush_cb = ili9341_flush;
 1557              		.loc 1 151 0
 1558 004e 08A8     		add	r0, sp, #32
 1559 0050 FFF7FEFF 		bl	lv_disp_drv_init
 1560              	.LVL218:
 152:main.c        ****     disp_drv.buffer = &disp_buf;
 1561              		.loc 1 152 0
 1562 0054 234B     		ldr	r3, .L74+24
 1563 0056 0B93     		str	r3, [sp, #44]
 153:main.c        ****     
 1564              		.loc 1 153 0
 1565 0058 0995     		str	r5, [sp, #36]
 155:main.c        ****     
 1566              		.loc 1 155 0
 1567 005a 234B     		ldr	r3, .L74+28
 1568 005c 1393     		str	r3, [sp, #76]
 157:main.c        ****     
 1569              		.loc 1 157 0
 1570 005e 08A8     		add	r0, sp, #32
 1571 0060 FFF7FEFF 		bl	lv_disp_drv_register
 1572              	.LVL219:
 161:main.c        ****     indev_drv.type = LV_INDEV_TYPE_ENCODER;
ARM GAS  C:\Users\strap\AppData\Local\Temp\cci64Z2T.s 			page 51


 1573              		.loc 1 161 0
 1574 0064 6846     		mov	r0, sp
 1575 0066 FFF7FEFF 		bl	lv_indev_drv_init
 1576              	.LVL220:
 162:main.c        ****     indev_drv.read_cb = encoder_read;
 1577              		.loc 1 162 0
 1578 006a 0423     		movs	r3, #4
 1579 006c 8DF80030 		strb	r3, [sp]
 163:main.c        ****     encoder_indev = lv_indev_drv_register(&indev_drv);
 1580              		.loc 1 163 0
 1581 0070 1E4B     		ldr	r3, .L74+32
 1582 0072 0193     		str	r3, [sp, #4]
 164:main.c        ****     
 1583              		.loc 1 164 0
 1584 0074 6846     		mov	r0, sp
 1585 0076 FFF7FEFF 		bl	lv_indev_drv_register
 1586              	.LVL221:
 1587 007a A060     		str	r0, [r4, #8]
 167:main.c        ****     voltage_params_g = lv_group_create();
 1588              		.loc 1 167 0
 1589 007c FFF7FEFF 		bl	lv_group_create
 1590              	.LVL222:
 1591 0080 2062     		str	r0, [r4, #32]
 168:main.c        ****     parameter_list_g = lv_group_create();
 1592              		.loc 1 168 0
 1593 0082 FFF7FEFF 		bl	lv_group_create
 1594              	.LVL223:
 1595 0086 E061     		str	r0, [r4, #28]
 169:main.c        ****     burst_type_params_g = lv_group_create();
 1596              		.loc 1 169 0
 1597 0088 FFF7FEFF 		bl	lv_group_create
 1598              	.LVL224:
 1599 008c 6060     		str	r0, [r4, #4]
 170:main.c        ****     
 1600              		.loc 1 170 0
 1601 008e FFF7FEFF 		bl	lv_group_create
 1602              	.LVL225:
 1603 0092 A061     		str	r0, [r4, #24]
 172:main.c        ****     
 1604              		.loc 1 172 0
 1605 0094 6168     		ldr	r1, [r4, #4]
 1606 0096 A068     		ldr	r0, [r4, #8]
 1607 0098 FFF7FEFF 		bl	lv_indev_set_group
 1608              	.LVL226:
 175:main.c        ****     
 1609              		.loc 1 175 0
 1610 009c 0021     		movs	r1, #0
 1611 009e 08A8     		add	r0, sp, #32
 1612 00a0 FFF7FEFF 		bl	ili9341_init
 1613              	.LVL227:
 178:main.c        **** 
 1614              		.loc 1 178 0
 1615 00a4 FFF7FEFF 		bl	CySysTickStart
 1616              	.LVL228:
 183:main.c        ****     create_application_screen(app_screen);
 1617              		.loc 1 183 0
 1618 00a8 0021     		movs	r1, #0
ARM GAS  C:\Users\strap\AppData\Local\Temp\cci64Z2T.s 			page 52


 1619 00aa 0846     		mov	r0, r1
 1620 00ac FFF7FEFF 		bl	lv_obj_create
 1621              	.LVL229:
 1622 00b0 0F4C     		ldr	r4, .L74+36
 1623 00b2 2060     		str	r0, [r4]
 184:main.c        ****     lv_scr_load(app_screen);
 1624              		.loc 1 184 0
 1625 00b4 FFF7FEFF 		bl	create_application_screen
 1626              	.LVL230:
 1627              	.LBB64:
 1628              	.LBB65:
 1629              		.file 5 "lvgl/src/lv_core/lv_disp.h"
   1:lvgl/src/lv_core/lv_disp.h **** /**
   2:lvgl/src/lv_core/lv_disp.h ****  * @file lv_disp.h
   3:lvgl/src/lv_core/lv_disp.h ****  *
   4:lvgl/src/lv_core/lv_disp.h ****  */
   5:lvgl/src/lv_core/lv_disp.h **** 
   6:lvgl/src/lv_core/lv_disp.h **** #ifndef LV_DISP_H
   7:lvgl/src/lv_core/lv_disp.h **** #define LV_DISP_H
   8:lvgl/src/lv_core/lv_disp.h **** 
   9:lvgl/src/lv_core/lv_disp.h **** #ifdef __cplusplus
  10:lvgl/src/lv_core/lv_disp.h **** extern "C" {
  11:lvgl/src/lv_core/lv_disp.h **** #endif
  12:lvgl/src/lv_core/lv_disp.h **** 
  13:lvgl/src/lv_core/lv_disp.h **** /*********************
  14:lvgl/src/lv_core/lv_disp.h ****  *      INCLUDES
  15:lvgl/src/lv_core/lv_disp.h ****  *********************/
  16:lvgl/src/lv_core/lv_disp.h **** #include "../lv_hal/lv_hal.h"
  17:lvgl/src/lv_core/lv_disp.h **** #include "lv_obj.h"
  18:lvgl/src/lv_core/lv_disp.h **** 
  19:lvgl/src/lv_core/lv_disp.h **** /*********************
  20:lvgl/src/lv_core/lv_disp.h ****  *      DEFINES
  21:lvgl/src/lv_core/lv_disp.h ****  *********************/
  22:lvgl/src/lv_core/lv_disp.h **** 
  23:lvgl/src/lv_core/lv_disp.h **** /**********************
  24:lvgl/src/lv_core/lv_disp.h ****  *      TYPEDEFS
  25:lvgl/src/lv_core/lv_disp.h ****  **********************/
  26:lvgl/src/lv_core/lv_disp.h **** 
  27:lvgl/src/lv_core/lv_disp.h **** typedef enum {
  28:lvgl/src/lv_core/lv_disp.h ****     LV_SCR_LOAD_ANIM_NONE,
  29:lvgl/src/lv_core/lv_disp.h ****     LV_SCR_LOAD_ANIM_OVER_LEFT,
  30:lvgl/src/lv_core/lv_disp.h ****     LV_SCR_LOAD_ANIM_OVER_RIGHT,
  31:lvgl/src/lv_core/lv_disp.h ****     LV_SCR_LOAD_ANIM_OVER_TOP,
  32:lvgl/src/lv_core/lv_disp.h ****     LV_SCR_LOAD_ANIM_OVER_BOTTOM,
  33:lvgl/src/lv_core/lv_disp.h ****     LV_SCR_LOAD_ANIM_MOVE_LEFT,
  34:lvgl/src/lv_core/lv_disp.h ****     LV_SCR_LOAD_ANIM_MOVE_RIGHT,
  35:lvgl/src/lv_core/lv_disp.h ****     LV_SCR_LOAD_ANIM_MOVE_TOP,
  36:lvgl/src/lv_core/lv_disp.h ****     LV_SCR_LOAD_ANIM_MOVE_BOTTOM,
  37:lvgl/src/lv_core/lv_disp.h ****     LV_SCR_LOAD_ANIM_FADE_ON,
  38:lvgl/src/lv_core/lv_disp.h **** } lv_scr_load_anim_t;
  39:lvgl/src/lv_core/lv_disp.h **** 
  40:lvgl/src/lv_core/lv_disp.h **** /**********************
  41:lvgl/src/lv_core/lv_disp.h ****  * GLOBAL PROTOTYPES
  42:lvgl/src/lv_core/lv_disp.h ****  **********************/
  43:lvgl/src/lv_core/lv_disp.h **** 
  44:lvgl/src/lv_core/lv_disp.h **** /**
  45:lvgl/src/lv_core/lv_disp.h ****  * Return with a pointer to the active screen
ARM GAS  C:\Users\strap\AppData\Local\Temp\cci64Z2T.s 			page 53


  46:lvgl/src/lv_core/lv_disp.h ****  * @param disp pointer to display which active screen should be get. (NULL to use the default
  47:lvgl/src/lv_core/lv_disp.h ****  * screen)
  48:lvgl/src/lv_core/lv_disp.h ****  * @return pointer to the active screen object (loaded by 'lv_scr_load()')
  49:lvgl/src/lv_core/lv_disp.h ****  */
  50:lvgl/src/lv_core/lv_disp.h **** lv_obj_t * lv_disp_get_scr_act(lv_disp_t * disp);
  51:lvgl/src/lv_core/lv_disp.h **** 
  52:lvgl/src/lv_core/lv_disp.h **** /**
  53:lvgl/src/lv_core/lv_disp.h ****  * Return with a pointer to the previous screen. Only used during screen transitions.
  54:lvgl/src/lv_core/lv_disp.h ****  * @param disp pointer to display which previous screen should be get. (NULL to use the default
  55:lvgl/src/lv_core/lv_disp.h ****  * screen)
  56:lvgl/src/lv_core/lv_disp.h ****  * @return pointer to the previous screen object or NULL if not used now
  57:lvgl/src/lv_core/lv_disp.h ****  */
  58:lvgl/src/lv_core/lv_disp.h **** lv_obj_t * lv_disp_get_scr_prev(lv_disp_t * disp);
  59:lvgl/src/lv_core/lv_disp.h **** 
  60:lvgl/src/lv_core/lv_disp.h **** /**
  61:lvgl/src/lv_core/lv_disp.h ****  * Make a screen active
  62:lvgl/src/lv_core/lv_disp.h ****  * @param scr pointer to a screen
  63:lvgl/src/lv_core/lv_disp.h ****  */
  64:lvgl/src/lv_core/lv_disp.h **** void lv_disp_load_scr(lv_obj_t * scr);
  65:lvgl/src/lv_core/lv_disp.h **** 
  66:lvgl/src/lv_core/lv_disp.h **** /**
  67:lvgl/src/lv_core/lv_disp.h ****  * Return with the top layer. (Same on every screen and it is above the normal screen layer)
  68:lvgl/src/lv_core/lv_disp.h ****  * @param disp pointer to display which top layer should be get. (NULL to use the default screen)
  69:lvgl/src/lv_core/lv_disp.h ****  * @return pointer to the top layer object  (transparent screen sized lv_obj)
  70:lvgl/src/lv_core/lv_disp.h ****  */
  71:lvgl/src/lv_core/lv_disp.h **** lv_obj_t * lv_disp_get_layer_top(lv_disp_t * disp);
  72:lvgl/src/lv_core/lv_disp.h **** 
  73:lvgl/src/lv_core/lv_disp.h **** /**
  74:lvgl/src/lv_core/lv_disp.h ****  * Return with the sys. layer. (Same on every screen and it is above the normal screen and the top
  75:lvgl/src/lv_core/lv_disp.h ****  * layer)
  76:lvgl/src/lv_core/lv_disp.h ****  * @param disp pointer to display which sys. layer  should be get. (NULL to use the default screen)
  77:lvgl/src/lv_core/lv_disp.h ****  * @return pointer to the sys layer object  (transparent screen sized lv_obj)
  78:lvgl/src/lv_core/lv_disp.h ****  */
  79:lvgl/src/lv_core/lv_disp.h **** lv_obj_t * lv_disp_get_layer_sys(lv_disp_t * disp);
  80:lvgl/src/lv_core/lv_disp.h **** 
  81:lvgl/src/lv_core/lv_disp.h **** /**
  82:lvgl/src/lv_core/lv_disp.h ****  * Assign a screen to a display.
  83:lvgl/src/lv_core/lv_disp.h ****  * @param disp pointer to a display where to assign the screen
  84:lvgl/src/lv_core/lv_disp.h ****  * @param scr pointer to a screen object to assign
  85:lvgl/src/lv_core/lv_disp.h ****  */
  86:lvgl/src/lv_core/lv_disp.h **** void lv_disp_assign_screen(lv_disp_t * disp, lv_obj_t * scr);
  87:lvgl/src/lv_core/lv_disp.h **** 
  88:lvgl/src/lv_core/lv_disp.h **** 
  89:lvgl/src/lv_core/lv_disp.h **** /**
  90:lvgl/src/lv_core/lv_disp.h ****  * Set the background color of a display
  91:lvgl/src/lv_core/lv_disp.h ****  * @param disp pointer to a display
  92:lvgl/src/lv_core/lv_disp.h ****  * @param color color of the background
  93:lvgl/src/lv_core/lv_disp.h ****  */
  94:lvgl/src/lv_core/lv_disp.h **** void lv_disp_set_bg_color(lv_disp_t * disp, lv_color_t color);
  95:lvgl/src/lv_core/lv_disp.h **** 
  96:lvgl/src/lv_core/lv_disp.h **** /**
  97:lvgl/src/lv_core/lv_disp.h ****  * Set the background image of a display
  98:lvgl/src/lv_core/lv_disp.h ****  * @param disp pointer to a display
  99:lvgl/src/lv_core/lv_disp.h ****  * @param img_src path to file or pointer to an `lv_img_dsc_t` variable
 100:lvgl/src/lv_core/lv_disp.h ****  */
 101:lvgl/src/lv_core/lv_disp.h **** void lv_disp_set_bg_image(lv_disp_t * disp, const void  * img_src);
 102:lvgl/src/lv_core/lv_disp.h **** 
ARM GAS  C:\Users\strap\AppData\Local\Temp\cci64Z2T.s 			page 54


 103:lvgl/src/lv_core/lv_disp.h **** /**
 104:lvgl/src/lv_core/lv_disp.h ****  * Opacity of the background
 105:lvgl/src/lv_core/lv_disp.h ****  * @param disp pointer to a display
 106:lvgl/src/lv_core/lv_disp.h ****  * @param opa opacity (0..255)
 107:lvgl/src/lv_core/lv_disp.h ****  */
 108:lvgl/src/lv_core/lv_disp.h **** void lv_disp_set_bg_opa(lv_disp_t * disp, lv_opa_t opa);
 109:lvgl/src/lv_core/lv_disp.h **** 
 110:lvgl/src/lv_core/lv_disp.h **** #if LV_USE_ANIMATION
 111:lvgl/src/lv_core/lv_disp.h **** 
 112:lvgl/src/lv_core/lv_disp.h **** /**
 113:lvgl/src/lv_core/lv_disp.h ****  * Switch screen with animation
 114:lvgl/src/lv_core/lv_disp.h ****  * @param scr pointer to the new screen to load
 115:lvgl/src/lv_core/lv_disp.h ****  * @param anim_type type of the animation from `lv_scr_load_anim_t`. E.g.  `LV_SCR_LOAD_ANIM_MOVE_L
 116:lvgl/src/lv_core/lv_disp.h ****  * @param time time of the animation
 117:lvgl/src/lv_core/lv_disp.h ****  * @param delay delay before the transition
 118:lvgl/src/lv_core/lv_disp.h ****  * @param auto_del true: automatically delete the old screen
 119:lvgl/src/lv_core/lv_disp.h ****  */
 120:lvgl/src/lv_core/lv_disp.h **** void lv_scr_load_anim(lv_obj_t * scr, lv_scr_load_anim_t anim_type, uint32_t time, uint32_t delay, 
 121:lvgl/src/lv_core/lv_disp.h **** 
 122:lvgl/src/lv_core/lv_disp.h **** #endif
 123:lvgl/src/lv_core/lv_disp.h **** /**
 124:lvgl/src/lv_core/lv_disp.h ****  * Get elapsed time since last user activity on a display (e.g. click)
 125:lvgl/src/lv_core/lv_disp.h ****  * @param disp pointer to an display (NULL to get the overall smallest inactivity)
 126:lvgl/src/lv_core/lv_disp.h ****  * @return elapsed ticks (milliseconds) since the last activity
 127:lvgl/src/lv_core/lv_disp.h ****  */
 128:lvgl/src/lv_core/lv_disp.h **** uint32_t lv_disp_get_inactive_time(const lv_disp_t * disp);
 129:lvgl/src/lv_core/lv_disp.h **** 
 130:lvgl/src/lv_core/lv_disp.h **** /**
 131:lvgl/src/lv_core/lv_disp.h ****  * Manually trigger an activity on a display
 132:lvgl/src/lv_core/lv_disp.h ****  * @param disp pointer to an display (NULL to use the default display)
 133:lvgl/src/lv_core/lv_disp.h ****  */
 134:lvgl/src/lv_core/lv_disp.h **** void lv_disp_trig_activity(lv_disp_t * disp);
 135:lvgl/src/lv_core/lv_disp.h **** 
 136:lvgl/src/lv_core/lv_disp.h **** /**
 137:lvgl/src/lv_core/lv_disp.h ****  * Clean any CPU cache that is related to the display.
 138:lvgl/src/lv_core/lv_disp.h ****  * @param disp pointer to an display (NULL to use the default display)
 139:lvgl/src/lv_core/lv_disp.h ****  */
 140:lvgl/src/lv_core/lv_disp.h **** void lv_disp_clean_dcache(lv_disp_t * disp);
 141:lvgl/src/lv_core/lv_disp.h **** 
 142:lvgl/src/lv_core/lv_disp.h **** /**
 143:lvgl/src/lv_core/lv_disp.h ****  * Get a pointer to the screen refresher task to
 144:lvgl/src/lv_core/lv_disp.h ****  * modify its parameters with `lv_task_...` functions.
 145:lvgl/src/lv_core/lv_disp.h ****  * @param disp pointer to a display
 146:lvgl/src/lv_core/lv_disp.h ****  * @return pointer to the display refresher task. (NULL on error)
 147:lvgl/src/lv_core/lv_disp.h ****  */
 148:lvgl/src/lv_core/lv_disp.h **** lv_task_t * _lv_disp_get_refr_task(lv_disp_t * disp);
 149:lvgl/src/lv_core/lv_disp.h **** 
 150:lvgl/src/lv_core/lv_disp.h **** /*------------------------------------------------
 151:lvgl/src/lv_core/lv_disp.h ****  * To improve backward compatibility
 152:lvgl/src/lv_core/lv_disp.h ****  * Recommended only if you have one display
 153:lvgl/src/lv_core/lv_disp.h ****  *------------------------------------------------*/
 154:lvgl/src/lv_core/lv_disp.h **** 
 155:lvgl/src/lv_core/lv_disp.h **** /**
 156:lvgl/src/lv_core/lv_disp.h ****  * Get the active screen of the default display
 157:lvgl/src/lv_core/lv_disp.h ****  * @return pointer to the active screen
 158:lvgl/src/lv_core/lv_disp.h ****  */
 159:lvgl/src/lv_core/lv_disp.h **** static inline lv_obj_t * lv_scr_act(void)
ARM GAS  C:\Users\strap\AppData\Local\Temp\cci64Z2T.s 			page 55


 160:lvgl/src/lv_core/lv_disp.h **** {
 161:lvgl/src/lv_core/lv_disp.h ****     return lv_disp_get_scr_act(lv_disp_get_default());
 162:lvgl/src/lv_core/lv_disp.h **** }
 163:lvgl/src/lv_core/lv_disp.h **** 
 164:lvgl/src/lv_core/lv_disp.h **** /**
 165:lvgl/src/lv_core/lv_disp.h ****  * Get the top layer  of the default display
 166:lvgl/src/lv_core/lv_disp.h ****  * @return pointer to the top layer
 167:lvgl/src/lv_core/lv_disp.h ****  */
 168:lvgl/src/lv_core/lv_disp.h **** static inline lv_obj_t * lv_layer_top(void)
 169:lvgl/src/lv_core/lv_disp.h **** {
 170:lvgl/src/lv_core/lv_disp.h ****     return lv_disp_get_layer_top(lv_disp_get_default());
 171:lvgl/src/lv_core/lv_disp.h **** }
 172:lvgl/src/lv_core/lv_disp.h **** 
 173:lvgl/src/lv_core/lv_disp.h **** /**
 174:lvgl/src/lv_core/lv_disp.h ****  * Get the active screen of the default display
 175:lvgl/src/lv_core/lv_disp.h ****  * @return  pointer to the sys layer
 176:lvgl/src/lv_core/lv_disp.h ****  */
 177:lvgl/src/lv_core/lv_disp.h **** static inline lv_obj_t * lv_layer_sys(void)
 178:lvgl/src/lv_core/lv_disp.h **** {
 179:lvgl/src/lv_core/lv_disp.h ****     return lv_disp_get_layer_sys(lv_disp_get_default());
 180:lvgl/src/lv_core/lv_disp.h **** }
 181:lvgl/src/lv_core/lv_disp.h **** 
 182:lvgl/src/lv_core/lv_disp.h **** static inline void lv_scr_load(lv_obj_t * scr)
 183:lvgl/src/lv_core/lv_disp.h **** {
 184:lvgl/src/lv_core/lv_disp.h ****     lv_disp_load_scr(scr);
 1630              		.loc 5 184 0
 1631 00b8 2068     		ldr	r0, [r4]
 1632 00ba FFF7FEFF 		bl	lv_disp_load_scr
 1633              	.LVL231:
 1634              	.L72:
 1635              	.LBE65:
 1636              	.LBE64:
 216:main.c        ****         lv_task_handler();
 1637              		.loc 1 216 0 discriminator 1
 1638 00be 0120     		movs	r0, #1
 1639 00c0 FFF7FEFF 		bl	CyDelay
 1640              	.LVL232:
 217:main.c        ****     }
 1641              		.loc 1 217 0 discriminator 1
 1642 00c4 FFF7FEFF 		bl	lv_task_handler
 1643              	.LVL233:
 1644 00c8 F9E7     		b	.L72
 1645              	.L75:
 1646 00ca 00BF     		.align	2
 1647              	.L74:
 1648 00cc 00000000 		.word	spi_tx_dma_done
 1649 00d0 00000000 		.word	spi_tx_isr_handler
 1650 00d4 00000000 		.word	timer_tick_handler
 1651 00d8 00000000 		.word	.LANCHOR0
 1652 00dc 2C320000 		.word	.LANCHOR2-188
 1653 00e0 2C190000 		.word	.LANCHOR1+2100
 1654 00e4 00000000 		.word	ili9341_flush
 1655 00e8 00000000 		.word	.LANCHOR3
 1656 00ec 00000000 		.word	encoder_read
 1657 00f0 00000000 		.word	app_screen
 1658              		.cfi_endproc
 1659              	.LFE441:
ARM GAS  C:\Users\strap\AppData\Local\Temp\cci64Z2T.s 			page 56


 1660              		.size	main, .-main
 1661              		.global	ili9341_driver
 1662              		.comm	app_screen,4,4
 1663              		.global	qd_old_cnt
 1664              		.global	qd_current_cnt
 1665              		.global	v72_checkbox
 1666              		.global	v48_checkbox
 1667              		.global	v24_checkbox
 1668              		.global	continous_checkbox
 1669              		.global	one_shot_checkbox
 1670              		.comm	parameter_list_ssss,16,4
 1671              		.comm	pulses_spinbox,4,4
 1672              		.comm	pulses_ok_btn,4,4
 1673              		.comm	voltage_ok_btn,4,4
 1674              		.comm	voltage_ddlist,4,4
 1675              		.comm	burst_type_list,4,4
 1676              		.comm	type_param_ok_btn,4,4
 1677              		.comm	custom_spinbox,4,4
 1678              		.comm	one_shoot_cb,4,4
 1679              		.comm	custom_shoot_cb,4,4
 1680              		.comm	continuous_cb,4,4
 1681              		.comm	shoot_btn_label,4,4
 1682              		.comm	shoot_btn,4,4
 1683              		.comm	selected_option,4,4
 1684              		.data
 1685              		.align	2
 1686              		.set	.LANCHOR3,. + 0
 1687              		.type	ili9341_driver, %object
 1688              		.size	ili9341_driver, 24
 1689              	ili9341_driver:
 1690 0000 00000000 		.word	psoc_display_backlight_control
 1691 0004 00000000 		.word	psoc_data_mode
 1692 0008 00000000 		.word	psoc_delay_ms
 1693 000c 00000000 		.space	8
 1693      00000000 
 1694 0014 00000000 		.word	0
 1695              		.section	.rodata.str1.4,"aMS",%progbits,1
 1696              		.align	2
 1697              	.LC0:
 1698 0000 73657474 		.ascii	"setting option\000"
 1698      696E6720 
 1698      6F707469 
 1698      6F6E00
 1699 000f 00       		.space	1
 1700              	.LC1:
 1701 0010 70617261 		.ascii	"parameter list handler\000"
 1701      6D657465 
 1701      72206C69 
 1701      73742068 
 1701      616E646C 
 1702 0027 00       		.space	1
 1703              	.LC2:
 1704 0028 53657474 		.ascii	"Setting voltage\000"
 1704      696E6720 
 1704      766F6C74 
 1704      61676500 
 1705              	.LC3:
ARM GAS  C:\Users\strap\AppData\Local\Temp\cci64Z2T.s 			page 57


 1706 0038 3234560A 		.ascii	"24V\01248V\01272V\000"
 1706      3438560A 
 1706      37325600 
 1707              	.LC4:
 1708 0044 4F4B2100 		.ascii	"OK!\000"
 1709              	.LC5:
 1710 0048 4F6E652D 		.ascii	"One-shoot\012Infinite\012Custom\000"
 1710      73686F6F 
 1710      740A496E 
 1710      66696E69 
 1710      74650A43 
 1711 0062 0000     		.space	2
 1712              	.LC6:
 1713 0064 50617261 		.ascii	"Parameters\000"
 1713      6D657465 
 1713      727300
 1714 006f 00       		.space	1
 1715              	.LC7:
 1716 0070 4F707469 		.ascii	"Options\000"
 1716      6F6E7300 
 1717              	.LC8:
 1718 0078 42757273 		.ascii	"Burst Type.\000"
 1718      74205479 
 1718      70652E00 
 1719              	.LC9:
 1720 0084 50756C73 		.ascii	"Pulses in burst.\000"
 1720      65732069 
 1720      6E206275 
 1720      7273742E 
 1720      00
 1721 0095 000000   		.space	3
 1722              	.LC10:
 1723 0098 50756C73 		.ascii	"Pulse Voltage.\000"
 1723      6520566F 
 1723      6C746167 
 1723      652E00
 1724 00a7 00       		.space	1
 1725              	.LC11:
 1726 00a8 53686F6F 		.ascii	"Shoot!\000"
 1726      742100
 1727              		.bss
 1728              		.align	2
 1729              		.set	.LANCHOR0,. + 0
 1730              		.set	.LANCHOR1,. + 4344
 1731              		.set	.LANCHOR2,. + 13032
 1732              		.type	qd_current_cnt, %object
 1733              		.size	qd_current_cnt, 1
 1734              	qd_current_cnt:
 1735 0000 00       		.space	1
 1736              		.type	qd_old_cnt, %object
 1737              		.size	qd_old_cnt, 1
 1738              	qd_old_cnt:
 1739 0001 00       		.space	1
 1740 0002 0000     		.space	2
 1741              		.type	parameter_list_g, %object
 1742              		.size	parameter_list_g, 4
 1743              	parameter_list_g:
ARM GAS  C:\Users\strap\AppData\Local\Temp\cci64Z2T.s 			page 58


 1744 0004 00000000 		.space	4
 1745              		.type	encoder_indev, %object
 1746              		.size	encoder_indev, 4
 1747              	encoder_indev:
 1748 0008 00000000 		.space	4
 1749              		.type	parameter_list, %object
 1750              		.size	parameter_list, 12
 1751              	parameter_list:
 1752 000c 00000000 		.space	12
 1752      00000000 
 1752      00000000 
 1753              		.type	burst_type_params_g, %object
 1754              		.size	burst_type_params_g, 4
 1755              	burst_type_params_g:
 1756 0018 00000000 		.space	4
 1757              		.type	voltage_params_g, %object
 1758              		.size	voltage_params_g, 4
 1759              	voltage_params_g:
 1760 001c 00000000 		.space	4
 1761              		.type	pulses_params_g, %object
 1762              		.size	pulses_params_g, 4
 1763              	pulses_params_g:
 1764 0020 00000000 		.space	4
 1765              		.type	parameter_list_container, %object
 1766              		.size	parameter_list_container, 4
 1767              	parameter_list_container:
 1768 0024 00000000 		.space	4
 1769              		.type	parameter_options_container, %object
 1770              		.size	parameter_options_container, 4
 1771              	parameter_options_container:
 1772 0028 00000000 		.space	4
 1773              		.type	buf2.12277, %object
 1774              		.size	buf2.12277, 6400
 1775              	buf2.12277:
 1776 002c 00000000 		.space	6400
 1776      00000000 
 1776      00000000 
 1776      00000000 
 1776      00000000 
 1777              		.type	buf1.12276, %object
 1778              		.size	buf1.12276, 6400
 1779              	buf1.12276:
 1780 192c 00000000 		.space	6400
 1780      00000000 
 1780      00000000 
 1780      00000000 
 1780      00000000 
 1781              		.type	disp_buf.12278, %object
 1782              		.size	disp_buf.12278, 36
 1783              	disp_buf.12278:
 1784 322c 00000000 		.space	36
 1784      00000000 
 1784      00000000 
 1784      00000000 
 1784      00000000 
 1785              		.type	v72_checkbox, %object
 1786              		.size	v72_checkbox, 4
ARM GAS  C:\Users\strap\AppData\Local\Temp\cci64Z2T.s 			page 59


 1787              	v72_checkbox:
 1788 3250 00000000 		.space	4
 1789              		.type	v48_checkbox, %object
 1790              		.size	v48_checkbox, 4
 1791              	v48_checkbox:
 1792 3254 00000000 		.space	4
 1793              		.type	v24_checkbox, %object
 1794              		.size	v24_checkbox, 4
 1795              	v24_checkbox:
 1796 3258 00000000 		.space	4
 1797              		.type	continous_checkbox, %object
 1798              		.size	continous_checkbox, 4
 1799              	continous_checkbox:
 1800 325c 00000000 		.space	4
 1801              		.type	one_shot_checkbox, %object
 1802              		.size	one_shot_checkbox, 4
 1803              	one_shot_checkbox:
 1804 3260 00000000 		.space	4
 1805              		.text
 1806              	.Letext0:
 1807              		.file 6 "c:\\program files (x86)\\cypress\\psoc creator\\4.4\\psoc creator\\import\\gnu\\arm\\5.4.
 1808              		.file 7 "c:\\program files (x86)\\cypress\\psoc creator\\4.4\\psoc creator\\import\\gnu\\arm\\5.4.
 1809              		.file 8 "Generated_Source\\PSoC5/cytypes.h"
 1810              		.file 9 "c:\\program files (x86)\\cypress\\psoc creator\\4.4\\psoc creator\\import\\gnu\\arm\\5.4.
 1811              		.file 10 "lvgl/src/lv_misc/../../../lv_conf.h"
 1812              		.file 11 "lvgl/src/lv_misc/lv_types.h"
 1813              		.file 12 "lvgl/src/lv_misc/lv_ll.h"
 1814              		.file 13 "lvgl/src/lv_misc/lv_task.h"
 1815              		.file 14 "lvgl/src/lv_hal/../lv_misc/lv_color.h"
 1816              		.file 15 "lvgl/src/lv_hal/../lv_misc/lv_area.h"
 1817              		.file 16 "lvgl/src/lv_hal/lv_hal_disp.h"
 1818              		.file 17 "lvgl/src/lv_core/lv_obj.h"
 1819              		.file 18 "lvgl/src/lv_hal/lv_hal_indev.h"
 1820              		.file 19 "lvgl/src/lv_core/lv_group.h"
 1821              		.file 20 "lvgl/src/lv_core/lv_style.h"
 1822              		.file 21 "lvgl/src/lv_core/../lv_draw/../lv_misc/lv_bidi.h"
 1823              		.file 22 "lvgl/src/lv_widgets/lv_btn.h"
 1824              		.file 23 "lvgl/src/lv_widgets/lv_label.h"
 1825              		.file 24 "lvgl/src/lv_widgets/lv_page.h"
 1826              		.file 25 "lvgl/src/lv_widgets/lv_textarea.h"
 1827              		.file 26 "./driver_generic.h"
 1828              		.file 27 "spi_dma.h"
 1829              		.file 28 "Generated_Source\\PSoC5/core_cm3.h"
 1830              		.file 29 "Generated_Source\\PSoC5/QuadDec.h"
 1831              		.file 30 "Generated_Source\\PSoC5/QuadDec_SW.h"
 1832              		.file 31 "lvgl/src/lv_widgets/lv_dropdown.h"
 1833              		.file 32 "Generated_Source\\PSoC5/UART.h"
 1834              		.file 33 "lvgl/src/lv_widgets/lv_spinbox.h"
 1835              		.file 34 "lvgl/src/lv_core/lv_indev.h"
 1836              		.file 35 "lvgl/src/lv_hal/lv_hal_tick.h"
 1837              		.file 36 "Generated_Source\\PSoC5/SPI.h"
 1838              		.file 37 "Generated_Source\\PSoC5/SS.h"
 1839              		.file 38 ".\\ili9341/disp_spi.h"
 1840              		.file 39 "Generated_Source\\PSoC5/isr_SPI_TX_DMA.h"
 1841              		.file 40 "Generated_Source\\PSoC5/isr_SPI_TX.h"
 1842              		.file 41 "Generated_Source\\PSoC5/CyLib.h"
 1843              		.file 42 ".\\ili9341/ili9341.h"
ARM GAS  C:\Users\strap\AppData\Local\Temp\cci64Z2T.s 			page 60


 1844              		.section	.debug_info,"",%progbits
 1845              	.Ldebug_info0:
 1846 0000 882F0000 		.4byte	0x2f88
 1847 0004 0400     		.2byte	0x4
 1848 0006 00000000 		.4byte	.Ldebug_abbrev0
 1849 000a 04       		.byte	0x4
 1850 000b 01       		.uleb128 0x1
 1851 000c D0210000 		.4byte	.LASF601
 1852 0010 0C       		.byte	0xc
 1853 0011 21250000 		.4byte	.LASF602
 1854 0015 7B150000 		.4byte	.LASF603
 1855 0019 00000000 		.4byte	.Ldebug_ranges0+0
 1856 001d 00000000 		.4byte	0
 1857 0021 00000000 		.4byte	.Ldebug_line0
 1858 0025 02       		.uleb128 0x2
 1859 0026 01       		.byte	0x1
 1860 0027 06       		.byte	0x6
 1861 0028 2F140000 		.4byte	.LASF0
 1862 002c 03       		.uleb128 0x3
 1863 002d D6000000 		.4byte	.LASF2
 1864 0031 06       		.byte	0x6
 1865 0032 1D       		.byte	0x1d
 1866 0033 37000000 		.4byte	0x37
 1867 0037 02       		.uleb128 0x2
 1868 0038 01       		.byte	0x1
 1869 0039 08       		.byte	0x8
 1870 003a 13090000 		.4byte	.LASF1
 1871 003e 03       		.uleb128 0x3
 1872 003f E6070000 		.4byte	.LASF3
 1873 0043 06       		.byte	0x6
 1874 0044 29       		.byte	0x29
 1875 0045 49000000 		.4byte	0x49
 1876 0049 02       		.uleb128 0x2
 1877 004a 02       		.byte	0x2
 1878 004b 05       		.byte	0x5
 1879 004c 0A270000 		.4byte	.LASF4
 1880 0050 03       		.uleb128 0x3
 1881 0051 F0070000 		.4byte	.LASF5
 1882 0055 06       		.byte	0x6
 1883 0056 2B       		.byte	0x2b
 1884 0057 5B000000 		.4byte	0x5b
 1885 005b 02       		.uleb128 0x2
 1886 005c 02       		.byte	0x2
 1887 005d 07       		.byte	0x7
 1888 005e 0B140000 		.4byte	.LASF6
 1889 0062 03       		.uleb128 0x3
 1890 0063 0D1F0000 		.4byte	.LASF7
 1891 0067 06       		.byte	0x6
 1892 0068 3F       		.byte	0x3f
 1893 0069 6D000000 		.4byte	0x6d
 1894 006d 02       		.uleb128 0x2
 1895 006e 04       		.byte	0x4
 1896 006f 05       		.byte	0x5
 1897 0070 EF170000 		.4byte	.LASF8
 1898 0074 03       		.uleb128 0x3
 1899 0075 171F0000 		.4byte	.LASF9
 1900 0079 06       		.byte	0x6
ARM GAS  C:\Users\strap\AppData\Local\Temp\cci64Z2T.s 			page 61


 1901 007a 41       		.byte	0x41
 1902 007b 7F000000 		.4byte	0x7f
 1903 007f 02       		.uleb128 0x2
 1904 0080 04       		.byte	0x4
 1905 0081 07       		.byte	0x7
 1906 0082 351A0000 		.4byte	.LASF10
 1907 0086 02       		.uleb128 0x2
 1908 0087 08       		.byte	0x8
 1909 0088 05       		.byte	0x5
 1910 0089 51240000 		.4byte	.LASF11
 1911 008d 02       		.uleb128 0x2
 1912 008e 08       		.byte	0x8
 1913 008f 07       		.byte	0x7
 1914 0090 82210000 		.4byte	.LASF12
 1915 0094 04       		.uleb128 0x4
 1916 0095 04       		.byte	0x4
 1917 0096 05       		.byte	0x5
 1918 0097 696E7400 		.ascii	"int\000"
 1919 009b 02       		.uleb128 0x2
 1920 009c 04       		.byte	0x4
 1921 009d 07       		.byte	0x7
 1922 009e 5F260000 		.4byte	.LASF13
 1923 00a2 03       		.uleb128 0x3
 1924 00a3 D00D0000 		.4byte	.LASF14
 1925 00a7 07       		.byte	0x7
 1926 00a8 18       		.byte	0x18
 1927 00a9 2C000000 		.4byte	0x2c
 1928 00ad 03       		.uleb128 0x3
 1929 00ae F3130000 		.4byte	.LASF15
 1930 00b2 07       		.byte	0x7
 1931 00b3 20       		.byte	0x20
 1932 00b4 3E000000 		.4byte	0x3e
 1933 00b8 03       		.uleb128 0x3
 1934 00b9 7C020000 		.4byte	.LASF16
 1935 00bd 07       		.byte	0x7
 1936 00be 24       		.byte	0x24
 1937 00bf 50000000 		.4byte	0x50
 1938 00c3 03       		.uleb128 0x3
 1939 00c4 AB040000 		.4byte	.LASF17
 1940 00c8 07       		.byte	0x7
 1941 00c9 2C       		.byte	0x2c
 1942 00ca 62000000 		.4byte	0x62
 1943 00ce 03       		.uleb128 0x3
 1944 00cf 61190000 		.4byte	.LASF18
 1945 00d3 07       		.byte	0x7
 1946 00d4 30       		.byte	0x30
 1947 00d5 74000000 		.4byte	0x74
 1948 00d9 05       		.uleb128 0x5
 1949 00da A6050000 		.4byte	.LASF19
 1950 00de 08       		.byte	0x8
 1951 00df E801     		.2byte	0x1e8
 1952 00e1 37000000 		.4byte	0x37
 1953 00e5 02       		.uleb128 0x2
 1954 00e6 04       		.byte	0x4
 1955 00e7 04       		.byte	0x4
 1956 00e8 6A090000 		.4byte	.LASF20
 1957 00ec 02       		.uleb128 0x2
ARM GAS  C:\Users\strap\AppData\Local\Temp\cci64Z2T.s 			page 62


 1958 00ed 08       		.byte	0x8
 1959 00ee 04       		.byte	0x4
 1960 00ef 4E1E0000 		.4byte	.LASF21
 1961 00f3 02       		.uleb128 0x2
 1962 00f4 01       		.byte	0x1
 1963 00f5 08       		.byte	0x8
 1964 00f6 2D1B0000 		.4byte	.LASF22
 1965 00fa 03       		.uleb128 0x3
 1966 00fb C90D0000 		.4byte	.LASF23
 1967 00ff 09       		.byte	0x9
 1968 0100 D8       		.byte	0xd8
 1969 0101 9B000000 		.4byte	0x9b
 1970 0105 02       		.uleb128 0x2
 1971 0106 08       		.byte	0x8
 1972 0107 04       		.byte	0x4
 1973 0108 AD190000 		.4byte	.LASF24
 1974 010c 02       		.uleb128 0x2
 1975 010d 04       		.byte	0x4
 1976 010e 07       		.byte	0x7
 1977 010f 9D130000 		.4byte	.LASF25
 1978 0113 06       		.uleb128 0x6
 1979 0114 04       		.byte	0x4
 1980 0115 07       		.uleb128 0x7
 1981 0116 04       		.byte	0x4
 1982 0117 1B010000 		.4byte	0x11b
 1983 011b 08       		.uleb128 0x8
 1984 011c F3000000 		.4byte	0xf3
 1985 0120 09       		.uleb128 0x9
 1986 0121 CE000000 		.4byte	0xce
 1987 0125 09       		.uleb128 0x9
 1988 0126 A2000000 		.4byte	0xa2
 1989 012a 03       		.uleb128 0x3
 1990 012b C30C0000 		.4byte	.LASF26
 1991 012f 0A       		.byte	0xa
 1992 0130 46       		.byte	0x46
 1993 0131 AD000000 		.4byte	0xad
 1994 0135 03       		.uleb128 0x3
 1995 0136 72010000 		.4byte	.LASF27
 1996 013a 0A       		.byte	0xa
 1997 013b BC       		.byte	0xbc
 1998 013c 13010000 		.4byte	0x113
 1999 0140 05       		.uleb128 0x5
 2000 0141 62270000 		.4byte	.LASF28
 2001 0145 0A       		.byte	0xa
 2002 0146 2101     		.2byte	0x121
 2003 0148 13010000 		.4byte	0x113
 2004 014c 05       		.uleb128 0x5
 2005 014d 91160000 		.4byte	.LASF29
 2006 0151 0A       		.byte	0xa
 2007 0152 2201     		.2byte	0x122
 2008 0154 13010000 		.4byte	0x113
 2009 0158 05       		.uleb128 0x5
 2010 0159 4E060000 		.4byte	.LASF30
 2011 015d 0A       		.byte	0xa
 2012 015e 1202     		.2byte	0x212
 2013 0160 13010000 		.4byte	0x113
 2014 0164 03       		.uleb128 0x3
ARM GAS  C:\Users\strap\AppData\Local\Temp\cci64Z2T.s 			page 63


 2015 0165 49000000 		.4byte	.LASF31
 2016 0169 0B       		.byte	0xb
 2017 016a 34       		.byte	0x34
 2018 016b A2000000 		.4byte	0xa2
 2019 016f 03       		.uleb128 0x3
 2020 0170 2B0A0000 		.4byte	.LASF32
 2021 0174 0C       		.byte	0xc
 2022 0175 1E       		.byte	0x1e
 2023 0176 A2000000 		.4byte	0xa2
 2024 017a 0A       		.uleb128 0xa
 2025 017b 0C       		.byte	0xc
 2026 017c 0C       		.byte	0xc
 2027 017d 21       		.byte	0x21
 2028 017e A7010000 		.4byte	0x1a7
 2029 0182 0B       		.uleb128 0xb
 2030 0183 F0220000 		.4byte	.LASF33
 2031 0187 0C       		.byte	0xc
 2032 0188 22       		.byte	0x22
 2033 0189 CE000000 		.4byte	0xce
 2034 018d 00       		.byte	0
 2035 018e 0B       		.uleb128 0xb
 2036 018f 851F0000 		.4byte	.LASF34
 2037 0193 0C       		.byte	0xc
 2038 0194 23       		.byte	0x23
 2039 0195 A7010000 		.4byte	0x1a7
 2040 0199 04       		.byte	0x4
 2041 019a 0B       		.uleb128 0xb
 2042 019b 491E0000 		.4byte	.LASF35
 2043 019f 0C       		.byte	0xc
 2044 01a0 24       		.byte	0x24
 2045 01a1 A7010000 		.4byte	0x1a7
 2046 01a5 08       		.byte	0x8
 2047 01a6 00       		.byte	0
 2048 01a7 07       		.uleb128 0x7
 2049 01a8 04       		.byte	0x4
 2050 01a9 6F010000 		.4byte	0x16f
 2051 01ad 03       		.uleb128 0x3
 2052 01ae 32120000 		.4byte	.LASF36
 2053 01b2 0C       		.byte	0xc
 2054 01b3 25       		.byte	0x25
 2055 01b4 7A010000 		.4byte	0x17a
 2056 01b8 03       		.uleb128 0x3
 2057 01b9 F3040000 		.4byte	.LASF37
 2058 01bd 0D       		.byte	0xd
 2059 01be 29       		.byte	0x29
 2060 01bf C3010000 		.4byte	0x1c3
 2061 01c3 07       		.uleb128 0x7
 2062 01c4 04       		.byte	0x4
 2063 01c5 C9010000 		.4byte	0x1c9
 2064 01c9 0C       		.uleb128 0xc
 2065 01ca D4010000 		.4byte	0x1d4
 2066 01ce 0D       		.uleb128 0xd
 2067 01cf D4010000 		.4byte	0x1d4
 2068 01d3 00       		.byte	0
 2069 01d4 07       		.uleb128 0x7
 2070 01d5 04       		.byte	0x4
 2071 01d6 DA010000 		.4byte	0x1da
ARM GAS  C:\Users\strap\AppData\Local\Temp\cci64Z2T.s 			page 64


 2072 01da 0E       		.uleb128 0xe
 2073 01db CA120000 		.4byte	.LASF86
 2074 01df 18       		.byte	0x18
 2075 01e0 0D       		.byte	0xd
 2076 01e1 3C       		.byte	0x3c
 2077 01e2 32020000 		.4byte	0x232
 2078 01e6 0B       		.uleb128 0xb
 2079 01e7 B7120000 		.4byte	.LASF38
 2080 01eb 0D       		.byte	0xd
 2081 01ec 3D       		.byte	0x3d
 2082 01ed CE000000 		.4byte	0xce
 2083 01f1 00       		.byte	0
 2084 01f2 0B       		.uleb128 0xb
 2085 01f3 2B110000 		.4byte	.LASF39
 2086 01f7 0D       		.byte	0xd
 2087 01f8 3E       		.byte	0x3e
 2088 01f9 CE000000 		.4byte	0xce
 2089 01fd 04       		.byte	0x4
 2090 01fe 0B       		.uleb128 0xb
 2091 01ff 68110000 		.4byte	.LASF40
 2092 0203 0D       		.byte	0xd
 2093 0204 3F       		.byte	0x3f
 2094 0205 B8010000 		.4byte	0x1b8
 2095 0209 08       		.byte	0x8
 2096 020a 0B       		.uleb128 0xb
 2097 020b 3D190000 		.4byte	.LASF41
 2098 020f 0D       		.byte	0xd
 2099 0210 41       		.byte	0x41
 2100 0211 13010000 		.4byte	0x113
 2101 0215 0C       		.byte	0xc
 2102 0216 0B       		.uleb128 0xb
 2103 0217 71140000 		.4byte	.LASF42
 2104 021b 0D       		.byte	0xd
 2105 021c 43       		.byte	0x43
 2106 021d C3000000 		.4byte	0xc3
 2107 0221 10       		.byte	0x10
 2108 0222 0F       		.uleb128 0xf
 2109 0223 5D010000 		.4byte	.LASF44
 2110 0227 0D       		.byte	0xd
 2111 0228 44       		.byte	0x44
 2112 0229 A2000000 		.4byte	0xa2
 2113 022d 01       		.byte	0x1
 2114 022e 03       		.byte	0x3
 2115 022f 05       		.byte	0x5
 2116 0230 14       		.byte	0x14
 2117 0231 00       		.byte	0
 2118 0232 03       		.uleb128 0x3
 2119 0233 5F0C0000 		.4byte	.LASF43
 2120 0237 0D       		.byte	0xd
 2121 0238 45       		.byte	0x45
 2122 0239 DA010000 		.4byte	0x1da
 2123 023d 0A       		.uleb128 0xa
 2124 023e 02       		.byte	0x2
 2125 023f 0E       		.byte	0xe
 2126 0240 EA       		.byte	0xea
 2127 0241 82020000 		.4byte	0x282
 2128 0245 0F       		.uleb128 0xf
ARM GAS  C:\Users\strap\AppData\Local\Temp\cci64Z2T.s 			page 65


 2129 0246 740B0000 		.4byte	.LASF45
 2130 024a 0E       		.byte	0xe
 2131 024b F0       		.byte	0xf0
 2132 024c B8000000 		.4byte	0xb8
 2133 0250 02       		.byte	0x2
 2134 0251 03       		.byte	0x3
 2135 0252 0D       		.byte	0xd
 2136 0253 00       		.byte	0
 2137 0254 10       		.uleb128 0x10
 2138 0255 72656400 		.ascii	"red\000"
 2139 0259 0E       		.byte	0xe
 2140 025a F1       		.byte	0xf1
 2141 025b B8000000 		.4byte	0xb8
 2142 025f 02       		.byte	0x2
 2143 0260 05       		.byte	0x5
 2144 0261 08       		.byte	0x8
 2145 0262 00       		.byte	0
 2146 0263 0F       		.uleb128 0xf
 2147 0264 83240000 		.4byte	.LASF46
 2148 0268 0E       		.byte	0xe
 2149 0269 F2       		.byte	0xf2
 2150 026a B8000000 		.4byte	0xb8
 2151 026e 02       		.byte	0x2
 2152 026f 05       		.byte	0x5
 2153 0270 03       		.byte	0x3
 2154 0271 00       		.byte	0
 2155 0272 0F       		.uleb128 0xf
 2156 0273 7C0B0000 		.4byte	.LASF47
 2157 0277 0E       		.byte	0xe
 2158 0278 F3       		.byte	0xf3
 2159 0279 B8000000 		.4byte	0xb8
 2160 027d 02       		.byte	0x2
 2161 027e 03       		.byte	0x3
 2162 027f 00       		.byte	0
 2163 0280 00       		.byte	0
 2164 0281 00       		.byte	0
 2165 0282 11       		.uleb128 0x11
 2166 0283 02       		.byte	0x2
 2167 0284 0E       		.byte	0xe
 2168 0285 E9       		.byte	0xe9
 2169 0286 A0020000 		.4byte	0x2a0
 2170 028a 12       		.uleb128 0x12
 2171 028b 636800   		.ascii	"ch\000"
 2172 028e 0E       		.byte	0xe
 2173 028f F5       		.byte	0xf5
 2174 0290 3D020000 		.4byte	0x23d
 2175 0294 13       		.uleb128 0x13
 2176 0295 76150000 		.4byte	.LASF48
 2177 0299 0E       		.byte	0xe
 2178 029a F6       		.byte	0xf6
 2179 029b B8000000 		.4byte	0xb8
 2180 029f 00       		.byte	0
 2181 02a0 03       		.uleb128 0x3
 2182 02a1 230C0000 		.4byte	.LASF49
 2183 02a5 0E       		.byte	0xe
 2184 02a6 F7       		.byte	0xf7
 2185 02a7 82020000 		.4byte	0x282
ARM GAS  C:\Users\strap\AppData\Local\Temp\cci64Z2T.s 			page 66


 2186 02ab 05       		.uleb128 0x5
 2187 02ac 2C0B0000 		.4byte	.LASF50
 2188 02b0 0E       		.byte	0xe
 2189 02b1 0D01     		.2byte	0x10d
 2190 02b3 A0020000 		.4byte	0x2a0
 2191 02b7 05       		.uleb128 0x5
 2192 02b8 47190000 		.4byte	.LASF51
 2193 02bc 0E       		.byte	0xe
 2194 02bd 2001     		.2byte	0x120
 2195 02bf A2000000 		.4byte	0xa2
 2196 02c3 0A       		.uleb128 0xa
 2197 02c4 04       		.byte	0x4
 2198 02c5 0F       		.byte	0xf
 2199 02c6 27       		.byte	0x27
 2200 02c7 E0020000 		.4byte	0x2e0
 2201 02cb 14       		.uleb128 0x14
 2202 02cc 7800     		.ascii	"x\000"
 2203 02ce 0F       		.byte	0xf
 2204 02cf 28       		.byte	0x28
 2205 02d0 2A010000 		.4byte	0x12a
 2206 02d4 00       		.byte	0
 2207 02d5 14       		.uleb128 0x14
 2208 02d6 7900     		.ascii	"y\000"
 2209 02d8 0F       		.byte	0xf
 2210 02d9 29       		.byte	0x29
 2211 02da 2A010000 		.4byte	0x12a
 2212 02de 02       		.byte	0x2
 2213 02df 00       		.byte	0
 2214 02e0 03       		.uleb128 0x3
 2215 02e1 D5090000 		.4byte	.LASF52
 2216 02e5 0F       		.byte	0xf
 2217 02e6 2A       		.byte	0x2a
 2218 02e7 C3020000 		.4byte	0x2c3
 2219 02eb 0A       		.uleb128 0xa
 2220 02ec 08       		.byte	0x8
 2221 02ed 0F       		.byte	0xf
 2222 02ee 2D       		.byte	0x2d
 2223 02ef 20030000 		.4byte	0x320
 2224 02f3 14       		.uleb128 0x14
 2225 02f4 783100   		.ascii	"x1\000"
 2226 02f7 0F       		.byte	0xf
 2227 02f8 2E       		.byte	0x2e
 2228 02f9 2A010000 		.4byte	0x12a
 2229 02fd 00       		.byte	0
 2230 02fe 14       		.uleb128 0x14
 2231 02ff 793100   		.ascii	"y1\000"
 2232 0302 0F       		.byte	0xf
 2233 0303 2F       		.byte	0x2f
 2234 0304 2A010000 		.4byte	0x12a
 2235 0308 02       		.byte	0x2
 2236 0309 14       		.uleb128 0x14
 2237 030a 783200   		.ascii	"x2\000"
 2238 030d 0F       		.byte	0xf
 2239 030e 30       		.byte	0x30
 2240 030f 2A010000 		.4byte	0x12a
 2241 0313 04       		.byte	0x4
 2242 0314 14       		.uleb128 0x14
ARM GAS  C:\Users\strap\AppData\Local\Temp\cci64Z2T.s 			page 67


 2243 0315 793200   		.ascii	"y2\000"
 2244 0318 0F       		.byte	0xf
 2245 0319 31       		.byte	0x31
 2246 031a 2A010000 		.4byte	0x12a
 2247 031e 06       		.byte	0x6
 2248 031f 00       		.byte	0
 2249 0320 03       		.uleb128 0x3
 2250 0321 39150000 		.4byte	.LASF53
 2251 0325 0F       		.byte	0xf
 2252 0326 32       		.byte	0x32
 2253 0327 EB020000 		.4byte	0x2eb
 2254 032b 15       		.uleb128 0x15
 2255 032c 01       		.byte	0x1
 2256 032d 37000000 		.4byte	0x37
 2257 0331 0F       		.byte	0xf
 2258 0332 37       		.byte	0x37
 2259 0333 B6030000 		.4byte	0x3b6
 2260 0337 16       		.uleb128 0x16
 2261 0338 26160000 		.4byte	.LASF54
 2262 033c 00       		.byte	0
 2263 033d 16       		.uleb128 0x16
 2264 033e D7190000 		.4byte	.LASF55
 2265 0342 01       		.byte	0x1
 2266 0343 16       		.uleb128 0x16
 2267 0344 5F100000 		.4byte	.LASF56
 2268 0348 02       		.byte	0x2
 2269 0349 16       		.uleb128 0x16
 2270 034a D9060000 		.4byte	.LASF57
 2271 034e 03       		.byte	0x3
 2272 034f 16       		.uleb128 0x16
 2273 0350 FF010000 		.4byte	.LASF58
 2274 0354 04       		.byte	0x4
 2275 0355 16       		.uleb128 0x16
 2276 0356 B5240000 		.4byte	.LASF59
 2277 035a 05       		.byte	0x5
 2278 035b 16       		.uleb128 0x16
 2279 035c 0C000000 		.4byte	.LASF60
 2280 0360 06       		.byte	0x6
 2281 0361 16       		.uleb128 0x16
 2282 0362 21090000 		.4byte	.LASF61
 2283 0366 07       		.byte	0x7
 2284 0367 16       		.uleb128 0x16
 2285 0368 510D0000 		.4byte	.LASF62
 2286 036c 08       		.byte	0x8
 2287 036d 16       		.uleb128 0x16
 2288 036e A1120000 		.4byte	.LASF63
 2289 0372 09       		.byte	0x9
 2290 0373 16       		.uleb128 0x16
 2291 0374 85000000 		.4byte	.LASF64
 2292 0378 0A       		.byte	0xa
 2293 0379 16       		.uleb128 0x16
 2294 037a 0A070000 		.4byte	.LASF65
 2295 037e 0B       		.byte	0xb
 2296 037f 16       		.uleb128 0x16
 2297 0380 CC240000 		.4byte	.LASF66
 2298 0384 0C       		.byte	0xc
 2299 0385 16       		.uleb128 0x16
ARM GAS  C:\Users\strap\AppData\Local\Temp\cci64Z2T.s 			page 68


 2300 0386 78080000 		.4byte	.LASF67
 2301 038a 0D       		.byte	0xd
 2302 038b 16       		.uleb128 0x16
 2303 038c 70030000 		.4byte	.LASF68
 2304 0390 0E       		.byte	0xe
 2305 0391 16       		.uleb128 0x16
 2306 0392 70110000 		.4byte	.LASF69
 2307 0396 0F       		.byte	0xf
 2308 0397 16       		.uleb128 0x16
 2309 0398 171B0000 		.4byte	.LASF70
 2310 039c 10       		.byte	0x10
 2311 039d 16       		.uleb128 0x16
 2312 039e 7F0E0000 		.4byte	.LASF71
 2313 03a2 11       		.byte	0x11
 2314 03a3 16       		.uleb128 0x16
 2315 03a4 00050000 		.4byte	.LASF72
 2316 03a8 12       		.byte	0x12
 2317 03a9 16       		.uleb128 0x16
 2318 03aa 840D0000 		.4byte	.LASF73
 2319 03ae 13       		.byte	0x13
 2320 03af 16       		.uleb128 0x16
 2321 03b0 0D1D0000 		.4byte	.LASF74
 2322 03b4 14       		.byte	0x14
 2323 03b5 00       		.byte	0
 2324 03b6 03       		.uleb128 0x3
 2325 03b7 BC0A0000 		.4byte	.LASF75
 2326 03bb 0F       		.byte	0xf
 2327 03bc 4E       		.byte	0x4e
 2328 03bd A2000000 		.4byte	0xa2
 2329 03c1 0A       		.uleb128 0xa
 2330 03c2 24       		.byte	0x24
 2331 03c3 10       		.byte	0x10
 2332 03c4 2F       		.byte	0x2f
 2333 03c5 3C040000 		.4byte	0x43c
 2334 03c9 0B       		.uleb128 0xb
 2335 03ca 71130000 		.4byte	.LASF76
 2336 03ce 10       		.byte	0x10
 2337 03cf 30       		.byte	0x30
 2338 03d0 13010000 		.4byte	0x113
 2339 03d4 00       		.byte	0
 2340 03d5 0B       		.uleb128 0xb
 2341 03d6 76130000 		.4byte	.LASF77
 2342 03da 10       		.byte	0x10
 2343 03db 31       		.byte	0x31
 2344 03dc 13010000 		.4byte	0x113
 2345 03e0 04       		.byte	0x4
 2346 03e1 0B       		.uleb128 0xb
 2347 03e2 AE210000 		.4byte	.LASF78
 2348 03e6 10       		.byte	0x10
 2349 03e7 34       		.byte	0x34
 2350 03e8 13010000 		.4byte	0x113
 2351 03ec 08       		.byte	0x8
 2352 03ed 0B       		.uleb128 0xb
 2353 03ee 4C0D0000 		.4byte	.LASF79
 2354 03f2 10       		.byte	0x10
 2355 03f3 35       		.byte	0x35
 2356 03f4 CE000000 		.4byte	0xce
ARM GAS  C:\Users\strap\AppData\Local\Temp\cci64Z2T.s 			page 69


 2357 03f8 0C       		.byte	0xc
 2358 03f9 0B       		.uleb128 0xb
 2359 03fa 081D0000 		.4byte	.LASF80
 2360 03fe 10       		.byte	0x10
 2361 03ff 36       		.byte	0x36
 2362 0400 20030000 		.4byte	0x320
 2363 0404 10       		.byte	0x10
 2364 0405 0B       		.uleb128 0xb
 2365 0406 EC190000 		.4byte	.LASF81
 2366 040a 10       		.byte	0x10
 2367 040b 38       		.byte	0x38
 2368 040c 3C040000 		.4byte	0x43c
 2369 0410 18       		.byte	0x18
 2370 0411 0B       		.uleb128 0xb
 2371 0412 EE090000 		.4byte	.LASF82
 2372 0416 10       		.byte	0x10
 2373 0417 3A       		.byte	0x3a
 2374 0418 3C040000 		.4byte	0x43c
 2375 041c 1C       		.byte	0x1c
 2376 041d 0F       		.uleb128 0xf
 2377 041e BF040000 		.4byte	.LASF83
 2378 0422 10       		.byte	0x10
 2379 0423 3B       		.byte	0x3b
 2380 0424 20010000 		.4byte	0x120
 2381 0428 04       		.byte	0x4
 2382 0429 01       		.byte	0x1
 2383 042a 1F       		.byte	0x1f
 2384 042b 20       		.byte	0x20
 2385 042c 0F       		.uleb128 0xf
 2386 042d 17250000 		.4byte	.LASF84
 2387 0431 10       		.byte	0x10
 2388 0432 3C       		.byte	0x3c
 2389 0433 20010000 		.4byte	0x120
 2390 0437 04       		.byte	0x4
 2391 0438 01       		.byte	0x1
 2392 0439 1E       		.byte	0x1e
 2393 043a 20       		.byte	0x20
 2394 043b 00       		.byte	0
 2395 043c 09       		.uleb128 0x9
 2396 043d 94000000 		.4byte	0x94
 2397 0441 03       		.uleb128 0x3
 2398 0442 18240000 		.4byte	.LASF85
 2399 0446 10       		.byte	0x10
 2400 0447 3D       		.byte	0x3d
 2401 0448 C1030000 		.4byte	0x3c1
 2402 044c 0E       		.uleb128 0xe
 2403 044d 14160000 		.4byte	.LASF87
 2404 0451 30       		.byte	0x30
 2405 0452 10       		.byte	0x10
 2406 0453 42       		.byte	0x42
 2407 0454 16050000 		.4byte	0x516
 2408 0458 0B       		.uleb128 0xb
 2409 0459 6E1E0000 		.4byte	.LASF88
 2410 045d 10       		.byte	0x10
 2411 045e 44       		.byte	0x44
 2412 045f 2A010000 		.4byte	0x12a
 2413 0463 00       		.byte	0
ARM GAS  C:\Users\strap\AppData\Local\Temp\cci64Z2T.s 			page 70


 2414 0464 0B       		.uleb128 0xb
 2415 0465 A7000000 		.4byte	.LASF89
 2416 0469 10       		.byte	0x10
 2417 046a 45       		.byte	0x45
 2418 046b 2A010000 		.4byte	0x12a
 2419 046f 02       		.byte	0x2
 2420 0470 0B       		.uleb128 0xb
 2421 0471 4F1C0000 		.4byte	.LASF90
 2422 0475 10       		.byte	0x10
 2423 0476 49       		.byte	0x49
 2424 0477 16050000 		.4byte	0x516
 2425 047b 04       		.byte	0x4
 2426 047c 0F       		.uleb128 0xf
 2427 047d 860C0000 		.4byte	.LASF91
 2428 0481 10       		.byte	0x10
 2429 0482 4C       		.byte	0x4c
 2430 0483 CE000000 		.4byte	0xce
 2431 0487 04       		.byte	0x4
 2432 0488 01       		.byte	0x1
 2433 0489 1F       		.byte	0x1f
 2434 048a 08       		.byte	0x8
 2435 048b 0F       		.uleb128 0xf
 2436 048c D4040000 		.4byte	.LASF92
 2437 0490 10       		.byte	0x10
 2438 0491 4E       		.byte	0x4e
 2439 0492 CE000000 		.4byte	0xce
 2440 0496 04       		.byte	0x4
 2441 0497 01       		.byte	0x1
 2442 0498 1E       		.byte	0x1e
 2443 0499 08       		.byte	0x8
 2444 049a 10       		.uleb128 0x10
 2445 049b 64706900 		.ascii	"dpi\000"
 2446 049f 10       		.byte	0x10
 2447 04a0 59       		.byte	0x59
 2448 04a1 CE000000 		.4byte	0xce
 2449 04a5 04       		.byte	0x4
 2450 04a6 0A       		.byte	0xa
 2451 04a7 14       		.byte	0x14
 2452 04a8 08       		.byte	0x8
 2453 04a9 0B       		.uleb128 0xb
 2454 04aa F1120000 		.4byte	.LASF93
 2455 04ae 10       		.byte	0x10
 2456 04af 5D       		.byte	0x5d
 2457 04b0 48050000 		.4byte	0x548
 2458 04b4 0C       		.byte	0xc
 2459 04b5 0B       		.uleb128 0xb
 2460 04b6 00200000 		.4byte	.LASF94
 2461 04ba 10       		.byte	0x10
 2462 04bb 61       		.byte	0x61
 2463 04bc 64050000 		.4byte	0x564
 2464 04c0 10       		.byte	0x10
 2465 04c1 0B       		.uleb128 0xb
 2466 04c2 6F1A0000 		.4byte	.LASF95
 2467 04c6 10       		.byte	0x10
 2468 04c7 66       		.byte	0x66
 2469 04c8 99050000 		.4byte	0x599
 2470 04cc 14       		.byte	0x14
ARM GAS  C:\Users\strap\AppData\Local\Temp\cci64Z2T.s 			page 71


 2471 04cd 0B       		.uleb128 0xb
 2472 04ce 790D0000 		.4byte	.LASF96
 2473 04d2 10       		.byte	0x10
 2474 04d3 6B       		.byte	0x6b
 2475 04d4 B4050000 		.4byte	0x5b4
 2476 04d8 18       		.byte	0x18
 2477 04d9 0B       		.uleb128 0xb
 2478 04da BC0B0000 		.4byte	.LASF97
 2479 04de 10       		.byte	0x10
 2480 04df 70       		.byte	0x70
 2481 04e0 C5050000 		.4byte	0x5c5
 2482 04e4 1C       		.byte	0x1c
 2483 04e5 0B       		.uleb128 0xb
 2484 04e6 72160000 		.4byte	.LASF98
 2485 04ea 10       		.byte	0x10
 2486 04eb 73       		.byte	0x73
 2487 04ec C5050000 		.4byte	0x5c5
 2488 04f0 20       		.byte	0x20
 2489 04f1 0B       		.uleb128 0xb
 2490 04f2 B3040000 		.4byte	.LASF99
 2491 04f6 10       		.byte	0x10
 2492 04f7 76       		.byte	0x76
 2493 04f8 C5050000 		.4byte	0x5c5
 2494 04fc 24       		.byte	0x24
 2495 04fd 0B       		.uleb128 0xb
 2496 04fe 55130000 		.4byte	.LASF100
 2497 0502 10       		.byte	0x10
 2498 0503 85       		.byte	0x85
 2499 0504 AB020000 		.4byte	0x2ab
 2500 0508 28       		.byte	0x28
 2501 0509 0B       		.uleb128 0xb
 2502 050a 3D190000 		.4byte	.LASF41
 2503 050e 10       		.byte	0x10
 2504 050f 88       		.byte	0x88
 2505 0510 40010000 		.4byte	0x140
 2506 0514 2C       		.byte	0x2c
 2507 0515 00       		.byte	0
 2508 0516 07       		.uleb128 0x7
 2509 0517 04       		.byte	0x4
 2510 0518 41040000 		.4byte	0x441
 2511 051c 0C       		.uleb128 0xc
 2512 051d 31050000 		.4byte	0x531
 2513 0521 0D       		.uleb128 0xd
 2514 0522 31050000 		.4byte	0x531
 2515 0526 0D       		.uleb128 0xd
 2516 0527 37050000 		.4byte	0x537
 2517 052b 0D       		.uleb128 0xd
 2518 052c 42050000 		.4byte	0x542
 2519 0530 00       		.byte	0
 2520 0531 07       		.uleb128 0x7
 2521 0532 04       		.byte	0x4
 2522 0533 4C040000 		.4byte	0x44c
 2523 0537 07       		.uleb128 0x7
 2524 0538 04       		.byte	0x4
 2525 0539 3D050000 		.4byte	0x53d
 2526 053d 08       		.uleb128 0x8
 2527 053e 20030000 		.4byte	0x320
ARM GAS  C:\Users\strap\AppData\Local\Temp\cci64Z2T.s 			page 72


 2528 0542 07       		.uleb128 0x7
 2529 0543 04       		.byte	0x4
 2530 0544 AB020000 		.4byte	0x2ab
 2531 0548 07       		.uleb128 0x7
 2532 0549 04       		.byte	0x4
 2533 054a 1C050000 		.4byte	0x51c
 2534 054e 0C       		.uleb128 0xc
 2535 054f 5E050000 		.4byte	0x55e
 2536 0553 0D       		.uleb128 0xd
 2537 0554 31050000 		.4byte	0x531
 2538 0558 0D       		.uleb128 0xd
 2539 0559 5E050000 		.4byte	0x55e
 2540 055d 00       		.byte	0
 2541 055e 07       		.uleb128 0x7
 2542 055f 04       		.byte	0x4
 2543 0560 20030000 		.4byte	0x320
 2544 0564 07       		.uleb128 0x7
 2545 0565 04       		.byte	0x4
 2546 0566 4E050000 		.4byte	0x54e
 2547 056a 0C       		.uleb128 0xc
 2548 056b 93050000 		.4byte	0x593
 2549 056f 0D       		.uleb128 0xd
 2550 0570 31050000 		.4byte	0x531
 2551 0574 0D       		.uleb128 0xd
 2552 0575 93050000 		.4byte	0x593
 2553 0579 0D       		.uleb128 0xd
 2554 057a 2A010000 		.4byte	0x12a
 2555 057e 0D       		.uleb128 0xd
 2556 057f 2A010000 		.4byte	0x12a
 2557 0583 0D       		.uleb128 0xd
 2558 0584 2A010000 		.4byte	0x12a
 2559 0588 0D       		.uleb128 0xd
 2560 0589 AB020000 		.4byte	0x2ab
 2561 058d 0D       		.uleb128 0xd
 2562 058e B7020000 		.4byte	0x2b7
 2563 0592 00       		.byte	0
 2564 0593 07       		.uleb128 0x7
 2565 0594 04       		.byte	0x4
 2566 0595 A2000000 		.4byte	0xa2
 2567 0599 07       		.uleb128 0x7
 2568 059a 04       		.byte	0x4
 2569 059b 6A050000 		.4byte	0x56a
 2570 059f 0C       		.uleb128 0xc
 2571 05a0 B4050000 		.4byte	0x5b4
 2572 05a4 0D       		.uleb128 0xd
 2573 05a5 31050000 		.4byte	0x531
 2574 05a9 0D       		.uleb128 0xd
 2575 05aa CE000000 		.4byte	0xce
 2576 05ae 0D       		.uleb128 0xd
 2577 05af CE000000 		.4byte	0xce
 2578 05b3 00       		.byte	0
 2579 05b4 07       		.uleb128 0x7
 2580 05b5 04       		.byte	0x4
 2581 05b6 9F050000 		.4byte	0x59f
 2582 05ba 0C       		.uleb128 0xc
 2583 05bb C5050000 		.4byte	0x5c5
 2584 05bf 0D       		.uleb128 0xd
ARM GAS  C:\Users\strap\AppData\Local\Temp\cci64Z2T.s 			page 73


 2585 05c0 31050000 		.4byte	0x531
 2586 05c4 00       		.byte	0
 2587 05c5 07       		.uleb128 0x7
 2588 05c6 04       		.byte	0x4
 2589 05c7 BA050000 		.4byte	0x5ba
 2590 05cb 03       		.uleb128 0x3
 2591 05cc 86180000 		.4byte	.LASF101
 2592 05d0 10       		.byte	0x10
 2593 05d1 8B       		.byte	0x8b
 2594 05d2 4C040000 		.4byte	0x44c
 2595 05d6 17       		.uleb128 0x17
 2596 05d7 A31F0000 		.4byte	.LASF102
 2597 05db 8001     		.2byte	0x180
 2598 05dd 10       		.byte	0x10
 2599 05de 93       		.byte	0x93
 2600 05df A1060000 		.4byte	0x6a1
 2601 05e3 0B       		.uleb128 0xb
 2602 05e4 271D0000 		.4byte	.LASF103
 2603 05e8 10       		.byte	0x10
 2604 05e9 95       		.byte	0x95
 2605 05ea CB050000 		.4byte	0x5cb
 2606 05ee 00       		.byte	0
 2607 05ef 0B       		.uleb128 0xb
 2608 05f0 3B1F0000 		.4byte	.LASF104
 2609 05f4 10       		.byte	0x10
 2610 05f5 98       		.byte	0x98
 2611 05f6 A1060000 		.4byte	0x6a1
 2612 05fa 30       		.byte	0x30
 2613 05fb 0B       		.uleb128 0xb
 2614 05fc 36090000 		.4byte	.LASF105
 2615 0600 10       		.byte	0x10
 2616 0601 9B       		.byte	0x9b
 2617 0602 AD010000 		.4byte	0x1ad
 2618 0606 34       		.byte	0x34
 2619 0607 0B       		.uleb128 0xb
 2620 0608 330F0000 		.4byte	.LASF106
 2621 060c 10       		.byte	0x10
 2622 060d 9C       		.byte	0x9c
 2623 060e 28080000 		.4byte	0x828
 2624 0612 40       		.byte	0x40
 2625 0613 0B       		.uleb128 0xb
 2626 0614 F6110000 		.4byte	.LASF107
 2627 0618 10       		.byte	0x10
 2628 0619 9D       		.byte	0x9d
 2629 061a 28080000 		.4byte	0x828
 2630 061e 44       		.byte	0x44
 2631 061f 0B       		.uleb128 0xb
 2632 0620 531B0000 		.4byte	.LASF108
 2633 0624 10       		.byte	0x10
 2634 0625 9E       		.byte	0x9e
 2635 0626 28080000 		.4byte	0x828
 2636 062a 48       		.byte	0x48
 2637 062b 0B       		.uleb128 0xb
 2638 062c 14270000 		.4byte	.LASF109
 2639 0630 10       		.byte	0x10
 2640 0631 9F       		.byte	0x9f
 2641 0632 28080000 		.4byte	0x828
ARM GAS  C:\Users\strap\AppData\Local\Temp\cci64Z2T.s 			page 74


 2642 0636 4C       		.byte	0x4c
 2643 0637 0F       		.uleb128 0xf
 2644 0638 CC090000 		.4byte	.LASF110
 2645 063c 10       		.byte	0x10
 2646 063d A1       		.byte	0xa1
 2647 063e A2000000 		.4byte	0xa2
 2648 0642 01       		.byte	0x1
 2649 0643 01       		.byte	0x1
 2650 0644 07       		.byte	0x7
 2651 0645 50       		.byte	0x50
 2652 0646 0B       		.uleb128 0xb
 2653 0647 90270000 		.4byte	.LASF111
 2654 064b 10       		.byte	0x10
 2655 064c A4       		.byte	0xa4
 2656 064d AB020000 		.4byte	0x2ab
 2657 0651 52       		.byte	0x52
 2658 0652 0B       		.uleb128 0xb
 2659 0653 5F0E0000 		.4byte	.LASF112
 2660 0657 10       		.byte	0x10
 2661 0658 A5       		.byte	0xa5
 2662 0659 2E080000 		.4byte	0x82e
 2663 065d 54       		.byte	0x54
 2664 065e 0B       		.uleb128 0xb
 2665 065f 05000000 		.4byte	.LASF113
 2666 0663 10       		.byte	0x10
 2667 0664 A6       		.byte	0xa6
 2668 0665 B7020000 		.4byte	0x2b7
 2669 0669 58       		.byte	0x58
 2670 066a 0B       		.uleb128 0xb
 2671 066b 471A0000 		.4byte	.LASF114
 2672 066f 10       		.byte	0x10
 2673 0670 A9       		.byte	0xa9
 2674 0671 35080000 		.4byte	0x835
 2675 0675 5A       		.byte	0x5a
 2676 0676 18       		.uleb128 0x18
 2677 0677 A4250000 		.4byte	.LASF115
 2678 067b 10       		.byte	0x10
 2679 067c AA       		.byte	0xaa
 2680 067d 45080000 		.4byte	0x845
 2681 0681 5A01     		.2byte	0x15a
 2682 0683 19       		.uleb128 0x19
 2683 0684 AB1F0000 		.4byte	.LASF116
 2684 0688 10       		.byte	0x10
 2685 0689 AB       		.byte	0xab
 2686 068a CE000000 		.4byte	0xce
 2687 068e 04       		.byte	0x4
 2688 068f 0A       		.byte	0xa
 2689 0690 06       		.byte	0x6
 2690 0691 7801     		.2byte	0x178
 2691 0693 18       		.uleb128 0x18
 2692 0694 DF010000 		.4byte	.LASF117
 2693 0698 10       		.byte	0x10
 2694 0699 AE       		.byte	0xae
 2695 069a CE000000 		.4byte	0xce
 2696 069e 7C01     		.2byte	0x17c
 2697 06a0 00       		.byte	0
 2698 06a1 07       		.uleb128 0x7
ARM GAS  C:\Users\strap\AppData\Local\Temp\cci64Z2T.s 			page 75


 2699 06a2 04       		.byte	0x4
 2700 06a3 32020000 		.4byte	0x232
 2701 06a7 0E       		.uleb128 0xe
 2702 06a8 021C0000 		.4byte	.LASF118
 2703 06ac 50       		.byte	0x50
 2704 06ad 11       		.byte	0x11
 2705 06ae C5       		.byte	0xc5
 2706 06af 28080000 		.4byte	0x828
 2707 06b3 0B       		.uleb128 0xb
 2708 06b4 A7210000 		.4byte	.LASF119
 2709 06b8 11       		.byte	0x11
 2710 06b9 C6       		.byte	0xc6
 2711 06ba 28080000 		.4byte	0x828
 2712 06be 00       		.byte	0
 2713 06bf 0B       		.uleb128 0xb
 2714 06c0 1D010000 		.4byte	.LASF120
 2715 06c4 11       		.byte	0x11
 2716 06c5 C7       		.byte	0xc7
 2717 06c6 AD010000 		.4byte	0x1ad
 2718 06ca 04       		.byte	0x4
 2719 06cb 0B       		.uleb128 0xb
 2720 06cc A60C0000 		.4byte	.LASF121
 2721 06d0 11       		.byte	0x11
 2722 06d1 C9       		.byte	0xc9
 2723 06d2 20030000 		.4byte	0x320
 2724 06d6 10       		.byte	0x10
 2725 06d7 0B       		.uleb128 0xb
 2726 06d8 E70C0000 		.4byte	.LASF122
 2727 06dc 11       		.byte	0x11
 2728 06dd CB       		.byte	0xcb
 2729 06de 97110000 		.4byte	0x1197
 2730 06e2 18       		.byte	0x18
 2731 06e3 0B       		.uleb128 0xb
 2732 06e4 0D010000 		.4byte	.LASF123
 2733 06e8 11       		.byte	0x11
 2734 06e9 CC       		.byte	0xcc
 2735 06ea C3110000 		.4byte	0x11c3
 2736 06ee 1C       		.byte	0x1c
 2737 06ef 0B       		.uleb128 0xb
 2738 06f0 9A250000 		.4byte	.LASF124
 2739 06f4 11       		.byte	0x11
 2740 06f5 CD       		.byte	0xcd
 2741 06f6 CB100000 		.4byte	0x10cb
 2742 06fa 20       		.byte	0x20
 2743 06fb 0B       		.uleb128 0xb
 2744 06fc B71C0000 		.4byte	.LASF125
 2745 0700 11       		.byte	0x11
 2746 0701 CF       		.byte	0xcf
 2747 0702 13010000 		.4byte	0x113
 2748 0706 24       		.byte	0x24
 2749 0707 0B       		.uleb128 0xb
 2750 0708 C9040000 		.4byte	.LASF126
 2751 070c 11       		.byte	0x11
 2752 070d D0       		.byte	0xd0
 2753 070e 9E100000 		.4byte	0x109e
 2754 0712 28       		.byte	0x28
 2755 0713 0B       		.uleb128 0xb
ARM GAS  C:\Users\strap\AppData\Local\Temp\cci64Z2T.s 			page 76


 2756 0714 EF060000 		.4byte	.LASF127
 2757 0718 11       		.byte	0x11
 2758 0719 D3       		.byte	0xd3
 2759 071a A2000000 		.4byte	0xa2
 2760 071e 30       		.byte	0x30
 2761 071f 0B       		.uleb128 0xb
 2762 0720 E60D0000 		.4byte	.LASF128
 2763 0724 11       		.byte	0x11
 2764 0725 D4       		.byte	0xd4
 2765 0726 A2000000 		.4byte	0xa2
 2766 072a 31       		.byte	0x31
 2767 072b 0B       		.uleb128 0xb
 2768 072c 3B260000 		.4byte	.LASF129
 2769 0730 11       		.byte	0x11
 2770 0731 D9       		.byte	0xd9
 2771 0732 2A010000 		.4byte	0x12a
 2772 0736 32       		.byte	0x32
 2773 0737 0F       		.uleb128 0xf
 2774 0738 F21D0000 		.4byte	.LASF130
 2775 073c 11       		.byte	0x11
 2776 073d DC       		.byte	0xdc
 2777 073e A2000000 		.4byte	0xa2
 2778 0742 01       		.byte	0x1
 2779 0743 01       		.byte	0x1
 2780 0744 07       		.byte	0x7
 2781 0745 34       		.byte	0x34
 2782 0746 0F       		.uleb128 0xf
 2783 0747 3C050000 		.4byte	.LASF131
 2784 074b 11       		.byte	0x11
 2785 074c DD       		.byte	0xdd
 2786 074d A2000000 		.4byte	0xa2
 2787 0751 01       		.byte	0x1
 2788 0752 01       		.byte	0x1
 2789 0753 06       		.byte	0x6
 2790 0754 34       		.byte	0x34
 2791 0755 0F       		.uleb128 0xf
 2792 0756 C3170000 		.4byte	.LASF132
 2793 075a 11       		.byte	0x11
 2794 075b DE       		.byte	0xde
 2795 075c A2000000 		.4byte	0xa2
 2796 0760 01       		.byte	0x1
 2797 0761 01       		.byte	0x1
 2798 0762 05       		.byte	0x5
 2799 0763 34       		.byte	0x34
 2800 0764 0F       		.uleb128 0xf
 2801 0765 DB140000 		.4byte	.LASF133
 2802 0769 11       		.byte	0x11
 2803 076a DF       		.byte	0xdf
 2804 076b A2000000 		.4byte	0xa2
 2805 076f 01       		.byte	0x1
 2806 0770 01       		.byte	0x1
 2807 0771 04       		.byte	0x4
 2808 0772 34       		.byte	0x34
 2809 0773 0F       		.uleb128 0xf
 2810 0774 69170000 		.4byte	.LASF134
 2811 0778 11       		.byte	0x11
 2812 0779 E0       		.byte	0xe0
ARM GAS  C:\Users\strap\AppData\Local\Temp\cci64Z2T.s 			page 77


 2813 077a A2000000 		.4byte	0xa2
 2814 077e 01       		.byte	0x1
 2815 077f 01       		.byte	0x1
 2816 0780 03       		.byte	0x3
 2817 0781 34       		.byte	0x34
 2818 0782 10       		.uleb128 0x10
 2819 0783 746F7000 		.ascii	"top\000"
 2820 0787 11       		.byte	0x11
 2821 0788 E1       		.byte	0xe1
 2822 0789 A2000000 		.4byte	0xa2
 2823 078d 01       		.byte	0x1
 2824 078e 01       		.byte	0x1
 2825 078f 02       		.byte	0x2
 2826 0790 34       		.byte	0x34
 2827 0791 0F       		.uleb128 0xf
 2828 0792 9E1E0000 		.4byte	.LASF135
 2829 0796 11       		.byte	0x11
 2830 0797 E2       		.byte	0xe2
 2831 0798 A2000000 		.4byte	0xa2
 2832 079c 01       		.byte	0x1
 2833 079d 01       		.byte	0x1
 2834 079e 01       		.byte	0x1
 2835 079f 34       		.byte	0x34
 2836 07a0 0F       		.uleb128 0xf
 2837 07a1 840B0000 		.4byte	.LASF136
 2838 07a5 11       		.byte	0x11
 2839 07a6 E3       		.byte	0xe3
 2840 07a7 A2000000 		.4byte	0xa2
 2841 07ab 01       		.byte	0x1
 2842 07ac 01       		.byte	0x1
 2843 07ad 00       		.byte	0
 2844 07ae 34       		.byte	0x34
 2845 07af 0F       		.uleb128 0xf
 2846 07b0 D7050000 		.4byte	.LASF137
 2847 07b4 11       		.byte	0x11
 2848 07b5 E4       		.byte	0xe4
 2849 07b6 A2000000 		.4byte	0xa2
 2850 07ba 01       		.byte	0x1
 2851 07bb 01       		.byte	0x1
 2852 07bc 07       		.byte	0x7
 2853 07bd 35       		.byte	0x35
 2854 07be 0F       		.uleb128 0xf
 2855 07bf 25000000 		.4byte	.LASF138
 2856 07c3 11       		.byte	0x11
 2857 07c4 E5       		.byte	0xe5
 2858 07c5 A2000000 		.4byte	0xa2
 2859 07c9 01       		.byte	0x1
 2860 07ca 01       		.byte	0x1
 2861 07cb 06       		.byte	0x6
 2862 07cc 35       		.byte	0x35
 2863 07cd 0F       		.uleb128 0xf
 2864 07ce C0230000 		.4byte	.LASF139
 2865 07d2 11       		.byte	0x11
 2866 07d3 E7       		.byte	0xe7
 2867 07d4 AF080000 		.4byte	0x8af
 2868 07d8 01       		.byte	0x1
 2869 07d9 03       		.byte	0x3
ARM GAS  C:\Users\strap\AppData\Local\Temp\cci64Z2T.s 			page 78


 2870 07da 03       		.byte	0x3
 2871 07db 35       		.byte	0x35
 2872 07dc 0F       		.uleb128 0xf
 2873 07dd E5030000 		.4byte	.LASF140
 2874 07e1 11       		.byte	0x11
 2875 07e2 E8       		.byte	0xe8
 2876 07e3 AA100000 		.4byte	0x10aa
 2877 07e7 01       		.byte	0x1
 2878 07e8 02       		.byte	0x2
 2879 07e9 01       		.byte	0x1
 2880 07ea 35       		.byte	0x35
 2881 07eb 0B       		.uleb128 0xb
 2882 07ec 440D0000 		.4byte	.LASF141
 2883 07f0 11       		.byte	0x11
 2884 07f1 EB       		.byte	0xeb
 2885 07f2 13010000 		.4byte	0x113
 2886 07f6 38       		.byte	0x38
 2887 07f7 0B       		.uleb128 0xb
 2888 07f8 CF070000 		.4byte	.LASF142
 2889 07fc 11       		.byte	0x11
 2890 07fd EE       		.byte	0xee
 2891 07fe A2000000 		.4byte	0xa2
 2892 0802 3C       		.byte	0x3c
 2893 0803 0B       		.uleb128 0xb
 2894 0804 20160000 		.4byte	.LASF143
 2895 0808 11       		.byte	0x11
 2896 0809 F0       		.byte	0xf0
 2897 080a 91120000 		.4byte	0x1291
 2898 080e 3D       		.byte	0x3d
 2899 080f 0B       		.uleb128 0xb
 2900 0810 000B0000 		.4byte	.LASF144
 2901 0814 11       		.byte	0x11
 2902 0815 F3       		.byte	0xf3
 2903 0816 4F120000 		.4byte	0x124f
 2904 081a 40       		.byte	0x40
 2905 081b 0B       		.uleb128 0xb
 2906 081c 3D190000 		.4byte	.LASF41
 2907 0820 11       		.byte	0x11
 2908 0821 F7       		.byte	0xf7
 2909 0822 58010000 		.4byte	0x158
 2910 0826 4C       		.byte	0x4c
 2911 0827 00       		.byte	0
 2912 0828 07       		.uleb128 0x7
 2913 0829 04       		.byte	0x4
 2914 082a A7060000 		.4byte	0x6a7
 2915 082e 07       		.uleb128 0x7
 2916 082f 04       		.byte	0x4
 2917 0830 34080000 		.4byte	0x834
 2918 0834 1A       		.uleb128 0x1a
 2919 0835 1B       		.uleb128 0x1b
 2920 0836 20030000 		.4byte	0x320
 2921 083a 45080000 		.4byte	0x845
 2922 083e 1C       		.uleb128 0x1c
 2923 083f 0C010000 		.4byte	0x10c
 2924 0843 1F       		.byte	0x1f
 2925 0844 00       		.byte	0
 2926 0845 1B       		.uleb128 0x1b
ARM GAS  C:\Users\strap\AppData\Local\Temp\cci64Z2T.s 			page 79


 2927 0846 A2000000 		.4byte	0xa2
 2928 084a 55080000 		.4byte	0x855
 2929 084e 1C       		.uleb128 0x1c
 2930 084f 0C010000 		.4byte	0x10c
 2931 0853 1F       		.byte	0x1f
 2932 0854 00       		.byte	0
 2933 0855 15       		.uleb128 0x15
 2934 0856 01       		.byte	0x1
 2935 0857 37000000 		.4byte	0x37
 2936 085b 12       		.byte	0x12
 2937 085c 27       		.byte	0x27
 2938 085d 80080000 		.4byte	0x880
 2939 0861 16       		.uleb128 0x16
 2940 0862 C8080000 		.4byte	.LASF145
 2941 0866 00       		.byte	0
 2942 0867 16       		.uleb128 0x16
 2943 0868 470A0000 		.4byte	.LASF146
 2944 086c 01       		.byte	0x1
 2945 086d 16       		.uleb128 0x16
 2946 086e B51E0000 		.4byte	.LASF147
 2947 0872 02       		.byte	0x2
 2948 0873 16       		.uleb128 0x16
 2949 0874 1C200000 		.4byte	.LASF148
 2950 0878 03       		.byte	0x3
 2951 0879 16       		.uleb128 0x16
 2952 087a 23150000 		.4byte	.LASF149
 2953 087e 04       		.byte	0x4
 2954 087f 00       		.byte	0
 2955 0880 03       		.uleb128 0x3
 2956 0881 FB130000 		.4byte	.LASF150
 2957 0885 12       		.byte	0x12
 2958 0886 2F       		.byte	0x2f
 2959 0887 A2000000 		.4byte	0xa2
 2960 088b 15       		.uleb128 0x15
 2961 088c 01       		.byte	0x1
 2962 088d 37000000 		.4byte	0x37
 2963 0891 12       		.byte	0x12
 2964 0892 32       		.byte	0x32
 2965 0893 A4080000 		.4byte	0x8a4
 2966 0897 16       		.uleb128 0x16
 2967 0898 22080000 		.4byte	.LASF151
 2968 089c 00       		.byte	0
 2969 089d 16       		.uleb128 0x16
 2970 089e 94070000 		.4byte	.LASF152
 2971 08a2 01       		.byte	0x1
 2972 08a3 00       		.byte	0
 2973 08a4 03       		.uleb128 0x3
 2974 08a5 63070000 		.4byte	.LASF153
 2975 08a9 12       		.byte	0x12
 2976 08aa 33       		.byte	0x33
 2977 08ab A2000000 		.4byte	0xa2
 2978 08af 03       		.uleb128 0x3
 2979 08b0 E30B0000 		.4byte	.LASF154
 2980 08b4 12       		.byte	0x12
 2981 08b5 3D       		.byte	0x3d
 2982 08b6 A2000000 		.4byte	0xa2
 2983 08ba 03       		.uleb128 0x3
ARM GAS  C:\Users\strap\AppData\Local\Temp\cci64Z2T.s 			page 80


 2984 08bb 9C060000 		.4byte	.LASF155
 2985 08bf 12       		.byte	0x12
 2986 08c0 45       		.byte	0x45
 2987 08c1 A2000000 		.4byte	0xa2
 2988 08c5 0A       		.uleb128 0xa
 2989 08c6 10       		.byte	0x10
 2990 08c7 12       		.byte	0x12
 2991 08c8 48       		.byte	0x48
 2992 08c9 0A090000 		.4byte	0x90a
 2993 08cd 0B       		.uleb128 0xb
 2994 08ce DD110000 		.4byte	.LASF156
 2995 08d2 12       		.byte	0x12
 2996 08d3 49       		.byte	0x49
 2997 08d4 E0020000 		.4byte	0x2e0
 2998 08d8 00       		.byte	0
 2999 08d9 14       		.uleb128 0x14
 3000 08da 6B657900 		.ascii	"key\000"
 3001 08de 12       		.byte	0x12
 3002 08df 4A       		.byte	0x4a
 3003 08e0 CE000000 		.4byte	0xce
 3004 08e4 04       		.byte	0x4
 3005 08e5 0B       		.uleb128 0xb
 3006 08e6 96190000 		.4byte	.LASF157
 3007 08ea 12       		.byte	0x12
 3008 08eb 4B       		.byte	0x4b
 3009 08ec CE000000 		.4byte	0xce
 3010 08f0 08       		.byte	0x8
 3011 08f1 0B       		.uleb128 0xb
 3012 08f2 240E0000 		.4byte	.LASF158
 3013 08f6 12       		.byte	0x12
 3014 08f7 4C       		.byte	0x4c
 3015 08f8 AD000000 		.4byte	0xad
 3016 08fc 0C       		.byte	0xc
 3017 08fd 0B       		.uleb128 0xb
 3018 08fe 20160000 		.4byte	.LASF143
 3019 0902 12       		.byte	0x12
 3020 0903 4E       		.byte	0x4e
 3021 0904 A4080000 		.4byte	0x8a4
 3022 0908 0E       		.byte	0xe
 3023 0909 00       		.byte	0
 3024 090a 03       		.uleb128 0x3
 3025 090b DF170000 		.4byte	.LASF159
 3026 090f 12       		.byte	0x12
 3027 0910 4F       		.byte	0x4f
 3028 0911 C5080000 		.4byte	0x8c5
 3029 0915 0E       		.uleb128 0xe
 3030 0916 9D190000 		.4byte	.LASF160
 3031 091a 20       		.byte	0x20
 3032 091b 12       		.byte	0x12
 3033 091c 53       		.byte	0x53
 3034 091d B2090000 		.4byte	0x9b2
 3035 0921 0B       		.uleb128 0xb
 3036 0922 CA070000 		.4byte	.LASF161
 3037 0926 12       		.byte	0x12
 3038 0927 56       		.byte	0x56
 3039 0928 80080000 		.4byte	0x880
 3040 092c 00       		.byte	0
ARM GAS  C:\Users\strap\AppData\Local\Temp\cci64Z2T.s 			page 81


 3041 092d 0B       		.uleb128 0xb
 3042 092e 980E0000 		.4byte	.LASF162
 3043 0932 12       		.byte	0x12
 3044 0933 5B       		.byte	0x5b
 3045 0934 D9090000 		.4byte	0x9d9
 3046 0938 04       		.byte	0x4
 3047 0939 0B       		.uleb128 0xb
 3048 093a CA020000 		.4byte	.LASF163
 3049 093e 12       		.byte	0x12
 3050 093f 5F       		.byte	0x5f
 3051 0940 EF090000 		.4byte	0x9ef
 3052 0944 08       		.byte	0x8
 3053 0945 0B       		.uleb128 0xb
 3054 0946 3D190000 		.4byte	.LASF41
 3055 094a 12       		.byte	0x12
 3056 094b 62       		.byte	0x62
 3057 094c 4C010000 		.4byte	0x14c
 3058 0950 0C       		.byte	0xc
 3059 0951 0B       		.uleb128 0xb
 3060 0952 F8140000 		.4byte	.LASF164
 3061 0956 12       		.byte	0x12
 3062 0957 66       		.byte	0x66
 3063 0958 F5090000 		.4byte	0x9f5
 3064 095c 10       		.byte	0x10
 3065 095d 0B       		.uleb128 0xb
 3066 095e 68180000 		.4byte	.LASF165
 3067 0962 12       		.byte	0x12
 3068 0963 69       		.byte	0x69
 3069 0964 A1060000 		.4byte	0x6a1
 3070 0968 14       		.byte	0x14
 3071 0969 0B       		.uleb128 0xb
 3072 096a 99270000 		.4byte	.LASF166
 3073 096e 12       		.byte	0x12
 3074 096f 6C       		.byte	0x6c
 3075 0970 A2000000 		.4byte	0xa2
 3076 0974 18       		.byte	0x18
 3077 0975 0B       		.uleb128 0xb
 3078 0976 C3170000 		.4byte	.LASF132
 3079 097a 12       		.byte	0x12
 3080 097b 6F       		.byte	0x6f
 3081 097c A2000000 		.4byte	0xa2
 3082 0980 19       		.byte	0x19
 3083 0981 0B       		.uleb128 0xb
 3084 0982 B3080000 		.4byte	.LASF167
 3085 0986 12       		.byte	0x12
 3086 0987 72       		.byte	0x72
 3087 0988 A2000000 		.4byte	0xa2
 3088 098c 1A       		.byte	0x1a
 3089 098d 0B       		.uleb128 0xb
 3090 098e 54140000 		.4byte	.LASF168
 3091 0992 12       		.byte	0x12
 3092 0993 75       		.byte	0x75
 3093 0994 A2000000 		.4byte	0xa2
 3094 0998 1B       		.byte	0x1b
 3095 0999 0B       		.uleb128 0xb
 3096 099a AF000000 		.4byte	.LASF169
 3097 099e 12       		.byte	0x12
ARM GAS  C:\Users\strap\AppData\Local\Temp\cci64Z2T.s 			page 82


 3098 099f 78       		.byte	0x78
 3099 09a0 B8000000 		.4byte	0xb8
 3100 09a4 1C       		.byte	0x1c
 3101 09a5 0B       		.uleb128 0xb
 3102 09a6 600B0000 		.4byte	.LASF170
 3103 09aa 12       		.byte	0x12
 3104 09ab 7B       		.byte	0x7b
 3105 09ac B8000000 		.4byte	0xb8
 3106 09b0 1E       		.byte	0x1e
 3107 09b1 00       		.byte	0
 3108 09b2 1D       		.uleb128 0x1d
 3109 09b3 C6090000 		.4byte	0x9c6
 3110 09b7 C6090000 		.4byte	0x9c6
 3111 09bb 0D       		.uleb128 0xd
 3112 09bc CD090000 		.4byte	0x9cd
 3113 09c0 0D       		.uleb128 0xd
 3114 09c1 D3090000 		.4byte	0x9d3
 3115 09c5 00       		.byte	0
 3116 09c6 02       		.uleb128 0x2
 3117 09c7 01       		.byte	0x1
 3118 09c8 02       		.byte	0x2
 3119 09c9 17010000 		.4byte	.LASF171
 3120 09cd 07       		.uleb128 0x7
 3121 09ce 04       		.byte	0x4
 3122 09cf 15090000 		.4byte	0x915
 3123 09d3 07       		.uleb128 0x7
 3124 09d4 04       		.byte	0x4
 3125 09d5 0A090000 		.4byte	0x90a
 3126 09d9 07       		.uleb128 0x7
 3127 09da 04       		.byte	0x4
 3128 09db B2090000 		.4byte	0x9b2
 3129 09df 0C       		.uleb128 0xc
 3130 09e0 EF090000 		.4byte	0x9ef
 3131 09e4 0D       		.uleb128 0xd
 3132 09e5 CD090000 		.4byte	0x9cd
 3133 09e9 0D       		.uleb128 0xd
 3134 09ea A2000000 		.4byte	0xa2
 3135 09ee 00       		.byte	0
 3136 09ef 07       		.uleb128 0x7
 3137 09f0 04       		.byte	0x4
 3138 09f1 DF090000 		.4byte	0x9df
 3139 09f5 07       		.uleb128 0x7
 3140 09f6 04       		.byte	0x4
 3141 09f7 D6050000 		.4byte	0x5d6
 3142 09fb 03       		.uleb128 0x3
 3143 09fc F91C0000 		.4byte	.LASF172
 3144 0a00 12       		.byte	0x12
 3145 0a01 7C       		.byte	0x7c
 3146 0a02 15090000 		.4byte	0x915
 3147 0a06 0A       		.uleb128 0xa
 3148 0a07 28       		.byte	0x28
 3149 0a08 12       		.byte	0x12
 3150 0a09 84       		.byte	0x84
 3151 0a0a C30A0000 		.4byte	0xac3
 3152 0a0e 0B       		.uleb128 0xb
 3153 0a0f C2250000 		.4byte	.LASF173
 3154 0a13 12       		.byte	0x12
ARM GAS  C:\Users\strap\AppData\Local\Temp\cci64Z2T.s 			page 83


 3155 0a14 86       		.byte	0x86
 3156 0a15 E0020000 		.4byte	0x2e0
 3157 0a19 00       		.byte	0
 3158 0a1a 0B       		.uleb128 0xb
 3159 0a1b 121C0000 		.4byte	.LASF174
 3160 0a1f 12       		.byte	0x12
 3161 0a20 87       		.byte	0x87
 3162 0a21 E0020000 		.4byte	0x2e0
 3163 0a25 04       		.byte	0x4
 3164 0a26 0B       		.uleb128 0xb
 3165 0a27 A2000000 		.4byte	.LASF175
 3166 0a2b 12       		.byte	0x12
 3167 0a2c 88       		.byte	0x88
 3168 0a2d E0020000 		.4byte	0x2e0
 3169 0a31 08       		.byte	0x8
 3170 0a32 0B       		.uleb128 0xb
 3171 0a33 3B140000 		.4byte	.LASF176
 3172 0a37 12       		.byte	0x12
 3173 0a38 89       		.byte	0x89
 3174 0a39 E0020000 		.4byte	0x2e0
 3175 0a3d 0C       		.byte	0xc
 3176 0a3e 0B       		.uleb128 0xb
 3177 0a3f B4100000 		.4byte	.LASF177
 3178 0a43 12       		.byte	0x12
 3179 0a44 8A       		.byte	0x8a
 3180 0a45 E0020000 		.4byte	0x2e0
 3181 0a49 10       		.byte	0x10
 3182 0a4a 0B       		.uleb128 0xb
 3183 0a4b 5A270000 		.4byte	.LASF178
 3184 0a4f 12       		.byte	0x12
 3185 0a50 8B       		.byte	0x8b
 3186 0a51 28080000 		.4byte	0x828
 3187 0a55 14       		.byte	0x14
 3188 0a56 0B       		.uleb128 0xb
 3189 0a57 2F210000 		.4byte	.LASF179
 3190 0a5b 12       		.byte	0x12
 3191 0a5c 8C       		.byte	0x8c
 3192 0a5d 28080000 		.4byte	0x828
 3193 0a61 18       		.byte	0x18
 3194 0a62 0B       		.uleb128 0xb
 3195 0a63 FD260000 		.4byte	.LASF180
 3196 0a67 12       		.byte	0x12
 3197 0a68 8E       		.byte	0x8e
 3198 0a69 28080000 		.4byte	0x828
 3199 0a6d 1C       		.byte	0x1c
 3200 0a6e 0B       		.uleb128 0xb
 3201 0a6f 9F180000 		.4byte	.LASF181
 3202 0a73 12       		.byte	0x12
 3203 0a74 90       		.byte	0x90
 3204 0a75 BA080000 		.4byte	0x8ba
 3205 0a79 20       		.byte	0x20
 3206 0a7a 0B       		.uleb128 0xb
 3207 0a7b 080B0000 		.4byte	.LASF182
 3208 0a7f 12       		.byte	0x12
 3209 0a80 91       		.byte	0x91
 3210 0a81 E0020000 		.4byte	0x2e0
 3211 0a85 22       		.byte	0x22
ARM GAS  C:\Users\strap\AppData\Local\Temp\cci64Z2T.s 			page 84


 3212 0a86 0F       		.uleb128 0xf
 3213 0a87 85020000 		.4byte	.LASF183
 3214 0a8b 12       		.byte	0x12
 3215 0a8c 93       		.byte	0x93
 3216 0a8d A2000000 		.4byte	0xa2
 3217 0a91 01       		.byte	0x1
 3218 0a92 01       		.byte	0x1
 3219 0a93 07       		.byte	0x7
 3220 0a94 26       		.byte	0x26
 3221 0a95 0F       		.uleb128 0xf
 3222 0a96 6C0D0000 		.4byte	.LASF184
 3223 0a9a 12       		.byte	0x12
 3224 0a9b 94       		.byte	0x94
 3225 0a9c A2000000 		.4byte	0xa2
 3226 0aa0 01       		.byte	0x1
 3227 0aa1 01       		.byte	0x1
 3228 0aa2 06       		.byte	0x6
 3229 0aa3 26       		.byte	0x26
 3230 0aa4 0F       		.uleb128 0xf
 3231 0aa5 C0230000 		.4byte	.LASF139
 3232 0aa9 12       		.byte	0x12
 3233 0aaa 95       		.byte	0x95
 3234 0aab AF080000 		.4byte	0x8af
 3235 0aaf 01       		.byte	0x1
 3236 0ab0 03       		.byte	0x3
 3237 0ab1 03       		.byte	0x3
 3238 0ab2 26       		.byte	0x26
 3239 0ab3 0F       		.uleb128 0xf
 3240 0ab4 C40B0000 		.4byte	.LASF185
 3241 0ab8 12       		.byte	0x12
 3242 0ab9 96       		.byte	0x96
 3243 0aba A2000000 		.4byte	0xa2
 3244 0abe 01       		.byte	0x1
 3245 0abf 01       		.byte	0x1
 3246 0ac0 02       		.byte	0x2
 3247 0ac1 26       		.byte	0x26
 3248 0ac2 00       		.byte	0
 3249 0ac3 0A       		.uleb128 0xa
 3250 0ac4 08       		.byte	0x8
 3251 0ac5 12       		.byte	0x12
 3252 0ac6 98       		.byte	0x98
 3253 0ac7 E40A0000 		.4byte	0xae4
 3254 0acb 0B       		.uleb128 0xb
 3255 0acc C40E0000 		.4byte	.LASF186
 3256 0ad0 12       		.byte	0x12
 3257 0ad1 9A       		.byte	0x9a
 3258 0ad2 A4080000 		.4byte	0x8a4
 3259 0ad6 00       		.byte	0
 3260 0ad7 0B       		.uleb128 0xb
 3261 0ad8 D5120000 		.4byte	.LASF187
 3262 0adc 12       		.byte	0x12
 3263 0add 9B       		.byte	0x9b
 3264 0ade CE000000 		.4byte	0xce
 3265 0ae2 04       		.byte	0x4
 3266 0ae3 00       		.byte	0
 3267 0ae4 11       		.uleb128 0x11
 3268 0ae5 28       		.byte	0x28
ARM GAS  C:\Users\strap\AppData\Local\Temp\cci64Z2T.s 			page 85


 3269 0ae6 12       		.byte	0x12
 3270 0ae7 83       		.byte	0x83
 3271 0ae8 030B0000 		.4byte	0xb03
 3272 0aec 13       		.uleb128 0x13
 3273 0aed 0C180000 		.4byte	.LASF188
 3274 0af1 12       		.byte	0x12
 3275 0af2 97       		.byte	0x97
 3276 0af3 060A0000 		.4byte	0xa06
 3277 0af7 13       		.uleb128 0x13
 3278 0af8 F9250000 		.4byte	.LASF189
 3279 0afc 12       		.byte	0x12
 3280 0afd 9C       		.byte	0x9c
 3281 0afe C30A0000 		.4byte	0xac3
 3282 0b02 00       		.byte	0
 3283 0b03 0E       		.uleb128 0xe
 3284 0b04 BB090000 		.4byte	.LASF190
 3285 0b08 38       		.byte	0x38
 3286 0b09 12       		.byte	0x12
 3287 0b0a 81       		.byte	0x81
 3288 0b0b 7C0B0000 		.4byte	0xb7c
 3289 0b0f 0B       		.uleb128 0xb
 3290 0b10 20160000 		.4byte	.LASF143
 3291 0b14 12       		.byte	0x12
 3292 0b15 82       		.byte	0x82
 3293 0b16 A4080000 		.4byte	0x8a4
 3294 0b1a 00       		.byte	0
 3295 0b1b 0B       		.uleb128 0xb
 3296 0b1c 0D130000 		.4byte	.LASF191
 3297 0b20 12       		.byte	0x12
 3298 0b21 9D       		.byte	0x9d
 3299 0b22 E40A0000 		.4byte	0xae4
 3300 0b26 04       		.byte	0x4
 3301 0b27 0B       		.uleb128 0xb
 3302 0b28 841C0000 		.4byte	.LASF192
 3303 0b2c 12       		.byte	0x12
 3304 0b2d 9F       		.byte	0x9f
 3305 0b2e CE000000 		.4byte	0xce
 3306 0b32 2C       		.byte	0x2c
 3307 0b33 0B       		.uleb128 0xb
 3308 0b34 11210000 		.4byte	.LASF193
 3309 0b38 12       		.byte	0x12
 3310 0b39 A0       		.byte	0xa0
 3311 0b3a CE000000 		.4byte	0xce
 3312 0b3e 30       		.byte	0x30
 3313 0b3f 0F       		.uleb128 0xf
 3314 0b40 401D0000 		.4byte	.LASF194
 3315 0b44 12       		.byte	0x12
 3316 0b45 A3       		.byte	0xa3
 3317 0b46 A2000000 		.4byte	0xa2
 3318 0b4a 01       		.byte	0x1
 3319 0b4b 01       		.byte	0x1
 3320 0b4c 07       		.byte	0x7
 3321 0b4d 34       		.byte	0x34
 3322 0b4e 0F       		.uleb128 0xf
 3323 0b4f 8A030000 		.4byte	.LASF195
 3324 0b53 12       		.byte	0x12
 3325 0b54 A4       		.byte	0xa4
ARM GAS  C:\Users\strap\AppData\Local\Temp\cci64Z2T.s 			page 86


 3326 0b55 A2000000 		.4byte	0xa2
 3327 0b59 01       		.byte	0x1
 3328 0b5a 01       		.byte	0x1
 3329 0b5b 06       		.byte	0x6
 3330 0b5c 34       		.byte	0x34
 3331 0b5d 0F       		.uleb128 0xf
 3332 0b5e 01070000 		.4byte	.LASF196
 3333 0b62 12       		.byte	0x12
 3334 0b63 A5       		.byte	0xa5
 3335 0b64 A2000000 		.4byte	0xa2
 3336 0b68 01       		.byte	0x1
 3337 0b69 01       		.byte	0x1
 3338 0b6a 05       		.byte	0x5
 3339 0b6b 34       		.byte	0x34
 3340 0b6c 0F       		.uleb128 0xf
 3341 0b6d E2020000 		.4byte	.LASF197
 3342 0b71 12       		.byte	0x12
 3343 0b72 A6       		.byte	0xa6
 3344 0b73 A2000000 		.4byte	0xa2
 3345 0b77 01       		.byte	0x1
 3346 0b78 01       		.byte	0x1
 3347 0b79 04       		.byte	0x4
 3348 0b7a 34       		.byte	0x34
 3349 0b7b 00       		.byte	0
 3350 0b7c 03       		.uleb128 0x3
 3351 0b7d 900B0000 		.4byte	.LASF198
 3352 0b81 12       		.byte	0x12
 3353 0b82 A7       		.byte	0xa7
 3354 0b83 030B0000 		.4byte	0xb03
 3355 0b87 0E       		.uleb128 0xe
 3356 0b88 BE120000 		.4byte	.LASF199
 3357 0b8c 64       		.byte	0x64
 3358 0b8d 12       		.byte	0x12
 3359 0b8e AE       		.byte	0xae
 3360 0b8f D00B0000 		.4byte	0xbd0
 3361 0b93 0B       		.uleb128 0xb
 3362 0b94 271D0000 		.4byte	.LASF103
 3363 0b98 12       		.byte	0x12
 3364 0b99 AF       		.byte	0xaf
 3365 0b9a FB090000 		.4byte	0x9fb
 3366 0b9e 00       		.byte	0
 3367 0b9f 0B       		.uleb128 0xb
 3368 0ba0 BE050000 		.4byte	.LASF200
 3369 0ba4 12       		.byte	0x12
 3370 0ba5 B0       		.byte	0xb0
 3371 0ba6 7C0B0000 		.4byte	0xb7c
 3372 0baa 20       		.byte	0x20
 3373 0bab 0B       		.uleb128 0xb
 3374 0bac AE240000 		.4byte	.LASF201
 3375 0bb0 12       		.byte	0x12
 3376 0bb1 B1       		.byte	0xb1
 3377 0bb2 28080000 		.4byte	0x828
 3378 0bb6 58       		.byte	0x58
 3379 0bb7 0B       		.uleb128 0xb
 3380 0bb8 F61E0000 		.4byte	.LASF202
 3381 0bbc 12       		.byte	0x12
 3382 0bbd B2       		.byte	0xb2
ARM GAS  C:\Users\strap\AppData\Local\Temp\cci64Z2T.s 			page 87


 3383 0bbe 580C0000 		.4byte	0xc58
 3384 0bc2 5C       		.byte	0x5c
 3385 0bc3 0B       		.uleb128 0xb
 3386 0bc4 74070000 		.4byte	.LASF203
 3387 0bc8 12       		.byte	0x12
 3388 0bc9 B3       		.byte	0xb3
 3389 0bca 5E0C0000 		.4byte	0xc5e
 3390 0bce 60       		.byte	0x60
 3391 0bcf 00       		.byte	0
 3392 0bd0 0E       		.uleb128 0xe
 3393 0bd1 E0000000 		.4byte	.LASF204
 3394 0bd5 1C       		.byte	0x1c
 3395 0bd6 13       		.byte	0x13
 3396 0bd7 36       		.byte	0x36
 3397 0bd8 580C0000 		.4byte	0xc58
 3398 0bdc 0B       		.uleb128 0xb
 3399 0bdd 8A1B0000 		.4byte	.LASF205
 3400 0be1 13       		.byte	0x13
 3401 0be2 37       		.byte	0x37
 3402 0be3 AD010000 		.4byte	0x1ad
 3403 0be7 00       		.byte	0
 3404 0be8 0B       		.uleb128 0xb
 3405 0be9 90080000 		.4byte	.LASF206
 3406 0bed 13       		.byte	0x13
 3407 0bee 38       		.byte	0x38
 3408 0bef E8120000 		.4byte	0x12e8
 3409 0bf3 0C       		.byte	0xc
 3410 0bf4 0B       		.uleb128 0xb
 3411 0bf5 E6050000 		.4byte	.LASF207
 3412 0bf9 13       		.byte	0x13
 3413 0bfa 3A       		.byte	0x3a
 3414 0bfb CC120000 		.4byte	0x12cc
 3415 0bff 10       		.byte	0x10
 3416 0c00 0B       		.uleb128 0xb
 3417 0c01 3D190000 		.4byte	.LASF41
 3418 0c05 13       		.byte	0x13
 3419 0c06 3C       		.byte	0x3c
 3420 0c07 35010000 		.4byte	0x135
 3421 0c0b 14       		.byte	0x14
 3422 0c0c 0F       		.uleb128 0xf
 3423 0c0d 24110000 		.4byte	.LASF208
 3424 0c11 13       		.byte	0x13
 3425 0c12 3F       		.byte	0x3f
 3426 0c13 A2000000 		.4byte	0xa2
 3427 0c17 01       		.byte	0x1
 3428 0c18 01       		.byte	0x1
 3429 0c19 07       		.byte	0x7
 3430 0c1a 18       		.byte	0x18
 3431 0c1b 0F       		.uleb128 0xf
 3432 0c1c 6E150000 		.4byte	.LASF209
 3433 0c20 13       		.byte	0x13
 3434 0c21 40       		.byte	0x40
 3435 0c22 A2000000 		.4byte	0xa2
 3436 0c26 01       		.byte	0x1
 3437 0c27 01       		.byte	0x1
 3438 0c28 06       		.byte	0x6
 3439 0c29 18       		.byte	0x18
ARM GAS  C:\Users\strap\AppData\Local\Temp\cci64Z2T.s 			page 88


 3440 0c2a 0F       		.uleb128 0xf
 3441 0c2b 47180000 		.4byte	.LASF210
 3442 0c2f 13       		.byte	0x13
 3443 0c30 41       		.byte	0x41
 3444 0c31 A2000000 		.4byte	0xa2
 3445 0c35 01       		.byte	0x1
 3446 0c36 01       		.byte	0x1
 3447 0c37 05       		.byte	0x5
 3448 0c38 18       		.byte	0x18
 3449 0c39 0F       		.uleb128 0xf
 3450 0c3a AA160000 		.4byte	.LASF211
 3451 0c3e 13       		.byte	0x13
 3452 0c3f 43       		.byte	0x43
 3453 0c40 A2000000 		.4byte	0xa2
 3454 0c44 01       		.byte	0x1
 3455 0c45 01       		.byte	0x1
 3456 0c46 04       		.byte	0x4
 3457 0c47 18       		.byte	0x18
 3458 0c48 0F       		.uleb128 0xf
 3459 0c49 C01C0000 		.4byte	.LASF212
 3460 0c4d 13       		.byte	0x13
 3461 0c4e 45       		.byte	0x45
 3462 0c4f A2000000 		.4byte	0xa2
 3463 0c53 01       		.byte	0x1
 3464 0c54 01       		.byte	0x1
 3465 0c55 03       		.byte	0x3
 3466 0c56 18       		.byte	0x18
 3467 0c57 00       		.byte	0
 3468 0c58 07       		.uleb128 0x7
 3469 0c59 04       		.byte	0x4
 3470 0c5a D00B0000 		.4byte	0xbd0
 3471 0c5e 07       		.uleb128 0x7
 3472 0c5f 04       		.byte	0x4
 3473 0c60 640C0000 		.4byte	0xc64
 3474 0c64 08       		.uleb128 0x8
 3475 0c65 E0020000 		.4byte	0x2e0
 3476 0c69 03       		.uleb128 0x3
 3477 0c6a 94180000 		.4byte	.LASF213
 3478 0c6e 12       		.byte	0x12
 3479 0c6f B5       		.byte	0xb5
 3480 0c70 870B0000 		.4byte	0xb87
 3481 0c74 07       		.uleb128 0x7
 3482 0c75 04       		.byte	0x4
 3483 0c76 7A0C0000 		.4byte	0xc7a
 3484 0c7a 08       		.uleb128 0x8
 3485 0c7b A2000000 		.4byte	0xa2
 3486 0c7f 15       		.uleb128 0x15
 3487 0c80 02       		.byte	0x2
 3488 0c81 5B000000 		.4byte	0x5b
 3489 0c85 14       		.byte	0x14
 3490 0c86 5E       		.byte	0x5e
 3491 0c87 C80E0000 		.4byte	0xec8
 3492 0c8b 16       		.uleb128 0x16
 3493 0c8c FF030000 		.4byte	.LASF214
 3494 0c90 01       		.byte	0x1
 3495 0c91 16       		.uleb128 0x16
 3496 0c92 C91F0000 		.4byte	.LASF215
ARM GAS  C:\Users\strap\AppData\Local\Temp\cci64Z2T.s 			page 89


 3497 0c96 02       		.byte	0x2
 3498 0c97 16       		.uleb128 0x16
 3499 0c98 49080000 		.4byte	.LASF216
 3500 0c9c 03       		.byte	0x3
 3501 0c9d 16       		.uleb128 0x16
 3502 0c9e 0F040000 		.4byte	.LASF217
 3503 0ca2 04       		.byte	0x4
 3504 0ca3 16       		.uleb128 0x16
 3505 0ca4 2C020000 		.4byte	.LASF218
 3506 0ca8 05       		.byte	0x5
 3507 0ca9 16       		.uleb128 0x16
 3508 0caa 551E0000 		.4byte	.LASF219
 3509 0cae 06       		.byte	0x6
 3510 0caf 16       		.uleb128 0x16
 3511 0cb0 1D1C0000 		.4byte	.LASF220
 3512 0cb4 07       		.byte	0x7
 3513 0cb5 1E       		.uleb128 0x1e
 3514 0cb6 BD260000 		.4byte	.LASF221
 3515 0cba 0C80     		.2byte	0x800c
 3516 0cbc 16       		.uleb128 0x16
 3517 0cbd 351C0000 		.4byte	.LASF222
 3518 0cc1 10       		.byte	0x10
 3519 0cc2 16       		.uleb128 0x16
 3520 0cc3 A6220000 		.4byte	.LASF223
 3521 0cc7 11       		.byte	0x11
 3522 0cc8 16       		.uleb128 0x16
 3523 0cc9 2E1D0000 		.4byte	.LASF224
 3524 0ccd 12       		.byte	0x12
 3525 0cce 16       		.uleb128 0x16
 3526 0ccf DE120000 		.4byte	.LASF225
 3527 0cd3 13       		.byte	0x13
 3528 0cd4 16       		.uleb128 0x16
 3529 0cd5 711C0000 		.4byte	.LASF226
 3530 0cd9 14       		.byte	0x14
 3531 0cda 16       		.uleb128 0x16
 3532 0cdb 911C0000 		.4byte	.LASF227
 3533 0cdf 15       		.byte	0x15
 3534 0ce0 16       		.uleb128 0x16
 3535 0ce1 59030000 		.4byte	.LASF228
 3536 0ce5 16       		.byte	0x16
 3537 0ce6 16       		.uleb128 0x16
 3538 0ce7 791A0000 		.4byte	.LASF229
 3539 0ceb 17       		.byte	0x17
 3540 0cec 16       		.uleb128 0x16
 3541 0ced 47010000 		.4byte	.LASF230
 3542 0cf1 18       		.byte	0x18
 3543 0cf2 16       		.uleb128 0x16
 3544 0cf3 EF050000 		.4byte	.LASF231
 3545 0cf7 20       		.byte	0x20
 3546 0cf8 16       		.uleb128 0x16
 3547 0cf9 9A010000 		.4byte	.LASF232
 3548 0cfd 21       		.byte	0x21
 3549 0cfe 16       		.uleb128 0x16
 3550 0cff 73100000 		.4byte	.LASF233
 3551 0d03 22       		.byte	0x22
 3552 0d04 16       		.uleb128 0x16
 3553 0d05 7F070000 		.4byte	.LASF234
ARM GAS  C:\Users\strap\AppData\Local\Temp\cci64Z2T.s 			page 90


 3554 0d09 23       		.byte	0x23
 3555 0d0a 16       		.uleb128 0x16
 3556 0d0b 9D230000 		.4byte	.LASF235
 3557 0d0f 29       		.byte	0x29
 3558 0d10 16       		.uleb128 0x16
 3559 0d11 BF000000 		.4byte	.LASF236
 3560 0d15 2A       		.byte	0x2a
 3561 0d16 16       		.uleb128 0x16
 3562 0d17 C0130000 		.4byte	.LASF237
 3563 0d1b 2C       		.byte	0x2c
 3564 0d1c 16       		.uleb128 0x16
 3565 0d1d 0D150000 		.4byte	.LASF238
 3566 0d21 30       		.byte	0x30
 3567 0d22 16       		.uleb128 0x16
 3568 0d23 070D0000 		.4byte	.LASF239
 3569 0d27 31       		.byte	0x31
 3570 0d28 16       		.uleb128 0x16
 3571 0d29 451F0000 		.4byte	.LASF240
 3572 0d2d 32       		.byte	0x32
 3573 0d2e 16       		.uleb128 0x16
 3574 0d2f 2F270000 		.4byte	.LASF241
 3575 0d33 33       		.byte	0x33
 3576 0d34 16       		.uleb128 0x16
 3577 0d35 40230000 		.4byte	.LASF242
 3578 0d39 39       		.byte	0x39
 3579 0d3a 16       		.uleb128 0x16
 3580 0d3b 7E140000 		.4byte	.LASF243
 3581 0d3f 3C       		.byte	0x3c
 3582 0d40 16       		.uleb128 0x16
 3583 0d41 86110000 		.4byte	.LASF244
 3584 0d45 40       		.byte	0x40
 3585 0d46 16       		.uleb128 0x16
 3586 0d47 FC200000 		.4byte	.LASF245
 3587 0d4b 41       		.byte	0x41
 3588 0d4c 16       		.uleb128 0x16
 3589 0d4d DB080000 		.4byte	.LASF246
 3590 0d51 42       		.byte	0x42
 3591 0d52 16       		.uleb128 0x16
 3592 0d53 DF1E0000 		.4byte	.LASF247
 3593 0d57 49       		.byte	0x49
 3594 0d58 16       		.uleb128 0x16
 3595 0d59 DD260000 		.4byte	.LASF248
 3596 0d5d 4C       		.byte	0x4c
 3597 0d5e 16       		.uleb128 0x16
 3598 0d5f 44270000 		.4byte	.LASF249
 3599 0d63 50       		.byte	0x50
 3600 0d64 16       		.uleb128 0x16
 3601 0d65 C31A0000 		.4byte	.LASF250
 3602 0d69 51       		.byte	0x51
 3603 0d6a 16       		.uleb128 0x16
 3604 0d6b D91A0000 		.4byte	.LASF251
 3605 0d6f 52       		.byte	0x52
 3606 0d70 16       		.uleb128 0x16
 3607 0d71 A11B0000 		.4byte	.LASF252
 3608 0d75 53       		.byte	0x53
 3609 0d76 16       		.uleb128 0x16
 3610 0d77 8B220000 		.4byte	.LASF253
ARM GAS  C:\Users\strap\AppData\Local\Temp\cci64Z2T.s 			page 91


 3611 0d7b 54       		.byte	0x54
 3612 0d7c 16       		.uleb128 0x16
 3613 0d7d AD0C0000 		.4byte	.LASF254
 3614 0d81 59       		.byte	0x59
 3615 0d82 16       		.uleb128 0x16
 3616 0d83 72180000 		.4byte	.LASF255
 3617 0d87 5C       		.byte	0x5c
 3618 0d88 16       		.uleb128 0x16
 3619 0d89 10230000 		.4byte	.LASF256
 3620 0d8d 60       		.byte	0x60
 3621 0d8e 16       		.uleb128 0x16
 3622 0d8f 861E0000 		.4byte	.LASF257
 3623 0d93 61       		.byte	0x61
 3624 0d94 16       		.uleb128 0x16
 3625 0d95 35060000 		.4byte	.LASF258
 3626 0d99 69       		.byte	0x69
 3627 0d9a 16       		.uleb128 0x16
 3628 0d9b F5190000 		.4byte	.LASF259
 3629 0d9f 6C       		.byte	0x6c
 3630 0da0 16       		.uleb128 0x16
 3631 0da1 850F0000 		.4byte	.LASF260
 3632 0da5 6D       		.byte	0x6d
 3633 0da6 16       		.uleb128 0x16
 3634 0da7 48100000 		.4byte	.LASF261
 3635 0dab 6E       		.byte	0x6e
 3636 0dac 16       		.uleb128 0x16
 3637 0dad A6030000 		.4byte	.LASF262
 3638 0db1 70       		.byte	0x70
 3639 0db2 16       		.uleb128 0x16
 3640 0db3 B6210000 		.4byte	.LASF263
 3641 0db7 71       		.byte	0x71
 3642 0db8 16       		.uleb128 0x16
 3643 0db9 9B0D0000 		.4byte	.LASF264
 3644 0dbd 72       		.byte	0x72
 3645 0dbe 16       		.uleb128 0x16
 3646 0dbf E4180000 		.4byte	.LASF265
 3647 0dc3 73       		.byte	0x73
 3648 0dc4 16       		.uleb128 0x16
 3649 0dc5 F9180000 		.4byte	.LASF266
 3650 0dc9 74       		.byte	0x74
 3651 0dca 16       		.uleb128 0x16
 3652 0dcb CA1E0000 		.4byte	.LASF267
 3653 0dcf 75       		.byte	0x75
 3654 0dd0 16       		.uleb128 0x16
 3655 0dd1 D80A0000 		.4byte	.LASF268
 3656 0dd5 79       		.byte	0x79
 3657 0dd6 16       		.uleb128 0x16
 3658 0dd7 87250000 		.4byte	.LASF269
 3659 0ddb 7C       		.byte	0x7c
 3660 0ddc 16       		.uleb128 0x16
 3661 0ddd C3050000 		.4byte	.LASF270
 3662 0de1 7E       		.byte	0x7e
 3663 0de2 16       		.uleb128 0x16
 3664 0de3 EB0E0000 		.4byte	.LASF271
 3665 0de7 7F       		.byte	0x7f
 3666 0de8 1E       		.uleb128 0x1e
 3667 0de9 B40F0000 		.4byte	.LASF272
ARM GAS  C:\Users\strap\AppData\Local\Temp\cci64Z2T.s 			page 92


 3668 0ded 8080     		.2byte	0x8080
 3669 0def 1E       		.uleb128 0x1e
 3670 0df0 49250000 		.4byte	.LASF273
 3671 0df4 8180     		.2byte	0x8081
 3672 0df6 1E       		.uleb128 0x1e
 3673 0df7 1C0D0000 		.4byte	.LASF274
 3674 0dfb 8280     		.2byte	0x8082
 3675 0dfd 1E       		.uleb128 0x1e
 3676 0dfe C4100000 		.4byte	.LASF275
 3677 0e02 8380     		.2byte	0x8083
 3678 0e04 1E       		.uleb128 0x1e
 3679 0e05 EE1B0000 		.4byte	.LASF276
 3680 0e09 8980     		.2byte	0x8089
 3681 0e0b 1E       		.uleb128 0x1e
 3682 0e0c 96200000 		.4byte	.LASF277
 3683 0e10 8A80     		.2byte	0x808a
 3684 0e12 1E       		.uleb128 0x1e
 3685 0e13 FD230000 		.4byte	.LASF278
 3686 0e17 8B80     		.2byte	0x808b
 3687 0e19 1E       		.uleb128 0x1e
 3688 0e1a 740C0000 		.4byte	.LASF279
 3689 0e1e 8C80     		.2byte	0x808c
 3690 0e20 1E       		.uleb128 0x1e
 3691 0e21 C2030000 		.4byte	.LASF280
 3692 0e25 8E80     		.2byte	0x808e
 3693 0e27 16       		.uleb128 0x16
 3694 0e28 53040000 		.4byte	.LASF281
 3695 0e2c 90       		.byte	0x90
 3696 0e2d 16       		.uleb128 0x16
 3697 0e2e 711B0000 		.4byte	.LASF282
 3698 0e32 91       		.byte	0x91
 3699 0e33 16       		.uleb128 0x16
 3700 0e34 F80D0000 		.4byte	.LASF283
 3701 0e38 92       		.byte	0x92
 3702 0e39 16       		.uleb128 0x16
 3703 0e3a 5C1D0000 		.4byte	.LASF284
 3704 0e3e 93       		.byte	0x93
 3705 0e3f 16       		.uleb128 0x16
 3706 0e40 67040000 		.4byte	.LASF285
 3707 0e44 94       		.byte	0x94
 3708 0e45 16       		.uleb128 0x16
 3709 0e46 A0100000 		.4byte	.LASF286
 3710 0e4a 99       		.byte	0x99
 3711 0e4b 16       		.uleb128 0x16
 3712 0e4c 051B0000 		.4byte	.LASF287
 3713 0e50 9C       		.byte	0x9c
 3714 0e51 1E       		.uleb128 0x1e
 3715 0e52 A6130000 		.4byte	.LASF288
 3716 0e56 A080     		.2byte	0x80a0
 3717 0e58 1E       		.uleb128 0x1e
 3718 0e59 7E0A0000 		.4byte	.LASF289
 3719 0e5d A980     		.2byte	0x80a9
 3720 0e5f 1E       		.uleb128 0x1e
 3721 0e60 ED0A0000 		.4byte	.LASF290
 3722 0e64 AC80     		.2byte	0x80ac
 3723 0e66 1E       		.uleb128 0x1e
 3724 0e67 8B050000 		.4byte	.LASF291
ARM GAS  C:\Users\strap\AppData\Local\Temp\cci64Z2T.s 			page 93


 3725 0e6b AD80     		.2byte	0x80ad
 3726 0e6d 16       		.uleb128 0x16
 3727 0e6e 9A080000 		.4byte	.LASF292
 3728 0e72 B0       		.byte	0xb0
 3729 0e73 16       		.uleb128 0x16
 3730 0e74 39040000 		.4byte	.LASF293
 3731 0e78 B1       		.byte	0xb1
 3732 0e79 16       		.uleb128 0x16
 3733 0e7a C7160000 		.4byte	.LASF294
 3734 0e7e B2       		.byte	0xb2
 3735 0e7f 16       		.uleb128 0x16
 3736 0e80 E2160000 		.4byte	.LASF295
 3737 0e84 B3       		.byte	0xb3
 3738 0e85 16       		.uleb128 0x16
 3739 0e86 FD160000 		.4byte	.LASF296
 3740 0e8a B4       		.byte	0xb4
 3741 0e8b 16       		.uleb128 0x16
 3742 0e8c 18170000 		.4byte	.LASF297
 3743 0e90 B5       		.byte	0xb5
 3744 0e91 16       		.uleb128 0x16
 3745 0e92 33170000 		.4byte	.LASF298
 3746 0e96 B6       		.byte	0xb6
 3747 0e97 16       		.uleb128 0x16
 3748 0e98 4E170000 		.4byte	.LASF299
 3749 0e9c B7       		.byte	0xb7
 3750 0e9d 16       		.uleb128 0x16
 3751 0e9e 6A190000 		.4byte	.LASF300
 3752 0ea2 BE       		.byte	0xbe
 3753 0ea3 16       		.uleb128 0x16
 3754 0ea4 6E230000 		.4byte	.LASF301
 3755 0ea8 C0       		.byte	0xc0
 3756 0ea9 16       		.uleb128 0x16
 3757 0eaa 9D110000 		.4byte	.LASF302
 3758 0eae C1       		.byte	0xc1
 3759 0eaf 16       		.uleb128 0x16
 3760 0eb0 04110000 		.4byte	.LASF303
 3761 0eb4 C2       		.byte	0xc2
 3762 0eb5 16       		.uleb128 0x16
 3763 0eb6 C81D0000 		.4byte	.LASF304
 3764 0eba C3       		.byte	0xc3
 3765 0ebb 16       		.uleb128 0x16
 3766 0ebc 8A260000 		.4byte	.LASF305
 3767 0ec0 C9       		.byte	0xc9
 3768 0ec1 16       		.uleb128 0x16
 3769 0ec2 CE0C0000 		.4byte	.LASF306
 3770 0ec6 CA       		.byte	0xca
 3771 0ec7 00       		.byte	0
 3772 0ec8 0A       		.uleb128 0xa
 3773 0ec9 04       		.byte	0x4
 3774 0eca 14       		.byte	0x14
 3775 0ecb D3       		.byte	0xd3
 3776 0ecc DD0E0000 		.4byte	0xedd
 3777 0ed0 14       		.uleb128 0x14
 3778 0ed1 6D617000 		.ascii	"map\000"
 3779 0ed5 14       		.byte	0x14
 3780 0ed6 D4       		.byte	0xd4
 3781 0ed7 93050000 		.4byte	0x593
ARM GAS  C:\Users\strap\AppData\Local\Temp\cci64Z2T.s 			page 94


 3782 0edb 00       		.byte	0
 3783 0edc 00       		.byte	0
 3784 0edd 03       		.uleb128 0x3
 3785 0ede B81B0000 		.4byte	.LASF307
 3786 0ee2 14       		.byte	0x14
 3787 0ee3 D8       		.byte	0xd8
 3788 0ee4 C80E0000 		.4byte	0xec8
 3789 0ee8 0A       		.uleb128 0xa
 3790 0ee9 08       		.byte	0x8
 3791 0eea 14       		.byte	0x14
 3792 0eeb DC       		.byte	0xdc
 3793 0eec 92100000 		.4byte	0x1092
 3794 0ef0 0B       		.uleb128 0xb
 3795 0ef1 C9040000 		.4byte	.LASF126
 3796 0ef5 14       		.byte	0x14
 3797 0ef6 DD       		.byte	0xdd
 3798 0ef7 92100000 		.4byte	0x1092
 3799 0efb 00       		.byte	0
 3800 0efc 0F       		.uleb128 0xf
 3801 0efd F9150000 		.4byte	.LASF308
 3802 0f01 14       		.byte	0x14
 3803 0f02 E1       		.byte	0xe1
 3804 0f03 CE000000 		.4byte	0xce
 3805 0f07 04       		.byte	0x4
 3806 0f08 06       		.byte	0x6
 3807 0f09 1A       		.byte	0x1a
 3808 0f0a 04       		.byte	0x4
 3809 0f0b 0F       		.uleb128 0xf
 3810 0f0c 2B1A0000 		.4byte	.LASF309
 3811 0f10 14       		.byte	0x14
 3812 0f11 E2       		.byte	0xe2
 3813 0f12 CE000000 		.4byte	0xce
 3814 0f16 04       		.byte	0x4
 3815 0f17 01       		.byte	0x1
 3816 0f18 19       		.byte	0x19
 3817 0f19 04       		.byte	0x4
 3818 0f1a 0F       		.uleb128 0xf
 3819 0f1b AB180000 		.4byte	.LASF310
 3820 0f1f 14       		.byte	0x14
 3821 0f20 E3       		.byte	0xe3
 3822 0f21 CE000000 		.4byte	0xce
 3823 0f25 04       		.byte	0x4
 3824 0f26 01       		.byte	0x1
 3825 0f27 18       		.byte	0x18
 3826 0f28 04       		.byte	0x4
 3827 0f29 0F       		.uleb128 0xf
 3828 0f2a F2260000 		.4byte	.LASF311
 3829 0f2e 14       		.byte	0x14
 3830 0f2f E4       		.byte	0xe4
 3831 0f30 CE000000 		.4byte	0xce
 3832 0f34 04       		.byte	0x4
 3833 0f35 01       		.byte	0x1
 3834 0f36 17       		.byte	0x17
 3835 0f37 04       		.byte	0x4
 3836 0f38 0F       		.uleb128 0xf
 3837 0f39 DC230000 		.4byte	.LASF312
 3838 0f3d 14       		.byte	0x14
ARM GAS  C:\Users\strap\AppData\Local\Temp\cci64Z2T.s 			page 95


 3839 0f3e E5       		.byte	0xe5
 3840 0f3f CE000000 		.4byte	0xce
 3841 0f43 04       		.byte	0x4
 3842 0f44 01       		.byte	0x1
 3843 0f45 16       		.byte	0x16
 3844 0f46 04       		.byte	0x4
 3845 0f47 0F       		.uleb128 0xf
 3846 0f48 38210000 		.4byte	.LASF313
 3847 0f4c 14       		.byte	0x14
 3848 0f4d E6       		.byte	0xe6
 3849 0f4e CE000000 		.4byte	0xce
 3850 0f52 04       		.byte	0x4
 3851 0f53 01       		.byte	0x1
 3852 0f54 15       		.byte	0x15
 3853 0f55 04       		.byte	0x4
 3854 0f56 0F       		.uleb128 0xf
 3855 0f57 D0110000 		.4byte	.LASF314
 3856 0f5b 14       		.byte	0x14
 3857 0f5c E7       		.byte	0xe7
 3858 0f5d CE000000 		.4byte	0xce
 3859 0f61 04       		.byte	0x4
 3860 0f62 01       		.byte	0x1
 3861 0f63 14       		.byte	0x14
 3862 0f64 04       		.byte	0x4
 3863 0f65 0F       		.uleb128 0xf
 3864 0f66 C2060000 		.4byte	.LASF315
 3865 0f6a 14       		.byte	0x14
 3866 0f6b E9       		.byte	0xe9
 3867 0f6c CE000000 		.4byte	0xce
 3868 0f70 04       		.byte	0x4
 3869 0f71 01       		.byte	0x1
 3870 0f72 13       		.byte	0x13
 3871 0f73 04       		.byte	0x4
 3872 0f74 0F       		.uleb128 0xf
 3873 0f75 EC200000 		.4byte	.LASF316
 3874 0f79 14       		.byte	0x14
 3875 0f7a EA       		.byte	0xea
 3876 0f7b CE000000 		.4byte	0xce
 3877 0f7f 04       		.byte	0x4
 3878 0f80 01       		.byte	0x1
 3879 0f81 12       		.byte	0x12
 3880 0f82 04       		.byte	0x4
 3881 0f83 0F       		.uleb128 0xf
 3882 0f84 96030000 		.4byte	.LASF317
 3883 0f88 14       		.byte	0x14
 3884 0f89 EB       		.byte	0xeb
 3885 0f8a CE000000 		.4byte	0xce
 3886 0f8e 04       		.byte	0x4
 3887 0f8f 01       		.byte	0x1
 3888 0f90 11       		.byte	0x11
 3889 0f91 04       		.byte	0x4
 3890 0f92 0F       		.uleb128 0xf
 3891 0f93 C9230000 		.4byte	.LASF318
 3892 0f97 14       		.byte	0x14
 3893 0f98 EC       		.byte	0xec
 3894 0f99 CE000000 		.4byte	0xce
 3895 0f9d 04       		.byte	0x4
ARM GAS  C:\Users\strap\AppData\Local\Temp\cci64Z2T.s 			page 96


 3896 0f9e 01       		.byte	0x1
 3897 0f9f 10       		.byte	0x10
 3898 0fa0 04       		.byte	0x4
 3899 0fa1 0F       		.uleb128 0xf
 3900 0fa2 4B120000 		.4byte	.LASF319
 3901 0fa6 14       		.byte	0x14
 3902 0fa7 ED       		.byte	0xed
 3903 0fa8 CE000000 		.4byte	0xce
 3904 0fac 04       		.byte	0x4
 3905 0fad 01       		.byte	0x1
 3906 0fae 0F       		.byte	0xf
 3907 0faf 04       		.byte	0x4
 3908 0fb0 0F       		.uleb128 0xf
 3909 0fb1 DE1B0000 		.4byte	.LASF320
 3910 0fb5 14       		.byte	0x14
 3911 0fb6 EE       		.byte	0xee
 3912 0fb7 CE000000 		.4byte	0xce
 3913 0fbb 04       		.byte	0x4
 3914 0fbc 01       		.byte	0x1
 3915 0fbd 0E       		.byte	0xe
 3916 0fbe 04       		.byte	0x4
 3917 0fbf 0F       		.uleb128 0xf
 3918 0fc0 54090000 		.4byte	.LASF321
 3919 0fc4 14       		.byte	0x14
 3920 0fc5 EF       		.byte	0xef
 3921 0fc6 CE000000 		.4byte	0xce
 3922 0fca 04       		.byte	0x4
 3923 0fcb 01       		.byte	0x1
 3924 0fcc 0D       		.byte	0xd
 3925 0fcd 04       		.byte	0x4
 3926 0fce 0F       		.uleb128 0xf
 3927 0fcf 2D100000 		.4byte	.LASF322
 3928 0fd3 14       		.byte	0x14
 3929 0fd4 F0       		.byte	0xf0
 3930 0fd5 CE000000 		.4byte	0xce
 3931 0fd9 04       		.byte	0x4
 3932 0fda 01       		.byte	0x1
 3933 0fdb 0C       		.byte	0xc
 3934 0fdc 04       		.byte	0x4
 3935 0fdd 0F       		.uleb128 0xf
 3936 0fde 7E220000 		.4byte	.LASF323
 3937 0fe2 14       		.byte	0x14
 3938 0fe3 F1       		.byte	0xf1
 3939 0fe4 CE000000 		.4byte	0xce
 3940 0fe8 04       		.byte	0x4
 3941 0fe9 01       		.byte	0x1
 3942 0fea 0B       		.byte	0xb
 3943 0feb 04       		.byte	0x4
 3944 0fec 0F       		.uleb128 0xf
 3945 0fed 51210000 		.4byte	.LASF324
 3946 0ff1 14       		.byte	0x14
 3947 0ff2 F3       		.byte	0xf3
 3948 0ff3 CE000000 		.4byte	0xce
 3949 0ff7 04       		.byte	0x4
 3950 0ff8 01       		.byte	0x1
 3951 0ff9 0A       		.byte	0xa
 3952 0ffa 04       		.byte	0x4
ARM GAS  C:\Users\strap\AppData\Local\Temp\cci64Z2T.s 			page 97


 3953 0ffb 0F       		.uleb128 0xf
 3954 0ffc 3A120000 		.4byte	.LASF325
 3955 1000 14       		.byte	0x14
 3956 1001 F4       		.byte	0xf4
 3957 1002 CE000000 		.4byte	0xce
 3958 1006 04       		.byte	0x4
 3959 1007 01       		.byte	0x1
 3960 1008 09       		.byte	0x9
 3961 1009 04       		.byte	0x4
 3962 100a 0F       		.uleb128 0xf
 3963 100b 761E0000 		.4byte	.LASF326
 3964 100f 14       		.byte	0x14
 3965 1010 F5       		.byte	0xf5
 3966 1011 CE000000 		.4byte	0xce
 3967 1015 04       		.byte	0x4
 3968 1016 01       		.byte	0x1
 3969 1017 08       		.byte	0x8
 3970 1018 04       		.byte	0x4
 3971 1019 0F       		.uleb128 0xf
 3972 101a 5F160000 		.4byte	.LASF327
 3973 101e 14       		.byte	0x14
 3974 101f F7       		.byte	0xf7
 3975 1020 CE000000 		.4byte	0xce
 3976 1024 04       		.byte	0x4
 3977 1025 01       		.byte	0x1
 3978 1026 07       		.byte	0x7
 3979 1027 04       		.byte	0x4
 3980 1028 0F       		.uleb128 0xf
 3981 1029 E2130000 		.4byte	.LASF328
 3982 102d 14       		.byte	0x14
 3983 102e F8       		.byte	0xf8
 3984 102f CE000000 		.4byte	0xce
 3985 1033 04       		.byte	0x4
 3986 1034 01       		.byte	0x1
 3987 1035 06       		.byte	0x6
 3988 1036 04       		.byte	0x4
 3989 1037 0F       		.uleb128 0xf
 3990 1038 FF110000 		.4byte	.LASF329
 3991 103c 14       		.byte	0x14
 3992 103d F9       		.byte	0xf9
 3993 103e CE000000 		.4byte	0xce
 3994 1042 04       		.byte	0x4
 3995 1043 01       		.byte	0x1
 3996 1044 05       		.byte	0x5
 3997 1045 04       		.byte	0x4
 3998 1046 0F       		.uleb128 0xf
 3999 1047 AF260000 		.4byte	.LASF330
 4000 104b 14       		.byte	0x14
 4001 104c FA       		.byte	0xfa
 4002 104d CE000000 		.4byte	0xce
 4003 1051 04       		.byte	0x4
 4004 1052 01       		.byte	0x1
 4005 1053 04       		.byte	0x4
 4006 1054 04       		.byte	0x4
 4007 1055 0F       		.uleb128 0xf
 4008 1056 F5020000 		.4byte	.LASF331
 4009 105a 14       		.byte	0x14
ARM GAS  C:\Users\strap\AppData\Local\Temp\cci64Z2T.s 			page 98


 4010 105b FB       		.byte	0xfb
 4011 105c CE000000 		.4byte	0xce
 4012 1060 04       		.byte	0x4
 4013 1061 01       		.byte	0x1
 4014 1062 03       		.byte	0x3
 4015 1063 04       		.byte	0x4
 4016 1064 0F       		.uleb128 0xf
 4017 1065 13130000 		.4byte	.LASF332
 4018 1069 14       		.byte	0x14
 4019 106a FD       		.byte	0xfd
 4020 106b CE000000 		.4byte	0xce
 4021 106f 04       		.byte	0x4
 4022 1070 01       		.byte	0x1
 4023 1071 02       		.byte	0x2
 4024 1072 04       		.byte	0x4
 4025 1073 0F       		.uleb128 0xf
 4026 1074 28250000 		.4byte	.LASF333
 4027 1078 14       		.byte	0x14
 4028 1079 FE       		.byte	0xfe
 4029 107a CE000000 		.4byte	0xce
 4030 107e 04       		.byte	0x4
 4031 107f 01       		.byte	0x1
 4032 1080 01       		.byte	0x1
 4033 1081 04       		.byte	0x4
 4034 1082 0F       		.uleb128 0xf
 4035 1083 2D0E0000 		.4byte	.LASF334
 4036 1087 14       		.byte	0x14
 4037 1088 FF       		.byte	0xff
 4038 1089 CE000000 		.4byte	0xce
 4039 108d 04       		.byte	0x4
 4040 108e 01       		.byte	0x1
 4041 108f 00       		.byte	0
 4042 1090 04       		.byte	0x4
 4043 1091 00       		.byte	0
 4044 1092 07       		.uleb128 0x7
 4045 1093 04       		.byte	0x4
 4046 1094 98100000 		.4byte	0x1098
 4047 1098 07       		.uleb128 0x7
 4048 1099 04       		.byte	0x4
 4049 109a DD0E0000 		.4byte	0xedd
 4050 109e 05       		.uleb128 0x5
 4051 109f C51C0000 		.4byte	.LASF335
 4052 10a3 14       		.byte	0x14
 4053 10a4 0001     		.2byte	0x100
 4054 10a6 E80E0000 		.4byte	0xee8
 4055 10aa 03       		.uleb128 0x3
 4056 10ab 99210000 		.4byte	.LASF336
 4057 10af 15       		.byte	0x15
 4058 10b0 2B       		.byte	0x2b
 4059 10b1 A2000000 		.4byte	0xa2
 4060 10b5 03       		.uleb128 0x3
 4061 10b6 300C0000 		.4byte	.LASF337
 4062 10ba 11       		.byte	0x11
 4063 10bb 42       		.byte	0x42
 4064 10bc A2000000 		.4byte	0xa2
 4065 10c0 03       		.uleb128 0x3
 4066 10c1 62010000 		.4byte	.LASF338
ARM GAS  C:\Users\strap\AppData\Local\Temp\cci64Z2T.s 			page 99


 4067 10c5 11       		.byte	0x11
 4068 10c6 4C       		.byte	0x4c
 4069 10c7 A2000000 		.4byte	0xa2
 4070 10cb 03       		.uleb128 0x3
 4071 10cc D7070000 		.4byte	.LASF339
 4072 10d0 11       		.byte	0x11
 4073 10d1 52       		.byte	0x52
 4074 10d2 D6100000 		.4byte	0x10d6
 4075 10d6 07       		.uleb128 0x7
 4076 10d7 04       		.byte	0x4
 4077 10d8 DC100000 		.4byte	0x10dc
 4078 10dc 1D       		.uleb128 0x1d
 4079 10dd C0100000 		.4byte	0x10c0
 4080 10e1 F5100000 		.4byte	0x10f5
 4081 10e5 0D       		.uleb128 0xd
 4082 10e6 28080000 		.4byte	0x828
 4083 10ea 0D       		.uleb128 0xd
 4084 10eb 37050000 		.4byte	0x537
 4085 10ef 0D       		.uleb128 0xd
 4086 10f0 B5100000 		.4byte	0x10b5
 4087 10f4 00       		.byte	0
 4088 10f5 15       		.uleb128 0x15
 4089 10f6 01       		.byte	0x1
 4090 10f7 37000000 		.4byte	0x37
 4091 10fb 11       		.byte	0x11
 4092 10fc 54       		.byte	0x54
 4093 10fd 8C110000 		.4byte	0x118c
 4094 1101 16       		.uleb128 0x16
 4095 1102 AE1D0000 		.4byte	.LASF340
 4096 1106 00       		.byte	0
 4097 1107 16       		.uleb128 0x16
 4098 1108 58120000 		.4byte	.LASF341
 4099 110c 01       		.byte	0x1
 4100 110d 16       		.uleb128 0x16
 4101 110e 5D1B0000 		.4byte	.LASF342
 4102 1112 02       		.byte	0x2
 4103 1113 16       		.uleb128 0x16
 4104 1114 89100000 		.4byte	.LASF343
 4105 1118 03       		.byte	0x3
 4106 1119 16       		.uleb128 0x16
 4107 111a 25260000 		.4byte	.LASF344
 4108 111e 04       		.byte	0x4
 4109 111f 16       		.uleb128 0x16
 4110 1120 18060000 		.4byte	.LASF345
 4111 1124 05       		.byte	0x5
 4112 1125 16       		.uleb128 0x16
 4113 1126 05260000 		.4byte	.LASF346
 4114 112a 06       		.byte	0x6
 4115 112b 16       		.uleb128 0x16
 4116 112c 450B0000 		.4byte	.LASF347
 4117 1130 07       		.byte	0x7
 4118 1131 16       		.uleb128 0x16
 4119 1132 33180000 		.4byte	.LASF348
 4120 1136 08       		.byte	0x8
 4121 1137 16       		.uleb128 0x16
 4122 1138 B1170000 		.4byte	.LASF349
 4123 113c 09       		.byte	0x9
ARM GAS  C:\Users\strap\AppData\Local\Temp\cci64Z2T.s 			page 100


 4124 113d 16       		.uleb128 0x16
 4125 113e CA180000 		.4byte	.LASF350
 4126 1142 0A       		.byte	0xa
 4127 1143 16       		.uleb128 0x16
 4128 1144 E7140000 		.4byte	.LASF351
 4129 1148 0B       		.byte	0xb
 4130 1149 16       		.uleb128 0x16
 4131 114a D0260000 		.4byte	.LASF352
 4132 114e 0C       		.byte	0xc
 4133 114f 16       		.uleb128 0x16
 4134 1150 03160000 		.4byte	.LASF353
 4135 1154 0D       		.byte	0xd
 4136 1155 16       		.uleb128 0x16
 4137 1156 87010000 		.4byte	.LASF354
 4138 115a 0E       		.byte	0xe
 4139 115b 16       		.uleb128 0x16
 4140 115c 9C040000 		.4byte	.LASF355
 4141 1160 0F       		.byte	0xf
 4142 1161 16       		.uleb128 0x16
 4143 1162 6E000000 		.4byte	.LASF356
 4144 1166 10       		.byte	0x10
 4145 1167 16       		.uleb128 0x16
 4146 1168 14180000 		.4byte	.LASF357
 4147 116c 11       		.byte	0x11
 4148 116d 16       		.uleb128 0x16
 4149 116e C6190000 		.4byte	.LASF358
 4150 1172 12       		.byte	0x12
 4151 1173 16       		.uleb128 0x16
 4152 1174 380A0000 		.4byte	.LASF359
 4153 1178 13       		.byte	0x13
 4154 1179 16       		.uleb128 0x16
 4155 117a 4F0E0000 		.4byte	.LASF360
 4156 117e 14       		.byte	0x14
 4157 117f 16       		.uleb128 0x16
 4158 1180 D5030000 		.4byte	.LASF361
 4159 1184 15       		.byte	0x15
 4160 1185 16       		.uleb128 0x16
 4161 1186 74240000 		.4byte	.LASF362
 4162 118a 16       		.byte	0x16
 4163 118b 00       		.byte	0
 4164 118c 03       		.uleb128 0x3
 4165 118d 49110000 		.4byte	.LASF363
 4166 1191 11       		.byte	0x11
 4167 1192 6E       		.byte	0x6e
 4168 1193 A2000000 		.4byte	0xa2
 4169 1197 03       		.uleb128 0x3
 4170 1198 E31F0000 		.4byte	.LASF364
 4171 119c 11       		.byte	0x11
 4172 119d 75       		.byte	0x75
 4173 119e A2110000 		.4byte	0x11a2
 4174 11a2 07       		.uleb128 0x7
 4175 11a3 04       		.byte	0x4
 4176 11a4 A8110000 		.4byte	0x11a8
 4177 11a8 0C       		.uleb128 0xc
 4178 11a9 B8110000 		.4byte	0x11b8
 4179 11ad 0D       		.uleb128 0xd
 4180 11ae 28080000 		.4byte	0x828
ARM GAS  C:\Users\strap\AppData\Local\Temp\cci64Z2T.s 			page 101


 4181 11b2 0D       		.uleb128 0xd
 4182 11b3 8C110000 		.4byte	0x118c
 4183 11b7 00       		.byte	0
 4184 11b8 03       		.uleb128 0x3
 4185 11b9 23030000 		.4byte	.LASF365
 4186 11bd 11       		.byte	0x11
 4187 11be 9B       		.byte	0x9b
 4188 11bf A2000000 		.4byte	0xa2
 4189 11c3 03       		.uleb128 0x3
 4190 11c4 56050000 		.4byte	.LASF366
 4191 11c8 11       		.byte	0x11
 4192 11c9 9D       		.byte	0x9d
 4193 11ca CE110000 		.4byte	0x11ce
 4194 11ce 07       		.uleb128 0x7
 4195 11cf 04       		.byte	0x4
 4196 11d0 D4110000 		.4byte	0x11d4
 4197 11d4 1D       		.uleb128 0x1d
 4198 11d5 64010000 		.4byte	0x164
 4199 11d9 ED110000 		.4byte	0x11ed
 4200 11dd 0D       		.uleb128 0xd
 4201 11de 28080000 		.4byte	0x828
 4202 11e2 0D       		.uleb128 0xd
 4203 11e3 B8110000 		.4byte	0x11b8
 4204 11e7 0D       		.uleb128 0xd
 4205 11e8 13010000 		.4byte	0x113
 4206 11ec 00       		.byte	0
 4207 11ed 0A       		.uleb128 0xa
 4208 11ee 0C       		.byte	0xc
 4209 11ef 11       		.byte	0x11
 4210 11f0 A0       		.byte	0xa0
 4211 11f1 44120000 		.4byte	0x1244
 4212 11f5 0B       		.uleb128 0xb
 4213 11f6 DE1F0000 		.4byte	.LASF367
 4214 11fa 11       		.byte	0x11
 4215 11fb A1       		.byte	0xa1
 4216 11fc 44120000 		.4byte	0x1244
 4217 1200 00       		.byte	0
 4218 1201 0B       		.uleb128 0xb
 4219 1202 00000000 		.4byte	.LASF368
 4220 1206 11       		.byte	0x11
 4221 1207 A2       		.byte	0xa2
 4222 1208 2A010000 		.4byte	0x12a
 4223 120c 04       		.byte	0x4
 4224 120d 0B       		.uleb128 0xb
 4225 120e 9C120000 		.4byte	.LASF369
 4226 1212 11       		.byte	0x11
 4227 1213 A3       		.byte	0xa3
 4228 1214 2A010000 		.4byte	0x12a
 4229 1218 06       		.byte	0x6
 4230 1219 0B       		.uleb128 0xb
 4231 121a 0C1C0000 		.4byte	.LASF370
 4232 121e 11       		.byte	0x11
 4233 121f A4       		.byte	0xa4
 4234 1220 B6030000 		.4byte	0x3b6
 4235 1224 08       		.byte	0x8
 4236 1225 0F       		.uleb128 0xf
 4237 1226 B9190000 		.4byte	.LASF371
ARM GAS  C:\Users\strap\AppData\Local\Temp\cci64Z2T.s 			page 102


 4238 122a 11       		.byte	0x11
 4239 122b A5       		.byte	0xa5
 4240 122c A2000000 		.4byte	0xa2
 4241 1230 01       		.byte	0x1
 4242 1231 01       		.byte	0x1
 4243 1232 07       		.byte	0x7
 4244 1233 09       		.byte	0x9
 4245 1234 0F       		.uleb128 0xf
 4246 1235 5E110000 		.4byte	.LASF372
 4247 1239 11       		.byte	0x11
 4248 123a A6       		.byte	0xa6
 4249 123b A2000000 		.4byte	0xa2
 4250 123f 01       		.byte	0x1
 4251 1240 01       		.byte	0x1
 4252 1241 06       		.byte	0x6
 4253 1242 09       		.byte	0x9
 4254 1243 00       		.byte	0
 4255 1244 07       		.uleb128 0x7
 4256 1245 04       		.byte	0x4
 4257 1246 4A120000 		.4byte	0x124a
 4258 124a 08       		.uleb128 0x8
 4259 124b A7060000 		.4byte	0x6a7
 4260 124f 03       		.uleb128 0x3
 4261 1250 43160000 		.4byte	.LASF373
 4262 1254 11       		.byte	0x11
 4263 1255 A8       		.byte	0xa8
 4264 1256 ED110000 		.4byte	0x11ed
 4265 125a 15       		.uleb128 0x15
 4266 125b 01       		.byte	0x1
 4267 125c 37000000 		.4byte	0x37
 4268 1260 11       		.byte	0x11
 4269 1261 B9       		.byte	0xb9
 4270 1262 91120000 		.4byte	0x1291
 4271 1266 16       		.uleb128 0x16
 4272 1267 F3100000 		.4byte	.LASF374
 4273 126b 00       		.byte	0
 4274 126c 16       		.uleb128 0x16
 4275 126d 740F0000 		.4byte	.LASF375
 4276 1271 01       		.byte	0x1
 4277 1272 16       		.uleb128 0x16
 4278 1273 CE170000 		.4byte	.LASF376
 4279 1277 02       		.byte	0x2
 4280 1278 16       		.uleb128 0x16
 4281 1279 70090000 		.4byte	.LASF377
 4282 127d 04       		.byte	0x4
 4283 127e 16       		.uleb128 0x16
 4284 127f 50190000 		.4byte	.LASF378
 4285 1283 08       		.byte	0x8
 4286 1284 16       		.uleb128 0x16
 4287 1285 FC1E0000 		.4byte	.LASF379
 4288 1289 10       		.byte	0x10
 4289 128a 16       		.uleb128 0x16
 4290 128b 06060000 		.4byte	.LASF380
 4291 128f 20       		.byte	0x20
 4292 1290 00       		.byte	0
 4293 1291 03       		.uleb128 0x3
 4294 1292 1F190000 		.4byte	.LASF381
ARM GAS  C:\Users\strap\AppData\Local\Temp\cci64Z2T.s 			page 103


 4295 1296 11       		.byte	0x11
 4296 1297 C3       		.byte	0xc3
 4297 1298 A2000000 		.4byte	0xa2
 4298 129c 03       		.uleb128 0x3
 4299 129d BF1D0000 		.4byte	.LASF382
 4300 12a1 11       		.byte	0x11
 4301 12a2 FA       		.byte	0xfa
 4302 12a3 A7060000 		.4byte	0x6a7
 4303 12a7 15       		.uleb128 0x15
 4304 12a8 01       		.byte	0x1
 4305 12a9 37000000 		.4byte	0x37
 4306 12ad 11       		.byte	0x11
 4307 12ae FC       		.byte	0xfc
 4308 12af CC120000 		.4byte	0x12cc
 4309 12b3 16       		.uleb128 0x16
 4310 12b4 AF230000 		.4byte	.LASF383
 4311 12b8 00       		.byte	0
 4312 12b9 16       		.uleb128 0x16
 4313 12ba D2200000 		.4byte	.LASF384
 4314 12be 01       		.byte	0x1
 4315 12bf 16       		.uleb128 0x16
 4316 12c0 DC040000 		.4byte	.LASF385
 4317 12c4 40       		.byte	0x40
 4318 12c5 16       		.uleb128 0x16
 4319 12c6 92140000 		.4byte	.LASF386
 4320 12ca FF       		.byte	0xff
 4321 12cb 00       		.byte	0
 4322 12cc 03       		.uleb128 0x3
 4323 12cd F8170000 		.4byte	.LASF387
 4324 12d1 13       		.byte	0x13
 4325 12d2 30       		.byte	0x30
 4326 12d3 D7120000 		.4byte	0x12d7
 4327 12d7 07       		.uleb128 0x7
 4328 12d8 04       		.byte	0x4
 4329 12d9 DD120000 		.4byte	0x12dd
 4330 12dd 0C       		.uleb128 0xc
 4331 12de E8120000 		.4byte	0x12e8
 4332 12e2 0D       		.uleb128 0xd
 4333 12e3 580C0000 		.4byte	0xc58
 4334 12e7 00       		.byte	0
 4335 12e8 07       		.uleb128 0x7
 4336 12e9 04       		.byte	0x4
 4337 12ea EE120000 		.4byte	0x12ee
 4338 12ee 07       		.uleb128 0x7
 4339 12ef 04       		.byte	0x4
 4340 12f0 9C120000 		.4byte	0x129c
 4341 12f4 03       		.uleb128 0x3
 4342 12f5 CE060000 		.4byte	.LASF388
 4343 12f9 13       		.byte	0x13
 4344 12fa 47       		.byte	0x47
 4345 12fb D00B0000 		.4byte	0xbd0
 4346 12ff 15       		.uleb128 0x15
 4347 1300 01       		.byte	0x1
 4348 1301 37000000 		.4byte	0x37
 4349 1305 04       		.byte	0x4
 4350 1306 1F       		.byte	0x1f
 4351 1307 5A130000 		.4byte	0x135a
ARM GAS  C:\Users\strap\AppData\Local\Temp\cci64Z2T.s 			page 104


 4352 130b 16       		.uleb128 0x16
 4353 130c 39010000 		.4byte	.LASF389
 4354 1310 00       		.byte	0
 4355 1311 16       		.uleb128 0x16
 4356 1312 3E0E0000 		.4byte	.LASF390
 4357 1316 01       		.byte	0x1
 4358 1317 16       		.uleb128 0x16
 4359 1318 7A270000 		.4byte	.LASF391
 4360 131c 02       		.byte	0x2
 4361 131d 16       		.uleb128 0x16
 4362 131e 40130000 		.4byte	.LASF392
 4363 1322 03       		.byte	0x3
 4364 1323 16       		.uleb128 0x16
 4365 1324 A6070000 		.4byte	.LASF393
 4366 1328 04       		.byte	0x4
 4367 1329 16       		.uleb128 0x16
 4368 132a F9240000 		.4byte	.LASF394
 4369 132e 05       		.byte	0x5
 4370 132f 16       		.uleb128 0x16
 4371 1330 AC050000 		.4byte	.LASF395
 4372 1334 06       		.byte	0x6
 4373 1335 16       		.uleb128 0x16
 4374 1336 8E1A0000 		.4byte	.LASF396
 4375 133a 07       		.byte	0x7
 4376 133b 16       		.uleb128 0x16
 4377 133c 17020000 		.4byte	.LASF397
 4378 1340 08       		.byte	0x8
 4379 1341 16       		.uleb128 0x16
 4380 1342 E41C0000 		.4byte	.LASF398
 4381 1346 09       		.byte	0x9
 4382 1347 16       		.uleb128 0x16
 4383 1348 140B0000 		.4byte	.LASF399
 4384 134c 0A       		.byte	0xa
 4385 134d 16       		.uleb128 0x16
 4386 134e 0A1A0000 		.4byte	.LASF400
 4387 1352 0B       		.byte	0xb
 4388 1353 16       		.uleb128 0x16
 4389 1354 5B020000 		.4byte	.LASF401
 4390 1358 0C       		.byte	0xc
 4391 1359 00       		.byte	0
 4392 135a 15       		.uleb128 0x15
 4393 135b 01       		.byte	0x1
 4394 135c 37000000 		.4byte	0x37
 4395 1360 04       		.byte	0x4
 4396 1361 5A       		.byte	0x5a
 4397 1362 85130000 		.4byte	0x1385
 4398 1366 16       		.uleb128 0x16
 4399 1367 0B250000 		.4byte	.LASF402
 4400 136b 00       		.byte	0
 4401 136c 16       		.uleb128 0x16
 4402 136d F7220000 		.4byte	.LASF403
 4403 1371 01       		.byte	0x1
 4404 1372 16       		.uleb128 0x16
 4405 1373 D80D0000 		.4byte	.LASF404
 4406 1377 02       		.byte	0x2
 4407 1378 16       		.uleb128 0x16
 4408 1379 321B0000 		.4byte	.LASF405
ARM GAS  C:\Users\strap\AppData\Local\Temp\cci64Z2T.s 			page 105


 4409 137d 03       		.byte	0x3
 4410 137e 16       		.uleb128 0x16
 4411 137f F2010000 		.4byte	.LASF406
 4412 1383 04       		.byte	0x4
 4413 1384 00       		.byte	0
 4414 1385 03       		.uleb128 0x3
 4415 1386 570B0000 		.4byte	.LASF407
 4416 138a 04       		.byte	0x4
 4417 138b 62       		.byte	0x62
 4418 138c A2000000 		.4byte	0xa2
 4419 1390 15       		.uleb128 0x15
 4420 1391 01       		.byte	0x1
 4421 1392 37000000 		.4byte	0x37
 4422 1396 04       		.byte	0x4
 4423 1397 6F       		.byte	0x6f
 4424 1398 AF130000 		.4byte	0x13af
 4425 139c 16       		.uleb128 0x16
 4426 139d CF0E0000 		.4byte	.LASF408
 4427 13a1 00       		.byte	0
 4428 13a2 16       		.uleb128 0x16
 4429 13a3 931D0000 		.4byte	.LASF409
 4430 13a7 01       		.byte	0x1
 4431 13a8 16       		.uleb128 0x16
 4432 13a9 70170000 		.4byte	.LASF410
 4433 13ad 40       		.byte	0x40
 4434 13ae 00       		.byte	0
 4435 13af 15       		.uleb128 0x15
 4436 13b0 01       		.byte	0x1
 4437 13b1 37000000 		.4byte	0x37
 4438 13b5 16       		.byte	0x16
 4439 13b6 26       		.byte	0x26
 4440 13b7 E6130000 		.4byte	0x13e6
 4441 13bb 16       		.uleb128 0x16
 4442 13bc A5090000 		.4byte	.LASF411
 4443 13c0 00       		.byte	0
 4444 13c1 16       		.uleb128 0x16
 4445 13c2 41050000 		.4byte	.LASF412
 4446 13c6 01       		.byte	0x1
 4447 13c7 16       		.uleb128 0x16
 4448 13c8 3D1B0000 		.4byte	.LASF413
 4449 13cc 02       		.byte	0x2
 4450 13cd 16       		.uleb128 0x16
 4451 13ce 150F0000 		.4byte	.LASF414
 4452 13d2 03       		.byte	0x3
 4453 13d3 16       		.uleb128 0x16
 4454 13d4 BA220000 		.4byte	.LASF415
 4455 13d8 04       		.byte	0x4
 4456 13d9 16       		.uleb128 0x16
 4457 13da 60200000 		.4byte	.LASF416
 4458 13de 05       		.byte	0x5
 4459 13df 16       		.uleb128 0x16
 4460 13e0 601F0000 		.4byte	.LASF417
 4461 13e4 06       		.byte	0x6
 4462 13e5 00       		.byte	0
 4463 13e6 15       		.uleb128 0x15
 4464 13e7 01       		.byte	0x1
 4465 13e8 37000000 		.4byte	0x37
ARM GAS  C:\Users\strap\AppData\Local\Temp\cci64Z2T.s 			page 106


 4466 13ec 16       		.byte	0x16
 4467 13ed 3B       		.byte	0x3b
 4468 13ee 05140000 		.4byte	0x1405
 4469 13f2 16       		.uleb128 0x16
 4470 13f3 120C0000 		.4byte	.LASF418
 4471 13f7 00       		.byte	0
 4472 13f8 16       		.uleb128 0x16
 4473 13f9 3B0F0000 		.4byte	.LASF419
 4474 13fd 01       		.byte	0x1
 4475 13fe 16       		.uleb128 0x16
 4476 13ff 140A0000 		.4byte	.LASF420
 4477 1403 40       		.byte	0x40
 4478 1404 00       		.byte	0
 4479 1405 15       		.uleb128 0x15
 4480 1406 01       		.byte	0x1
 4481 1407 37000000 		.4byte	0x37
 4482 140b 17       		.byte	0x17
 4483 140c 37       		.byte	0x37
 4484 140d 2A140000 		.4byte	0x142a
 4485 1411 16       		.uleb128 0x16
 4486 1412 2C230000 		.4byte	.LASF421
 4487 1416 00       		.byte	0
 4488 1417 16       		.uleb128 0x16
 4489 1418 7D1D0000 		.4byte	.LASF422
 4490 141c 01       		.byte	0x1
 4491 141d 16       		.uleb128 0x16
 4492 141e 34110000 		.4byte	.LASF423
 4493 1422 02       		.byte	0x2
 4494 1423 16       		.uleb128 0x16
 4495 1424 B50D0000 		.4byte	.LASF424
 4496 1428 03       		.byte	0x3
 4497 1429 00       		.byte	0
 4498 142a 15       		.uleb128 0x15
 4499 142b 01       		.byte	0x1
 4500 142c 37000000 		.4byte	0x37
 4501 1430 18       		.byte	0x18
 4502 1431 56       		.byte	0x56
 4503 1432 5B140000 		.4byte	0x145b
 4504 1436 16       		.uleb128 0x16
 4505 1437 44140000 		.4byte	.LASF425
 4506 143b 00       		.byte	0
 4507 143c 16       		.uleb128 0x16
 4508 143d 0C030000 		.4byte	.LASF426
 4509 1441 01       		.byte	0x1
 4510 1442 16       		.uleb128 0x16
 4511 1443 B11F0000 		.4byte	.LASF427
 4512 1447 02       		.byte	0x2
 4513 1448 16       		.uleb128 0x16
 4514 1449 C31B0000 		.4byte	.LASF428
 4515 144d 03       		.byte	0x3
 4516 144e 16       		.uleb128 0x16
 4517 144f 26240000 		.4byte	.LASF429
 4518 1453 40       		.byte	0x40
 4519 1454 16       		.uleb128 0x16
 4520 1455 7E200000 		.4byte	.LASF430
 4521 1459 41       		.byte	0x41
 4522 145a 00       		.byte	0
ARM GAS  C:\Users\strap\AppData\Local\Temp\cci64Z2T.s 			page 107


 4523 145b 15       		.uleb128 0x15
 4524 145c 01       		.byte	0x1
 4525 145d 37000000 		.4byte	0x37
 4526 1461 19       		.byte	0x19
 4527 1462 4F       		.byte	0x4f
 4528 1463 92140000 		.4byte	0x1492
 4529 1467 16       		.uleb128 0x16
 4530 1468 37070000 		.4byte	.LASF431
 4531 146c 00       		.byte	0
 4532 146d 16       		.uleb128 0x16
 4533 146e BB150000 		.4byte	.LASF432
 4534 1472 01       		.byte	0x1
 4535 1473 16       		.uleb128 0x16
 4536 1474 A4270000 		.4byte	.LASF433
 4537 1478 02       		.byte	0x2
 4538 1479 16       		.uleb128 0x16
 4539 147a A2140000 		.4byte	.LASF434
 4540 147e 03       		.byte	0x3
 4541 147f 16       		.uleb128 0x16
 4542 1480 CF0F0000 		.4byte	.LASF435
 4543 1484 04       		.byte	0x4
 4544 1485 16       		.uleb128 0x16
 4545 1486 31200000 		.4byte	.LASF436
 4546 148a 05       		.byte	0x5
 4547 148b 16       		.uleb128 0x16
 4548 148c 52000000 		.4byte	.LASF437
 4549 1490 41       		.byte	0x41
 4550 1491 00       		.byte	0
 4551 1492 15       		.uleb128 0x15
 4552 1493 01       		.byte	0x1
 4553 1494 37000000 		.4byte	0x37
 4554 1498 1A       		.byte	0x1a
 4555 1499 10       		.byte	0x10
 4556 149a AB140000 		.4byte	0x14ab
 4557 149e 16       		.uleb128 0x16
 4558 149f B4250000 		.4byte	.LASF438
 4559 14a3 00       		.byte	0
 4560 14a4 16       		.uleb128 0x16
 4561 14a5 650F0000 		.4byte	.LASF439
 4562 14a9 01       		.byte	0x1
 4563 14aa 00       		.byte	0
 4564 14ab 03       		.uleb128 0x3
 4565 14ac 63210000 		.4byte	.LASF440
 4566 14b0 1A       		.byte	0x1a
 4567 14b1 13       		.byte	0x13
 4568 14b2 92140000 		.4byte	0x1492
 4569 14b6 15       		.uleb128 0x15
 4570 14b7 01       		.byte	0x1
 4571 14b8 37000000 		.4byte	0x37
 4572 14bc 1A       		.byte	0x1a
 4573 14bd 15       		.byte	0x15
 4574 14be CF140000 		.4byte	0x14cf
 4575 14c2 16       		.uleb128 0x16
 4576 14c3 43150000 		.4byte	.LASF441
 4577 14c7 00       		.byte	0
 4578 14c8 16       		.uleb128 0x16
 4579 14c9 5D0A0000 		.4byte	.LASF442
ARM GAS  C:\Users\strap\AppData\Local\Temp\cci64Z2T.s 			page 108


 4580 14cd 01       		.byte	0x1
 4581 14ce 00       		.byte	0
 4582 14cf 03       		.uleb128 0x3
 4583 14d0 A00E0000 		.4byte	.LASF443
 4584 14d4 1A       		.byte	0x1a
 4585 14d5 18       		.byte	0x18
 4586 14d6 B6140000 		.4byte	0x14b6
 4587 14da 0A       		.uleb128 0xa
 4588 14db 18       		.byte	0x18
 4589 14dc 1A       		.byte	0x1a
 4590 14dd 1A       		.byte	0x1a
 4591 14de 2B150000 		.4byte	0x152b
 4592 14e2 0B       		.uleb128 0xb
 4593 14e3 72060000 		.4byte	.LASF444
 4594 14e7 1A       		.byte	0x1a
 4595 14e8 1B       		.byte	0x1b
 4596 14e9 41150000 		.4byte	0x1541
 4597 14ed 00       		.byte	0
 4598 14ee 0B       		.uleb128 0xb
 4599 14ef 54110000 		.4byte	.LASF445
 4600 14f3 1A       		.byte	0x1a
 4601 14f4 1C       		.byte	0x1c
 4602 14f5 57150000 		.4byte	0x1557
 4603 14f9 04       		.byte	0x4
 4604 14fa 0B       		.uleb128 0xb
 4605 14fb 37130000 		.4byte	.LASF446
 4606 14ff 1A       		.byte	0x1a
 4607 1500 1D       		.byte	0x1d
 4608 1501 6D150000 		.4byte	0x156d
 4609 1505 08       		.byte	0x8
 4610 1506 0B       		.uleb128 0xb
 4611 1507 50160000 		.4byte	.LASF447
 4612 150b 1A       		.byte	0x1a
 4613 150c 1E       		.byte	0x1e
 4614 150d 88150000 		.4byte	0x1588
 4615 1511 0C       		.byte	0xc
 4616 1512 0B       		.uleb128 0xb
 4617 1513 D6020000 		.4byte	.LASF448
 4618 1517 1A       		.byte	0x1a
 4619 1518 1F       		.byte	0x1f
 4620 1519 A3150000 		.4byte	0x15a3
 4621 151d 10       		.byte	0x10
 4622 151e 0B       		.uleb128 0xb
 4623 151f EC000000 		.4byte	.LASF449
 4624 1523 1A       		.byte	0x1a
 4625 1524 20       		.byte	0x20
 4626 1525 B4150000 		.4byte	0x15b4
 4627 1529 14       		.byte	0x14
 4628 152a 00       		.byte	0
 4629 152b 0C       		.uleb128 0xc
 4630 152c 3B150000 		.4byte	0x153b
 4631 1530 0D       		.uleb128 0xd
 4632 1531 3B150000 		.4byte	0x153b
 4633 1535 0D       		.uleb128 0xd
 4634 1536 CF140000 		.4byte	0x14cf
 4635 153a 00       		.byte	0
 4636 153b 07       		.uleb128 0x7
ARM GAS  C:\Users\strap\AppData\Local\Temp\cci64Z2T.s 			page 109


 4637 153c 04       		.byte	0x4
 4638 153d CB050000 		.4byte	0x5cb
 4639 1541 07       		.uleb128 0x7
 4640 1542 04       		.byte	0x4
 4641 1543 2B150000 		.4byte	0x152b
 4642 1547 0C       		.uleb128 0xc
 4643 1548 57150000 		.4byte	0x1557
 4644 154c 0D       		.uleb128 0xd
 4645 154d 3B150000 		.4byte	0x153b
 4646 1551 0D       		.uleb128 0xd
 4647 1552 AB140000 		.4byte	0x14ab
 4648 1556 00       		.byte	0
 4649 1557 07       		.uleb128 0x7
 4650 1558 04       		.byte	0x4
 4651 1559 47150000 		.4byte	0x1547
 4652 155d 0C       		.uleb128 0xc
 4653 155e 6D150000 		.4byte	0x156d
 4654 1562 0D       		.uleb128 0xd
 4655 1563 3B150000 		.4byte	0x153b
 4656 1567 0D       		.uleb128 0xd
 4657 1568 CE000000 		.4byte	0xce
 4658 156c 00       		.byte	0
 4659 156d 07       		.uleb128 0x7
 4660 156e 04       		.byte	0x4
 4661 156f 5D150000 		.4byte	0x155d
 4662 1573 0C       		.uleb128 0xc
 4663 1574 83150000 		.4byte	0x1583
 4664 1578 0D       		.uleb128 0xd
 4665 1579 740C0000 		.4byte	0xc74
 4666 157d 0D       		.uleb128 0xd
 4667 157e 83150000 		.4byte	0x1583
 4668 1582 00       		.byte	0
 4669 1583 08       		.uleb128 0x8
 4670 1584 FA000000 		.4byte	0xfa
 4671 1588 07       		.uleb128 0x7
 4672 1589 04       		.byte	0x4
 4673 158a 73150000 		.4byte	0x1573
 4674 158e 0C       		.uleb128 0xc
 4675 158f A3150000 		.4byte	0x15a3
 4676 1593 0D       		.uleb128 0xd
 4677 1594 740C0000 		.4byte	0xc74
 4678 1598 0D       		.uleb128 0xd
 4679 1599 93050000 		.4byte	0x593
 4680 159d 0D       		.uleb128 0xd
 4681 159e 83150000 		.4byte	0x1583
 4682 15a2 00       		.byte	0
 4683 15a3 07       		.uleb128 0x7
 4684 15a4 04       		.byte	0x4
 4685 15a5 8E150000 		.4byte	0x158e
 4686 15a9 0C       		.uleb128 0xc
 4687 15aa B4150000 		.4byte	0x15b4
 4688 15ae 0D       		.uleb128 0xd
 4689 15af 3B150000 		.4byte	0x153b
 4690 15b3 00       		.byte	0
 4691 15b4 07       		.uleb128 0x7
 4692 15b5 04       		.byte	0x4
 4693 15b6 A9150000 		.4byte	0x15a9
ARM GAS  C:\Users\strap\AppData\Local\Temp\cci64Z2T.s 			page 110


 4694 15ba 03       		.uleb128 0x3
 4695 15bb 0B200000 		.4byte	.LASF450
 4696 15bf 1A       		.byte	0x1a
 4697 15c0 21       		.byte	0x21
 4698 15c1 DA140000 		.4byte	0x14da
 4699 15c5 15       		.uleb128 0x15
 4700 15c6 01       		.byte	0x1
 4701 15c7 37000000 		.4byte	0x37
 4702 15cb 1B       		.byte	0x1b
 4703 15cc 09       		.byte	0x9
 4704 15cd E4150000 		.4byte	0x15e4
 4705 15d1 16       		.uleb128 0x16
 4706 15d2 A3170000 		.4byte	.LASF451
 4707 15d6 00       		.byte	0
 4708 15d7 16       		.uleb128 0x16
 4709 15d8 370B0000 		.4byte	.LASF452
 4710 15dc 01       		.byte	0x1
 4711 15dd 16       		.uleb128 0x16
 4712 15de 61060000 		.4byte	.LASF453
 4713 15e2 02       		.byte	0x2
 4714 15e3 00       		.byte	0
 4715 15e4 15       		.uleb128 0x15
 4716 15e5 01       		.byte	0x1
 4717 15e6 37000000 		.4byte	0x37
 4718 15ea 01       		.byte	0x1
 4719 15eb 2B       		.byte	0x2b
 4720 15ec 09160000 		.4byte	0x1609
 4721 15f0 16       		.uleb128 0x16
 4722 15f1 83230000 		.4byte	.LASF454
 4723 15f5 00       		.byte	0
 4724 15f6 16       		.uleb128 0x16
 4725 15f7 F7080000 		.4byte	.LASF455
 4726 15fb 01       		.byte	0x1
 4727 15fc 16       		.uleb128 0x16
 4728 15fd F81D0000 		.4byte	.LASF456
 4729 1601 02       		.byte	0x2
 4730 1602 16       		.uleb128 0x16
 4731 1603 87120000 		.4byte	.LASF457
 4732 1607 03       		.byte	0x3
 4733 1608 00       		.byte	0
 4734 1609 0E       		.uleb128 0xe
 4735 160a 28040000 		.4byte	.LASF458
 4736 160e 10       		.byte	0x10
 4737 160f 01       		.byte	0x1
 4738 1610 4D       		.byte	0x4d
 4739 1611 2E160000 		.4byte	0x162e
 4740 1615 0B       		.uleb128 0xb
 4741 1616 56230000 		.4byte	.LASF459
 4742 161a 01       		.byte	0x1
 4743 161b 4E       		.byte	0x4e
 4744 161c EE120000 		.4byte	0x12ee
 4745 1620 00       		.byte	0
 4746 1621 0B       		.uleb128 0xb
 4747 1622 4F030000 		.4byte	.LASF460
 4748 1626 01       		.byte	0x1
 4749 1627 4F       		.byte	0x4f
 4750 1628 2E160000 		.4byte	0x162e
ARM GAS  C:\Users\strap\AppData\Local\Temp\cci64Z2T.s 			page 111


 4751 162c 04       		.byte	0x4
 4752 162d 00       		.byte	0
 4753 162e 1B       		.uleb128 0x1b
 4754 162f EE120000 		.4byte	0x12ee
 4755 1633 3E160000 		.4byte	0x163e
 4756 1637 1C       		.uleb128 0x1c
 4757 1638 0C010000 		.4byte	0x10c
 4758 163c 02       		.byte	0x2
 4759 163d 00       		.byte	0
 4760 163e 1F       		.uleb128 0x1f
 4761 163f 62250000 		.4byte	.LASF604
 4762 1643 02       		.byte	0x2
 4763 1644 7D       		.byte	0x7d
 4764 1645 C6090000 		.4byte	0x9c6
 4765 1649 03       		.byte	0x3
 4766 164a 59160000 		.4byte	0x1659
 4767 164e 20       		.uleb128 0x20
 4768 164f 636200   		.ascii	"cb\000"
 4769 1652 02       		.byte	0x2
 4770 1653 7D       		.byte	0x7d
 4771 1654 59160000 		.4byte	0x1659
 4772 1658 00       		.byte	0
 4773 1659 07       		.uleb128 0x7
 4774 165a 04       		.byte	0x4
 4775 165b 5F160000 		.4byte	0x165f
 4776 165f 08       		.uleb128 0x8
 4777 1660 9C120000 		.4byte	0x129c
 4778 1664 21       		.uleb128 0x21
 4779 1665 7B130000 		.4byte	.LASF462
 4780 1669 04       		.byte	0x4
 4781 166a 9E       		.byte	0x9e
 4782 166b 03       		.byte	0x3
 4783 166c 92160000 		.4byte	0x1692
 4784 1670 22       		.uleb128 0x22
 4785 1671 D6150000 		.4byte	.LASF461
 4786 1675 04       		.byte	0x4
 4787 1676 9E       		.byte	0x9e
 4788 1677 EE120000 		.4byte	0x12ee
 4789 167b 20       		.uleb128 0x20
 4790 167c 686F7200 		.ascii	"hor\000"
 4791 1680 04       		.byte	0x4
 4792 1681 9E       		.byte	0x9e
 4793 1682 85130000 		.4byte	0x1385
 4794 1686 20       		.uleb128 0x20
 4795 1687 76657200 		.ascii	"ver\000"
 4796 168b 04       		.byte	0x4
 4797 168c 9E       		.byte	0x9e
 4798 168d 85130000 		.4byte	0x1385
 4799 1691 00       		.byte	0
 4800 1692 21       		.uleb128 0x21
 4801 1693 50200000 		.4byte	.LASF463
 4802 1697 16       		.byte	0x16
 4803 1698 85       		.byte	0x85
 4804 1699 03       		.byte	0x3
 4805 169a C0160000 		.4byte	0x16c0
 4806 169e 20       		.uleb128 0x20
 4807 169f 62746E00 		.ascii	"btn\000"
ARM GAS  C:\Users\strap\AppData\Local\Temp\cci64Z2T.s 			page 112


 4808 16a3 16       		.byte	0x16
 4809 16a4 85       		.byte	0x85
 4810 16a5 EE120000 		.4byte	0x12ee
 4811 16a9 20       		.uleb128 0x20
 4812 16aa 686F7200 		.ascii	"hor\000"
 4813 16ae 16       		.byte	0x16
 4814 16af 85       		.byte	0x85
 4815 16b0 85130000 		.4byte	0x1385
 4816 16b4 20       		.uleb128 0x20
 4817 16b5 76657200 		.ascii	"ver\000"
 4818 16b9 16       		.byte	0x16
 4819 16ba 85       		.byte	0x85
 4820 16bb 85130000 		.4byte	0x1385
 4821 16bf 00       		.byte	0
 4822 16c0 21       		.uleb128 0x21
 4823 16c1 11120000 		.4byte	.LASF464
 4824 16c5 03       		.byte	0x3
 4825 16c6 9F       		.byte	0x9f
 4826 16c7 03       		.byte	0x3
 4827 16c8 F9160000 		.4byte	0x16f9
 4828 16cc 20       		.uleb128 0x20
 4829 16cd 6F626A00 		.ascii	"obj\000"
 4830 16d1 03       		.byte	0x3
 4831 16d2 9F       		.byte	0x9f
 4832 16d3 EE120000 		.4byte	0x12ee
 4833 16d7 22       		.uleb128 0x22
 4834 16d8 D6140000 		.4byte	.LASF465
 4835 16dc 03       		.byte	0x3
 4836 16dd 9F       		.byte	0x9f
 4837 16de A2000000 		.4byte	0xa2
 4838 16e2 22       		.uleb128 0x22
 4839 16e3 20160000 		.4byte	.LASF143
 4840 16e7 03       		.byte	0x3
 4841 16e8 9F       		.byte	0x9f
 4842 16e9 91120000 		.4byte	0x1291
 4843 16ed 22       		.uleb128 0x22
 4844 16ee ED100000 		.4byte	.LASF466
 4845 16f2 03       		.byte	0x3
 4846 16f3 9F       		.byte	0x9f
 4847 16f4 15010000 		.4byte	0x115
 4848 16f8 00       		.byte	0
 4849 16f9 21       		.uleb128 0x21
 4850 16fa 04230000 		.4byte	.LASF467
 4851 16fe 05       		.byte	0x5
 4852 16ff B6       		.byte	0xb6
 4853 1700 03       		.byte	0x3
 4854 1701 11170000 		.4byte	0x1711
 4855 1705 20       		.uleb128 0x20
 4856 1706 73637200 		.ascii	"scr\000"
 4857 170a 05       		.byte	0x5
 4858 170b B6       		.byte	0xb6
 4859 170c EE120000 		.4byte	0x12ee
 4860 1710 00       		.byte	0
 4861 1711 23       		.uleb128 0x23
 4862 1712 32000000 		.4byte	.LASF471
 4863 1716 01       		.byte	0x1
 4864 1717 3B02     		.2byte	0x23b
ARM GAS  C:\Users\strap\AppData\Local\Temp\cci64Z2T.s 			page 113


 4865 1719 00000000 		.4byte	.LFB456
 4866 171d 02000000 		.4byte	.LFE456-.LFB456
 4867 1721 01       		.uleb128 0x1
 4868 1722 9C       		.byte	0x9c
 4869 1723 42170000 		.4byte	0x1742
 4870 1727 24       		.uleb128 0x24
 4871 1728 6F626A00 		.ascii	"obj\000"
 4872 172c 01       		.byte	0x1
 4873 172d 3B02     		.2byte	0x23b
 4874 172f EE120000 		.4byte	0x12ee
 4875 1733 01       		.uleb128 0x1
 4876 1734 50       		.byte	0x50
 4877 1735 24       		.uleb128 0x24
 4878 1736 6500     		.ascii	"e\000"
 4879 1738 01       		.byte	0x1
 4880 1739 3B02     		.2byte	0x23b
 4881 173b 8C110000 		.4byte	0x118c
 4882 173f 01       		.uleb128 0x1
 4883 1740 51       		.byte	0x51
 4884 1741 00       		.byte	0
 4885 1742 25       		.uleb128 0x25
 4886 1743 410C0000 		.4byte	.LASF468
 4887 1747 01       		.byte	0x1
 4888 1748 0401     		.2byte	0x104
 4889 174a AD000000 		.4byte	0xad
 4890 174e 00000000 		.4byte	.LFB445
 4891 1752 18000000 		.4byte	.LFE445-.LFB445
 4892 1756 01       		.uleb128 0x1
 4893 1757 9C       		.byte	0x9c
 4894 1758 76170000 		.4byte	0x1776
 4895 175c 26       		.uleb128 0x26
 4896 175d 670D0000 		.4byte	.LASF473
 4897 1761 01       		.byte	0x1
 4898 1762 0601     		.2byte	0x106
 4899 1764 AD000000 		.4byte	0xad
 4900 1768 00000000 		.4byte	.LLST0
 4901 176c 27       		.uleb128 0x27
 4902 176d 06000000 		.4byte	.LVL2
 4903 1771 892C0000 		.4byte	0x2c89
 4904 1775 00       		.byte	0
 4905 1776 25       		.uleb128 0x25
 4906 1777 20100000 		.4byte	.LASF469
 4907 177b 01       		.byte	0x1
 4908 177c 0F01     		.2byte	0x10f
 4909 177e C6090000 		.4byte	0x9c6
 4910 1782 00000000 		.4byte	.LFB446
 4911 1786 1E000000 		.4byte	.LFE446-.LFB446
 4912 178a 01       		.uleb128 0x1
 4913 178b 9C       		.byte	0x9c
 4914 178c C3170000 		.4byte	0x17c3
 4915 1790 28       		.uleb128 0x28
 4916 1791 64727600 		.ascii	"drv\000"
 4917 1795 01       		.byte	0x1
 4918 1796 0F01     		.2byte	0x10f
 4919 1798 C3170000 		.4byte	0x17c3
 4920 179c 24000000 		.4byte	.LLST1
 4921 17a0 29       		.uleb128 0x29
ARM GAS  C:\Users\strap\AppData\Local\Temp\cci64Z2T.s 			page 114


 4922 17a1 221F0000 		.4byte	.LASF470
 4923 17a5 01       		.byte	0x1
 4924 17a6 0F01     		.2byte	0x10f
 4925 17a8 D3090000 		.4byte	0x9d3
 4926 17ac 45000000 		.4byte	.LLST2
 4927 17b0 27       		.uleb128 0x27
 4928 17b1 08000000 		.4byte	.LVL6
 4929 17b5 42170000 		.4byte	0x1742
 4930 17b9 27       		.uleb128 0x27
 4931 17ba 0E000000 		.4byte	.LVL7
 4932 17be 942C0000 		.4byte	0x2c94
 4933 17c2 00       		.byte	0
 4934 17c3 07       		.uleb128 0x7
 4935 17c4 04       		.byte	0x4
 4936 17c5 FB090000 		.4byte	0x9fb
 4937 17c9 23       		.uleb128 0x23
 4938 17ca 00100000 		.4byte	.LASF472
 4939 17ce 01       		.byte	0x1
 4940 17cf A201     		.2byte	0x1a2
 4941 17d1 00000000 		.4byte	.LFB449
 4942 17d5 30000000 		.4byte	.LFE449-.LFB449
 4943 17d9 01       		.uleb128 0x1
 4944 17da 9C       		.byte	0x9c
 4945 17db 4C180000 		.4byte	0x184c
 4946 17df 28       		.uleb128 0x28
 4947 17e0 6F626A00 		.ascii	"obj\000"
 4948 17e4 01       		.byte	0x1
 4949 17e5 A201     		.2byte	0x1a2
 4950 17e7 EE120000 		.4byte	0x12ee
 4951 17eb 63000000 		.4byte	.LLST3
 4952 17ef 28       		.uleb128 0x28
 4953 17f0 6500     		.ascii	"e\000"
 4954 17f2 01       		.byte	0x1
 4955 17f3 A201     		.2byte	0x1a2
 4956 17f5 8C110000 		.4byte	0x118c
 4957 17f9 8F000000 		.4byte	.LLST4
 4958 17fd 2A       		.uleb128 0x2a
 4959 17fe 0A000000 		.4byte	.LBB36
 4960 1802 26000000 		.4byte	.LBE36-.LBB36
 4961 1806 26       		.uleb128 0x26
 4962 1807 26210000 		.4byte	.LASF474
 4963 180b 01       		.byte	0x1
 4964 180c A801     		.2byte	0x1a8
 4965 180e B8000000 		.4byte	0xb8
 4966 1812 B0000000 		.4byte	.LLST5
 4967 1816 26       		.uleb128 0x26
 4968 1817 B0010000 		.4byte	.LASF475
 4969 181b 01       		.byte	0x1
 4970 181c AC01     		.2byte	0x1ac
 4971 181e C3000000 		.4byte	0xc3
 4972 1822 C3000000 		.4byte	.LLST6
 4973 1826 27       		.uleb128 0x27
 4974 1827 12000000 		.4byte	.LVL11
 4975 182b 9F2C0000 		.4byte	0x2c9f
 4976 182f 27       		.uleb128 0x27
 4977 1830 16000000 		.4byte	.LVL12
 4978 1834 AA2C0000 		.4byte	0x2caa
ARM GAS  C:\Users\strap\AppData\Local\Temp\cci64Z2T.s 			page 115


 4979 1838 27       		.uleb128 0x27
 4980 1839 1E000000 		.4byte	.LVL13
 4981 183d B52C0000 		.4byte	0x2cb5
 4982 1841 27       		.uleb128 0x27
 4983 1842 24000000 		.4byte	.LVL15
 4984 1846 AA2C0000 		.4byte	0x2caa
 4985 184a 00       		.byte	0
 4986 184b 00       		.byte	0
 4987 184c 23       		.uleb128 0x23
 4988 184d F00C0000 		.4byte	.LASF476
 4989 1851 01       		.byte	0x1
 4990 1852 C701     		.2byte	0x1c7
 4991 1854 00000000 		.4byte	.LFB451
 4992 1858 4C000000 		.4byte	.LFE451-.LFB451
 4993 185c 01       		.uleb128 0x1
 4994 185d 9C       		.byte	0x9c
 4995 185e D6180000 		.4byte	0x18d6
 4996 1862 28       		.uleb128 0x28
 4997 1863 6F626A00 		.ascii	"obj\000"
 4998 1867 01       		.byte	0x1
 4999 1868 C701     		.2byte	0x1c7
 5000 186a EE120000 		.4byte	0x12ee
 5001 186e D6000000 		.4byte	.LLST7
 5002 1872 28       		.uleb128 0x28
 5003 1873 6500     		.ascii	"e\000"
 5004 1875 01       		.byte	0x1
 5005 1876 C701     		.2byte	0x1c7
 5006 1878 8C110000 		.4byte	0x118c
 5007 187c 02010000 		.4byte	.LLST8
 5008 1880 2B       		.uleb128 0x2b
 5009 1881 0E000000 		.4byte	.LVL20
 5010 1885 C02C0000 		.4byte	0x2cc0
 5011 1889 93180000 		.4byte	0x1893
 5012 188d 2C       		.uleb128 0x2c
 5013 188e 01       		.uleb128 0x1
 5014 188f 51       		.byte	0x51
 5015 1890 01       		.uleb128 0x1
 5016 1891 31       		.byte	0x31
 5017 1892 00       		.byte	0
 5018 1893 2B       		.uleb128 0x2b
 5019 1894 18000000 		.4byte	.LVL21
 5020 1898 C02C0000 		.4byte	0x2cc0
 5021 189c A6180000 		.4byte	0x18a6
 5022 18a0 2C       		.uleb128 0x2c
 5023 18a1 01       		.uleb128 0x1
 5024 18a2 51       		.byte	0x51
 5025 18a3 01       		.uleb128 0x1
 5026 18a4 31       		.byte	0x31
 5027 18a5 00       		.byte	0
 5028 18a6 2B       		.uleb128 0x2b
 5029 18a7 22000000 		.4byte	.LVL22
 5030 18ab C02C0000 		.4byte	0x2cc0
 5031 18af B9180000 		.4byte	0x18b9
 5032 18b3 2C       		.uleb128 0x2c
 5033 18b4 01       		.uleb128 0x1
 5034 18b5 51       		.byte	0x51
 5035 18b6 01       		.uleb128 0x1
ARM GAS  C:\Users\strap\AppData\Local\Temp\cci64Z2T.s 			page 116


 5036 18b7 31       		.byte	0x31
 5037 18b8 00       		.byte	0
 5038 18b9 27       		.uleb128 0x27
 5039 18ba 2C000000 		.4byte	.LVL23
 5040 18be CC2C0000 		.4byte	0x2ccc
 5041 18c2 2D       		.uleb128 0x2d
 5042 18c3 32000000 		.4byte	.LVL24
 5043 18c7 D72C0000 		.4byte	0x2cd7
 5044 18cb 2C       		.uleb128 0x2c
 5045 18cc 01       		.uleb128 0x1
 5046 18cd 50       		.byte	0x50
 5047 18ce 05       		.uleb128 0x5
 5048 18cf 03       		.byte	0x3
 5049 18d0 00000000 		.4byte	.LC0
 5050 18d4 00       		.byte	0
 5051 18d5 00       		.byte	0
 5052 18d6 23       		.uleb128 0x23
 5053 18d7 B9110000 		.4byte	.LASF477
 5054 18db 01       		.byte	0x1
 5055 18dc 2E02     		.2byte	0x22e
 5056 18de 00000000 		.4byte	.LFB455
 5057 18e2 34000000 		.4byte	.LFE455-.LFB455
 5058 18e6 01       		.uleb128 0x1
 5059 18e7 9C       		.byte	0x9c
 5060 18e8 3A190000 		.4byte	0x193a
 5061 18ec 28       		.uleb128 0x28
 5062 18ed 6F626A00 		.ascii	"obj\000"
 5063 18f1 01       		.byte	0x1
 5064 18f2 2E02     		.2byte	0x22e
 5065 18f4 EE120000 		.4byte	0x12ee
 5066 18f8 2E010000 		.4byte	.LLST9
 5067 18fc 28       		.uleb128 0x28
 5068 18fd 6500     		.ascii	"e\000"
 5069 18ff 01       		.byte	0x1
 5070 1900 2E02     		.2byte	0x22e
 5071 1902 8C110000 		.4byte	0x118c
 5072 1906 5A010000 		.4byte	.LLST10
 5073 190a 2B       		.uleb128 0x2b
 5074 190b 0E000000 		.4byte	.LVL29
 5075 190f C02C0000 		.4byte	0x2cc0
 5076 1913 1D190000 		.4byte	0x191d
 5077 1917 2C       		.uleb128 0x2c
 5078 1918 01       		.uleb128 0x1
 5079 1919 51       		.byte	0x51
 5080 191a 01       		.uleb128 0x1
 5081 191b 31       		.byte	0x31
 5082 191c 00       		.byte	0
 5083 191d 2B       		.uleb128 0x2b
 5084 191e 18000000 		.4byte	.LVL30
 5085 1922 C02C0000 		.4byte	0x2cc0
 5086 1926 30190000 		.4byte	0x1930
 5087 192a 2C       		.uleb128 0x2c
 5088 192b 01       		.uleb128 0x1
 5089 192c 51       		.byte	0x51
 5090 192d 01       		.uleb128 0x1
 5091 192e 31       		.byte	0x31
 5092 192f 00       		.byte	0
ARM GAS  C:\Users\strap\AppData\Local\Temp\cci64Z2T.s 			page 117


 5093 1930 27       		.uleb128 0x27
 5094 1931 22000000 		.4byte	.LVL31
 5095 1935 CC2C0000 		.4byte	0x2ccc
 5096 1939 00       		.byte	0
 5097 193a 23       		.uleb128 0x23
 5098 193b 21070000 		.4byte	.LASF478
 5099 193f 01       		.byte	0x1
 5100 1940 5E02     		.2byte	0x25e
 5101 1942 00000000 		.4byte	.LFB458
 5102 1946 40000000 		.4byte	.LFE458-.LFB458
 5103 194a 01       		.uleb128 0x1
 5104 194b 9C       		.byte	0x9c
 5105 194c B6190000 		.4byte	0x19b6
 5106 1950 28       		.uleb128 0x28
 5107 1951 6F626A00 		.ascii	"obj\000"
 5108 1955 01       		.byte	0x1
 5109 1956 5E02     		.2byte	0x25e
 5110 1958 EE120000 		.4byte	0x12ee
 5111 195c 86010000 		.4byte	.LLST11
 5112 1960 28       		.uleb128 0x28
 5113 1961 6500     		.ascii	"e\000"
 5114 1963 01       		.byte	0x1
 5115 1964 5E02     		.2byte	0x25e
 5116 1966 8C110000 		.4byte	0x118c
 5117 196a B2010000 		.4byte	.LLST12
 5118 196e 2B       		.uleb128 0x2b
 5119 196f 0E000000 		.4byte	.LVL36
 5120 1973 C02C0000 		.4byte	0x2cc0
 5121 1977 81190000 		.4byte	0x1981
 5122 197b 2C       		.uleb128 0x2c
 5123 197c 01       		.uleb128 0x1
 5124 197d 51       		.byte	0x51
 5125 197e 01       		.uleb128 0x1
 5126 197f 31       		.byte	0x31
 5127 1980 00       		.byte	0
 5128 1981 2B       		.uleb128 0x2b
 5129 1982 18000000 		.4byte	.LVL37
 5130 1986 C02C0000 		.4byte	0x2cc0
 5131 198a 94190000 		.4byte	0x1994
 5132 198e 2C       		.uleb128 0x2c
 5133 198f 01       		.uleb128 0x1
 5134 1990 51       		.byte	0x51
 5135 1991 01       		.uleb128 0x1
 5136 1992 31       		.byte	0x31
 5137 1993 00       		.byte	0
 5138 1994 27       		.uleb128 0x27
 5139 1995 22000000 		.4byte	.LVL38
 5140 1999 CC2C0000 		.4byte	0x2ccc
 5141 199d 27       		.uleb128 0x27
 5142 199e 28000000 		.4byte	.LVL39
 5143 19a2 E22C0000 		.4byte	0x2ce2
 5144 19a6 2D       		.uleb128 0x2d
 5145 19a7 30000000 		.4byte	.LVL40
 5146 19ab ED2C0000 		.4byte	0x2ced
 5147 19af 2C       		.uleb128 0x2c
 5148 19b0 01       		.uleb128 0x1
 5149 19b1 51       		.byte	0x51
ARM GAS  C:\Users\strap\AppData\Local\Temp\cci64Z2T.s 			page 118


 5150 19b2 01       		.uleb128 0x1
 5151 19b3 31       		.byte	0x31
 5152 19b4 00       		.byte	0
 5153 19b5 00       		.byte	0
 5154 19b6 23       		.uleb128 0x23
 5155 19b7 950A0000 		.4byte	.LASF479
 5156 19bb 01       		.byte	0x1
 5157 19bc 7201     		.2byte	0x172
 5158 19be 00000000 		.4byte	.LFB448
 5159 19c2 24010000 		.4byte	.LFE448-.LFB448
 5160 19c6 01       		.uleb128 0x1
 5161 19c7 9C       		.byte	0x9c
 5162 19c8 ED1B0000 		.4byte	0x1bed
 5163 19cc 28       		.uleb128 0x28
 5164 19cd 6F626A00 		.ascii	"obj\000"
 5165 19d1 01       		.byte	0x1
 5166 19d2 7201     		.2byte	0x172
 5167 19d4 EE120000 		.4byte	0x12ee
 5168 19d8 DE010000 		.4byte	.LLST13
 5169 19dc 28       		.uleb128 0x28
 5170 19dd 6500     		.ascii	"e\000"
 5171 19df 01       		.byte	0x1
 5172 19e0 7201     		.2byte	0x172
 5173 19e2 8C110000 		.4byte	0x118c
 5174 19e6 0A020000 		.4byte	.LLST14
 5175 19ea 2E       		.uleb128 0x2e
 5176 19eb 3E160000 		.4byte	0x163e
 5177 19ef 22000000 		.4byte	.LBB37
 5178 19f3 06000000 		.4byte	.LBE37-.LBB37
 5179 19f7 01       		.byte	0x1
 5180 19f8 7901     		.2byte	0x179
 5181 19fa 181A0000 		.4byte	0x1a18
 5182 19fe 2F       		.uleb128 0x2f
 5183 19ff 4E160000 		.4byte	0x164e
 5184 1a03 2B020000 		.4byte	.LLST15
 5185 1a07 2D       		.uleb128 0x2d
 5186 1a08 28000000 		.4byte	.LVL48
 5187 1a0c F82C0000 		.4byte	0x2cf8
 5188 1a10 2C       		.uleb128 0x2c
 5189 1a11 01       		.uleb128 0x1
 5190 1a12 50       		.byte	0x50
 5191 1a13 02       		.uleb128 0x2
 5192 1a14 75       		.byte	0x75
 5193 1a15 00       		.sleb128 0
 5194 1a16 00       		.byte	0
 5195 1a17 00       		.byte	0
 5196 1a18 2E       		.uleb128 0x2e
 5197 1a19 3E160000 		.4byte	0x163e
 5198 1a1d 72000000 		.4byte	.LBB39
 5199 1a21 06000000 		.4byte	.LBE39-.LBB39
 5200 1a25 01       		.byte	0x1
 5201 1a26 8601     		.2byte	0x186
 5202 1a28 461A0000 		.4byte	0x1a46
 5203 1a2c 2F       		.uleb128 0x2f
 5204 1a2d 4E160000 		.4byte	0x164e
 5205 1a31 3E020000 		.4byte	.LLST16
 5206 1a35 2D       		.uleb128 0x2d
ARM GAS  C:\Users\strap\AppData\Local\Temp\cci64Z2T.s 			page 119


 5207 1a36 78000000 		.4byte	.LVL58
 5208 1a3a F82C0000 		.4byte	0x2cf8
 5209 1a3e 2C       		.uleb128 0x2c
 5210 1a3f 01       		.uleb128 0x1
 5211 1a40 50       		.byte	0x50
 5212 1a41 02       		.uleb128 0x2
 5213 1a42 75       		.byte	0x75
 5214 1a43 00       		.sleb128 0
 5215 1a44 00       		.byte	0
 5216 1a45 00       		.byte	0
 5217 1a46 2E       		.uleb128 0x2e
 5218 1a47 3E160000 		.4byte	0x163e
 5219 1a4b BE000000 		.4byte	.LBB41
 5220 1a4f 06000000 		.4byte	.LBE41-.LBB41
 5221 1a53 01       		.byte	0x1
 5222 1a54 9401     		.2byte	0x194
 5223 1a56 741A0000 		.4byte	0x1a74
 5224 1a5a 2F       		.uleb128 0x2f
 5225 1a5b 4E160000 		.4byte	0x164e
 5226 1a5f 51020000 		.4byte	.LLST17
 5227 1a63 2D       		.uleb128 0x2d
 5228 1a64 C4000000 		.4byte	.LVL68
 5229 1a68 F82C0000 		.4byte	0x2cf8
 5230 1a6c 2C       		.uleb128 0x2c
 5231 1a6d 01       		.uleb128 0x1
 5232 1a6e 50       		.byte	0x50
 5233 1a6f 02       		.uleb128 0x2
 5234 1a70 75       		.byte	0x75
 5235 1a71 00       		.sleb128 0
 5236 1a72 00       		.byte	0
 5237 1a73 00       		.byte	0
 5238 1a74 2B       		.uleb128 0x2b
 5239 1a75 0C000000 		.4byte	.LVL44
 5240 1a79 D72C0000 		.4byte	0x2cd7
 5241 1a7d 8B1A0000 		.4byte	0x1a8b
 5242 1a81 2C       		.uleb128 0x2c
 5243 1a82 01       		.uleb128 0x1
 5244 1a83 50       		.byte	0x50
 5245 1a84 05       		.uleb128 0x5
 5246 1a85 03       		.byte	0x3
 5247 1a86 10000000 		.4byte	.LC1
 5248 1a8a 00       		.byte	0
 5249 1a8b 2B       		.uleb128 0x2b
 5250 1a8c 12000000 		.4byte	.LVL45
 5251 1a90 032D0000 		.4byte	0x2d03
 5252 1a94 9F1A0000 		.4byte	0x1a9f
 5253 1a98 2C       		.uleb128 0x2c
 5254 1a99 01       		.uleb128 0x1
 5255 1a9a 50       		.byte	0x50
 5256 1a9b 02       		.uleb128 0x2
 5257 1a9c 74       		.byte	0x74
 5258 1a9d 00       		.sleb128 0
 5259 1a9e 00       		.byte	0
 5260 1a9f 27       		.uleb128 0x27
 5261 1aa0 16000000 		.4byte	.LVL46
 5262 1aa4 0E2D0000 		.4byte	0x2d0e
 5263 1aa8 2B       		.uleb128 0x2b
ARM GAS  C:\Users\strap\AppData\Local\Temp\cci64Z2T.s 			page 120


 5264 1aa9 34000000 		.4byte	.LVL49
 5265 1aad ED2C0000 		.4byte	0x2ced
 5266 1ab1 BB1A0000 		.4byte	0x1abb
 5267 1ab5 2C       		.uleb128 0x2c
 5268 1ab6 01       		.uleb128 0x1
 5269 1ab7 51       		.byte	0x51
 5270 1ab8 01       		.uleb128 0x1
 5271 1ab9 30       		.byte	0x30
 5272 1aba 00       		.byte	0
 5273 1abb 2B       		.uleb128 0x2b
 5274 1abc 3C000000 		.4byte	.LVL50
 5275 1ac0 ED2C0000 		.4byte	0x2ced
 5276 1ac4 CE1A0000 		.4byte	0x1ace
 5277 1ac8 2C       		.uleb128 0x2c
 5278 1ac9 01       		.uleb128 0x1
 5279 1aca 51       		.byte	0x51
 5280 1acb 01       		.uleb128 0x1
 5281 1acc 30       		.byte	0x30
 5282 1acd 00       		.byte	0
 5283 1ace 27       		.uleb128 0x27
 5284 1acf 44000000 		.4byte	.LVL51
 5285 1ad3 CC2C0000 		.4byte	0x2ccc
 5286 1ad7 2B       		.uleb128 0x2b
 5287 1ad8 4E000000 		.4byte	.LVL52
 5288 1adc C02C0000 		.4byte	0x2cc0
 5289 1ae0 EA1A0000 		.4byte	0x1aea
 5290 1ae4 2C       		.uleb128 0x2c
 5291 1ae5 01       		.uleb128 0x1
 5292 1ae6 51       		.byte	0x51
 5293 1ae7 01       		.uleb128 0x1
 5294 1ae8 30       		.byte	0x30
 5295 1ae9 00       		.byte	0
 5296 1aea 2B       		.uleb128 0x2b
 5297 1aeb 58000000 		.4byte	.LVL53
 5298 1aef C02C0000 		.4byte	0x2cc0
 5299 1af3 FD1A0000 		.4byte	0x1afd
 5300 1af7 2C       		.uleb128 0x2c
 5301 1af8 01       		.uleb128 0x1
 5302 1af9 51       		.byte	0x51
 5303 1afa 01       		.uleb128 0x1
 5304 1afb 30       		.byte	0x30
 5305 1afc 00       		.byte	0
 5306 1afd 2B       		.uleb128 0x2b
 5307 1afe 62000000 		.4byte	.LVL54
 5308 1b02 C02C0000 		.4byte	0x2cc0
 5309 1b06 101B0000 		.4byte	0x1b10
 5310 1b0a 2C       		.uleb128 0x2c
 5311 1b0b 01       		.uleb128 0x1
 5312 1b0c 51       		.byte	0x51
 5313 1b0d 01       		.uleb128 0x1
 5314 1b0e 30       		.byte	0x30
 5315 1b0f 00       		.byte	0
 5316 1b10 27       		.uleb128 0x27
 5317 1b11 68000000 		.4byte	.LVL55
 5318 1b15 E22C0000 		.4byte	0x2ce2
 5319 1b19 2B       		.uleb128 0x2b
 5320 1b1a 84000000 		.4byte	.LVL59
ARM GAS  C:\Users\strap\AppData\Local\Temp\cci64Z2T.s 			page 121


 5321 1b1e ED2C0000 		.4byte	0x2ced
 5322 1b22 2C1B0000 		.4byte	0x1b2c
 5323 1b26 2C       		.uleb128 0x2c
 5324 1b27 01       		.uleb128 0x1
 5325 1b28 51       		.byte	0x51
 5326 1b29 01       		.uleb128 0x1
 5327 1b2a 30       		.byte	0x30
 5328 1b2b 00       		.byte	0
 5329 1b2c 2B       		.uleb128 0x2b
 5330 1b2d 8C000000 		.4byte	.LVL60
 5331 1b31 ED2C0000 		.4byte	0x2ced
 5332 1b35 3F1B0000 		.4byte	0x1b3f
 5333 1b39 2C       		.uleb128 0x2c
 5334 1b3a 01       		.uleb128 0x1
 5335 1b3b 51       		.byte	0x51
 5336 1b3c 01       		.uleb128 0x1
 5337 1b3d 30       		.byte	0x30
 5338 1b3e 00       		.byte	0
 5339 1b3f 2B       		.uleb128 0x2b
 5340 1b40 92000000 		.4byte	.LVL61
 5341 1b44 D72C0000 		.4byte	0x2cd7
 5342 1b48 561B0000 		.4byte	0x1b56
 5343 1b4c 2C       		.uleb128 0x2c
 5344 1b4d 01       		.uleb128 0x1
 5345 1b4e 50       		.byte	0x50
 5346 1b4f 05       		.uleb128 0x5
 5347 1b50 03       		.byte	0x3
 5348 1b51 28000000 		.4byte	.LC2
 5349 1b55 00       		.byte	0
 5350 1b56 27       		.uleb128 0x27
 5351 1b57 9A000000 		.4byte	.LVL62
 5352 1b5b CC2C0000 		.4byte	0x2ccc
 5353 1b5f 2B       		.uleb128 0x2b
 5354 1b60 A4000000 		.4byte	.LVL63
 5355 1b64 C02C0000 		.4byte	0x2cc0
 5356 1b68 721B0000 		.4byte	0x1b72
 5357 1b6c 2C       		.uleb128 0x2c
 5358 1b6d 01       		.uleb128 0x1
 5359 1b6e 51       		.byte	0x51
 5360 1b6f 01       		.uleb128 0x1
 5361 1b70 30       		.byte	0x30
 5362 1b71 00       		.byte	0
 5363 1b72 2B       		.uleb128 0x2b
 5364 1b73 AE000000 		.4byte	.LVL64
 5365 1b77 C02C0000 		.4byte	0x2cc0
 5366 1b7b 851B0000 		.4byte	0x1b85
 5367 1b7f 2C       		.uleb128 0x2c
 5368 1b80 01       		.uleb128 0x1
 5369 1b81 51       		.byte	0x51
 5370 1b82 01       		.uleb128 0x1
 5371 1b83 30       		.byte	0x30
 5372 1b84 00       		.byte	0
 5373 1b85 27       		.uleb128 0x27
 5374 1b86 B4000000 		.4byte	.LVL65
 5375 1b8a E22C0000 		.4byte	0x2ce2
 5376 1b8e 2B       		.uleb128 0x2b
 5377 1b8f D0000000 		.4byte	.LVL69
ARM GAS  C:\Users\strap\AppData\Local\Temp\cci64Z2T.s 			page 122


 5378 1b93 ED2C0000 		.4byte	0x2ced
 5379 1b97 A11B0000 		.4byte	0x1ba1
 5380 1b9b 2C       		.uleb128 0x2c
 5381 1b9c 01       		.uleb128 0x1
 5382 1b9d 51       		.byte	0x51
 5383 1b9e 01       		.uleb128 0x1
 5384 1b9f 30       		.byte	0x30
 5385 1ba0 00       		.byte	0
 5386 1ba1 2B       		.uleb128 0x2b
 5387 1ba2 D8000000 		.4byte	.LVL70
 5388 1ba6 ED2C0000 		.4byte	0x2ced
 5389 1baa B41B0000 		.4byte	0x1bb4
 5390 1bae 2C       		.uleb128 0x2c
 5391 1baf 01       		.uleb128 0x1
 5392 1bb0 51       		.byte	0x51
 5393 1bb1 01       		.uleb128 0x1
 5394 1bb2 30       		.byte	0x30
 5395 1bb3 00       		.byte	0
 5396 1bb4 27       		.uleb128 0x27
 5397 1bb5 E0000000 		.4byte	.LVL71
 5398 1bb9 CC2C0000 		.4byte	0x2ccc
 5399 1bbd 2B       		.uleb128 0x2b
 5400 1bbe EA000000 		.4byte	.LVL72
 5401 1bc2 C02C0000 		.4byte	0x2cc0
 5402 1bc6 D01B0000 		.4byte	0x1bd0
 5403 1bca 2C       		.uleb128 0x2c
 5404 1bcb 01       		.uleb128 0x1
 5405 1bcc 51       		.byte	0x51
 5406 1bcd 01       		.uleb128 0x1
 5407 1bce 30       		.byte	0x30
 5408 1bcf 00       		.byte	0
 5409 1bd0 2B       		.uleb128 0x2b
 5410 1bd1 F4000000 		.4byte	.LVL73
 5411 1bd5 C02C0000 		.4byte	0x2cc0
 5412 1bd9 E31B0000 		.4byte	0x1be3
 5413 1bdd 2C       		.uleb128 0x2c
 5414 1bde 01       		.uleb128 0x1
 5415 1bdf 51       		.byte	0x51
 5416 1be0 01       		.uleb128 0x1
 5417 1be1 30       		.byte	0x30
 5418 1be2 00       		.byte	0
 5419 1be3 27       		.uleb128 0x27
 5420 1be4 FA000000 		.4byte	.LVL74
 5421 1be8 E22C0000 		.4byte	0x2ce2
 5422 1bec 00       		.byte	0
 5423 1bed 23       		.uleb128 0x23
 5424 1bee BE010000 		.4byte	.LASF480
 5425 1bf2 01       		.byte	0x1
 5426 1bf3 4402     		.2byte	0x244
 5427 1bf5 00000000 		.4byte	.LFB457
 5428 1bf9 90000000 		.4byte	.LFE457-.LFB457
 5429 1bfd 01       		.uleb128 0x1
 5430 1bfe 9C       		.byte	0x9c
 5431 1bff 901D0000 		.4byte	0x1d90
 5432 1c03 29       		.uleb128 0x29
 5433 1c04 A7210000 		.4byte	.LASF119
 5434 1c08 01       		.byte	0x1
ARM GAS  C:\Users\strap\AppData\Local\Temp\cci64Z2T.s 			page 123


 5435 1c09 4402     		.2byte	0x244
 5436 1c0b EE120000 		.4byte	0x12ee
 5437 1c0f 64020000 		.4byte	.LLST18
 5438 1c13 2E       		.uleb128 0x2e
 5439 1c14 C0160000 		.4byte	0x16c0
 5440 1c18 36000000 		.4byte	.LBB43
 5441 1c1c 0C000000 		.4byte	.LBE43-.LBB43
 5442 1c20 01       		.byte	0x1
 5443 1c21 5102     		.2byte	0x251
 5444 1c23 6A1C0000 		.4byte	0x1c6a
 5445 1c27 2F       		.uleb128 0x2f
 5446 1c28 ED160000 		.4byte	0x16ed
 5447 1c2c 90020000 		.4byte	.LLST19
 5448 1c30 2F       		.uleb128 0x2f
 5449 1c31 E2160000 		.4byte	0x16e2
 5450 1c35 A8020000 		.4byte	.LLST20
 5451 1c39 2F       		.uleb128 0x2f
 5452 1c3a D7160000 		.4byte	0x16d7
 5453 1c3e A8020000 		.4byte	.LLST20
 5454 1c42 2F       		.uleb128 0x2f
 5455 1c43 CC160000 		.4byte	0x16cc
 5456 1c47 BC020000 		.4byte	.LLST22
 5457 1c4b 2D       		.uleb128 0x2d
 5458 1c4c 42000000 		.4byte	.LVL83
 5459 1c50 192D0000 		.4byte	0x2d19
 5460 1c54 2C       		.uleb128 0x2c
 5461 1c55 01       		.uleb128 0x1
 5462 1c56 51       		.byte	0x51
 5463 1c57 01       		.uleb128 0x1
 5464 1c58 30       		.byte	0x30
 5465 1c59 2C       		.uleb128 0x2c
 5466 1c5a 01       		.uleb128 0x1
 5467 1c5b 52       		.byte	0x52
 5468 1c5c 02       		.uleb128 0x2
 5469 1c5d 08       		.byte	0x8
 5470 1c5e 7F       		.byte	0x7f
 5471 1c5f 2C       		.uleb128 0x2c
 5472 1c60 01       		.uleb128 0x1
 5473 1c61 53       		.byte	0x53
 5474 1c62 05       		.uleb128 0x5
 5475 1c63 03       		.byte	0x3
 5476 1c64 44000000 		.4byte	.LC4
 5477 1c68 00       		.byte	0
 5478 1c69 00       		.byte	0
 5479 1c6a 2E       		.uleb128 0x2e
 5480 1c6b 92160000 		.4byte	0x1692
 5481 1c6f 42000000 		.4byte	.LBB45
 5482 1c73 0E000000 		.4byte	.LBE45-.LBB45
 5483 1c77 01       		.byte	0x1
 5484 1c78 5202     		.2byte	0x252
 5485 1c7a E41C0000 		.4byte	0x1ce4
 5486 1c7e 2F       		.uleb128 0x2f
 5487 1c7f B4160000 		.4byte	0x16b4
 5488 1c83 D3020000 		.4byte	.LLST23
 5489 1c87 2F       		.uleb128 0x2f
 5490 1c88 A9160000 		.4byte	0x16a9
 5491 1c8c E7020000 		.4byte	.LLST24
ARM GAS  C:\Users\strap\AppData\Local\Temp\cci64Z2T.s 			page 124


 5492 1c90 2F       		.uleb128 0x2f
 5493 1c91 9E160000 		.4byte	0x169e
 5494 1c95 FB020000 		.4byte	.LLST25
 5495 1c99 30       		.uleb128 0x30
 5496 1c9a 64160000 		.4byte	0x1664
 5497 1c9e 42000000 		.4byte	.LBB46
 5498 1ca2 0E000000 		.4byte	.LBE46-.LBB46
 5499 1ca6 16       		.byte	0x16
 5500 1ca7 87       		.byte	0x87
 5501 1ca8 2F       		.uleb128 0x2f
 5502 1ca9 86160000 		.4byte	0x1686
 5503 1cad D3020000 		.4byte	.LLST23
 5504 1cb1 2F       		.uleb128 0x2f
 5505 1cb2 7B160000 		.4byte	0x167b
 5506 1cb6 E7020000 		.4byte	.LLST24
 5507 1cba 2F       		.uleb128 0x2f
 5508 1cbb 70160000 		.4byte	0x1670
 5509 1cbf FB020000 		.4byte	.LLST25
 5510 1cc3 2D       		.uleb128 0x2d
 5511 1cc4 50000000 		.4byte	.LVL84
 5512 1cc8 252D0000 		.4byte	0x2d25
 5513 1ccc 2C       		.uleb128 0x2c
 5514 1ccd 01       		.uleb128 0x1
 5515 1cce 51       		.byte	0x51
 5516 1ccf 01       		.uleb128 0x1
 5517 1cd0 32       		.byte	0x32
 5518 1cd1 2C       		.uleb128 0x2c
 5519 1cd2 01       		.uleb128 0x1
 5520 1cd3 52       		.byte	0x52
 5521 1cd4 01       		.uleb128 0x1
 5522 1cd5 32       		.byte	0x32
 5523 1cd6 2C       		.uleb128 0x2c
 5524 1cd7 01       		.uleb128 0x1
 5525 1cd8 53       		.byte	0x53
 5526 1cd9 01       		.uleb128 0x1
 5527 1cda 30       		.byte	0x30
 5528 1cdb 2C       		.uleb128 0x2c
 5529 1cdc 02       		.uleb128 0x2
 5530 1cdd 7D       		.byte	0x7d
 5531 1cde 00       		.sleb128 0
 5532 1cdf 01       		.uleb128 0x1
 5533 1ce0 30       		.byte	0x30
 5534 1ce1 00       		.byte	0
 5535 1ce2 00       		.byte	0
 5536 1ce3 00       		.byte	0
 5537 1ce4 2B       		.uleb128 0x2b
 5538 1ce5 0C000000 		.4byte	.LVL77
 5539 1ce9 302D0000 		.4byte	0x2d30
 5540 1ced FD1C0000 		.4byte	0x1cfd
 5541 1cf1 2C       		.uleb128 0x2c
 5542 1cf2 01       		.uleb128 0x1
 5543 1cf3 50       		.byte	0x50
 5544 1cf4 02       		.uleb128 0x2
 5545 1cf5 74       		.byte	0x74
 5546 1cf6 00       		.sleb128 0
 5547 1cf7 2C       		.uleb128 0x2c
 5548 1cf8 01       		.uleb128 0x1
ARM GAS  C:\Users\strap\AppData\Local\Temp\cci64Z2T.s 			page 125


 5549 1cf9 51       		.byte	0x51
 5550 1cfa 01       		.uleb128 0x1
 5551 1cfb 30       		.byte	0x30
 5552 1cfc 00       		.byte	0
 5553 1cfd 2B       		.uleb128 0x2b
 5554 1cfe 18000000 		.4byte	.LVL78
 5555 1d02 3B2D0000 		.4byte	0x2d3b
 5556 1d06 161D0000 		.4byte	0x1d16
 5557 1d0a 2C       		.uleb128 0x2c
 5558 1d0b 01       		.uleb128 0x1
 5559 1d0c 50       		.byte	0x50
 5560 1d0d 02       		.uleb128 0x2
 5561 1d0e 74       		.byte	0x74
 5562 1d0f 00       		.sleb128 0
 5563 1d10 2C       		.uleb128 0x2c
 5564 1d11 01       		.uleb128 0x1
 5565 1d12 51       		.byte	0x51
 5566 1d13 01       		.uleb128 0x1
 5567 1d14 30       		.byte	0x30
 5568 1d15 00       		.byte	0
 5569 1d16 2B       		.uleb128 0x2b
 5570 1d17 24000000 		.4byte	.LVL80
 5571 1d1b 462D0000 		.4byte	0x2d46
 5572 1d1f 2D1D0000 		.4byte	0x1d2d
 5573 1d23 2C       		.uleb128 0x2c
 5574 1d24 01       		.uleb128 0x1
 5575 1d25 51       		.byte	0x51
 5576 1d26 05       		.uleb128 0x5
 5577 1d27 03       		.byte	0x3
 5578 1d28 38000000 		.4byte	.LC3
 5579 1d2c 00       		.byte	0
 5580 1d2d 27       		.uleb128 0x27
 5581 1d2e 2E000000 		.4byte	.LVL81
 5582 1d32 512D0000 		.4byte	0x2d51
 5583 1d36 27       		.uleb128 0x27
 5584 1d37 36000000 		.4byte	.LVL82
 5585 1d3b 512D0000 		.4byte	0x2d51
 5586 1d3f 2B       		.uleb128 0x2b
 5587 1d40 58000000 		.4byte	.LVL85
 5588 1d44 5C2D0000 		.4byte	0x2d5c
 5589 1d48 561D0000 		.4byte	0x1d56
 5590 1d4c 2C       		.uleb128 0x2c
 5591 1d4d 01       		.uleb128 0x1
 5592 1d4e 51       		.byte	0x51
 5593 1d4f 05       		.uleb128 0x5
 5594 1d50 03       		.byte	0x3
 5595 1d51 00000000 		.4byte	voltage_ddlist_handler
 5596 1d55 00       		.byte	0
 5597 1d56 2B       		.uleb128 0x2b
 5598 1d57 60000000 		.4byte	.LVL86
 5599 1d5b 5C2D0000 		.4byte	0x2d5c
 5600 1d5f 6D1D0000 		.4byte	0x1d6d
 5601 1d63 2C       		.uleb128 0x2c
 5602 1d64 01       		.uleb128 0x1
 5603 1d65 51       		.byte	0x51
 5604 1d66 05       		.uleb128 0x5
 5605 1d67 03       		.byte	0x3
ARM GAS  C:\Users\strap\AppData\Local\Temp\cci64Z2T.s 			page 126


 5606 1d68 00000000 		.4byte	voltage_ok_btn_handler
 5607 1d6c 00       		.byte	0
 5608 1d6d 2B       		.uleb128 0x2b
 5609 1d6e 68000000 		.4byte	.LVL87
 5610 1d72 C02C0000 		.4byte	0x2cc0
 5611 1d76 801D0000 		.4byte	0x1d80
 5612 1d7a 2C       		.uleb128 0x2c
 5613 1d7b 01       		.uleb128 0x1
 5614 1d7c 51       		.byte	0x51
 5615 1d7d 01       		.uleb128 0x1
 5616 1d7e 31       		.byte	0x31
 5617 1d7f 00       		.byte	0
 5618 1d80 2D       		.uleb128 0x2d
 5619 1d81 70000000 		.4byte	.LVL88
 5620 1d85 C02C0000 		.4byte	0x2cc0
 5621 1d89 2C       		.uleb128 0x2c
 5622 1d8a 01       		.uleb128 0x1
 5623 1d8b 51       		.byte	0x51
 5624 1d8c 01       		.uleb128 0x1
 5625 1d8d 31       		.byte	0x31
 5626 1d8e 00       		.byte	0
 5627 1d8f 00       		.byte	0
 5628 1d90 23       		.uleb128 0x23
 5629 1d91 DB150000 		.4byte	.LASF481
 5630 1d95 01       		.byte	0x1
 5631 1d96 E601     		.2byte	0x1e6
 5632 1d98 00000000 		.4byte	.LFB453
 5633 1d9c 0C010000 		.4byte	.LFE453-.LFB453
 5634 1da0 01       		.uleb128 0x1
 5635 1da1 9C       		.byte	0x9c
 5636 1da2 47200000 		.4byte	0x2047
 5637 1da6 29       		.uleb128 0x29
 5638 1da7 A7210000 		.4byte	.LASF119
 5639 1dab 01       		.byte	0x1
 5640 1dac E601     		.2byte	0x1e6
 5641 1dae EE120000 		.4byte	0x12ee
 5642 1db2 12030000 		.4byte	.LLST29
 5643 1db6 26       		.uleb128 0x26
 5644 1db7 88240000 		.4byte	.LASF482
 5645 1dbb 01       		.byte	0x1
 5646 1dbc FC01     		.2byte	0x1fc
 5647 1dbe 2A010000 		.4byte	0x12a
 5648 1dc2 3E030000 		.4byte	.LLST30
 5649 1dc6 2E       		.uleb128 0x2e
 5650 1dc7 C0160000 		.4byte	0x16c0
 5651 1dcb 7A000000 		.4byte	.LBB48
 5652 1dcf 0C000000 		.4byte	.LBE48-.LBB48
 5653 1dd3 01       		.byte	0x1
 5654 1dd4 0002     		.2byte	0x200
 5655 1dd6 1D1E0000 		.4byte	0x1e1d
 5656 1dda 2F       		.uleb128 0x2f
 5657 1ddb ED160000 		.4byte	0x16ed
 5658 1ddf 5C030000 		.4byte	.LLST31
 5659 1de3 2F       		.uleb128 0x2f
 5660 1de4 E2160000 		.4byte	0x16e2
 5661 1de8 74030000 		.4byte	.LLST32
 5662 1dec 2F       		.uleb128 0x2f
ARM GAS  C:\Users\strap\AppData\Local\Temp\cci64Z2T.s 			page 127


 5663 1ded D7160000 		.4byte	0x16d7
 5664 1df1 74030000 		.4byte	.LLST32
 5665 1df5 2F       		.uleb128 0x2f
 5666 1df6 CC160000 		.4byte	0x16cc
 5667 1dfa 88030000 		.4byte	.LLST34
 5668 1dfe 2D       		.uleb128 0x2d
 5669 1dff 86000000 		.4byte	.LVL104
 5670 1e03 192D0000 		.4byte	0x2d19
 5671 1e07 2C       		.uleb128 0x2c
 5672 1e08 01       		.uleb128 0x1
 5673 1e09 51       		.byte	0x51
 5674 1e0a 01       		.uleb128 0x1
 5675 1e0b 30       		.byte	0x30
 5676 1e0c 2C       		.uleb128 0x2c
 5677 1e0d 01       		.uleb128 0x1
 5678 1e0e 52       		.byte	0x52
 5679 1e0f 02       		.uleb128 0x2
 5680 1e10 08       		.byte	0x8
 5681 1e11 7F       		.byte	0x7f
 5682 1e12 2C       		.uleb128 0x2c
 5683 1e13 01       		.uleb128 0x1
 5684 1e14 53       		.byte	0x53
 5685 1e15 05       		.uleb128 0x5
 5686 1e16 03       		.byte	0x3
 5687 1e17 44000000 		.4byte	.LC4
 5688 1e1b 00       		.byte	0
 5689 1e1c 00       		.byte	0
 5690 1e1d 2E       		.uleb128 0x2e
 5691 1e1e 92160000 		.4byte	0x1692
 5692 1e22 86000000 		.4byte	.LBB50
 5693 1e26 10000000 		.4byte	.LBE50-.LBB50
 5694 1e2a 01       		.byte	0x1
 5695 1e2b 0102     		.2byte	0x201
 5696 1e2d 991E0000 		.4byte	0x1e99
 5697 1e31 2F       		.uleb128 0x2f
 5698 1e32 B4160000 		.4byte	0x16b4
 5699 1e36 9F030000 		.4byte	.LLST35
 5700 1e3a 2F       		.uleb128 0x2f
 5701 1e3b A9160000 		.4byte	0x16a9
 5702 1e3f B3030000 		.4byte	.LLST36
 5703 1e43 2F       		.uleb128 0x2f
 5704 1e44 9E160000 		.4byte	0x169e
 5705 1e48 C7030000 		.4byte	.LLST37
 5706 1e4c 30       		.uleb128 0x30
 5707 1e4d 64160000 		.4byte	0x1664
 5708 1e51 86000000 		.4byte	.LBB51
 5709 1e55 10000000 		.4byte	.LBE51-.LBB51
 5710 1e59 16       		.byte	0x16
 5711 1e5a 87       		.byte	0x87
 5712 1e5b 2F       		.uleb128 0x2f
 5713 1e5c 86160000 		.4byte	0x1686
 5714 1e60 9F030000 		.4byte	.LLST35
 5715 1e64 2F       		.uleb128 0x2f
 5716 1e65 7B160000 		.4byte	0x167b
 5717 1e69 B3030000 		.4byte	.LLST36
 5718 1e6d 2F       		.uleb128 0x2f
 5719 1e6e 70160000 		.4byte	0x1670
ARM GAS  C:\Users\strap\AppData\Local\Temp\cci64Z2T.s 			page 128


 5720 1e72 C7030000 		.4byte	.LLST37
 5721 1e76 2D       		.uleb128 0x2d
 5722 1e77 96000000 		.4byte	.LVL106
 5723 1e7b 252D0000 		.4byte	0x2d25
 5724 1e7f 2C       		.uleb128 0x2c
 5725 1e80 01       		.uleb128 0x1
 5726 1e81 51       		.byte	0x51
 5727 1e82 01       		.uleb128 0x1
 5728 1e83 32       		.byte	0x32
 5729 1e84 2C       		.uleb128 0x2c
 5730 1e85 01       		.uleb128 0x1
 5731 1e86 52       		.byte	0x52
 5732 1e87 01       		.uleb128 0x1
 5733 1e88 32       		.byte	0x32
 5734 1e89 2C       		.uleb128 0x2c
 5735 1e8a 01       		.uleb128 0x1
 5736 1e8b 53       		.byte	0x53
 5737 1e8c 02       		.uleb128 0x2
 5738 1e8d 77       		.byte	0x77
 5739 1e8e 00       		.sleb128 0
 5740 1e8f 2C       		.uleb128 0x2c
 5741 1e90 02       		.uleb128 0x2
 5742 1e91 7D       		.byte	0x7d
 5743 1e92 00       		.sleb128 0
 5744 1e93 02       		.uleb128 0x2
 5745 1e94 77       		.byte	0x77
 5746 1e95 00       		.sleb128 0
 5747 1e96 00       		.byte	0
 5748 1e97 00       		.byte	0
 5749 1e98 00       		.byte	0
 5750 1e99 2B       		.uleb128 0x2b
 5751 1e9a 0C000000 		.4byte	.LVL90
 5752 1e9e 302D0000 		.4byte	0x2d30
 5753 1ea2 B21E0000 		.4byte	0x1eb2
 5754 1ea6 2C       		.uleb128 0x2c
 5755 1ea7 01       		.uleb128 0x1
 5756 1ea8 50       		.byte	0x50
 5757 1ea9 02       		.uleb128 0x2
 5758 1eaa 77       		.byte	0x77
 5759 1eab 00       		.sleb128 0
 5760 1eac 2C       		.uleb128 0x2c
 5761 1ead 01       		.uleb128 0x1
 5762 1eae 51       		.byte	0x51
 5763 1eaf 01       		.uleb128 0x1
 5764 1eb0 30       		.byte	0x30
 5765 1eb1 00       		.byte	0
 5766 1eb2 2B       		.uleb128 0x2b
 5767 1eb3 18000000 		.4byte	.LVL91
 5768 1eb7 682D0000 		.4byte	0x2d68
 5769 1ebb CB1E0000 		.4byte	0x1ecb
 5770 1ebf 2C       		.uleb128 0x2c
 5771 1ec0 01       		.uleb128 0x1
 5772 1ec1 50       		.byte	0x50
 5773 1ec2 02       		.uleb128 0x2
 5774 1ec3 77       		.byte	0x77
 5775 1ec4 00       		.sleb128 0
 5776 1ec5 2C       		.uleb128 0x2c
ARM GAS  C:\Users\strap\AppData\Local\Temp\cci64Z2T.s 			page 129


 5777 1ec6 01       		.uleb128 0x1
 5778 1ec7 51       		.byte	0x51
 5779 1ec8 01       		.uleb128 0x1
 5780 1ec9 30       		.byte	0x30
 5781 1eca 00       		.byte	0
 5782 1ecb 2B       		.uleb128 0x2b
 5783 1ecc 24000000 		.4byte	.LVL92
 5784 1ed0 3B2D0000 		.4byte	0x2d3b
 5785 1ed4 E41E0000 		.4byte	0x1ee4
 5786 1ed8 2C       		.uleb128 0x2c
 5787 1ed9 01       		.uleb128 0x1
 5788 1eda 50       		.byte	0x50
 5789 1edb 02       		.uleb128 0x2
 5790 1edc 77       		.byte	0x77
 5791 1edd 00       		.sleb128 0
 5792 1ede 2C       		.uleb128 0x2c
 5793 1edf 01       		.uleb128 0x1
 5794 1ee0 51       		.byte	0x51
 5795 1ee1 01       		.uleb128 0x1
 5796 1ee2 30       		.byte	0x30
 5797 1ee3 00       		.byte	0
 5798 1ee4 2B       		.uleb128 0x2b
 5799 1ee5 30000000 		.4byte	.LVL93
 5800 1ee9 462D0000 		.4byte	0x2d46
 5801 1eed FB1E0000 		.4byte	0x1efb
 5802 1ef1 2C       		.uleb128 0x2c
 5803 1ef2 01       		.uleb128 0x1
 5804 1ef3 51       		.byte	0x51
 5805 1ef4 05       		.uleb128 0x5
 5806 1ef5 03       		.byte	0x3
 5807 1ef6 48000000 		.4byte	.LC5
 5808 1efa 00       		.byte	0
 5809 1efb 2B       		.uleb128 0x2b
 5810 1efc 3A000000 		.4byte	.LVL94
 5811 1f00 732D0000 		.4byte	0x2d73
 5812 1f04 141F0000 		.4byte	0x1f14
 5813 1f08 2C       		.uleb128 0x2c
 5814 1f09 01       		.uleb128 0x1
 5815 1f0a 51       		.byte	0x51
 5816 1f0b 01       		.uleb128 0x1
 5817 1f0c 31       		.byte	0x31
 5818 1f0d 2C       		.uleb128 0x2c
 5819 1f0e 01       		.uleb128 0x1
 5820 1f0f 52       		.byte	0x52
 5821 1f10 02       		.uleb128 0x2
 5822 1f11 08       		.byte	0x8
 5823 1f12 80       		.byte	0x80
 5824 1f13 00       		.byte	0
 5825 1f14 2B       		.uleb128 0x2b
 5826 1f15 44000000 		.4byte	.LVL95
 5827 1f19 7E2D0000 		.4byte	0x2d7e
 5828 1f1d 2C1F0000 		.4byte	0x1f2c
 5829 1f21 2C       		.uleb128 0x2c
 5830 1f22 01       		.uleb128 0x1
 5831 1f23 51       		.byte	0x51
 5832 1f24 01       		.uleb128 0x1
 5833 1f25 33       		.byte	0x33
ARM GAS  C:\Users\strap\AppData\Local\Temp\cci64Z2T.s 			page 130


 5834 1f26 2C       		.uleb128 0x2c
 5835 1f27 01       		.uleb128 0x1
 5836 1f28 52       		.byte	0x52
 5837 1f29 01       		.uleb128 0x1
 5838 1f2a 30       		.byte	0x30
 5839 1f2b 00       		.byte	0
 5840 1f2c 2B       		.uleb128 0x2b
 5841 1f2d 4C000000 		.4byte	.LVL96
 5842 1f31 892D0000 		.4byte	0x2d89
 5843 1f35 3F1F0000 		.4byte	0x1f3f
 5844 1f39 2C       		.uleb128 0x2c
 5845 1f3a 01       		.uleb128 0x1
 5846 1f3b 51       		.byte	0x51
 5847 1f3c 01       		.uleb128 0x1
 5848 1f3d 31       		.byte	0x31
 5849 1f3e 00       		.byte	0
 5850 1f3f 2B       		.uleb128 0x2b
 5851 1f40 54000000 		.4byte	.LVL97
 5852 1f44 942D0000 		.4byte	0x2d94
 5853 1f48 521F0000 		.4byte	0x1f52
 5854 1f4c 2C       		.uleb128 0x2c
 5855 1f4d 01       		.uleb128 0x1
 5856 1f4e 51       		.byte	0x51
 5857 1f4f 01       		.uleb128 0x1
 5858 1f50 31       		.byte	0x31
 5859 1f51 00       		.byte	0
 5860 1f52 2B       		.uleb128 0x2b
 5861 1f53 5C000000 		.4byte	.LVL98
 5862 1f57 9F2D0000 		.4byte	0x2d9f
 5863 1f5b 661F0000 		.4byte	0x1f66
 5864 1f5f 2C       		.uleb128 0x2c
 5865 1f60 01       		.uleb128 0x1
 5866 1f61 51       		.byte	0x51
 5867 1f62 02       		.uleb128 0x2
 5868 1f63 08       		.byte	0x8
 5869 1f64 20       		.byte	0x20
 5870 1f65 00       		.byte	0
 5871 1f66 2B       		.uleb128 0x2b
 5872 1f67 62000000 		.4byte	.LVL99
 5873 1f6b AB2D0000 		.4byte	0x2dab
 5874 1f6f 7A1F0000 		.4byte	0x1f7a
 5875 1f73 2C       		.uleb128 0x2c
 5876 1f74 01       		.uleb128 0x1
 5877 1f75 50       		.byte	0x50
 5878 1f76 02       		.uleb128 0x2
 5879 1f77 77       		.byte	0x77
 5880 1f78 00       		.sleb128 0
 5881 1f79 00       		.byte	0
 5882 1f7a 2B       		.uleb128 0x2b
 5883 1f7b 6E000000 		.4byte	.LVL102
 5884 1f7f B72D0000 		.4byte	0x2db7
 5885 1f83 8E1F0000 		.4byte	0x1f8e
 5886 1f87 2C       		.uleb128 0x2c
 5887 1f88 01       		.uleb128 0x1
 5888 1f89 51       		.byte	0x51
 5889 1f8a 02       		.uleb128 0x2
 5890 1f8b 77       		.byte	0x77
ARM GAS  C:\Users\strap\AppData\Local\Temp\cci64Z2T.s 			page 131


 5891 1f8c 7B       		.sleb128 -5
 5892 1f8d 00       		.byte	0
 5893 1f8e 2B       		.uleb128 0x2b
 5894 1f8f 7A000000 		.4byte	.LVL103
 5895 1f93 B72D0000 		.4byte	0x2db7
 5896 1f97 A21F0000 		.4byte	0x1fa2
 5897 1f9b 2C       		.uleb128 0x2c
 5898 1f9c 01       		.uleb128 0x1
 5899 1f9d 51       		.byte	0x51
 5900 1f9e 02       		.uleb128 0x2
 5901 1f9f 77       		.byte	0x77
 5902 1fa0 6C       		.sleb128 -20
 5903 1fa1 00       		.byte	0
 5904 1fa2 2B       		.uleb128 0x2b
 5905 1fa3 A4000000 		.4byte	.LVL107
 5906 1fa7 C32D0000 		.4byte	0x2dc3
 5907 1fab C81F0000 		.4byte	0x1fc8
 5908 1faf 2C       		.uleb128 0x2c
 5909 1fb0 01       		.uleb128 0x1
 5910 1fb1 51       		.byte	0x51
 5911 1fb2 02       		.uleb128 0x2
 5912 1fb3 77       		.byte	0x77
 5913 1fb4 00       		.sleb128 0
 5914 1fb5 2C       		.uleb128 0x2c
 5915 1fb6 01       		.uleb128 0x1
 5916 1fb7 52       		.byte	0x52
 5917 1fb8 01       		.uleb128 0x1
 5918 1fb9 35       		.byte	0x35
 5919 1fba 2C       		.uleb128 0x2c
 5920 1fbb 01       		.uleb128 0x1
 5921 1fbc 53       		.byte	0x53
 5922 1fbd 02       		.uleb128 0x2
 5923 1fbe 77       		.byte	0x77
 5924 1fbf 00       		.sleb128 0
 5925 1fc0 2C       		.uleb128 0x2c
 5926 1fc1 02       		.uleb128 0x2
 5927 1fc2 7D       		.byte	0x7d
 5928 1fc3 00       		.sleb128 0
 5929 1fc4 02       		.uleb128 0x2
 5930 1fc5 77       		.byte	0x77
 5931 1fc6 00       		.sleb128 0
 5932 1fc7 00       		.byte	0
 5933 1fc8 2B       		.uleb128 0x2b
 5934 1fc9 AC000000 		.4byte	.LVL108
 5935 1fcd 5C2D0000 		.4byte	0x2d5c
 5936 1fd1 DF1F0000 		.4byte	0x1fdf
 5937 1fd5 2C       		.uleb128 0x2c
 5938 1fd6 01       		.uleb128 0x1
 5939 1fd7 51       		.byte	0x51
 5940 1fd8 05       		.uleb128 0x5
 5941 1fd9 03       		.byte	0x3
 5942 1fda 00000000 		.4byte	burst_type_list_handler
 5943 1fde 00       		.byte	0
 5944 1fdf 2B       		.uleb128 0x2b
 5945 1fe0 B4000000 		.4byte	.LVL109
 5946 1fe4 5C2D0000 		.4byte	0x2d5c
 5947 1fe8 F61F0000 		.4byte	0x1ff6
ARM GAS  C:\Users\strap\AppData\Local\Temp\cci64Z2T.s 			page 132


 5948 1fec 2C       		.uleb128 0x2c
 5949 1fed 01       		.uleb128 0x1
 5950 1fee 51       		.byte	0x51
 5951 1fef 05       		.uleb128 0x5
 5952 1ff0 03       		.byte	0x3
 5953 1ff1 00000000 		.4byte	type_param_ok_callback
 5954 1ff5 00       		.byte	0
 5955 1ff6 27       		.uleb128 0x27
 5956 1ff7 BE000000 		.4byte	.LVL110
 5957 1ffb 512D0000 		.4byte	0x2d51
 5958 1fff 27       		.uleb128 0x27
 5959 2000 C6000000 		.4byte	.LVL111
 5960 2004 512D0000 		.4byte	0x2d51
 5961 2008 27       		.uleb128 0x27
 5962 2009 CE000000 		.4byte	.LVL112
 5963 200d 512D0000 		.4byte	0x2d51
 5964 2011 2B       		.uleb128 0x2b
 5965 2012 D6000000 		.4byte	.LVL113
 5966 2016 C02C0000 		.4byte	0x2cc0
 5967 201a 24200000 		.4byte	0x2024
 5968 201e 2C       		.uleb128 0x2c
 5969 201f 01       		.uleb128 0x1
 5970 2020 51       		.byte	0x51
 5971 2021 01       		.uleb128 0x1
 5972 2022 31       		.byte	0x31
 5973 2023 00       		.byte	0
 5974 2024 2B       		.uleb128 0x2b
 5975 2025 DE000000 		.4byte	.LVL114
 5976 2029 C02C0000 		.4byte	0x2cc0
 5977 202d 37200000 		.4byte	0x2037
 5978 2031 2C       		.uleb128 0x2c
 5979 2032 01       		.uleb128 0x1
 5980 2033 51       		.byte	0x51
 5981 2034 01       		.uleb128 0x1
 5982 2035 31       		.byte	0x31
 5983 2036 00       		.byte	0
 5984 2037 2D       		.uleb128 0x2d
 5985 2038 E6000000 		.4byte	.LVL115
 5986 203c C02C0000 		.4byte	0x2cc0
 5987 2040 2C       		.uleb128 0x2c
 5988 2041 01       		.uleb128 0x1
 5989 2042 51       		.byte	0x51
 5990 2043 01       		.uleb128 0x1
 5991 2044 31       		.byte	0x31
 5992 2045 00       		.byte	0
 5993 2046 00       		.byte	0
 5994 2047 23       		.uleb128 0x23
 5995 2048 A31A0000 		.4byte	.LASF483
 5996 204c 01       		.byte	0x1
 5997 204d 6D02     		.2byte	0x26d
 5998 204f 00000000 		.4byte	.LFB459
 5999 2053 B0000000 		.4byte	.LFE459-.LFB459
 6000 2057 01       		.uleb128 0x1
 6001 2058 9C       		.byte	0x9c
 6002 2059 43220000 		.4byte	0x2243
 6003 205d 29       		.uleb128 0x29
 6004 205e A7210000 		.4byte	.LASF119
ARM GAS  C:\Users\strap\AppData\Local\Temp\cci64Z2T.s 			page 133


 6005 2062 01       		.byte	0x1
 6006 2063 6D02     		.2byte	0x26d
 6007 2065 EE120000 		.4byte	0x12ee
 6008 2069 DE030000 		.4byte	.LLST41
 6009 206d 26       		.uleb128 0x26
 6010 206e 88240000 		.4byte	.LASF482
 6011 2072 01       		.byte	0x1
 6012 2073 7902     		.2byte	0x279
 6013 2075 2A010000 		.4byte	0x12a
 6014 2079 0A040000 		.4byte	.LLST42
 6015 207d 2E       		.uleb128 0x2e
 6016 207e C0160000 		.4byte	0x16c0
 6017 2082 50000000 		.4byte	.LBB53
 6018 2086 0C000000 		.4byte	.LBE53-.LBB53
 6019 208a 01       		.byte	0x1
 6020 208b 7C02     		.2byte	0x27c
 6021 208d D4200000 		.4byte	0x20d4
 6022 2091 2F       		.uleb128 0x2f
 6023 2092 ED160000 		.4byte	0x16ed
 6024 2096 1D040000 		.4byte	.LLST43
 6025 209a 2F       		.uleb128 0x2f
 6026 209b E2160000 		.4byte	0x16e2
 6027 209f 35040000 		.4byte	.LLST44
 6028 20a3 2F       		.uleb128 0x2f
 6029 20a4 D7160000 		.4byte	0x16d7
 6030 20a8 35040000 		.4byte	.LLST44
 6031 20ac 2F       		.uleb128 0x2f
 6032 20ad CC160000 		.4byte	0x16cc
 6033 20b1 49040000 		.4byte	.LLST46
 6034 20b5 2D       		.uleb128 0x2d
 6035 20b6 5C000000 		.4byte	.LVL126
 6036 20ba 192D0000 		.4byte	0x2d19
 6037 20be 2C       		.uleb128 0x2c
 6038 20bf 01       		.uleb128 0x1
 6039 20c0 51       		.byte	0x51
 6040 20c1 01       		.uleb128 0x1
 6041 20c2 30       		.byte	0x30
 6042 20c3 2C       		.uleb128 0x2c
 6043 20c4 01       		.uleb128 0x1
 6044 20c5 52       		.byte	0x52
 6045 20c6 02       		.uleb128 0x2
 6046 20c7 08       		.byte	0x8
 6047 20c8 7F       		.byte	0x7f
 6048 20c9 2C       		.uleb128 0x2c
 6049 20ca 01       		.uleb128 0x1
 6050 20cb 53       		.byte	0x53
 6051 20cc 05       		.uleb128 0x5
 6052 20cd 03       		.byte	0x3
 6053 20ce 44000000 		.4byte	.LC4
 6054 20d2 00       		.byte	0
 6055 20d3 00       		.byte	0
 6056 20d4 2E       		.uleb128 0x2e
 6057 20d5 92160000 		.4byte	0x1692
 6058 20d9 5C000000 		.4byte	.LBB55
 6059 20dd 10000000 		.4byte	.LBE55-.LBB55
 6060 20e1 01       		.byte	0x1
 6061 20e2 7D02     		.2byte	0x27d
ARM GAS  C:\Users\strap\AppData\Local\Temp\cci64Z2T.s 			page 134


 6062 20e4 50210000 		.4byte	0x2150
 6063 20e8 2F       		.uleb128 0x2f
 6064 20e9 B4160000 		.4byte	0x16b4
 6065 20ed 60040000 		.4byte	.LLST47
 6066 20f1 2F       		.uleb128 0x2f
 6067 20f2 A9160000 		.4byte	0x16a9
 6068 20f6 74040000 		.4byte	.LLST48
 6069 20fa 2F       		.uleb128 0x2f
 6070 20fb 9E160000 		.4byte	0x169e
 6071 20ff 88040000 		.4byte	.LLST49
 6072 2103 30       		.uleb128 0x30
 6073 2104 64160000 		.4byte	0x1664
 6074 2108 5C000000 		.4byte	.LBB56
 6075 210c 10000000 		.4byte	.LBE56-.LBB56
 6076 2110 16       		.byte	0x16
 6077 2111 87       		.byte	0x87
 6078 2112 2F       		.uleb128 0x2f
 6079 2113 86160000 		.4byte	0x1686
 6080 2117 60040000 		.4byte	.LLST47
 6081 211b 2F       		.uleb128 0x2f
 6082 211c 7B160000 		.4byte	0x167b
 6083 2120 74040000 		.4byte	.LLST48
 6084 2124 2F       		.uleb128 0x2f
 6085 2125 70160000 		.4byte	0x1670
 6086 2129 88040000 		.4byte	.LLST49
 6087 212d 2D       		.uleb128 0x2d
 6088 212e 6C000000 		.4byte	.LVL128
 6089 2132 252D0000 		.4byte	0x2d25
 6090 2136 2C       		.uleb128 0x2c
 6091 2137 01       		.uleb128 0x1
 6092 2138 51       		.byte	0x51
 6093 2139 01       		.uleb128 0x1
 6094 213a 32       		.byte	0x32
 6095 213b 2C       		.uleb128 0x2c
 6096 213c 01       		.uleb128 0x1
 6097 213d 52       		.byte	0x52
 6098 213e 01       		.uleb128 0x1
 6099 213f 32       		.byte	0x32
 6100 2140 2C       		.uleb128 0x2c
 6101 2141 01       		.uleb128 0x1
 6102 2142 53       		.byte	0x53
 6103 2143 02       		.uleb128 0x2
 6104 2144 76       		.byte	0x76
 6105 2145 00       		.sleb128 0
 6106 2146 2C       		.uleb128 0x2c
 6107 2147 02       		.uleb128 0x2
 6108 2148 7D       		.byte	0x7d
 6109 2149 00       		.sleb128 0
 6110 214a 02       		.uleb128 0x2
 6111 214b 76       		.byte	0x76
 6112 214c 00       		.sleb128 0
 6113 214d 00       		.byte	0
 6114 214e 00       		.byte	0
 6115 214f 00       		.byte	0
 6116 2150 2B       		.uleb128 0x2b
 6117 2151 0C000000 		.4byte	.LVL117
 6118 2155 682D0000 		.4byte	0x2d68
ARM GAS  C:\Users\strap\AppData\Local\Temp\cci64Z2T.s 			page 135


 6119 2159 69210000 		.4byte	0x2169
 6120 215d 2C       		.uleb128 0x2c
 6121 215e 01       		.uleb128 0x1
 6122 215f 50       		.byte	0x50
 6123 2160 02       		.uleb128 0x2
 6124 2161 76       		.byte	0x76
 6125 2162 00       		.sleb128 0
 6126 2163 2C       		.uleb128 0x2c
 6127 2164 01       		.uleb128 0x1
 6128 2165 51       		.byte	0x51
 6129 2166 01       		.uleb128 0x1
 6130 2167 30       		.byte	0x30
 6131 2168 00       		.byte	0
 6132 2169 2B       		.uleb128 0x2b
 6133 216a 18000000 		.4byte	.LVL118
 6134 216e 3B2D0000 		.4byte	0x2d3b
 6135 2172 82210000 		.4byte	0x2182
 6136 2176 2C       		.uleb128 0x2c
 6137 2177 01       		.uleb128 0x1
 6138 2178 50       		.byte	0x50
 6139 2179 02       		.uleb128 0x2
 6140 217a 76       		.byte	0x76
 6141 217b 00       		.sleb128 0
 6142 217c 2C       		.uleb128 0x2c
 6143 217d 01       		.uleb128 0x1
 6144 217e 51       		.byte	0x51
 6145 217f 01       		.uleb128 0x1
 6146 2180 30       		.byte	0x30
 6147 2181 00       		.byte	0
 6148 2182 27       		.uleb128 0x27
 6149 2183 26000000 		.4byte	.LVL119
 6150 2187 512D0000 		.4byte	0x2d51
 6151 218b 27       		.uleb128 0x27
 6152 218c 2E000000 		.4byte	.LVL120
 6153 2190 512D0000 		.4byte	0x2d51
 6154 2194 2B       		.uleb128 0x2b
 6155 2195 36000000 		.4byte	.LVL121
 6156 2199 892D0000 		.4byte	0x2d89
 6157 219d A7210000 		.4byte	0x21a7
 6158 21a1 2C       		.uleb128 0x2c
 6159 21a2 01       		.uleb128 0x1
 6160 21a3 51       		.byte	0x51
 6161 21a4 01       		.uleb128 0x1
 6162 21a5 30       		.byte	0x30
 6163 21a6 00       		.byte	0
 6164 21a7 2B       		.uleb128 0x2b
 6165 21a8 3E000000 		.4byte	.LVL122
 6166 21ac 942D0000 		.4byte	0x2d94
 6167 21b0 BA210000 		.4byte	0x21ba
 6168 21b4 2C       		.uleb128 0x2c
 6169 21b5 01       		.uleb128 0x1
 6170 21b6 51       		.byte	0x51
 6171 21b7 01       		.uleb128 0x1
 6172 21b8 31       		.byte	0x31
 6173 21b9 00       		.byte	0
 6174 21ba 2B       		.uleb128 0x2b
 6175 21bb 44000000 		.4byte	.LVL123
ARM GAS  C:\Users\strap\AppData\Local\Temp\cci64Z2T.s 			page 136


 6176 21bf AB2D0000 		.4byte	0x2dab
 6177 21c3 CE210000 		.4byte	0x21ce
 6178 21c7 2C       		.uleb128 0x2c
 6179 21c8 01       		.uleb128 0x1
 6180 21c9 50       		.byte	0x50
 6181 21ca 02       		.uleb128 0x2
 6182 21cb 76       		.byte	0x76
 6183 21cc 00       		.sleb128 0
 6184 21cd 00       		.byte	0
 6185 21ce 27       		.uleb128 0x27
 6186 21cf 50000000 		.4byte	.LVL125
 6187 21d3 B72D0000 		.4byte	0x2db7
 6188 21d7 2B       		.uleb128 0x2b
 6189 21d8 74000000 		.4byte	.LVL129
 6190 21dc 5C2D0000 		.4byte	0x2d5c
 6191 21e0 EE210000 		.4byte	0x21ee
 6192 21e4 2C       		.uleb128 0x2c
 6193 21e5 01       		.uleb128 0x1
 6194 21e6 51       		.byte	0x51
 6195 21e7 05       		.uleb128 0x5
 6196 21e8 03       		.byte	0x3
 6197 21e9 00000000 		.4byte	pulses_ok_btn_handler
 6198 21ed 00       		.byte	0
 6199 21ee 2B       		.uleb128 0x2b
 6200 21ef 7E000000 		.4byte	.LVL130
 6201 21f3 732D0000 		.4byte	0x2d73
 6202 21f7 07220000 		.4byte	0x2207
 6203 21fb 2C       		.uleb128 0x2c
 6204 21fc 01       		.uleb128 0x1
 6205 21fd 51       		.byte	0x51
 6206 21fe 01       		.uleb128 0x1
 6207 21ff 31       		.byte	0x31
 6208 2200 2C       		.uleb128 0x2c
 6209 2201 01       		.uleb128 0x1
 6210 2202 52       		.byte	0x52
 6211 2203 02       		.uleb128 0x2
 6212 2204 08       		.byte	0x8
 6213 2205 80       		.byte	0x80
 6214 2206 00       		.byte	0
 6215 2207 2B       		.uleb128 0x2b
 6216 2208 88000000 		.4byte	.LVL131
 6217 220c 7E2D0000 		.4byte	0x2d7e
 6218 2210 20220000 		.4byte	0x2220
 6219 2214 2C       		.uleb128 0x2c
 6220 2215 01       		.uleb128 0x1
 6221 2216 51       		.byte	0x51
 6222 2217 01       		.uleb128 0x1
 6223 2218 33       		.byte	0x33
 6224 2219 2C       		.uleb128 0x2c
 6225 221a 01       		.uleb128 0x1
 6226 221b 52       		.byte	0x52
 6227 221c 02       		.uleb128 0x2
 6228 221d 76       		.byte	0x76
 6229 221e 00       		.sleb128 0
 6230 221f 00       		.byte	0
 6231 2220 2B       		.uleb128 0x2b
 6232 2221 90000000 		.4byte	.LVL132
ARM GAS  C:\Users\strap\AppData\Local\Temp\cci64Z2T.s 			page 137


 6233 2225 C02C0000 		.4byte	0x2cc0
 6234 2229 33220000 		.4byte	0x2233
 6235 222d 2C       		.uleb128 0x2c
 6236 222e 01       		.uleb128 0x1
 6237 222f 51       		.byte	0x51
 6238 2230 01       		.uleb128 0x1
 6239 2231 31       		.byte	0x31
 6240 2232 00       		.byte	0
 6241 2233 2D       		.uleb128 0x2d
 6242 2234 98000000 		.4byte	.LVL133
 6243 2238 C02C0000 		.4byte	0x2cc0
 6244 223c 2C       		.uleb128 0x2c
 6245 223d 01       		.uleb128 0x1
 6246 223e 51       		.byte	0x51
 6247 223f 01       		.uleb128 0x1
 6248 2240 31       		.byte	0x31
 6249 2241 00       		.byte	0
 6250 2242 00       		.byte	0
 6251 2243 23       		.uleb128 0x23
 6252 2244 B0020000 		.4byte	.LASF484
 6253 2248 01       		.byte	0x1
 6254 2249 2001     		.2byte	0x120
 6255 224b 00000000 		.4byte	.LFB447
 6256 224f 98010000 		.4byte	.LFE447-.LFB447
 6257 2253 01       		.uleb128 0x1
 6258 2254 9C       		.byte	0x9c
 6259 2255 86260000 		.4byte	0x2686
 6260 2259 29       		.uleb128 0x29
 6261 225a A7210000 		.4byte	.LASF119
 6262 225e 01       		.byte	0x1
 6263 225f 2001     		.2byte	0x120
 6264 2261 EE120000 		.4byte	0x12ee
 6265 2265 9F040000 		.4byte	.LLST53
 6266 2269 26       		.uleb128 0x26
 6267 226a 191A0000 		.4byte	.LASF485
 6268 226e 01       		.byte	0x1
 6269 226f 2E01     		.2byte	0x12e
 6270 2271 2A010000 		.4byte	0x12a
 6271 2275 CB040000 		.4byte	.LLST54
 6272 2279 26       		.uleb128 0x26
 6273 227a 7A050000 		.4byte	.LASF486
 6274 227e 01       		.byte	0x1
 6275 227f 2F01     		.2byte	0x12f
 6276 2281 2A010000 		.4byte	0x12a
 6277 2285 DE040000 		.4byte	.LLST55
 6278 2289 26       		.uleb128 0x26
 6279 228a 38250000 		.4byte	.LASF487
 6280 228e 01       		.byte	0x1
 6281 228f 3101     		.2byte	0x131
 6282 2291 2A010000 		.4byte	0x12a
 6283 2295 F1040000 		.4byte	.LLST56
 6284 2299 26       		.uleb128 0x26
 6285 229a D7220000 		.4byte	.LASF488
 6286 229e 01       		.byte	0x1
 6287 229f 3201     		.2byte	0x132
 6288 22a1 2A010000 		.4byte	0x12a
 6289 22a5 04050000 		.4byte	.LLST57
ARM GAS  C:\Users\strap\AppData\Local\Temp\cci64Z2T.s 			page 138


 6290 22a9 26       		.uleb128 0x26
 6291 22aa 91240000 		.4byte	.LASF489
 6292 22ae 01       		.byte	0x1
 6293 22af 3A01     		.2byte	0x13a
 6294 22b1 EE120000 		.4byte	0x12ee
 6295 22b5 19050000 		.4byte	.LLST58
 6296 22b9 26       		.uleb128 0x26
 6297 22ba 2F030000 		.4byte	.LASF490
 6298 22be 01       		.byte	0x1
 6299 22bf 4401     		.2byte	0x144
 6300 22c1 EE120000 		.4byte	0x12ee
 6301 22c5 37050000 		.4byte	.LLST59
 6302 22c9 2E       		.uleb128 0x2e
 6303 22ca 92160000 		.4byte	0x1692
 6304 22ce 10010000 		.4byte	.LBB58
 6305 22d2 0C000000 		.4byte	.LBE58-.LBB58
 6306 22d6 01       		.byte	0x1
 6307 22d7 5801     		.2byte	0x158
 6308 22d9 45230000 		.4byte	0x2345
 6309 22dd 2F       		.uleb128 0x2f
 6310 22de B4160000 		.4byte	0x16b4
 6311 22e2 55050000 		.4byte	.LLST60
 6312 22e6 2F       		.uleb128 0x2f
 6313 22e7 A9160000 		.4byte	0x16a9
 6314 22eb 69050000 		.4byte	.LLST61
 6315 22ef 2F       		.uleb128 0x2f
 6316 22f0 9E160000 		.4byte	0x169e
 6317 22f4 7D050000 		.4byte	.LLST62
 6318 22f8 30       		.uleb128 0x30
 6319 22f9 64160000 		.4byte	0x1664
 6320 22fd 10010000 		.4byte	.LBB59
 6321 2301 0C000000 		.4byte	.LBE59-.LBB59
 6322 2305 16       		.byte	0x16
 6323 2306 87       		.byte	0x87
 6324 2307 2F       		.uleb128 0x2f
 6325 2308 86160000 		.4byte	0x1686
 6326 230c 55050000 		.4byte	.LLST60
 6327 2310 2F       		.uleb128 0x2f
 6328 2311 7B160000 		.4byte	0x167b
 6329 2315 69050000 		.4byte	.LLST61
 6330 2319 2F       		.uleb128 0x2f
 6331 231a 70160000 		.4byte	0x1670
 6332 231e 7D050000 		.4byte	.LLST62
 6333 2322 2D       		.uleb128 0x2d
 6334 2323 1C010000 		.4byte	.LVL170
 6335 2327 252D0000 		.4byte	0x2d25
 6336 232b 2C       		.uleb128 0x2c
 6337 232c 01       		.uleb128 0x1
 6338 232d 51       		.byte	0x51
 6339 232e 01       		.uleb128 0x1
 6340 232f 32       		.byte	0x32
 6341 2330 2C       		.uleb128 0x2c
 6342 2331 01       		.uleb128 0x1
 6343 2332 52       		.byte	0x52
 6344 2333 01       		.uleb128 0x1
 6345 2334 32       		.byte	0x32
 6346 2335 2C       		.uleb128 0x2c
ARM GAS  C:\Users\strap\AppData\Local\Temp\cci64Z2T.s 			page 139


 6347 2336 01       		.uleb128 0x1
 6348 2337 53       		.byte	0x53
 6349 2338 02       		.uleb128 0x2
 6350 2339 75       		.byte	0x75
 6351 233a 00       		.sleb128 0
 6352 233b 2C       		.uleb128 0x2c
 6353 233c 02       		.uleb128 0x2
 6354 233d 7D       		.byte	0x7d
 6355 233e 00       		.sleb128 0
 6356 233f 02       		.uleb128 0x2
 6357 2340 75       		.byte	0x75
 6358 2341 00       		.sleb128 0
 6359 2342 00       		.byte	0
 6360 2343 00       		.byte	0
 6361 2344 00       		.byte	0
 6362 2345 2E       		.uleb128 0x2e
 6363 2346 C0160000 		.4byte	0x16c0
 6364 234a 1C010000 		.4byte	.LBB61
 6365 234e 0C000000 		.4byte	.LBE61-.LBB61
 6366 2352 01       		.byte	0x1
 6367 2353 5901     		.2byte	0x159
 6368 2355 9D230000 		.4byte	0x239d
 6369 2359 2F       		.uleb128 0x2f
 6370 235a ED160000 		.4byte	0x16ed
 6371 235e 90050000 		.4byte	.LLST66
 6372 2362 2F       		.uleb128 0x2f
 6373 2363 E2160000 		.4byte	0x16e2
 6374 2367 A8050000 		.4byte	.LLST67
 6375 236b 2F       		.uleb128 0x2f
 6376 236c D7160000 		.4byte	0x16d7
 6377 2370 A8050000 		.4byte	.LLST67
 6378 2374 2F       		.uleb128 0x2f
 6379 2375 CC160000 		.4byte	0x16cc
 6380 2379 BC050000 		.4byte	.LLST69
 6381 237d 2D       		.uleb128 0x2d
 6382 237e 28010000 		.4byte	.LVL171
 6383 2382 192D0000 		.4byte	0x2d19
 6384 2386 2C       		.uleb128 0x2c
 6385 2387 01       		.uleb128 0x1
 6386 2388 51       		.byte	0x51
 6387 2389 02       		.uleb128 0x2
 6388 238a 75       		.byte	0x75
 6389 238b 00       		.sleb128 0
 6390 238c 2C       		.uleb128 0x2c
 6391 238d 01       		.uleb128 0x1
 6392 238e 52       		.byte	0x52
 6393 238f 02       		.uleb128 0x2
 6394 2390 08       		.byte	0x8
 6395 2391 7F       		.byte	0x7f
 6396 2392 2C       		.uleb128 0x2c
 6397 2393 01       		.uleb128 0x1
 6398 2394 53       		.byte	0x53
 6399 2395 05       		.uleb128 0x5
 6400 2396 03       		.byte	0x3
 6401 2397 A8000000 		.4byte	.LC11
 6402 239b 00       		.byte	0
 6403 239c 00       		.byte	0
ARM GAS  C:\Users\strap\AppData\Local\Temp\cci64Z2T.s 			page 140


 6404 239d 2B       		.uleb128 0x2b
 6405 239e 0E000000 		.4byte	.LVL136
 6406 23a2 CF2D0000 		.4byte	0x2dcf
 6407 23a6 B0230000 		.4byte	0x23b0
 6408 23aa 2C       		.uleb128 0x2c
 6409 23ab 01       		.uleb128 0x1
 6410 23ac 50       		.byte	0x50
 6411 23ad 01       		.uleb128 0x1
 6412 23ae 30       		.byte	0x30
 6413 23af 00       		.byte	0
 6414 23b0 2B       		.uleb128 0x2b
 6415 23b1 1A000000 		.4byte	.LVL139
 6416 23b5 DB2D0000 		.4byte	0x2ddb
 6417 23b9 C3230000 		.4byte	0x23c3
 6418 23bd 2C       		.uleb128 0x2c
 6419 23be 01       		.uleb128 0x1
 6420 23bf 50       		.byte	0x50
 6421 23c0 01       		.uleb128 0x1
 6422 23c1 30       		.byte	0x30
 6423 23c2 00       		.byte	0
 6424 23c3 2B       		.uleb128 0x2b
 6425 23c4 2A000000 		.4byte	.LVL142
 6426 23c8 E62D0000 		.4byte	0x2de6
 6427 23cc DC230000 		.4byte	0x23dc
 6428 23d0 2C       		.uleb128 0x2c
 6429 23d1 01       		.uleb128 0x1
 6430 23d2 50       		.byte	0x50
 6431 23d3 02       		.uleb128 0x2
 6432 23d4 77       		.byte	0x77
 6433 23d5 00       		.sleb128 0
 6434 23d6 2C       		.uleb128 0x2c
 6435 23d7 01       		.uleb128 0x1
 6436 23d8 51       		.byte	0x51
 6437 23d9 01       		.uleb128 0x1
 6438 23da 30       		.byte	0x30
 6439 23db 00       		.byte	0
 6440 23dc 2B       		.uleb128 0x2b
 6441 23dd 38000000 		.4byte	.LVL143
 6442 23e1 F12D0000 		.4byte	0x2df1
 6443 23e5 F6230000 		.4byte	0x23f6
 6444 23e9 2C       		.uleb128 0x2c
 6445 23ea 01       		.uleb128 0x1
 6446 23eb 51       		.byte	0x51
 6447 23ec 02       		.uleb128 0x2
 6448 23ed 76       		.byte	0x76
 6449 23ee 7B       		.sleb128 -5
 6450 23ef 2C       		.uleb128 0x2c
 6451 23f0 01       		.uleb128 0x1
 6452 23f1 52       		.byte	0x52
 6453 23f2 02       		.uleb128 0x2
 6454 23f3 78       		.byte	0x78
 6455 23f4 00       		.sleb128 0
 6456 23f5 00       		.byte	0
 6457 23f6 2B       		.uleb128 0x2b
 6458 23f7 48000000 		.4byte	.LVL144
 6459 23fb C32D0000 		.4byte	0x2dc3
 6460 23ff 1B240000 		.4byte	0x241b
ARM GAS  C:\Users\strap\AppData\Local\Temp\cci64Z2T.s 			page 141


 6461 2403 2C       		.uleb128 0x2c
 6462 2404 01       		.uleb128 0x1
 6463 2405 51       		.byte	0x51
 6464 2406 02       		.uleb128 0x2
 6465 2407 75       		.byte	0x75
 6466 2408 00       		.sleb128 0
 6467 2409 2C       		.uleb128 0x2c
 6468 240a 01       		.uleb128 0x1
 6469 240b 52       		.byte	0x52
 6470 240c 01       		.uleb128 0x1
 6471 240d 37       		.byte	0x37
 6472 240e 2C       		.uleb128 0x2c
 6473 240f 01       		.uleb128 0x1
 6474 2410 53       		.byte	0x53
 6475 2411 01       		.uleb128 0x1
 6476 2412 3F       		.byte	0x3f
 6477 2413 2C       		.uleb128 0x2c
 6478 2414 02       		.uleb128 0x2
 6479 2415 7D       		.byte	0x7d
 6480 2416 00       		.sleb128 0
 6481 2417 02       		.uleb128 0x2
 6482 2418 75       		.byte	0x75
 6483 2419 00       		.sleb128 0
 6484 241a 00       		.byte	0
 6485 241b 2B       		.uleb128 0x2b
 6486 241c 50000000 		.4byte	.LVL145
 6487 2420 FD2D0000 		.4byte	0x2dfd
 6488 2424 2E240000 		.4byte	0x242e
 6489 2428 2C       		.uleb128 0x2c
 6490 2429 01       		.uleb128 0x1
 6491 242a 51       		.byte	0x51
 6492 242b 01       		.uleb128 0x1
 6493 242c 32       		.byte	0x32
 6494 242d 00       		.byte	0
 6495 242e 2B       		.uleb128 0x2b
 6496 242f 58000000 		.4byte	.LVL146
 6497 2433 082E0000 		.4byte	0x2e08
 6498 2437 48240000 		.4byte	0x2448
 6499 243b 2C       		.uleb128 0x2c
 6500 243c 01       		.uleb128 0x1
 6501 243d 50       		.byte	0x50
 6502 243e 02       		.uleb128 0x2
 6503 243f 77       		.byte	0x77
 6504 2440 00       		.sleb128 0
 6505 2441 2C       		.uleb128 0x2c
 6506 2442 01       		.uleb128 0x1
 6507 2443 51       		.byte	0x51
 6508 2444 02       		.uleb128 0x2
 6509 2445 75       		.byte	0x75
 6510 2446 00       		.sleb128 0
 6511 2447 00       		.byte	0
 6512 2448 2B       		.uleb128 0x2b
 6513 2449 60000000 		.4byte	.LVL148
 6514 244d 132E0000 		.4byte	0x2e13
 6515 2451 65240000 		.4byte	0x2465
 6516 2455 2C       		.uleb128 0x2c
 6517 2456 01       		.uleb128 0x1
ARM GAS  C:\Users\strap\AppData\Local\Temp\cci64Z2T.s 			page 142


 6518 2457 50       		.byte	0x50
 6519 2458 02       		.uleb128 0x2
 6520 2459 79       		.byte	0x79
 6521 245a 00       		.sleb128 0
 6522 245b 2C       		.uleb128 0x2c
 6523 245c 01       		.uleb128 0x1
 6524 245d 51       		.byte	0x51
 6525 245e 05       		.uleb128 0x5
 6526 245f 03       		.byte	0x3
 6527 2460 64000000 		.4byte	.LC6
 6528 2464 00       		.byte	0
 6529 2465 2B       		.uleb128 0x2b
 6530 2466 6E000000 		.4byte	.LVL149
 6531 246a C32D0000 		.4byte	0x2dc3
 6532 246e 8B240000 		.4byte	0x248b
 6533 2472 2C       		.uleb128 0x2c
 6534 2473 01       		.uleb128 0x1
 6535 2474 50       		.byte	0x50
 6536 2475 02       		.uleb128 0x2
 6537 2476 79       		.byte	0x79
 6538 2477 00       		.sleb128 0
 6539 2478 2C       		.uleb128 0x2c
 6540 2479 01       		.uleb128 0x1
 6541 247a 52       		.byte	0x52
 6542 247b 01       		.uleb128 0x1
 6543 247c 39       		.byte	0x39
 6544 247d 2C       		.uleb128 0x2c
 6545 247e 01       		.uleb128 0x1
 6546 247f 53       		.byte	0x53
 6547 2480 02       		.uleb128 0x2
 6548 2481 75       		.byte	0x75
 6549 2482 00       		.sleb128 0
 6550 2483 2C       		.uleb128 0x2c
 6551 2484 02       		.uleb128 0x2
 6552 2485 7D       		.byte	0x7d
 6553 2486 00       		.sleb128 0
 6554 2487 02       		.uleb128 0x2
 6555 2488 75       		.byte	0x75
 6556 2489 00       		.sleb128 0
 6557 248a 00       		.byte	0
 6558 248b 2B       		.uleb128 0x2b
 6559 248c 76000000 		.4byte	.LVL150
 6560 2490 E62D0000 		.4byte	0x2de6
 6561 2494 A5240000 		.4byte	0x24a5
 6562 2498 2C       		.uleb128 0x2c
 6563 2499 01       		.uleb128 0x1
 6564 249a 50       		.byte	0x50
 6565 249b 02       		.uleb128 0x2
 6566 249c 77       		.byte	0x77
 6567 249d 00       		.sleb128 0
 6568 249e 2C       		.uleb128 0x2c
 6569 249f 01       		.uleb128 0x1
 6570 24a0 51       		.byte	0x51
 6571 24a1 02       		.uleb128 0x2
 6572 24a2 75       		.byte	0x75
 6573 24a3 00       		.sleb128 0
 6574 24a4 00       		.byte	0
ARM GAS  C:\Users\strap\AppData\Local\Temp\cci64Z2T.s 			page 143


 6575 24a5 2B       		.uleb128 0x2b
 6576 24a6 84000000 		.4byte	.LVL151
 6577 24aa F12D0000 		.4byte	0x2df1
 6578 24ae BF240000 		.4byte	0x24bf
 6579 24b2 2C       		.uleb128 0x2c
 6580 24b3 01       		.uleb128 0x1
 6581 24b4 51       		.byte	0x51
 6582 24b5 02       		.uleb128 0x2
 6583 24b6 76       		.byte	0x76
 6584 24b7 5D       		.sleb128 -35
 6585 24b8 2C       		.uleb128 0x2c
 6586 24b9 01       		.uleb128 0x1
 6587 24ba 52       		.byte	0x52
 6588 24bb 02       		.uleb128 0x2
 6589 24bc 78       		.byte	0x78
 6590 24bd 00       		.sleb128 0
 6591 24be 00       		.byte	0
 6592 24bf 2B       		.uleb128 0x2b
 6593 24c0 94000000 		.4byte	.LVL152
 6594 24c4 C32D0000 		.4byte	0x2dc3
 6595 24c8 E5240000 		.4byte	0x24e5
 6596 24cc 2C       		.uleb128 0x2c
 6597 24cd 01       		.uleb128 0x1
 6598 24ce 51       		.byte	0x51
 6599 24cf 02       		.uleb128 0x2
 6600 24d0 75       		.byte	0x75
 6601 24d1 00       		.sleb128 0
 6602 24d2 2C       		.uleb128 0x2c
 6603 24d3 01       		.uleb128 0x1
 6604 24d4 52       		.byte	0x52
 6605 24d5 01       		.uleb128 0x1
 6606 24d6 38       		.byte	0x38
 6607 24d7 2C       		.uleb128 0x2c
 6608 24d8 01       		.uleb128 0x1
 6609 24d9 53       		.byte	0x53
 6610 24da 02       		.uleb128 0x2
 6611 24db 09       		.byte	0x9
 6612 24dc F1       		.byte	0xf1
 6613 24dd 2C       		.uleb128 0x2c
 6614 24de 02       		.uleb128 0x2
 6615 24df 7D       		.byte	0x7d
 6616 24e0 00       		.sleb128 0
 6617 24e1 02       		.uleb128 0x2
 6618 24e2 75       		.byte	0x75
 6619 24e3 00       		.sleb128 0
 6620 24e4 00       		.byte	0
 6621 24e5 2B       		.uleb128 0x2b
 6622 24e6 9C000000 		.4byte	.LVL153
 6623 24ea FD2D0000 		.4byte	0x2dfd
 6624 24ee F8240000 		.4byte	0x24f8
 6625 24f2 2C       		.uleb128 0x2c
 6626 24f3 01       		.uleb128 0x1
 6627 24f4 51       		.byte	0x51
 6628 24f5 01       		.uleb128 0x1
 6629 24f6 33       		.byte	0x33
 6630 24f7 00       		.byte	0
 6631 24f8 2B       		.uleb128 0x2b
ARM GAS  C:\Users\strap\AppData\Local\Temp\cci64Z2T.s 			page 144


 6632 24f9 A4000000 		.4byte	.LVL154
 6633 24fd 082E0000 		.4byte	0x2e08
 6634 2501 12250000 		.4byte	0x2512
 6635 2505 2C       		.uleb128 0x2c
 6636 2506 01       		.uleb128 0x1
 6637 2507 50       		.byte	0x50
 6638 2508 02       		.uleb128 0x2
 6639 2509 77       		.byte	0x77
 6640 250a 00       		.sleb128 0
 6641 250b 2C       		.uleb128 0x2c
 6642 250c 01       		.uleb128 0x1
 6643 250d 51       		.byte	0x51
 6644 250e 02       		.uleb128 0x2
 6645 250f 75       		.byte	0x75
 6646 2510 00       		.sleb128 0
 6647 2511 00       		.byte	0
 6648 2512 2B       		.uleb128 0x2b
 6649 2513 AC000000 		.4byte	.LVL156
 6650 2517 132E0000 		.4byte	0x2e13
 6651 251b 2F250000 		.4byte	0x252f
 6652 251f 2C       		.uleb128 0x2c
 6653 2520 01       		.uleb128 0x1
 6654 2521 50       		.byte	0x50
 6655 2522 02       		.uleb128 0x2
 6656 2523 76       		.byte	0x76
 6657 2524 00       		.sleb128 0
 6658 2525 2C       		.uleb128 0x2c
 6659 2526 01       		.uleb128 0x1
 6660 2527 51       		.byte	0x51
 6661 2528 05       		.uleb128 0x5
 6662 2529 03       		.byte	0x3
 6663 252a 70000000 		.4byte	.LC7
 6664 252e 00       		.byte	0
 6665 252f 2B       		.uleb128 0x2b
 6666 2530 BA000000 		.4byte	.LVL157
 6667 2534 C32D0000 		.4byte	0x2dc3
 6668 2538 55250000 		.4byte	0x2555
 6669 253c 2C       		.uleb128 0x2c
 6670 253d 01       		.uleb128 0x1
 6671 253e 50       		.byte	0x50
 6672 253f 02       		.uleb128 0x2
 6673 2540 76       		.byte	0x76
 6674 2541 00       		.sleb128 0
 6675 2542 2C       		.uleb128 0x2c
 6676 2543 01       		.uleb128 0x1
 6677 2544 52       		.byte	0x52
 6678 2545 01       		.uleb128 0x1
 6679 2546 39       		.byte	0x39
 6680 2547 2C       		.uleb128 0x2c
 6681 2548 01       		.uleb128 0x1
 6682 2549 53       		.byte	0x53
 6683 254a 02       		.uleb128 0x2
 6684 254b 75       		.byte	0x75
 6685 254c 00       		.sleb128 0
 6686 254d 2C       		.uleb128 0x2c
 6687 254e 02       		.uleb128 0x2
 6688 254f 7D       		.byte	0x7d
ARM GAS  C:\Users\strap\AppData\Local\Temp\cci64Z2T.s 			page 145


 6689 2550 00       		.sleb128 0
 6690 2551 02       		.uleb128 0x2
 6691 2552 75       		.byte	0x75
 6692 2553 00       		.sleb128 0
 6693 2554 00       		.byte	0
 6694 2555 2B       		.uleb128 0x2b
 6695 2556 C2000000 		.4byte	.LVL158
 6696 255a 1E2E0000 		.4byte	0x2e1e
 6697 255e 69250000 		.4byte	0x2569
 6698 2562 2C       		.uleb128 0x2c
 6699 2563 01       		.uleb128 0x1
 6700 2564 51       		.byte	0x51
 6701 2565 02       		.uleb128 0x2
 6702 2566 75       		.byte	0x75
 6703 2567 00       		.sleb128 0
 6704 2568 00       		.byte	0
 6705 2569 2B       		.uleb128 0x2b
 6706 256a CA000000 		.4byte	.LVL159
 6707 256e 292E0000 		.4byte	0x2e29
 6708 2572 80250000 		.4byte	0x2580
 6709 2576 2C       		.uleb128 0x2c
 6710 2577 01       		.uleb128 0x1
 6711 2578 51       		.byte	0x51
 6712 2579 05       		.uleb128 0x5
 6713 257a 03       		.byte	0x3
 6714 257b 78000000 		.4byte	.LC8
 6715 257f 00       		.byte	0
 6716 2580 2B       		.uleb128 0x2b
 6717 2581 D4000000 		.4byte	.LVL161
 6718 2585 5C2D0000 		.4byte	0x2d5c
 6719 2589 94250000 		.4byte	0x2594
 6720 258d 2C       		.uleb128 0x2c
 6721 258e 01       		.uleb128 0x1
 6722 258f 51       		.byte	0x51
 6723 2590 02       		.uleb128 0x2
 6724 2591 76       		.byte	0x76
 6725 2592 00       		.sleb128 0
 6726 2593 00       		.byte	0
 6727 2594 2B       		.uleb128 0x2b
 6728 2595 DC000000 		.4byte	.LVL162
 6729 2599 1E2E0000 		.4byte	0x2e1e
 6730 259d A8250000 		.4byte	0x25a8
 6731 25a1 2C       		.uleb128 0x2c
 6732 25a2 01       		.uleb128 0x1
 6733 25a3 51       		.byte	0x51
 6734 25a4 02       		.uleb128 0x2
 6735 25a5 75       		.byte	0x75
 6736 25a6 00       		.sleb128 0
 6737 25a7 00       		.byte	0
 6738 25a8 2B       		.uleb128 0x2b
 6739 25a9 E4000000 		.4byte	.LVL163
 6740 25ad 292E0000 		.4byte	0x2e29
 6741 25b1 BF250000 		.4byte	0x25bf
 6742 25b5 2C       		.uleb128 0x2c
 6743 25b6 01       		.uleb128 0x1
 6744 25b7 51       		.byte	0x51
 6745 25b8 05       		.uleb128 0x5
ARM GAS  C:\Users\strap\AppData\Local\Temp\cci64Z2T.s 			page 146


 6746 25b9 03       		.byte	0x3
 6747 25ba 84000000 		.4byte	.LC9
 6748 25be 00       		.byte	0
 6749 25bf 2B       		.uleb128 0x2b
 6750 25c0 EC000000 		.4byte	.LVL164
 6751 25c4 5C2D0000 		.4byte	0x2d5c
 6752 25c8 D3250000 		.4byte	0x25d3
 6753 25cc 2C       		.uleb128 0x2c
 6754 25cd 01       		.uleb128 0x1
 6755 25ce 51       		.byte	0x51
 6756 25cf 02       		.uleb128 0x2
 6757 25d0 76       		.byte	0x76
 6758 25d1 00       		.sleb128 0
 6759 25d2 00       		.byte	0
 6760 25d3 2B       		.uleb128 0x2b
 6761 25d4 F4000000 		.4byte	.LVL165
 6762 25d8 1E2E0000 		.4byte	0x2e1e
 6763 25dc E7250000 		.4byte	0x25e7
 6764 25e0 2C       		.uleb128 0x2c
 6765 25e1 01       		.uleb128 0x1
 6766 25e2 51       		.byte	0x51
 6767 25e3 02       		.uleb128 0x2
 6768 25e4 75       		.byte	0x75
 6769 25e5 00       		.sleb128 0
 6770 25e6 00       		.byte	0
 6771 25e7 2B       		.uleb128 0x2b
 6772 25e8 FC000000 		.4byte	.LVL166
 6773 25ec 292E0000 		.4byte	0x2e29
 6774 25f0 FE250000 		.4byte	0x25fe
 6775 25f4 2C       		.uleb128 0x2c
 6776 25f5 01       		.uleb128 0x1
 6777 25f6 51       		.byte	0x51
 6778 25f7 05       		.uleb128 0x5
 6779 25f8 03       		.byte	0x3
 6780 25f9 98000000 		.4byte	.LC10
 6781 25fd 00       		.byte	0
 6782 25fe 2B       		.uleb128 0x2b
 6783 25ff 04010000 		.4byte	.LVL167
 6784 2603 5C2D0000 		.4byte	0x2d5c
 6785 2607 12260000 		.4byte	0x2612
 6786 260b 2C       		.uleb128 0x2c
 6787 260c 01       		.uleb128 0x1
 6788 260d 51       		.byte	0x51
 6789 260e 02       		.uleb128 0x2
 6790 260f 76       		.byte	0x76
 6791 2610 00       		.sleb128 0
 6792 2611 00       		.byte	0
 6793 2612 2B       		.uleb128 0x2b
 6794 2613 0C010000 		.4byte	.LVL168
 6795 2617 3B2D0000 		.4byte	0x2d3b
 6796 261b 26260000 		.4byte	0x2626
 6797 261f 2C       		.uleb128 0x2c
 6798 2620 01       		.uleb128 0x1
 6799 2621 51       		.byte	0x51
 6800 2622 02       		.uleb128 0x2
 6801 2623 75       		.byte	0x75
 6802 2624 00       		.sleb128 0
ARM GAS  C:\Users\strap\AppData\Local\Temp\cci64Z2T.s 			page 147


 6803 2625 00       		.byte	0
 6804 2626 2B       		.uleb128 0x2b
 6805 2627 30010000 		.4byte	.LVL172
 6806 262b 5C2D0000 		.4byte	0x2d5c
 6807 262f 3D260000 		.4byte	0x263d
 6808 2633 2C       		.uleb128 0x2c
 6809 2634 01       		.uleb128 0x1
 6810 2635 51       		.byte	0x51
 6811 2636 05       		.uleb128 0x5
 6812 2637 03       		.byte	0x3
 6813 2638 00000000 		.4byte	button_callback
 6814 263c 00       		.byte	0
 6815 263d 27       		.uleb128 0x27
 6816 263e 38010000 		.4byte	.LVL173
 6817 2642 512D0000 		.4byte	0x2d51
 6818 2646 27       		.uleb128 0x27
 6819 2647 40010000 		.4byte	.LVL174
 6820 264b 512D0000 		.4byte	0x2d51
 6821 264f 27       		.uleb128 0x27
 6822 2650 48010000 		.4byte	.LVL175
 6823 2654 512D0000 		.4byte	0x2d51
 6824 2658 27       		.uleb128 0x27
 6825 2659 50010000 		.4byte	.LVL176
 6826 265d 512D0000 		.4byte	0x2d51
 6827 2661 27       		.uleb128 0x27
 6828 2662 56010000 		.4byte	.LVL177
 6829 2666 E22C0000 		.4byte	0x2ce2
 6830 266a 27       		.uleb128 0x27
 6831 266b 5C010000 		.4byte	.LVL178
 6832 266f 901D0000 		.4byte	0x1d90
 6833 2673 27       		.uleb128 0x27
 6834 2674 62010000 		.4byte	.LVL179
 6835 2678 ED1B0000 		.4byte	0x1bed
 6836 267c 27       		.uleb128 0x27
 6837 267d 68010000 		.4byte	.LVL180
 6838 2681 47200000 		.4byte	0x2047
 6839 2685 00       		.byte	0
 6840 2686 23       		.uleb128 0x23
 6841 2687 FC090000 		.4byte	.LASF491
 6842 268b 01       		.byte	0x1
 6843 268c 1502     		.2byte	0x215
 6844 268e 00000000 		.4byte	.LFB454
 6845 2692 60000000 		.4byte	.LFE454-.LFB454
 6846 2696 01       		.uleb128 0x1
 6847 2697 9C       		.byte	0x9c
 6848 2698 57270000 		.4byte	0x2757
 6849 269c 28       		.uleb128 0x28
 6850 269d 6F626A00 		.ascii	"obj\000"
 6851 26a1 01       		.byte	0x1
 6852 26a2 1502     		.2byte	0x215
 6853 26a4 EE120000 		.4byte	0x12ee
 6854 26a8 D3050000 		.4byte	.LLST70
 6855 26ac 28       		.uleb128 0x28
 6856 26ad 6500     		.ascii	"e\000"
 6857 26af 01       		.byte	0x1
 6858 26b0 1502     		.2byte	0x215
 6859 26b2 8C110000 		.4byte	0x118c
ARM GAS  C:\Users\strap\AppData\Local\Temp\cci64Z2T.s 			page 148


 6860 26b6 FF050000 		.4byte	.LLST71
 6861 26ba 2A       		.uleb128 0x2a
 6862 26bb 06000000 		.4byte	.LBB63
 6863 26bf 5A000000 		.4byte	.LBE63-.LBB63
 6864 26c3 26       		.uleb128 0x26
 6865 26c4 26210000 		.4byte	.LASF474
 6866 26c8 01       		.byte	0x1
 6867 26c9 1C02     		.2byte	0x21c
 6868 26cb B8000000 		.4byte	0xb8
 6869 26cf 2B060000 		.4byte	.LLST72
 6870 26d3 27       		.uleb128 0x27
 6871 26d4 0E000000 		.4byte	.LVL184
 6872 26d8 9F2C0000 		.4byte	0x2c9f
 6873 26dc 2B       		.uleb128 0x2b
 6874 26dd 14000000 		.4byte	.LVL186
 6875 26e1 AA2C0000 		.4byte	0x2caa
 6876 26e5 F0260000 		.4byte	0x26f0
 6877 26e9 2C       		.uleb128 0x2c
 6878 26ea 01       		.uleb128 0x1
 6879 26eb 50       		.byte	0x50
 6880 26ec 02       		.uleb128 0x2
 6881 26ed 74       		.byte	0x74
 6882 26ee 00       		.sleb128 0
 6883 26ef 00       		.byte	0
 6884 26f0 2B       		.uleb128 0x2b
 6885 26f1 22000000 		.4byte	.LVL188
 6886 26f5 9F2D0000 		.4byte	0x2d9f
 6887 26f9 03270000 		.4byte	0x2703
 6888 26fd 2C       		.uleb128 0x2c
 6889 26fe 01       		.uleb128 0x1
 6890 26ff 51       		.byte	0x51
 6891 2700 01       		.uleb128 0x1
 6892 2701 30       		.byte	0x30
 6893 2702 00       		.byte	0
 6894 2703 2B       		.uleb128 0x2b
 6895 2704 2A000000 		.4byte	.LVL189
 6896 2708 892D0000 		.4byte	0x2d89
 6897 270c 16270000 		.4byte	0x2716
 6898 2710 2C       		.uleb128 0x2c
 6899 2711 01       		.uleb128 0x1
 6900 2712 51       		.byte	0x51
 6901 2713 01       		.uleb128 0x1
 6902 2714 30       		.byte	0x30
 6903 2715 00       		.byte	0
 6904 2716 27       		.uleb128 0x27
 6905 2717 30000000 		.4byte	.LVL190
 6906 271b E22C0000 		.4byte	0x2ce2
 6907 271f 2B       		.uleb128 0x2b
 6908 2720 3A000000 		.4byte	.LVL191
 6909 2724 342E0000 		.4byte	0x2e34
 6910 2728 32270000 		.4byte	0x2732
 6911 272c 2C       		.uleb128 0x2c
 6912 272d 01       		.uleb128 0x1
 6913 272e 51       		.byte	0x51
 6914 272f 01       		.uleb128 0x1
 6915 2730 31       		.byte	0x31
 6916 2731 00       		.byte	0
ARM GAS  C:\Users\strap\AppData\Local\Temp\cci64Z2T.s 			page 149


 6917 2732 2B       		.uleb128 0x2b
 6918 2733 46000000 		.4byte	.LVL194
 6919 2737 9F2D0000 		.4byte	0x2d9f
 6920 273b 46270000 		.4byte	0x2746
 6921 273f 2C       		.uleb128 0x2c
 6922 2740 01       		.uleb128 0x1
 6923 2741 51       		.byte	0x51
 6924 2742 02       		.uleb128 0x2
 6925 2743 08       		.byte	0x8
 6926 2744 20       		.byte	0x20
 6927 2745 00       		.byte	0
 6928 2746 2D       		.uleb128 0x2d
 6929 2747 4E000000 		.4byte	.LVL195
 6930 274b 892D0000 		.4byte	0x2d89
 6931 274f 2C       		.uleb128 0x2c
 6932 2750 01       		.uleb128 0x1
 6933 2751 51       		.byte	0x51
 6934 2752 01       		.uleb128 0x1
 6935 2753 31       		.byte	0x31
 6936 2754 00       		.byte	0
 6937 2755 00       		.byte	0
 6938 2756 00       		.byte	0
 6939 2757 31       		.uleb128 0x31
 6940 2758 110E0000 		.4byte	.LASF492
 6941 275c 01       		.byte	0x1
 6942 275d DD       		.byte	0xdd
 6943 275e 00000000 		.4byte	.LFB442
 6944 2762 0A000000 		.4byte	.LFE442-.LFB442
 6945 2766 01       		.uleb128 0x1
 6946 2767 9C       		.byte	0x9c
 6947 2768 7C270000 		.4byte	0x277c
 6948 276c 2D       		.uleb128 0x2d
 6949 276d 08000000 		.4byte	.LVL197
 6950 2771 3F2E0000 		.4byte	0x2e3f
 6951 2775 2C       		.uleb128 0x2c
 6952 2776 01       		.uleb128 0x1
 6953 2777 50       		.byte	0x50
 6954 2778 01       		.uleb128 0x1
 6955 2779 31       		.byte	0x31
 6956 277a 00       		.byte	0
 6957 277b 00       		.byte	0
 6958 277c 31       		.uleb128 0x31
 6959 277d 10100000 		.4byte	.LASF493
 6960 2781 01       		.byte	0x1
 6961 2782 E8       		.byte	0xe8
 6962 2783 00000000 		.4byte	.LFB443
 6963 2787 10000000 		.4byte	.LFE443-.LFB443
 6964 278b 01       		.uleb128 0x1
 6965 278c 9C       		.byte	0x9c
 6966 278d B4270000 		.4byte	0x27b4
 6967 2791 2B       		.uleb128 0x2b
 6968 2792 08000000 		.4byte	.LVL198
 6969 2796 4A2E0000 		.4byte	0x2e4a
 6970 279a A4270000 		.4byte	0x27a4
 6971 279e 2C       		.uleb128 0x2c
 6972 279f 01       		.uleb128 0x1
 6973 27a0 50       		.byte	0x50
ARM GAS  C:\Users\strap\AppData\Local\Temp\cci64Z2T.s 			page 150


 6974 27a1 01       		.uleb128 0x1
 6975 27a2 31       		.byte	0x31
 6976 27a3 00       		.byte	0
 6977 27a4 2D       		.uleb128 0x2d
 6978 27a5 0E000000 		.4byte	.LVL199
 6979 27a9 552E0000 		.4byte	0x2e55
 6980 27ad 2C       		.uleb128 0x2c
 6981 27ae 01       		.uleb128 0x1
 6982 27af 50       		.byte	0x50
 6983 27b0 01       		.uleb128 0x1
 6984 27b1 31       		.byte	0x31
 6985 27b2 00       		.byte	0
 6986 27b3 00       		.byte	0
 6987 27b4 31       		.uleb128 0x31
 6988 27b5 930C0000 		.4byte	.LASF494
 6989 27b9 01       		.byte	0x1
 6990 27ba F0       		.byte	0xf0
 6991 27bb 00000000 		.4byte	.LFB444
 6992 27bf 36000000 		.4byte	.LFE444-.LFB444
 6993 27c3 01       		.uleb128 0x1
 6994 27c4 9C       		.byte	0x9c
 6995 27c5 18280000 		.4byte	0x2818
 6996 27c9 32       		.uleb128 0x32
 6997 27ca 4B070000 		.4byte	.LASF495
 6998 27ce 01       		.byte	0x1
 6999 27cf F3       		.byte	0xf3
 7000 27d0 25010000 		.4byte	0x125
 7001 27d4 02       		.uleb128 0x2
 7002 27d5 91       		.byte	0x91
 7003 27d6 77       		.sleb128 -9
 7004 27d7 27       		.uleb128 0x27
 7005 27d8 08000000 		.4byte	.LVL200
 7006 27dc 602E0000 		.4byte	0x2e60
 7007 27e0 27       		.uleb128 0x27
 7008 27e1 10000000 		.4byte	.LVL201
 7009 27e5 6B2E0000 		.4byte	0x2e6b
 7010 27e9 27       		.uleb128 0x27
 7011 27ea 22000000 		.4byte	.LVL202
 7012 27ee 762E0000 		.4byte	0x2e76
 7013 27f2 2B       		.uleb128 0x2b
 7014 27f3 28000000 		.4byte	.LVL203
 7015 27f7 552E0000 		.4byte	0x2e55
 7016 27fb 05280000 		.4byte	0x2805
 7017 27ff 2C       		.uleb128 0x2c
 7018 2800 01       		.uleb128 0x1
 7019 2801 50       		.byte	0x50
 7020 2802 01       		.uleb128 0x1
 7021 2803 30       		.byte	0x30
 7022 2804 00       		.byte	0
 7023 2805 27       		.uleb128 0x27
 7024 2806 2C000000 		.4byte	.LVL204
 7025 280a 812E0000 		.4byte	0x2e81
 7026 280e 27       		.uleb128 0x27
 7027 280f 30000000 		.4byte	.LVL205
 7028 2813 8C2E0000 		.4byte	0x2e8c
 7029 2817 00       		.byte	0
 7030 2818 33       		.uleb128 0x33
ARM GAS  C:\Users\strap\AppData\Local\Temp\cci64Z2T.s 			page 151


 7031 2819 00260000 		.4byte	.LASF605
 7032 281d 01       		.byte	0x1
 7033 281e 73       		.byte	0x73
 7034 281f 94000000 		.4byte	0x94
 7035 2823 00000000 		.4byte	.LFB441
 7036 2827 F4000000 		.4byte	.LFE441-.LFB441
 7037 282b 01       		.uleb128 0x1
 7038 282c 9C       		.byte	0x9c
 7039 282d 402A0000 		.4byte	0x2a40
 7040 2831 32       		.uleb128 0x32
 7041 2832 71130000 		.4byte	.LASF76
 7042 2836 01       		.byte	0x1
 7043 2837 8E       		.byte	0x8e
 7044 2838 402A0000 		.4byte	0x2a40
 7045 283c 05       		.uleb128 0x5
 7046 283d 03       		.byte	0x3
 7047 283e 2C190000 		.4byte	buf1.12276
 7048 2842 32       		.uleb128 0x32
 7049 2843 76130000 		.4byte	.LASF77
 7050 2847 01       		.byte	0x1
 7051 2848 8F       		.byte	0x8f
 7052 2849 402A0000 		.4byte	0x2a40
 7053 284d 05       		.uleb128 0x5
 7054 284e 03       		.byte	0x3
 7055 284f 2C000000 		.4byte	buf2.12277
 7056 2853 32       		.uleb128 0x32
 7057 2854 461C0000 		.4byte	.LASF496
 7058 2858 01       		.byte	0x1
 7059 2859 92       		.byte	0x92
 7060 285a 41040000 		.4byte	0x441
 7061 285e 05       		.uleb128 0x5
 7062 285f 03       		.byte	0x3
 7063 2860 2C320000 		.4byte	disp_buf.12278
 7064 2864 32       		.uleb128 0x32
 7065 2865 E7220000 		.4byte	.LASF497
 7066 2869 01       		.byte	0x1
 7067 286a 96       		.byte	0x96
 7068 286b CB050000 		.4byte	0x5cb
 7069 286f 02       		.uleb128 0x2
 7070 2870 91       		.byte	0x91
 7071 2871 40       		.sleb128 -64
 7072 2872 32       		.uleb128 0x32
 7073 2873 AB1E0000 		.4byte	.LASF498
 7074 2877 01       		.byte	0x1
 7075 2878 A0       		.byte	0xa0
 7076 2879 FB090000 		.4byte	0x9fb
 7077 287d 03       		.uleb128 0x3
 7078 287e 91       		.byte	0x91
 7079 287f A07F     		.sleb128 -96
 7080 2881 34       		.uleb128 0x34
 7081 2882 F9160000 		.4byte	0x16f9
 7082 2886 B8000000 		.4byte	.LBB64
 7083 288a 06000000 		.4byte	.LBE64-.LBB64
 7084 288e 01       		.byte	0x1
 7085 288f B9       		.byte	0xb9
 7086 2890 A7280000 		.4byte	0x28a7
 7087 2894 2F       		.uleb128 0x2f
ARM GAS  C:\Users\strap\AppData\Local\Temp\cci64Z2T.s 			page 152


 7088 2895 05170000 		.4byte	0x1705
 7089 2899 49060000 		.4byte	.LLST73
 7090 289d 27       		.uleb128 0x27
 7091 289e BE000000 		.4byte	.LVL231
 7092 28a2 972E0000 		.4byte	0x2e97
 7093 28a6 00       		.byte	0
 7094 28a7 2B       		.uleb128 0x2b
 7095 28a8 0A000000 		.4byte	.LVL206
 7096 28ac A22E0000 		.4byte	0x2ea2
 7097 28b0 BE280000 		.4byte	0x28be
 7098 28b4 2C       		.uleb128 0x2c
 7099 28b5 01       		.uleb128 0x1
 7100 28b6 50       		.byte	0x50
 7101 28b7 05       		.uleb128 0x5
 7102 28b8 03       		.byte	0x3
 7103 28b9 00000000 		.4byte	spi_tx_dma_done
 7104 28bd 00       		.byte	0
 7105 28be 2B       		.uleb128 0x2b
 7106 28bf 10000000 		.4byte	.LVL207
 7107 28c3 AD2E0000 		.4byte	0x2ead
 7108 28c7 D5280000 		.4byte	0x28d5
 7109 28cb 2C       		.uleb128 0x2c
 7110 28cc 01       		.uleb128 0x1
 7111 28cd 50       		.byte	0x50
 7112 28ce 05       		.uleb128 0x5
 7113 28cf 03       		.byte	0x3
 7114 28d0 00000000 		.4byte	spi_tx_isr_handler
 7115 28d4 00       		.byte	0
 7116 28d5 27       		.uleb128 0x27
 7117 28d6 14000000 		.4byte	.LVL208
 7118 28da B82E0000 		.4byte	0x2eb8
 7119 28de 27       		.uleb128 0x27
 7120 28df 18000000 		.4byte	.LVL209
 7121 28e3 C32E0000 		.4byte	0x2ec3
 7122 28e7 27       		.uleb128 0x27
 7123 28e8 1C000000 		.4byte	.LVL210
 7124 28ec CE2E0000 		.4byte	0x2ece
 7125 28f0 27       		.uleb128 0x27
 7126 28f1 20000000 		.4byte	.LVL211
 7127 28f5 D92E0000 		.4byte	0x2ed9
 7128 28f9 27       		.uleb128 0x27
 7129 28fa 24000000 		.4byte	.LVL212
 7130 28fe E42E0000 		.4byte	0x2ee4
 7131 2902 2B       		.uleb128 0x2b
 7132 2903 2C000000 		.4byte	.LVL213
 7133 2907 EF2E0000 		.4byte	0x2eef
 7134 290b 1E290000 		.4byte	0x291e
 7135 290f 2C       		.uleb128 0x2c
 7136 2910 01       		.uleb128 0x1
 7137 2911 50       		.byte	0x50
 7138 2912 01       		.uleb128 0x1
 7139 2913 30       		.byte	0x30
 7140 2914 2C       		.uleb128 0x2c
 7141 2915 01       		.uleb128 0x1
 7142 2916 51       		.byte	0x51
 7143 2917 05       		.uleb128 0x5
 7144 2918 03       		.byte	0x3
ARM GAS  C:\Users\strap\AppData\Local\Temp\cci64Z2T.s 			page 153


 7145 2919 00000000 		.4byte	timer_tick_handler
 7146 291d 00       		.byte	0
 7147 291e 27       		.uleb128 0x27
 7148 291f 30000000 		.4byte	.LVL214
 7149 2923 FA2E0000 		.4byte	0x2efa
 7150 2927 27       		.uleb128 0x27
 7151 2928 34000000 		.4byte	.LVL215
 7152 292c 052F0000 		.4byte	0x2f05
 7153 2930 27       		.uleb128 0x27
 7154 2931 3A000000 		.4byte	.LVL216
 7155 2935 102F0000 		.4byte	0x2f10
 7156 2939 2B       		.uleb128 0x2b
 7157 293a 4E000000 		.4byte	.LVL217
 7158 293e 1C2F0000 		.4byte	0x2f1c
 7159 2942 63290000 		.4byte	0x2963
 7160 2946 2C       		.uleb128 0x2c
 7161 2947 01       		.uleb128 0x1
 7162 2948 50       		.byte	0x50
 7163 2949 02       		.uleb128 0x2
 7164 294a 75       		.byte	0x75
 7165 294b 00       		.sleb128 0
 7166 294c 2C       		.uleb128 0x2c
 7167 294d 01       		.uleb128 0x1
 7168 294e 51       		.byte	0x51
 7169 294f 05       		.uleb128 0x5
 7170 2950 03       		.byte	0x3
 7171 2951 2C190000 		.4byte	.LANCHOR1+2100
 7172 2955 2C       		.uleb128 0x2c
 7173 2956 01       		.uleb128 0x1
 7174 2957 52       		.byte	0x52
 7175 2958 02       		.uleb128 0x2
 7176 2959 74       		.byte	0x74
 7177 295a 2C       		.sleb128 44
 7178 295b 2C       		.uleb128 0x2c
 7179 295c 01       		.uleb128 0x1
 7180 295d 53       		.byte	0x53
 7181 295e 03       		.uleb128 0x3
 7182 295f 0A       		.byte	0xa
 7183 2960 800C     		.2byte	0xc80
 7184 2962 00       		.byte	0
 7185 2963 2B       		.uleb128 0x2b
 7186 2964 54000000 		.4byte	.LVL218
 7187 2968 272F0000 		.4byte	0x2f27
 7188 296c 77290000 		.4byte	0x2977
 7189 2970 2C       		.uleb128 0x2c
 7190 2971 01       		.uleb128 0x1
 7191 2972 50       		.byte	0x50
 7192 2973 02       		.uleb128 0x2
 7193 2974 91       		.byte	0x91
 7194 2975 40       		.sleb128 -64
 7195 2976 00       		.byte	0
 7196 2977 2B       		.uleb128 0x2b
 7197 2978 64000000 		.4byte	.LVL219
 7198 297c 322F0000 		.4byte	0x2f32
 7199 2980 8B290000 		.4byte	0x298b
 7200 2984 2C       		.uleb128 0x2c
 7201 2985 01       		.uleb128 0x1
ARM GAS  C:\Users\strap\AppData\Local\Temp\cci64Z2T.s 			page 154


 7202 2986 50       		.byte	0x50
 7203 2987 02       		.uleb128 0x2
 7204 2988 91       		.byte	0x91
 7205 2989 40       		.sleb128 -64
 7206 298a 00       		.byte	0
 7207 298b 2B       		.uleb128 0x2b
 7208 298c 6A000000 		.4byte	.LVL220
 7209 2990 3D2F0000 		.4byte	0x2f3d
 7210 2994 9F290000 		.4byte	0x299f
 7211 2998 2C       		.uleb128 0x2c
 7212 2999 01       		.uleb128 0x1
 7213 299a 50       		.byte	0x50
 7214 299b 02       		.uleb128 0x2
 7215 299c 7D       		.byte	0x7d
 7216 299d 00       		.sleb128 0
 7217 299e 00       		.byte	0
 7218 299f 2B       		.uleb128 0x2b
 7219 29a0 7A000000 		.4byte	.LVL221
 7220 29a4 482F0000 		.4byte	0x2f48
 7221 29a8 B3290000 		.4byte	0x29b3
 7222 29ac 2C       		.uleb128 0x2c
 7223 29ad 01       		.uleb128 0x1
 7224 29ae 50       		.byte	0x50
 7225 29af 02       		.uleb128 0x2
 7226 29b0 7D       		.byte	0x7d
 7227 29b1 00       		.sleb128 0
 7228 29b2 00       		.byte	0
 7229 29b3 27       		.uleb128 0x27
 7230 29b4 80000000 		.4byte	.LVL222
 7231 29b8 532F0000 		.4byte	0x2f53
 7232 29bc 27       		.uleb128 0x27
 7233 29bd 86000000 		.4byte	.LVL223
 7234 29c1 532F0000 		.4byte	0x2f53
 7235 29c5 27       		.uleb128 0x27
 7236 29c6 8C000000 		.4byte	.LVL224
 7237 29ca 532F0000 		.4byte	0x2f53
 7238 29ce 27       		.uleb128 0x27
 7239 29cf 92000000 		.4byte	.LVL225
 7240 29d3 532F0000 		.4byte	0x2f53
 7241 29d7 27       		.uleb128 0x27
 7242 29d8 9C000000 		.4byte	.LVL226
 7243 29dc CC2C0000 		.4byte	0x2ccc
 7244 29e0 2B       		.uleb128 0x2b
 7245 29e1 A4000000 		.4byte	.LVL227
 7246 29e5 5E2F0000 		.4byte	0x2f5e
 7247 29e9 F9290000 		.4byte	0x29f9
 7248 29ed 2C       		.uleb128 0x2c
 7249 29ee 01       		.uleb128 0x1
 7250 29ef 50       		.byte	0x50
 7251 29f0 02       		.uleb128 0x2
 7252 29f1 91       		.byte	0x91
 7253 29f2 40       		.sleb128 -64
 7254 29f3 2C       		.uleb128 0x2c
 7255 29f4 01       		.uleb128 0x1
 7256 29f5 51       		.byte	0x51
 7257 29f6 01       		.uleb128 0x1
 7258 29f7 30       		.byte	0x30
ARM GAS  C:\Users\strap\AppData\Local\Temp\cci64Z2T.s 			page 155


 7259 29f8 00       		.byte	0
 7260 29f9 27       		.uleb128 0x27
 7261 29fa A8000000 		.4byte	.LVL228
 7262 29fe E42E0000 		.4byte	0x2ee4
 7263 2a02 2B       		.uleb128 0x2b
 7264 2a03 B0000000 		.4byte	.LVL229
 7265 2a07 692F0000 		.4byte	0x2f69
 7266 2a0b 1A2A0000 		.4byte	0x2a1a
 7267 2a0f 2C       		.uleb128 0x2c
 7268 2a10 01       		.uleb128 0x1
 7269 2a11 50       		.byte	0x50
 7270 2a12 01       		.uleb128 0x1
 7271 2a13 30       		.byte	0x30
 7272 2a14 2C       		.uleb128 0x2c
 7273 2a15 01       		.uleb128 0x1
 7274 2a16 51       		.byte	0x51
 7275 2a17 01       		.uleb128 0x1
 7276 2a18 30       		.byte	0x30
 7277 2a19 00       		.byte	0
 7278 2a1a 27       		.uleb128 0x27
 7279 2a1b B8000000 		.4byte	.LVL230
 7280 2a1f 43220000 		.4byte	0x2243
 7281 2a23 2B       		.uleb128 0x2b
 7282 2a24 C4000000 		.4byte	.LVL232
 7283 2a28 752F0000 		.4byte	0x2f75
 7284 2a2c 362A0000 		.4byte	0x2a36
 7285 2a30 2C       		.uleb128 0x2c
 7286 2a31 01       		.uleb128 0x1
 7287 2a32 50       		.byte	0x50
 7288 2a33 01       		.uleb128 0x1
 7289 2a34 31       		.byte	0x31
 7290 2a35 00       		.byte	0
 7291 2a36 27       		.uleb128 0x27
 7292 2a37 C8000000 		.4byte	.LVL233
 7293 2a3b 802F0000 		.4byte	0x2f80
 7294 2a3f 00       		.byte	0
 7295 2a40 1B       		.uleb128 0x1b
 7296 2a41 AB020000 		.4byte	0x2ab
 7297 2a45 512A0000 		.4byte	0x2a51
 7298 2a49 35       		.uleb128 0x35
 7299 2a4a 0C010000 		.4byte	0x10c
 7300 2a4e 7F0C     		.2byte	0xc7f
 7301 2a50 00       		.byte	0
 7302 2a51 32       		.uleb128 0x32
 7303 2a52 8A1F0000 		.4byte	.LASF499
 7304 2a56 01       		.byte	0x1
 7305 2a57 28       		.byte	0x28
 7306 2a58 EE120000 		.4byte	0x12ee
 7307 2a5c 05       		.uleb128 0x5
 7308 2a5d 03       		.byte	0x3
 7309 2a5e 24000000 		.4byte	parameter_list_container
 7310 2a62 32       		.uleb128 0x32
 7311 2a63 A00B0000 		.4byte	.LASF500
 7312 2a67 01       		.byte	0x1
 7313 2a68 29       		.byte	0x29
 7314 2a69 EE120000 		.4byte	0x12ee
 7315 2a6d 05       		.uleb128 0x5
ARM GAS  C:\Users\strap\AppData\Local\Temp\cci64Z2T.s 			page 156


 7316 2a6e 03       		.byte	0x3
 7317 2a6f 28000000 		.4byte	parameter_options_container
 7318 2a73 32       		.uleb128 0x32
 7319 2a74 CC250000 		.4byte	.LASF501
 7320 2a78 01       		.byte	0x1
 7321 2a79 32       		.byte	0x32
 7322 2a7a 2E160000 		.4byte	0x162e
 7323 2a7e 05       		.uleb128 0x5
 7324 2a7f 03       		.byte	0x3
 7325 2a80 0C000000 		.4byte	parameter_list
 7326 2a84 36       		.uleb128 0x36
 7327 2a85 351E0000 		.4byte	.LASF502
 7328 2a89 01       		.byte	0x1
 7329 2a8a 5D       		.byte	0x5d
 7330 2a8b 7A0C0000 		.4byte	0xc7a
 7331 2a8f 00       		.byte	0
 7332 2a90 32       		.uleb128 0x32
 7333 2a91 EE030000 		.4byte	.LASF503
 7334 2a95 01       		.byte	0x1
 7335 2a96 60       		.byte	0x60
 7336 2a97 A12A0000 		.4byte	0x2aa1
 7337 2a9b 05       		.uleb128 0x5
 7338 2a9c 03       		.byte	0x3
 7339 2a9d 04000000 		.4byte	parameter_list_g
 7340 2aa1 07       		.uleb128 0x7
 7341 2aa2 04       		.byte	0x4
 7342 2aa3 F4120000 		.4byte	0x12f4
 7343 2aa7 32       		.uleb128 0x32
 7344 2aa8 271F0000 		.4byte	.LASF504
 7345 2aac 01       		.byte	0x1
 7346 2aad 61       		.byte	0x61
 7347 2aae A12A0000 		.4byte	0x2aa1
 7348 2ab2 05       		.uleb128 0x5
 7349 2ab3 03       		.byte	0x3
 7350 2ab4 18000000 		.4byte	burst_type_params_g
 7351 2ab8 32       		.uleb128 0x32
 7352 2ab9 241E0000 		.4byte	.LASF505
 7353 2abd 01       		.byte	0x1
 7354 2abe 62       		.byte	0x62
 7355 2abf A12A0000 		.4byte	0x2aa1
 7356 2ac3 05       		.uleb128 0x5
 7357 2ac4 03       		.byte	0x3
 7358 2ac5 1C000000 		.4byte	voltage_params_g
 7359 2ac9 32       		.uleb128 0x32
 7360 2aca FD140000 		.4byte	.LASF506
 7361 2ace 01       		.byte	0x1
 7362 2acf 63       		.byte	0x63
 7363 2ad0 A12A0000 		.4byte	0x2aa1
 7364 2ad4 05       		.uleb128 0x5
 7365 2ad5 03       		.byte	0x3
 7366 2ad6 20000000 		.4byte	pulses_params_g
 7367 2ada 32       		.uleb128 0x32
 7368 2adb 60230000 		.4byte	.LASF507
 7369 2adf 01       		.byte	0x1
 7370 2ae0 66       		.byte	0x66
 7371 2ae1 EB2A0000 		.4byte	0x2aeb
 7372 2ae5 05       		.uleb128 0x5
ARM GAS  C:\Users\strap\AppData\Local\Temp\cci64Z2T.s 			page 157


 7373 2ae6 03       		.byte	0x3
 7374 2ae7 08000000 		.4byte	encoder_indev
 7375 2aeb 07       		.uleb128 0x7
 7376 2aec 04       		.byte	0x4
 7377 2aed 690C0000 		.4byte	0xc69
 7378 2af1 37       		.uleb128 0x37
 7379 2af2 44210000 		.4byte	.LASF508
 7380 2af6 1C       		.byte	0x1c
 7381 2af7 1207     		.2byte	0x712
 7382 2af9 FD2A0000 		.4byte	0x2afd
 7383 2afd 09       		.uleb128 0x9
 7384 2afe C3000000 		.4byte	0xc3
 7385 2b02 38       		.uleb128 0x38
 7386 2b03 511A0000 		.4byte	.LASF509
 7387 2b07 01       		.byte	0x1
 7388 2b08 23       		.byte	0x23
 7389 2b09 EE120000 		.4byte	0x12ee
 7390 2b0d 05       		.uleb128 0x5
 7391 2b0e 03       		.byte	0x3
 7392 2b0f 00000000 		.4byte	selected_option
 7393 2b13 38       		.uleb128 0x38
 7394 2b14 E10E0000 		.4byte	.LASF510
 7395 2b18 01       		.byte	0x1
 7396 2b19 34       		.byte	0x34
 7397 2b1a EE120000 		.4byte	0x12ee
 7398 2b1e 05       		.uleb128 0x5
 7399 2b1f 03       		.byte	0x3
 7400 2b20 00000000 		.4byte	shoot_btn
 7401 2b24 38       		.uleb128 0x38
 7402 2b25 57080000 		.4byte	.LASF511
 7403 2b29 01       		.byte	0x1
 7404 2b2a 35       		.byte	0x35
 7405 2b2b EE120000 		.4byte	0x12ee
 7406 2b2f 05       		.uleb128 0x5
 7407 2b30 03       		.byte	0x3
 7408 2b31 00000000 		.4byte	shoot_btn_label
 7409 2b35 38       		.uleb128 0x38
 7410 2b36 611A0000 		.4byte	.LASF512
 7411 2b3a 01       		.byte	0x1
 7412 2b3b 38       		.byte	0x38
 7413 2b3c EE120000 		.4byte	0x12ee
 7414 2b40 05       		.uleb128 0x5
 7415 2b41 03       		.byte	0x3
 7416 2b42 00000000 		.4byte	continuous_cb
 7417 2b46 38       		.uleb128 0x38
 7418 2b47 95090000 		.4byte	.LASF513
 7419 2b4b 01       		.byte	0x1
 7420 2b4c 39       		.byte	0x39
 7421 2b4d EE120000 		.4byte	0x12ee
 7422 2b51 05       		.uleb128 0x5
 7423 2b52 03       		.byte	0x3
 7424 2b53 00000000 		.4byte	custom_shoot_cb
 7425 2b57 38       		.uleb128 0x38
 7426 2b58 7A120000 		.4byte	.LASF514
 7427 2b5c 01       		.byte	0x1
 7428 2b5d 3A       		.byte	0x3a
 7429 2b5e EE120000 		.4byte	0x12ee
ARM GAS  C:\Users\strap\AppData\Local\Temp\cci64Z2T.s 			page 158


 7430 2b62 05       		.uleb128 0x5
 7431 2b63 03       		.byte	0x3
 7432 2b64 00000000 		.4byte	one_shoot_cb
 7433 2b68 38       		.uleb128 0x38
 7434 2b69 16260000 		.4byte	.LASF515
 7435 2b6d 01       		.byte	0x1
 7436 2b6e 3B       		.byte	0x3b
 7437 2b6f EE120000 		.4byte	0x12ee
 7438 2b73 05       		.uleb128 0x5
 7439 2b74 03       		.byte	0x3
 7440 2b75 00000000 		.4byte	custom_spinbox
 7441 2b79 38       		.uleb128 0x38
 7442 2b7a A51C0000 		.4byte	.LASF516
 7443 2b7e 01       		.byte	0x1
 7444 2b7f 3C       		.byte	0x3c
 7445 2b80 EE120000 		.4byte	0x12ee
 7446 2b84 05       		.uleb128 0x5
 7447 2b85 03       		.byte	0x3
 7448 2b86 00000000 		.4byte	type_param_ok_btn
 7449 2b8a 38       		.uleb128 0x38
 7450 2b8b E9250000 		.4byte	.LASF517
 7451 2b8f 01       		.byte	0x1
 7452 2b90 3E       		.byte	0x3e
 7453 2b91 EE120000 		.4byte	0x12ee
 7454 2b95 05       		.uleb128 0x5
 7455 2b96 03       		.byte	0x3
 7456 2b97 00000000 		.4byte	burst_type_list
 7457 2b9b 38       		.uleb128 0x38
 7458 2b9c D51C0000 		.4byte	.LASF518
 7459 2ba0 01       		.byte	0x1
 7460 2ba1 40       		.byte	0x40
 7461 2ba2 EE120000 		.4byte	0x12ee
 7462 2ba6 05       		.uleb128 0x5
 7463 2ba7 03       		.byte	0x3
 7464 2ba8 00000000 		.4byte	voltage_ddlist
 7465 2bac 38       		.uleb128 0x38
 7466 2bad 62140000 		.4byte	.LASF519
 7467 2bb1 01       		.byte	0x1
 7468 2bb2 41       		.byte	0x41
 7469 2bb3 EE120000 		.4byte	0x12ee
 7470 2bb7 05       		.uleb128 0x5
 7471 2bb8 03       		.byte	0x3
 7472 2bb9 00000000 		.4byte	voltage_ok_btn
 7473 2bbd 38       		.uleb128 0x38
 7474 2bbe B9160000 		.4byte	.LASF520
 7475 2bc2 01       		.byte	0x1
 7476 2bc3 42       		.byte	0x42
 7477 2bc4 EE120000 		.4byte	0x12ee
 7478 2bc8 05       		.uleb128 0x5
 7479 2bc9 03       		.byte	0x3
 7480 2bca 00000000 		.4byte	pulses_ok_btn
 7481 2bce 38       		.uleb128 0x38
 7482 2bcf 4D1D0000 		.4byte	.LASF521
 7483 2bd3 01       		.byte	0x1
 7484 2bd4 47       		.byte	0x47
 7485 2bd5 EE120000 		.4byte	0x12ee
 7486 2bd9 05       		.uleb128 0x5
ARM GAS  C:\Users\strap\AppData\Local\Temp\cci64Z2T.s 			page 159


 7487 2bda 03       		.byte	0x3
 7488 2bdb 00000000 		.4byte	pulses_spinbox
 7489 2bdf 38       		.uleb128 0x38
 7490 2be0 300D0000 		.4byte	.LASF522
 7491 2be4 01       		.byte	0x1
 7492 2be5 52       		.byte	0x52
 7493 2be6 09160000 		.4byte	0x1609
 7494 2bea 05       		.uleb128 0x5
 7495 2beb 03       		.byte	0x3
 7496 2bec 00000000 		.4byte	parameter_list_ssss
 7497 2bf0 38       		.uleb128 0x38
 7498 2bf1 A20F0000 		.4byte	.LASF523
 7499 2bf5 01       		.byte	0x1
 7500 2bf6 54       		.byte	0x54
 7501 2bf7 EE120000 		.4byte	0x12ee
 7502 2bfb 05       		.uleb128 0x5
 7503 2bfc 03       		.byte	0x3
 7504 2bfd 00000000 		.4byte	one_shot_checkbox
 7505 2c01 38       		.uleb128 0x38
 7506 2c02 AE200000 		.4byte	.LASF524
 7507 2c06 01       		.byte	0x1
 7508 2c07 55       		.byte	0x55
 7509 2c08 EE120000 		.4byte	0x12ee
 7510 2c0c 05       		.uleb128 0x5
 7511 2c0d 03       		.byte	0x3
 7512 2c0e 00000000 		.4byte	continous_checkbox
 7513 2c12 38       		.uleb128 0x38
 7514 2c13 36160000 		.4byte	.LASF525
 7515 2c17 01       		.byte	0x1
 7516 2c18 57       		.byte	0x57
 7517 2c19 EE120000 		.4byte	0x12ee
 7518 2c1d 05       		.uleb128 0x5
 7519 2c1e 03       		.byte	0x3
 7520 2c1f 00000000 		.4byte	v24_checkbox
 7521 2c23 38       		.uleb128 0x38
 7522 2c24 56070000 		.4byte	.LASF526
 7523 2c28 01       		.byte	0x1
 7524 2c29 58       		.byte	0x58
 7525 2c2a EE120000 		.4byte	0x12ee
 7526 2c2e 05       		.uleb128 0x5
 7527 2c2f 03       		.byte	0x3
 7528 2c30 00000000 		.4byte	v48_checkbox
 7529 2c34 38       		.uleb128 0x38
 7530 2c35 520C0000 		.4byte	.LASF527
 7531 2c39 01       		.byte	0x1
 7532 2c3a 59       		.byte	0x59
 7533 2c3b EE120000 		.4byte	0x12ee
 7534 2c3f 05       		.uleb128 0x5
 7535 2c40 03       		.byte	0x3
 7536 2c41 00000000 		.4byte	v72_checkbox
 7537 2c45 38       		.uleb128 0x38
 7538 2c46 13080000 		.4byte	.LASF528
 7539 2c4a 01       		.byte	0x1
 7540 2c4b 5B       		.byte	0x5b
 7541 2c4c A2000000 		.4byte	0xa2
 7542 2c50 05       		.uleb128 0x5
 7543 2c51 03       		.byte	0x3
ARM GAS  C:\Users\strap\AppData\Local\Temp\cci64Z2T.s 			page 160


 7544 2c52 00000000 		.4byte	qd_current_cnt
 7545 2c56 38       		.uleb128 0x38
 7546 2c57 690C0000 		.4byte	.LASF529
 7547 2c5b 01       		.byte	0x1
 7548 2c5c 5C       		.byte	0x5c
 7549 2c5d A2000000 		.4byte	0xa2
 7550 2c61 05       		.uleb128 0x5
 7551 2c62 03       		.byte	0x3
 7552 2c63 00000000 		.4byte	qd_old_cnt
 7553 2c67 38       		.uleb128 0x38
 7554 2c68 A4260000 		.4byte	.LASF530
 7555 2c6c 01       		.byte	0x1
 7556 2c6d 68       		.byte	0x68
 7557 2c6e EE120000 		.4byte	0x12ee
 7558 2c72 05       		.uleb128 0x5
 7559 2c73 03       		.byte	0x3
 7560 2c74 00000000 		.4byte	app_screen
 7561 2c78 38       		.uleb128 0x38
 7562 2c79 82160000 		.4byte	.LASF531
 7563 2c7d 01       		.byte	0x1
 7564 2c7e 6C       		.byte	0x6c
 7565 2c7f BA150000 		.4byte	0x15ba
 7566 2c83 05       		.uleb128 0x5
 7567 2c84 03       		.byte	0x3
 7568 2c85 00000000 		.4byte	ili9341_driver
 7569 2c89 39       		.uleb128 0x39
 7570 2c8a 2A190000 		.4byte	.LASF532
 7571 2c8e 2A190000 		.4byte	.LASF532
 7572 2c92 1D       		.byte	0x1d
 7573 2c93 4E       		.byte	0x4e
 7574 2c94 39       		.uleb128 0x39
 7575 2c95 6A120000 		.4byte	.LASF533
 7576 2c99 6A120000 		.4byte	.LASF533
 7577 2c9d 1E       		.byte	0x1e
 7578 2c9e 29       		.byte	0x29
 7579 2c9f 39       		.uleb128 0x39
 7580 2ca0 660E0000 		.4byte	.LASF534
 7581 2ca4 660E0000 		.4byte	.LASF534
 7582 2ca8 1F       		.byte	0x1f
 7583 2ca9 BD       		.byte	0xbd
 7584 2caa 39       		.uleb128 0x39
 7585 2cab 151E0000 		.4byte	.LASF535
 7586 2caf 151E0000 		.4byte	.LASF535
 7587 2cb3 20       		.byte	0x20
 7588 2cb4 29       		.byte	0x29
 7589 2cb5 39       		.uleb128 0x39
 7590 2cb6 AD060000 		.4byte	.LASF536
 7591 2cba AD060000 		.4byte	.LASF536
 7592 2cbe 21       		.byte	0x21
 7593 2cbf 88       		.byte	0x88
 7594 2cc0 3A       		.uleb128 0x3a
 7595 2cc1 D10B0000 		.4byte	.LASF537
 7596 2cc5 D10B0000 		.4byte	.LASF537
 7597 2cc9 11       		.byte	0x11
 7598 2cca BC02     		.2byte	0x2bc
 7599 2ccc 39       		.uleb128 0x39
 7600 2ccd 3E240000 		.4byte	.LASF538
ARM GAS  C:\Users\strap\AppData\Local\Temp\cci64Z2T.s 			page 161


 7601 2cd1 3E240000 		.4byte	.LASF538
 7602 2cd5 22       		.byte	0x22
 7603 2cd6 5A       		.byte	0x5a
 7604 2cd7 39       		.uleb128 0x39
 7605 2cd8 F11F0000 		.4byte	.LASF539
 7606 2cdc F11F0000 		.4byte	.LASF539
 7607 2ce0 20       		.byte	0x20
 7608 2ce1 26       		.byte	0x26
 7609 2ce2 39       		.uleb128 0x39
 7610 2ce3 17050000 		.4byte	.LASF540
 7611 2ce7 17050000 		.4byte	.LASF540
 7612 2ceb 13       		.byte	0x13
 7613 2cec 79       		.byte	0x79
 7614 2ced 39       		.uleb128 0x39
 7615 2cee FB070000 		.4byte	.LASF541
 7616 2cf2 FB070000 		.4byte	.LASF541
 7617 2cf6 02       		.byte	0x2
 7618 2cf7 5F       		.byte	0x5f
 7619 2cf8 39       		.uleb128 0x39
 7620 2cf9 67080000 		.4byte	.LASF542
 7621 2cfd 67080000 		.4byte	.LASF542
 7622 2d01 16       		.byte	0x16
 7623 2d02 9F       		.byte	0x9f
 7624 2d03 39       		.uleb128 0x39
 7625 2d04 550F0000 		.4byte	.LASF543
 7626 2d08 550F0000 		.4byte	.LASF543
 7627 2d0c 20       		.byte	0x20
 7628 2d0d 28       		.byte	0x28
 7629 2d0e 39       		.uleb128 0x39
 7630 2d0f 641C0000 		.4byte	.LASF544
 7631 2d13 641C0000 		.4byte	.LASF544
 7632 2d17 20       		.byte	0x20
 7633 2d18 2A       		.byte	0x2a
 7634 2d19 3A       		.uleb128 0x3a
 7635 2d1a BA140000 		.4byte	.LASF545
 7636 2d1e BA140000 		.4byte	.LASF545
 7637 2d22 11       		.byte	0x11
 7638 2d23 9D02     		.2byte	0x29d
 7639 2d25 39       		.uleb128 0x39
 7640 2d26 8C130000 		.4byte	.LASF546
 7641 2d2a 8C130000 		.4byte	.LASF546
 7642 2d2e 04       		.byte	0x4
 7643 2d2f 95       		.byte	0x95
 7644 2d30 39       		.uleb128 0x39
 7645 2d31 E3110000 		.4byte	.LASF547
 7646 2d35 E3110000 		.4byte	.LASF547
 7647 2d39 1F       		.byte	0x1f
 7648 2d3a 58       		.byte	0x58
 7649 2d3b 39       		.uleb128 0x39
 7650 2d3c 79250000 		.4byte	.LASF548
 7651 2d40 79250000 		.4byte	.LASF548
 7652 2d44 16       		.byte	0x16
 7653 2d45 4C       		.byte	0x4c
 7654 2d46 39       		.uleb128 0x39
 7655 2d47 F5000000 		.4byte	.LASF549
 7656 2d4b F5000000 		.4byte	.LASF549
 7657 2d4f 1F       		.byte	0x1f
ARM GAS  C:\Users\strap\AppData\Local\Temp\cci64Z2T.s 			page 162


 7658 2d50 71       		.byte	0x71
 7659 2d51 39       		.uleb128 0x39
 7660 2d52 C1200000 		.4byte	.LASF550
 7661 2d56 C1200000 		.4byte	.LASF550
 7662 2d5a 13       		.byte	0x13
 7663 2d5b 67       		.byte	0x67
 7664 2d5c 3A       		.uleb128 0x3a
 7665 2d5d E9230000 		.4byte	.LASF551
 7666 2d61 E9230000 		.4byte	.LASF551
 7667 2d65 11       		.byte	0x11
 7668 2d66 4703     		.2byte	0x347
 7669 2d68 39       		.uleb128 0x39
 7670 2d69 2A050000 		.4byte	.LASF552
 7671 2d6d 2A050000 		.4byte	.LASF552
 7672 2d71 21       		.byte	0x21
 7673 2d72 46       		.byte	0x46
 7674 2d73 39       		.uleb128 0x39
 7675 2d74 5F240000 		.4byte	.LASF553
 7676 2d78 5F240000 		.4byte	.LASF553
 7677 2d7c 21       		.byte	0x21
 7678 2d7d 70       		.byte	0x70
 7679 2d7e 39       		.uleb128 0x39
 7680 2d7f 94020000 		.4byte	.LASF554
 7681 2d83 94020000 		.4byte	.LASF554
 7682 2d87 21       		.byte	0x21
 7683 2d88 61       		.byte	0x61
 7684 2d89 39       		.uleb128 0x39
 7685 2d8a 6C260000 		.4byte	.LASF555
 7686 2d8e 6C260000 		.4byte	.LASF555
 7687 2d92 19       		.byte	0x19
 7688 2d93 A6       		.byte	0xa6
 7689 2d94 39       		.uleb128 0x39
 7690 2d95 88170000 		.4byte	.LASF556
 7691 2d99 88170000 		.4byte	.LASF556
 7692 2d9d 19       		.byte	0x19
 7693 2d9e C4       		.byte	0xc4
 7694 2d9f 3A       		.uleb128 0x3a
 7695 2da0 6D220000 		.4byte	.LASF557
 7696 2da4 6D220000 		.4byte	.LASF557
 7697 2da8 11       		.byte	0x11
 7698 2da9 2403     		.2byte	0x324
 7699 2dab 3A       		.uleb128 0x3a
 7700 2dac 6B020000 		.4byte	.LASF558
 7701 2db0 6B020000 		.4byte	.LASF558
 7702 2db4 11       		.byte	0x11
 7703 2db5 FD03     		.2byte	0x3fd
 7704 2db7 3A       		.uleb128 0x3a
 7705 2db8 80090000 		.4byte	.LASF559
 7706 2dbc 80090000 		.4byte	.LASF559
 7707 2dc0 11       		.byte	0x11
 7708 2dc1 C501     		.2byte	0x1c5
 7709 2dc3 3A       		.uleb128 0x3a
 7710 2dc4 3B100000 		.4byte	.LASF560
 7711 2dc8 3B100000 		.4byte	.LASF560
 7712 2dcc 11       		.byte	0x11
 7713 2dcd E601     		.2byte	0x1e6
 7714 2dcf 3A       		.uleb128 0x3a
ARM GAS  C:\Users\strap\AppData\Local\Temp\cci64Z2T.s 			page 163


 7715 2dd0 35080000 		.4byte	.LASF561
 7716 2dd4 35080000 		.4byte	.LASF561
 7717 2dd8 10       		.byte	0x10
 7718 2dd9 0301     		.2byte	0x103
 7719 2ddb 39       		.uleb128 0x39
 7720 2ddc EC0F0000 		.4byte	.LASF562
 7721 2de0 EC0F0000 		.4byte	.LASF562
 7722 2de4 10       		.byte	0x10
 7723 2de5 FC       		.byte	0xfc
 7724 2de6 39       		.uleb128 0x39
 7725 2de7 7D040000 		.4byte	.LASF563
 7726 2deb 7D040000 		.4byte	.LASF563
 7727 2def 04       		.byte	0x4
 7728 2df0 7F       		.byte	0x7f
 7729 2df1 3A       		.uleb128 0x3a
 7730 2df2 8C040000 		.4byte	.LASF564
 7731 2df6 8C040000 		.4byte	.LASF564
 7732 2dfa 11       		.byte	0x11
 7733 2dfb B001     		.2byte	0x1b0
 7734 2dfd 39       		.uleb128 0x39
 7735 2dfe 83190000 		.4byte	.LASF565
 7736 2e02 83190000 		.4byte	.LASF565
 7737 2e06 04       		.byte	0x4
 7738 2e07 8A       		.byte	0x8a
 7739 2e08 39       		.uleb128 0x39
 7740 2e09 DD100000 		.4byte	.LASF566
 7741 2e0d DD100000 		.4byte	.LASF566
 7742 2e11 17       		.byte	0x17
 7743 2e12 76       		.byte	0x76
 7744 2e13 39       		.uleb128 0x39
 7745 2e14 731F0000 		.4byte	.LASF567
 7746 2e18 731F0000 		.4byte	.LASF567
 7747 2e1c 17       		.byte	0x17
 7748 2e1d 81       		.byte	0x81
 7749 2e1e 39       		.uleb128 0x39
 7750 2e1f 6F210000 		.4byte	.LASF568
 7751 2e23 6F210000 		.4byte	.LASF568
 7752 2e27 02       		.byte	0x2
 7753 2e28 44       		.byte	0x44
 7754 2e29 39       		.uleb128 0x39
 7755 2e2a 46020000 		.4byte	.LASF569
 7756 2e2e 46020000 		.4byte	.LASF569
 7757 2e32 02       		.byte	0x2
 7758 2e33 50       		.byte	0x50
 7759 2e34 39       		.uleb128 0x39
 7760 2e35 53180000 		.4byte	.LASF570
 7761 2e39 53180000 		.4byte	.LASF570
 7762 2e3d 13       		.byte	0x13
 7763 2e3e AA       		.byte	0xaa
 7764 2e3f 39       		.uleb128 0x39
 7765 2e40 E61D0000 		.4byte	.LASF571
 7766 2e44 E61D0000 		.4byte	.LASF571
 7767 2e48 23       		.byte	0x23
 7768 2e49 2A       		.byte	0x2a
 7769 2e4a 39       		.uleb128 0x39
 7770 2e4b 23130000 		.4byte	.LASF572
 7771 2e4f 23130000 		.4byte	.LASF572
ARM GAS  C:\Users\strap\AppData\Local\Temp\cci64Z2T.s 			page 164


 7772 2e53 1B       		.byte	0x1b
 7773 2e54 13       		.byte	0x13
 7774 2e55 39       		.uleb128 0x39
 7775 2e56 3D090000 		.4byte	.LASF573
 7776 2e5a 3D090000 		.4byte	.LASF573
 7777 2e5e 24       		.byte	0x24
 7778 2e5f 5A       		.byte	0x5a
 7779 2e60 39       		.uleb128 0x39
 7780 2e61 1E140000 		.4byte	.LASF574
 7781 2e65 1E140000 		.4byte	.LASF574
 7782 2e69 24       		.byte	0x24
 7783 2e6a 5C       		.byte	0x5c
 7784 2e6b 39       		.uleb128 0x39
 7785 2e6c E5240000 		.4byte	.LASF575
 7786 2e70 E5240000 		.4byte	.LASF575
 7787 2e74 1B       		.byte	0x1b
 7788 2e75 14       		.byte	0x14
 7789 2e76 39       		.uleb128 0x39
 7790 2e77 65150000 		.4byte	.LASF576
 7791 2e7b 65150000 		.4byte	.LASF576
 7792 2e7f 25       		.byte	0x25
 7793 2e80 26       		.byte	0x26
 7794 2e81 39       		.uleb128 0x39
 7795 2e82 FE0E0000 		.4byte	.LASF577
 7796 2e86 FE0E0000 		.4byte	.LASF577
 7797 2e8a 1B       		.byte	0x1b
 7798 2e8b 10       		.byte	0x10
 7799 2e8c 39       		.uleb128 0x39
 7800 2e8d F10B0000 		.4byte	.LASF578
 7801 2e91 F10B0000 		.4byte	.LASF578
 7802 2e95 26       		.byte	0x26
 7803 2e96 4B       		.byte	0x4b
 7804 2e97 39       		.uleb128 0x39
 7805 2e98 1E270000 		.4byte	.LASF579
 7806 2e9c 1E270000 		.4byte	.LASF579
 7807 2ea0 05       		.byte	0x5
 7808 2ea1 40       		.byte	0x40
 7809 2ea2 39       		.uleb128 0x39
 7810 2ea3 48260000 		.4byte	.LASF580
 7811 2ea7 48260000 		.4byte	.LASF580
 7812 2eab 27       		.byte	0x27
 7813 2eac 18       		.byte	0x18
 7814 2ead 39       		.uleb128 0x39
 7815 2eae FA120000 		.4byte	.LASF581
 7816 2eb2 FA120000 		.4byte	.LASF581
 7817 2eb6 28       		.byte	0x28
 7818 2eb7 18       		.byte	0x18
 7819 2eb8 39       		.uleb128 0x39
 7820 2eb9 DB250000 		.4byte	.LASF582
 7821 2ebd DB250000 		.4byte	.LASF582
 7822 2ec1 1D       		.byte	0x1d
 7823 2ec2 48       		.byte	0x48
 7824 2ec3 39       		.uleb128 0x39
 7825 2ec4 66130000 		.4byte	.LASF583
 7826 2ec8 66130000 		.4byte	.LASF583
 7827 2ecc 20       		.byte	0x20
 7828 2ecd 1F       		.byte	0x1f
ARM GAS  C:\Users\strap\AppData\Local\Temp\cci64Z2T.s 			page 165


 7829 2ece 39       		.uleb128 0x39
 7830 2ecf 731D0000 		.4byte	.LASF584
 7831 2ed3 731D0000 		.4byte	.LASF584
 7832 2ed7 24       		.byte	0x24
 7833 2ed8 4D       		.byte	0x4d
 7834 2ed9 39       		.uleb128 0x39
 7835 2eda 26010000 		.4byte	.LASF585
 7836 2ede 26010000 		.4byte	.LASF585
 7837 2ee2 1B       		.byte	0x1b
 7838 2ee3 0F       		.byte	0xf
 7839 2ee4 39       		.uleb128 0x39
 7840 2ee5 24180000 		.4byte	.LASF586
 7841 2ee9 24180000 		.4byte	.LASF586
 7842 2eed 29       		.byte	0x29
 7843 2eee AE       		.byte	0xae
 7844 2eef 39       		.uleb128 0x39
 7845 2ef0 B5180000 		.4byte	.LASF587
 7846 2ef4 B5180000 		.4byte	.LASF587
 7847 2ef8 29       		.byte	0x29
 7848 2ef9 B7       		.byte	0xb7
 7849 2efa 39       		.uleb128 0x39
 7850 2efb 561C0000 		.4byte	.LASF588
 7851 2eff 561C0000 		.4byte	.LASF588
 7852 2f03 29       		.byte	0x29
 7853 2f04 B1       		.byte	0xb1
 7854 2f05 39       		.uleb128 0x39
 7855 2f06 5E220000 		.4byte	.LASF589
 7856 2f0a 5E220000 		.4byte	.LASF589
 7857 2f0e 29       		.byte	0x29
 7858 2f0f BB       		.byte	0xbb
 7859 2f10 3A       		.uleb128 0x3a
 7860 2f11 BC0E0000 		.4byte	.LASF590
 7861 2f15 BC0E0000 		.4byte	.LASF590
 7862 2f19 11       		.byte	0x11
 7863 2f1a 2101     		.2byte	0x121
 7864 2f1c 39       		.uleb128 0x39
 7865 2f1d C70A0000 		.4byte	.LASF591
 7866 2f21 C70A0000 		.4byte	.LASF591
 7867 2f25 10       		.byte	0x10
 7868 2f26 D4       		.byte	0xd4
 7869 2f27 39       		.uleb128 0x39
 7870 2f28 0E190000 		.4byte	.LASF592
 7871 2f2c 0E190000 		.4byte	.LASF592
 7872 2f30 10       		.byte	0x10
 7873 2f31 C3       		.byte	0xc3
 7874 2f32 39       		.uleb128 0x39
 7875 2f33 65050000 		.4byte	.LASF593
 7876 2f37 65050000 		.4byte	.LASF593
 7877 2f3b 10       		.byte	0x10
 7878 2f3c DC       		.byte	0xdc
 7879 2f3d 39       		.uleb128 0x39
 7880 2f3e D0130000 		.4byte	.LASF594
 7881 2f42 D0130000 		.4byte	.LASF594
 7882 2f46 12       		.byte	0x12
 7883 2f47 C1       		.byte	0xc1
 7884 2f48 39       		.uleb128 0x39
 7885 2f49 EF1A0000 		.4byte	.LASF595
ARM GAS  C:\Users\strap\AppData\Local\Temp\cci64Z2T.s 			page 166


 7886 2f4d EF1A0000 		.4byte	.LASF595
 7887 2f51 12       		.byte	0x12
 7888 2f52 C8       		.byte	0xc8
 7889 2f53 39       		.uleb128 0x39
 7890 2f54 8C060000 		.4byte	.LASF596
 7891 2f58 8C060000 		.4byte	.LASF596
 7892 2f5c 13       		.byte	0x13
 7893 2f5d 5A       		.byte	0x5a
 7894 2f5e 39       		.uleb128 0x39
 7895 2f5f BD070000 		.4byte	.LASF597
 7896 2f63 BD070000 		.4byte	.LASF597
 7897 2f67 2A       		.byte	0x2a
 7898 2f68 71       		.byte	0x71
 7899 2f69 3A       		.uleb128 0x3a
 7900 2f6a E0090000 		.4byte	.LASF598
 7901 2f6e E0090000 		.4byte	.LASF598
 7902 2f72 11       		.byte	0x11
 7903 2f73 3701     		.2byte	0x137
 7904 2f75 39       		.uleb128 0x39
 7905 2f76 9A000000 		.4byte	.LASF599
 7906 2f7a 9A000000 		.4byte	.LASF599
 7907 2f7e 29       		.byte	0x29
 7908 2f7f 76       		.byte	0x76
 7909 2f80 39       		.uleb128 0x39
 7910 2f81 911B0000 		.4byte	.LASF600
 7911 2f85 911B0000 		.4byte	.LASF600
 7912 2f89 0D       		.byte	0xd
 7913 2f8a 56       		.byte	0x56
 7914 2f8b 00       		.byte	0
 7915              		.section	.debug_abbrev,"",%progbits
 7916              	.Ldebug_abbrev0:
 7917 0000 01       		.uleb128 0x1
 7918 0001 11       		.uleb128 0x11
 7919 0002 01       		.byte	0x1
 7920 0003 25       		.uleb128 0x25
 7921 0004 0E       		.uleb128 0xe
 7922 0005 13       		.uleb128 0x13
 7923 0006 0B       		.uleb128 0xb
 7924 0007 03       		.uleb128 0x3
 7925 0008 0E       		.uleb128 0xe
 7926 0009 1B       		.uleb128 0x1b
 7927 000a 0E       		.uleb128 0xe
 7928 000b 55       		.uleb128 0x55
 7929 000c 17       		.uleb128 0x17
 7930 000d 11       		.uleb128 0x11
 7931 000e 01       		.uleb128 0x1
 7932 000f 10       		.uleb128 0x10
 7933 0010 17       		.uleb128 0x17
 7934 0011 00       		.byte	0
 7935 0012 00       		.byte	0
 7936 0013 02       		.uleb128 0x2
 7937 0014 24       		.uleb128 0x24
 7938 0015 00       		.byte	0
 7939 0016 0B       		.uleb128 0xb
 7940 0017 0B       		.uleb128 0xb
 7941 0018 3E       		.uleb128 0x3e
 7942 0019 0B       		.uleb128 0xb
ARM GAS  C:\Users\strap\AppData\Local\Temp\cci64Z2T.s 			page 167


 7943 001a 03       		.uleb128 0x3
 7944 001b 0E       		.uleb128 0xe
 7945 001c 00       		.byte	0
 7946 001d 00       		.byte	0
 7947 001e 03       		.uleb128 0x3
 7948 001f 16       		.uleb128 0x16
 7949 0020 00       		.byte	0
 7950 0021 03       		.uleb128 0x3
 7951 0022 0E       		.uleb128 0xe
 7952 0023 3A       		.uleb128 0x3a
 7953 0024 0B       		.uleb128 0xb
 7954 0025 3B       		.uleb128 0x3b
 7955 0026 0B       		.uleb128 0xb
 7956 0027 49       		.uleb128 0x49
 7957 0028 13       		.uleb128 0x13
 7958 0029 00       		.byte	0
 7959 002a 00       		.byte	0
 7960 002b 04       		.uleb128 0x4
 7961 002c 24       		.uleb128 0x24
 7962 002d 00       		.byte	0
 7963 002e 0B       		.uleb128 0xb
 7964 002f 0B       		.uleb128 0xb
 7965 0030 3E       		.uleb128 0x3e
 7966 0031 0B       		.uleb128 0xb
 7967 0032 03       		.uleb128 0x3
 7968 0033 08       		.uleb128 0x8
 7969 0034 00       		.byte	0
 7970 0035 00       		.byte	0
 7971 0036 05       		.uleb128 0x5
 7972 0037 16       		.uleb128 0x16
 7973 0038 00       		.byte	0
 7974 0039 03       		.uleb128 0x3
 7975 003a 0E       		.uleb128 0xe
 7976 003b 3A       		.uleb128 0x3a
 7977 003c 0B       		.uleb128 0xb
 7978 003d 3B       		.uleb128 0x3b
 7979 003e 05       		.uleb128 0x5
 7980 003f 49       		.uleb128 0x49
 7981 0040 13       		.uleb128 0x13
 7982 0041 00       		.byte	0
 7983 0042 00       		.byte	0
 7984 0043 06       		.uleb128 0x6
 7985 0044 0F       		.uleb128 0xf
 7986 0045 00       		.byte	0
 7987 0046 0B       		.uleb128 0xb
 7988 0047 0B       		.uleb128 0xb
 7989 0048 00       		.byte	0
 7990 0049 00       		.byte	0
 7991 004a 07       		.uleb128 0x7
 7992 004b 0F       		.uleb128 0xf
 7993 004c 00       		.byte	0
 7994 004d 0B       		.uleb128 0xb
 7995 004e 0B       		.uleb128 0xb
 7996 004f 49       		.uleb128 0x49
 7997 0050 13       		.uleb128 0x13
 7998 0051 00       		.byte	0
 7999 0052 00       		.byte	0
ARM GAS  C:\Users\strap\AppData\Local\Temp\cci64Z2T.s 			page 168


 8000 0053 08       		.uleb128 0x8
 8001 0054 26       		.uleb128 0x26
 8002 0055 00       		.byte	0
 8003 0056 49       		.uleb128 0x49
 8004 0057 13       		.uleb128 0x13
 8005 0058 00       		.byte	0
 8006 0059 00       		.byte	0
 8007 005a 09       		.uleb128 0x9
 8008 005b 35       		.uleb128 0x35
 8009 005c 00       		.byte	0
 8010 005d 49       		.uleb128 0x49
 8011 005e 13       		.uleb128 0x13
 8012 005f 00       		.byte	0
 8013 0060 00       		.byte	0
 8014 0061 0A       		.uleb128 0xa
 8015 0062 13       		.uleb128 0x13
 8016 0063 01       		.byte	0x1
 8017 0064 0B       		.uleb128 0xb
 8018 0065 0B       		.uleb128 0xb
 8019 0066 3A       		.uleb128 0x3a
 8020 0067 0B       		.uleb128 0xb
 8021 0068 3B       		.uleb128 0x3b
 8022 0069 0B       		.uleb128 0xb
 8023 006a 01       		.uleb128 0x1
 8024 006b 13       		.uleb128 0x13
 8025 006c 00       		.byte	0
 8026 006d 00       		.byte	0
 8027 006e 0B       		.uleb128 0xb
 8028 006f 0D       		.uleb128 0xd
 8029 0070 00       		.byte	0
 8030 0071 03       		.uleb128 0x3
 8031 0072 0E       		.uleb128 0xe
 8032 0073 3A       		.uleb128 0x3a
 8033 0074 0B       		.uleb128 0xb
 8034 0075 3B       		.uleb128 0x3b
 8035 0076 0B       		.uleb128 0xb
 8036 0077 49       		.uleb128 0x49
 8037 0078 13       		.uleb128 0x13
 8038 0079 38       		.uleb128 0x38
 8039 007a 0B       		.uleb128 0xb
 8040 007b 00       		.byte	0
 8041 007c 00       		.byte	0
 8042 007d 0C       		.uleb128 0xc
 8043 007e 15       		.uleb128 0x15
 8044 007f 01       		.byte	0x1
 8045 0080 27       		.uleb128 0x27
 8046 0081 19       		.uleb128 0x19
 8047 0082 01       		.uleb128 0x1
 8048 0083 13       		.uleb128 0x13
 8049 0084 00       		.byte	0
 8050 0085 00       		.byte	0
 8051 0086 0D       		.uleb128 0xd
 8052 0087 05       		.uleb128 0x5
 8053 0088 00       		.byte	0
 8054 0089 49       		.uleb128 0x49
 8055 008a 13       		.uleb128 0x13
 8056 008b 00       		.byte	0
ARM GAS  C:\Users\strap\AppData\Local\Temp\cci64Z2T.s 			page 169


 8057 008c 00       		.byte	0
 8058 008d 0E       		.uleb128 0xe
 8059 008e 13       		.uleb128 0x13
 8060 008f 01       		.byte	0x1
 8061 0090 03       		.uleb128 0x3
 8062 0091 0E       		.uleb128 0xe
 8063 0092 0B       		.uleb128 0xb
 8064 0093 0B       		.uleb128 0xb
 8065 0094 3A       		.uleb128 0x3a
 8066 0095 0B       		.uleb128 0xb
 8067 0096 3B       		.uleb128 0x3b
 8068 0097 0B       		.uleb128 0xb
 8069 0098 01       		.uleb128 0x1
 8070 0099 13       		.uleb128 0x13
 8071 009a 00       		.byte	0
 8072 009b 00       		.byte	0
 8073 009c 0F       		.uleb128 0xf
 8074 009d 0D       		.uleb128 0xd
 8075 009e 00       		.byte	0
 8076 009f 03       		.uleb128 0x3
 8077 00a0 0E       		.uleb128 0xe
 8078 00a1 3A       		.uleb128 0x3a
 8079 00a2 0B       		.uleb128 0xb
 8080 00a3 3B       		.uleb128 0x3b
 8081 00a4 0B       		.uleb128 0xb
 8082 00a5 49       		.uleb128 0x49
 8083 00a6 13       		.uleb128 0x13
 8084 00a7 0B       		.uleb128 0xb
 8085 00a8 0B       		.uleb128 0xb
 8086 00a9 0D       		.uleb128 0xd
 8087 00aa 0B       		.uleb128 0xb
 8088 00ab 0C       		.uleb128 0xc
 8089 00ac 0B       		.uleb128 0xb
 8090 00ad 38       		.uleb128 0x38
 8091 00ae 0B       		.uleb128 0xb
 8092 00af 00       		.byte	0
 8093 00b0 00       		.byte	0
 8094 00b1 10       		.uleb128 0x10
 8095 00b2 0D       		.uleb128 0xd
 8096 00b3 00       		.byte	0
 8097 00b4 03       		.uleb128 0x3
 8098 00b5 08       		.uleb128 0x8
 8099 00b6 3A       		.uleb128 0x3a
 8100 00b7 0B       		.uleb128 0xb
 8101 00b8 3B       		.uleb128 0x3b
 8102 00b9 0B       		.uleb128 0xb
 8103 00ba 49       		.uleb128 0x49
 8104 00bb 13       		.uleb128 0x13
 8105 00bc 0B       		.uleb128 0xb
 8106 00bd 0B       		.uleb128 0xb
 8107 00be 0D       		.uleb128 0xd
 8108 00bf 0B       		.uleb128 0xb
 8109 00c0 0C       		.uleb128 0xc
 8110 00c1 0B       		.uleb128 0xb
 8111 00c2 38       		.uleb128 0x38
 8112 00c3 0B       		.uleb128 0xb
 8113 00c4 00       		.byte	0
ARM GAS  C:\Users\strap\AppData\Local\Temp\cci64Z2T.s 			page 170


 8114 00c5 00       		.byte	0
 8115 00c6 11       		.uleb128 0x11
 8116 00c7 17       		.uleb128 0x17
 8117 00c8 01       		.byte	0x1
 8118 00c9 0B       		.uleb128 0xb
 8119 00ca 0B       		.uleb128 0xb
 8120 00cb 3A       		.uleb128 0x3a
 8121 00cc 0B       		.uleb128 0xb
 8122 00cd 3B       		.uleb128 0x3b
 8123 00ce 0B       		.uleb128 0xb
 8124 00cf 01       		.uleb128 0x1
 8125 00d0 13       		.uleb128 0x13
 8126 00d1 00       		.byte	0
 8127 00d2 00       		.byte	0
 8128 00d3 12       		.uleb128 0x12
 8129 00d4 0D       		.uleb128 0xd
 8130 00d5 00       		.byte	0
 8131 00d6 03       		.uleb128 0x3
 8132 00d7 08       		.uleb128 0x8
 8133 00d8 3A       		.uleb128 0x3a
 8134 00d9 0B       		.uleb128 0xb
 8135 00da 3B       		.uleb128 0x3b
 8136 00db 0B       		.uleb128 0xb
 8137 00dc 49       		.uleb128 0x49
 8138 00dd 13       		.uleb128 0x13
 8139 00de 00       		.byte	0
 8140 00df 00       		.byte	0
 8141 00e0 13       		.uleb128 0x13
 8142 00e1 0D       		.uleb128 0xd
 8143 00e2 00       		.byte	0
 8144 00e3 03       		.uleb128 0x3
 8145 00e4 0E       		.uleb128 0xe
 8146 00e5 3A       		.uleb128 0x3a
 8147 00e6 0B       		.uleb128 0xb
 8148 00e7 3B       		.uleb128 0x3b
 8149 00e8 0B       		.uleb128 0xb
 8150 00e9 49       		.uleb128 0x49
 8151 00ea 13       		.uleb128 0x13
 8152 00eb 00       		.byte	0
 8153 00ec 00       		.byte	0
 8154 00ed 14       		.uleb128 0x14
 8155 00ee 0D       		.uleb128 0xd
 8156 00ef 00       		.byte	0
 8157 00f0 03       		.uleb128 0x3
 8158 00f1 08       		.uleb128 0x8
 8159 00f2 3A       		.uleb128 0x3a
 8160 00f3 0B       		.uleb128 0xb
 8161 00f4 3B       		.uleb128 0x3b
 8162 00f5 0B       		.uleb128 0xb
 8163 00f6 49       		.uleb128 0x49
 8164 00f7 13       		.uleb128 0x13
 8165 00f8 38       		.uleb128 0x38
 8166 00f9 0B       		.uleb128 0xb
 8167 00fa 00       		.byte	0
 8168 00fb 00       		.byte	0
 8169 00fc 15       		.uleb128 0x15
 8170 00fd 04       		.uleb128 0x4
ARM GAS  C:\Users\strap\AppData\Local\Temp\cci64Z2T.s 			page 171


 8171 00fe 01       		.byte	0x1
 8172 00ff 0B       		.uleb128 0xb
 8173 0100 0B       		.uleb128 0xb
 8174 0101 49       		.uleb128 0x49
 8175 0102 13       		.uleb128 0x13
 8176 0103 3A       		.uleb128 0x3a
 8177 0104 0B       		.uleb128 0xb
 8178 0105 3B       		.uleb128 0x3b
 8179 0106 0B       		.uleb128 0xb
 8180 0107 01       		.uleb128 0x1
 8181 0108 13       		.uleb128 0x13
 8182 0109 00       		.byte	0
 8183 010a 00       		.byte	0
 8184 010b 16       		.uleb128 0x16
 8185 010c 28       		.uleb128 0x28
 8186 010d 00       		.byte	0
 8187 010e 03       		.uleb128 0x3
 8188 010f 0E       		.uleb128 0xe
 8189 0110 1C       		.uleb128 0x1c
 8190 0111 0B       		.uleb128 0xb
 8191 0112 00       		.byte	0
 8192 0113 00       		.byte	0
 8193 0114 17       		.uleb128 0x17
 8194 0115 13       		.uleb128 0x13
 8195 0116 01       		.byte	0x1
 8196 0117 03       		.uleb128 0x3
 8197 0118 0E       		.uleb128 0xe
 8198 0119 0B       		.uleb128 0xb
 8199 011a 05       		.uleb128 0x5
 8200 011b 3A       		.uleb128 0x3a
 8201 011c 0B       		.uleb128 0xb
 8202 011d 3B       		.uleb128 0x3b
 8203 011e 0B       		.uleb128 0xb
 8204 011f 01       		.uleb128 0x1
 8205 0120 13       		.uleb128 0x13
 8206 0121 00       		.byte	0
 8207 0122 00       		.byte	0
 8208 0123 18       		.uleb128 0x18
 8209 0124 0D       		.uleb128 0xd
 8210 0125 00       		.byte	0
 8211 0126 03       		.uleb128 0x3
 8212 0127 0E       		.uleb128 0xe
 8213 0128 3A       		.uleb128 0x3a
 8214 0129 0B       		.uleb128 0xb
 8215 012a 3B       		.uleb128 0x3b
 8216 012b 0B       		.uleb128 0xb
 8217 012c 49       		.uleb128 0x49
 8218 012d 13       		.uleb128 0x13
 8219 012e 38       		.uleb128 0x38
 8220 012f 05       		.uleb128 0x5
 8221 0130 00       		.byte	0
 8222 0131 00       		.byte	0
 8223 0132 19       		.uleb128 0x19
 8224 0133 0D       		.uleb128 0xd
 8225 0134 00       		.byte	0
 8226 0135 03       		.uleb128 0x3
 8227 0136 0E       		.uleb128 0xe
ARM GAS  C:\Users\strap\AppData\Local\Temp\cci64Z2T.s 			page 172


 8228 0137 3A       		.uleb128 0x3a
 8229 0138 0B       		.uleb128 0xb
 8230 0139 3B       		.uleb128 0x3b
 8231 013a 0B       		.uleb128 0xb
 8232 013b 49       		.uleb128 0x49
 8233 013c 13       		.uleb128 0x13
 8234 013d 0B       		.uleb128 0xb
 8235 013e 0B       		.uleb128 0xb
 8236 013f 0D       		.uleb128 0xd
 8237 0140 0B       		.uleb128 0xb
 8238 0141 0C       		.uleb128 0xc
 8239 0142 0B       		.uleb128 0xb
 8240 0143 38       		.uleb128 0x38
 8241 0144 05       		.uleb128 0x5
 8242 0145 00       		.byte	0
 8243 0146 00       		.byte	0
 8244 0147 1A       		.uleb128 0x1a
 8245 0148 26       		.uleb128 0x26
 8246 0149 00       		.byte	0
 8247 014a 00       		.byte	0
 8248 014b 00       		.byte	0
 8249 014c 1B       		.uleb128 0x1b
 8250 014d 01       		.uleb128 0x1
 8251 014e 01       		.byte	0x1
 8252 014f 49       		.uleb128 0x49
 8253 0150 13       		.uleb128 0x13
 8254 0151 01       		.uleb128 0x1
 8255 0152 13       		.uleb128 0x13
 8256 0153 00       		.byte	0
 8257 0154 00       		.byte	0
 8258 0155 1C       		.uleb128 0x1c
 8259 0156 21       		.uleb128 0x21
 8260 0157 00       		.byte	0
 8261 0158 49       		.uleb128 0x49
 8262 0159 13       		.uleb128 0x13
 8263 015a 2F       		.uleb128 0x2f
 8264 015b 0B       		.uleb128 0xb
 8265 015c 00       		.byte	0
 8266 015d 00       		.byte	0
 8267 015e 1D       		.uleb128 0x1d
 8268 015f 15       		.uleb128 0x15
 8269 0160 01       		.byte	0x1
 8270 0161 27       		.uleb128 0x27
 8271 0162 19       		.uleb128 0x19
 8272 0163 49       		.uleb128 0x49
 8273 0164 13       		.uleb128 0x13
 8274 0165 01       		.uleb128 0x1
 8275 0166 13       		.uleb128 0x13
 8276 0167 00       		.byte	0
 8277 0168 00       		.byte	0
 8278 0169 1E       		.uleb128 0x1e
 8279 016a 28       		.uleb128 0x28
 8280 016b 00       		.byte	0
 8281 016c 03       		.uleb128 0x3
 8282 016d 0E       		.uleb128 0xe
 8283 016e 1C       		.uleb128 0x1c
 8284 016f 05       		.uleb128 0x5
ARM GAS  C:\Users\strap\AppData\Local\Temp\cci64Z2T.s 			page 173


 8285 0170 00       		.byte	0
 8286 0171 00       		.byte	0
 8287 0172 1F       		.uleb128 0x1f
 8288 0173 2E       		.uleb128 0x2e
 8289 0174 01       		.byte	0x1
 8290 0175 03       		.uleb128 0x3
 8291 0176 0E       		.uleb128 0xe
 8292 0177 3A       		.uleb128 0x3a
 8293 0178 0B       		.uleb128 0xb
 8294 0179 3B       		.uleb128 0x3b
 8295 017a 0B       		.uleb128 0xb
 8296 017b 27       		.uleb128 0x27
 8297 017c 19       		.uleb128 0x19
 8298 017d 49       		.uleb128 0x49
 8299 017e 13       		.uleb128 0x13
 8300 017f 20       		.uleb128 0x20
 8301 0180 0B       		.uleb128 0xb
 8302 0181 01       		.uleb128 0x1
 8303 0182 13       		.uleb128 0x13
 8304 0183 00       		.byte	0
 8305 0184 00       		.byte	0
 8306 0185 20       		.uleb128 0x20
 8307 0186 05       		.uleb128 0x5
 8308 0187 00       		.byte	0
 8309 0188 03       		.uleb128 0x3
 8310 0189 08       		.uleb128 0x8
 8311 018a 3A       		.uleb128 0x3a
 8312 018b 0B       		.uleb128 0xb
 8313 018c 3B       		.uleb128 0x3b
 8314 018d 0B       		.uleb128 0xb
 8315 018e 49       		.uleb128 0x49
 8316 018f 13       		.uleb128 0x13
 8317 0190 00       		.byte	0
 8318 0191 00       		.byte	0
 8319 0192 21       		.uleb128 0x21
 8320 0193 2E       		.uleb128 0x2e
 8321 0194 01       		.byte	0x1
 8322 0195 03       		.uleb128 0x3
 8323 0196 0E       		.uleb128 0xe
 8324 0197 3A       		.uleb128 0x3a
 8325 0198 0B       		.uleb128 0xb
 8326 0199 3B       		.uleb128 0x3b
 8327 019a 0B       		.uleb128 0xb
 8328 019b 27       		.uleb128 0x27
 8329 019c 19       		.uleb128 0x19
 8330 019d 20       		.uleb128 0x20
 8331 019e 0B       		.uleb128 0xb
 8332 019f 01       		.uleb128 0x1
 8333 01a0 13       		.uleb128 0x13
 8334 01a1 00       		.byte	0
 8335 01a2 00       		.byte	0
 8336 01a3 22       		.uleb128 0x22
 8337 01a4 05       		.uleb128 0x5
 8338 01a5 00       		.byte	0
 8339 01a6 03       		.uleb128 0x3
 8340 01a7 0E       		.uleb128 0xe
 8341 01a8 3A       		.uleb128 0x3a
ARM GAS  C:\Users\strap\AppData\Local\Temp\cci64Z2T.s 			page 174


 8342 01a9 0B       		.uleb128 0xb
 8343 01aa 3B       		.uleb128 0x3b
 8344 01ab 0B       		.uleb128 0xb
 8345 01ac 49       		.uleb128 0x49
 8346 01ad 13       		.uleb128 0x13
 8347 01ae 00       		.byte	0
 8348 01af 00       		.byte	0
 8349 01b0 23       		.uleb128 0x23
 8350 01b1 2E       		.uleb128 0x2e
 8351 01b2 01       		.byte	0x1
 8352 01b3 03       		.uleb128 0x3
 8353 01b4 0E       		.uleb128 0xe
 8354 01b5 3A       		.uleb128 0x3a
 8355 01b6 0B       		.uleb128 0xb
 8356 01b7 3B       		.uleb128 0x3b
 8357 01b8 05       		.uleb128 0x5
 8358 01b9 27       		.uleb128 0x27
 8359 01ba 19       		.uleb128 0x19
 8360 01bb 11       		.uleb128 0x11
 8361 01bc 01       		.uleb128 0x1
 8362 01bd 12       		.uleb128 0x12
 8363 01be 06       		.uleb128 0x6
 8364 01bf 40       		.uleb128 0x40
 8365 01c0 18       		.uleb128 0x18
 8366 01c1 9742     		.uleb128 0x2117
 8367 01c3 19       		.uleb128 0x19
 8368 01c4 01       		.uleb128 0x1
 8369 01c5 13       		.uleb128 0x13
 8370 01c6 00       		.byte	0
 8371 01c7 00       		.byte	0
 8372 01c8 24       		.uleb128 0x24
 8373 01c9 05       		.uleb128 0x5
 8374 01ca 00       		.byte	0
 8375 01cb 03       		.uleb128 0x3
 8376 01cc 08       		.uleb128 0x8
 8377 01cd 3A       		.uleb128 0x3a
 8378 01ce 0B       		.uleb128 0xb
 8379 01cf 3B       		.uleb128 0x3b
 8380 01d0 05       		.uleb128 0x5
 8381 01d1 49       		.uleb128 0x49
 8382 01d2 13       		.uleb128 0x13
 8383 01d3 02       		.uleb128 0x2
 8384 01d4 18       		.uleb128 0x18
 8385 01d5 00       		.byte	0
 8386 01d6 00       		.byte	0
 8387 01d7 25       		.uleb128 0x25
 8388 01d8 2E       		.uleb128 0x2e
 8389 01d9 01       		.byte	0x1
 8390 01da 03       		.uleb128 0x3
 8391 01db 0E       		.uleb128 0xe
 8392 01dc 3A       		.uleb128 0x3a
 8393 01dd 0B       		.uleb128 0xb
 8394 01de 3B       		.uleb128 0x3b
 8395 01df 05       		.uleb128 0x5
 8396 01e0 27       		.uleb128 0x27
 8397 01e1 19       		.uleb128 0x19
 8398 01e2 49       		.uleb128 0x49
ARM GAS  C:\Users\strap\AppData\Local\Temp\cci64Z2T.s 			page 175


 8399 01e3 13       		.uleb128 0x13
 8400 01e4 11       		.uleb128 0x11
 8401 01e5 01       		.uleb128 0x1
 8402 01e6 12       		.uleb128 0x12
 8403 01e7 06       		.uleb128 0x6
 8404 01e8 40       		.uleb128 0x40
 8405 01e9 18       		.uleb128 0x18
 8406 01ea 9742     		.uleb128 0x2117
 8407 01ec 19       		.uleb128 0x19
 8408 01ed 01       		.uleb128 0x1
 8409 01ee 13       		.uleb128 0x13
 8410 01ef 00       		.byte	0
 8411 01f0 00       		.byte	0
 8412 01f1 26       		.uleb128 0x26
 8413 01f2 34       		.uleb128 0x34
 8414 01f3 00       		.byte	0
 8415 01f4 03       		.uleb128 0x3
 8416 01f5 0E       		.uleb128 0xe
 8417 01f6 3A       		.uleb128 0x3a
 8418 01f7 0B       		.uleb128 0xb
 8419 01f8 3B       		.uleb128 0x3b
 8420 01f9 05       		.uleb128 0x5
 8421 01fa 49       		.uleb128 0x49
 8422 01fb 13       		.uleb128 0x13
 8423 01fc 02       		.uleb128 0x2
 8424 01fd 17       		.uleb128 0x17
 8425 01fe 00       		.byte	0
 8426 01ff 00       		.byte	0
 8427 0200 27       		.uleb128 0x27
 8428 0201 898201   		.uleb128 0x4109
 8429 0204 00       		.byte	0
 8430 0205 11       		.uleb128 0x11
 8431 0206 01       		.uleb128 0x1
 8432 0207 31       		.uleb128 0x31
 8433 0208 13       		.uleb128 0x13
 8434 0209 00       		.byte	0
 8435 020a 00       		.byte	0
 8436 020b 28       		.uleb128 0x28
 8437 020c 05       		.uleb128 0x5
 8438 020d 00       		.byte	0
 8439 020e 03       		.uleb128 0x3
 8440 020f 08       		.uleb128 0x8
 8441 0210 3A       		.uleb128 0x3a
 8442 0211 0B       		.uleb128 0xb
 8443 0212 3B       		.uleb128 0x3b
 8444 0213 05       		.uleb128 0x5
 8445 0214 49       		.uleb128 0x49
 8446 0215 13       		.uleb128 0x13
 8447 0216 02       		.uleb128 0x2
 8448 0217 17       		.uleb128 0x17
 8449 0218 00       		.byte	0
 8450 0219 00       		.byte	0
 8451 021a 29       		.uleb128 0x29
 8452 021b 05       		.uleb128 0x5
 8453 021c 00       		.byte	0
 8454 021d 03       		.uleb128 0x3
 8455 021e 0E       		.uleb128 0xe
ARM GAS  C:\Users\strap\AppData\Local\Temp\cci64Z2T.s 			page 176


 8456 021f 3A       		.uleb128 0x3a
 8457 0220 0B       		.uleb128 0xb
 8458 0221 3B       		.uleb128 0x3b
 8459 0222 05       		.uleb128 0x5
 8460 0223 49       		.uleb128 0x49
 8461 0224 13       		.uleb128 0x13
 8462 0225 02       		.uleb128 0x2
 8463 0226 17       		.uleb128 0x17
 8464 0227 00       		.byte	0
 8465 0228 00       		.byte	0
 8466 0229 2A       		.uleb128 0x2a
 8467 022a 0B       		.uleb128 0xb
 8468 022b 01       		.byte	0x1
 8469 022c 11       		.uleb128 0x11
 8470 022d 01       		.uleb128 0x1
 8471 022e 12       		.uleb128 0x12
 8472 022f 06       		.uleb128 0x6
 8473 0230 00       		.byte	0
 8474 0231 00       		.byte	0
 8475 0232 2B       		.uleb128 0x2b
 8476 0233 898201   		.uleb128 0x4109
 8477 0236 01       		.byte	0x1
 8478 0237 11       		.uleb128 0x11
 8479 0238 01       		.uleb128 0x1
 8480 0239 31       		.uleb128 0x31
 8481 023a 13       		.uleb128 0x13
 8482 023b 01       		.uleb128 0x1
 8483 023c 13       		.uleb128 0x13
 8484 023d 00       		.byte	0
 8485 023e 00       		.byte	0
 8486 023f 2C       		.uleb128 0x2c
 8487 0240 8A8201   		.uleb128 0x410a
 8488 0243 00       		.byte	0
 8489 0244 02       		.uleb128 0x2
 8490 0245 18       		.uleb128 0x18
 8491 0246 9142     		.uleb128 0x2111
 8492 0248 18       		.uleb128 0x18
 8493 0249 00       		.byte	0
 8494 024a 00       		.byte	0
 8495 024b 2D       		.uleb128 0x2d
 8496 024c 898201   		.uleb128 0x4109
 8497 024f 01       		.byte	0x1
 8498 0250 11       		.uleb128 0x11
 8499 0251 01       		.uleb128 0x1
 8500 0252 31       		.uleb128 0x31
 8501 0253 13       		.uleb128 0x13
 8502 0254 00       		.byte	0
 8503 0255 00       		.byte	0
 8504 0256 2E       		.uleb128 0x2e
 8505 0257 1D       		.uleb128 0x1d
 8506 0258 01       		.byte	0x1
 8507 0259 31       		.uleb128 0x31
 8508 025a 13       		.uleb128 0x13
 8509 025b 11       		.uleb128 0x11
 8510 025c 01       		.uleb128 0x1
 8511 025d 12       		.uleb128 0x12
 8512 025e 06       		.uleb128 0x6
ARM GAS  C:\Users\strap\AppData\Local\Temp\cci64Z2T.s 			page 177


 8513 025f 58       		.uleb128 0x58
 8514 0260 0B       		.uleb128 0xb
 8515 0261 59       		.uleb128 0x59
 8516 0262 05       		.uleb128 0x5
 8517 0263 01       		.uleb128 0x1
 8518 0264 13       		.uleb128 0x13
 8519 0265 00       		.byte	0
 8520 0266 00       		.byte	0
 8521 0267 2F       		.uleb128 0x2f
 8522 0268 05       		.uleb128 0x5
 8523 0269 00       		.byte	0
 8524 026a 31       		.uleb128 0x31
 8525 026b 13       		.uleb128 0x13
 8526 026c 02       		.uleb128 0x2
 8527 026d 17       		.uleb128 0x17
 8528 026e 00       		.byte	0
 8529 026f 00       		.byte	0
 8530 0270 30       		.uleb128 0x30
 8531 0271 1D       		.uleb128 0x1d
 8532 0272 01       		.byte	0x1
 8533 0273 31       		.uleb128 0x31
 8534 0274 13       		.uleb128 0x13
 8535 0275 11       		.uleb128 0x11
 8536 0276 01       		.uleb128 0x1
 8537 0277 12       		.uleb128 0x12
 8538 0278 06       		.uleb128 0x6
 8539 0279 58       		.uleb128 0x58
 8540 027a 0B       		.uleb128 0xb
 8541 027b 59       		.uleb128 0x59
 8542 027c 0B       		.uleb128 0xb
 8543 027d 00       		.byte	0
 8544 027e 00       		.byte	0
 8545 027f 31       		.uleb128 0x31
 8546 0280 2E       		.uleb128 0x2e
 8547 0281 01       		.byte	0x1
 8548 0282 3F       		.uleb128 0x3f
 8549 0283 19       		.uleb128 0x19
 8550 0284 03       		.uleb128 0x3
 8551 0285 0E       		.uleb128 0xe
 8552 0286 3A       		.uleb128 0x3a
 8553 0287 0B       		.uleb128 0xb
 8554 0288 3B       		.uleb128 0x3b
 8555 0289 0B       		.uleb128 0xb
 8556 028a 27       		.uleb128 0x27
 8557 028b 19       		.uleb128 0x19
 8558 028c 11       		.uleb128 0x11
 8559 028d 01       		.uleb128 0x1
 8560 028e 12       		.uleb128 0x12
 8561 028f 06       		.uleb128 0x6
 8562 0290 40       		.uleb128 0x40
 8563 0291 18       		.uleb128 0x18
 8564 0292 9742     		.uleb128 0x2117
 8565 0294 19       		.uleb128 0x19
 8566 0295 01       		.uleb128 0x1
 8567 0296 13       		.uleb128 0x13
 8568 0297 00       		.byte	0
 8569 0298 00       		.byte	0
ARM GAS  C:\Users\strap\AppData\Local\Temp\cci64Z2T.s 			page 178


 8570 0299 32       		.uleb128 0x32
 8571 029a 34       		.uleb128 0x34
 8572 029b 00       		.byte	0
 8573 029c 03       		.uleb128 0x3
 8574 029d 0E       		.uleb128 0xe
 8575 029e 3A       		.uleb128 0x3a
 8576 029f 0B       		.uleb128 0xb
 8577 02a0 3B       		.uleb128 0x3b
 8578 02a1 0B       		.uleb128 0xb
 8579 02a2 49       		.uleb128 0x49
 8580 02a3 13       		.uleb128 0x13
 8581 02a4 02       		.uleb128 0x2
 8582 02a5 18       		.uleb128 0x18
 8583 02a6 00       		.byte	0
 8584 02a7 00       		.byte	0
 8585 02a8 33       		.uleb128 0x33
 8586 02a9 2E       		.uleb128 0x2e
 8587 02aa 01       		.byte	0x1
 8588 02ab 3F       		.uleb128 0x3f
 8589 02ac 19       		.uleb128 0x19
 8590 02ad 03       		.uleb128 0x3
 8591 02ae 0E       		.uleb128 0xe
 8592 02af 3A       		.uleb128 0x3a
 8593 02b0 0B       		.uleb128 0xb
 8594 02b1 3B       		.uleb128 0x3b
 8595 02b2 0B       		.uleb128 0xb
 8596 02b3 27       		.uleb128 0x27
 8597 02b4 19       		.uleb128 0x19
 8598 02b5 49       		.uleb128 0x49
 8599 02b6 13       		.uleb128 0x13
 8600 02b7 8701     		.uleb128 0x87
 8601 02b9 19       		.uleb128 0x19
 8602 02ba 11       		.uleb128 0x11
 8603 02bb 01       		.uleb128 0x1
 8604 02bc 12       		.uleb128 0x12
 8605 02bd 06       		.uleb128 0x6
 8606 02be 40       		.uleb128 0x40
 8607 02bf 18       		.uleb128 0x18
 8608 02c0 9742     		.uleb128 0x2117
 8609 02c2 19       		.uleb128 0x19
 8610 02c3 01       		.uleb128 0x1
 8611 02c4 13       		.uleb128 0x13
 8612 02c5 00       		.byte	0
 8613 02c6 00       		.byte	0
 8614 02c7 34       		.uleb128 0x34
 8615 02c8 1D       		.uleb128 0x1d
 8616 02c9 01       		.byte	0x1
 8617 02ca 31       		.uleb128 0x31
 8618 02cb 13       		.uleb128 0x13
 8619 02cc 11       		.uleb128 0x11
 8620 02cd 01       		.uleb128 0x1
 8621 02ce 12       		.uleb128 0x12
 8622 02cf 06       		.uleb128 0x6
 8623 02d0 58       		.uleb128 0x58
 8624 02d1 0B       		.uleb128 0xb
 8625 02d2 59       		.uleb128 0x59
 8626 02d3 0B       		.uleb128 0xb
ARM GAS  C:\Users\strap\AppData\Local\Temp\cci64Z2T.s 			page 179


 8627 02d4 01       		.uleb128 0x1
 8628 02d5 13       		.uleb128 0x13
 8629 02d6 00       		.byte	0
 8630 02d7 00       		.byte	0
 8631 02d8 35       		.uleb128 0x35
 8632 02d9 21       		.uleb128 0x21
 8633 02da 00       		.byte	0
 8634 02db 49       		.uleb128 0x49
 8635 02dc 13       		.uleb128 0x13
 8636 02dd 2F       		.uleb128 0x2f
 8637 02de 05       		.uleb128 0x5
 8638 02df 00       		.byte	0
 8639 02e0 00       		.byte	0
 8640 02e1 36       		.uleb128 0x36
 8641 02e2 34       		.uleb128 0x34
 8642 02e3 00       		.byte	0
 8643 02e4 03       		.uleb128 0x3
 8644 02e5 0E       		.uleb128 0xe
 8645 02e6 3A       		.uleb128 0x3a
 8646 02e7 0B       		.uleb128 0xb
 8647 02e8 3B       		.uleb128 0x3b
 8648 02e9 0B       		.uleb128 0xb
 8649 02ea 49       		.uleb128 0x49
 8650 02eb 13       		.uleb128 0x13
 8651 02ec 1C       		.uleb128 0x1c
 8652 02ed 0B       		.uleb128 0xb
 8653 02ee 00       		.byte	0
 8654 02ef 00       		.byte	0
 8655 02f0 37       		.uleb128 0x37
 8656 02f1 34       		.uleb128 0x34
 8657 02f2 00       		.byte	0
 8658 02f3 03       		.uleb128 0x3
 8659 02f4 0E       		.uleb128 0xe
 8660 02f5 3A       		.uleb128 0x3a
 8661 02f6 0B       		.uleb128 0xb
 8662 02f7 3B       		.uleb128 0x3b
 8663 02f8 05       		.uleb128 0x5
 8664 02f9 49       		.uleb128 0x49
 8665 02fa 13       		.uleb128 0x13
 8666 02fb 3F       		.uleb128 0x3f
 8667 02fc 19       		.uleb128 0x19
 8668 02fd 3C       		.uleb128 0x3c
 8669 02fe 19       		.uleb128 0x19
 8670 02ff 00       		.byte	0
 8671 0300 00       		.byte	0
 8672 0301 38       		.uleb128 0x38
 8673 0302 34       		.uleb128 0x34
 8674 0303 00       		.byte	0
 8675 0304 03       		.uleb128 0x3
 8676 0305 0E       		.uleb128 0xe
 8677 0306 3A       		.uleb128 0x3a
 8678 0307 0B       		.uleb128 0xb
 8679 0308 3B       		.uleb128 0x3b
 8680 0309 0B       		.uleb128 0xb
 8681 030a 49       		.uleb128 0x49
 8682 030b 13       		.uleb128 0x13
 8683 030c 3F       		.uleb128 0x3f
ARM GAS  C:\Users\strap\AppData\Local\Temp\cci64Z2T.s 			page 180


 8684 030d 19       		.uleb128 0x19
 8685 030e 02       		.uleb128 0x2
 8686 030f 18       		.uleb128 0x18
 8687 0310 00       		.byte	0
 8688 0311 00       		.byte	0
 8689 0312 39       		.uleb128 0x39
 8690 0313 2E       		.uleb128 0x2e
 8691 0314 00       		.byte	0
 8692 0315 3F       		.uleb128 0x3f
 8693 0316 19       		.uleb128 0x19
 8694 0317 3C       		.uleb128 0x3c
 8695 0318 19       		.uleb128 0x19
 8696 0319 6E       		.uleb128 0x6e
 8697 031a 0E       		.uleb128 0xe
 8698 031b 03       		.uleb128 0x3
 8699 031c 0E       		.uleb128 0xe
 8700 031d 3A       		.uleb128 0x3a
 8701 031e 0B       		.uleb128 0xb
 8702 031f 3B       		.uleb128 0x3b
 8703 0320 0B       		.uleb128 0xb
 8704 0321 00       		.byte	0
 8705 0322 00       		.byte	0
 8706 0323 3A       		.uleb128 0x3a
 8707 0324 2E       		.uleb128 0x2e
 8708 0325 00       		.byte	0
 8709 0326 3F       		.uleb128 0x3f
 8710 0327 19       		.uleb128 0x19
 8711 0328 3C       		.uleb128 0x3c
 8712 0329 19       		.uleb128 0x19
 8713 032a 6E       		.uleb128 0x6e
 8714 032b 0E       		.uleb128 0xe
 8715 032c 03       		.uleb128 0x3
 8716 032d 0E       		.uleb128 0xe
 8717 032e 3A       		.uleb128 0x3a
 8718 032f 0B       		.uleb128 0xb
 8719 0330 3B       		.uleb128 0x3b
 8720 0331 05       		.uleb128 0x5
 8721 0332 00       		.byte	0
 8722 0333 00       		.byte	0
 8723 0334 00       		.byte	0
 8724              		.section	.debug_loc,"",%progbits
 8725              	.Ldebug_loc0:
 8726              	.LLST0:
 8727 0000 02000000 		.4byte	.LVL1
 8728 0004 0E000000 		.4byte	.LVL3
 8729 0008 0200     		.2byte	0x2
 8730 000a 30       		.byte	0x30
 8731 000b 9F       		.byte	0x9f
 8732 000c 0E000000 		.4byte	.LVL3
 8733 0010 12000000 		.4byte	.LVL4
 8734 0014 0600     		.2byte	0x6
 8735 0016 70       		.byte	0x70
 8736 0017 00       		.sleb128 0
 8737 0018 72       		.byte	0x72
 8738 0019 00       		.sleb128 0
 8739 001a 1C       		.byte	0x1c
 8740 001b 9F       		.byte	0x9f
ARM GAS  C:\Users\strap\AppData\Local\Temp\cci64Z2T.s 			page 181


 8741 001c 00000000 		.4byte	0
 8742 0020 00000000 		.4byte	0
 8743              	.LLST1:
 8744 0024 00000000 		.4byte	.LVL5
 8745 0028 07000000 		.4byte	.LVL6-1
 8746 002c 0100     		.2byte	0x1
 8747 002e 50       		.byte	0x50
 8748 002f 07000000 		.4byte	.LVL6-1
 8749 0033 1E000000 		.4byte	.LFE446
 8750 0037 0400     		.2byte	0x4
 8751 0039 F3       		.byte	0xf3
 8752 003a 01       		.uleb128 0x1
 8753 003b 50       		.byte	0x50
 8754 003c 9F       		.byte	0x9f
 8755 003d 00000000 		.4byte	0
 8756 0041 00000000 		.4byte	0
 8757              	.LLST2:
 8758 0045 00000000 		.4byte	.LVL5
 8759 0049 07000000 		.4byte	.LVL6-1
 8760 004d 0100     		.2byte	0x1
 8761 004f 51       		.byte	0x51
 8762 0050 07000000 		.4byte	.LVL6-1
 8763 0054 1E000000 		.4byte	.LFE446
 8764 0058 0100     		.2byte	0x1
 8765 005a 54       		.byte	0x54
 8766 005b 00000000 		.4byte	0
 8767 005f 00000000 		.4byte	0
 8768              	.LLST3:
 8769 0063 00000000 		.4byte	.LVL8
 8770 0067 0E000000 		.4byte	.LVL10
 8771 006b 0100     		.2byte	0x1
 8772 006d 50       		.byte	0x50
 8773 006e 0E000000 		.4byte	.LVL10
 8774 0072 26000000 		.4byte	.LVL16
 8775 0076 0400     		.2byte	0x4
 8776 0078 F3       		.byte	0xf3
 8777 0079 01       		.uleb128 0x1
 8778 007a 50       		.byte	0x50
 8779 007b 9F       		.byte	0x9f
 8780 007c 26000000 		.4byte	.LVL16
 8781 0080 30000000 		.4byte	.LFE449
 8782 0084 0100     		.2byte	0x1
 8783 0086 50       		.byte	0x50
 8784 0087 00000000 		.4byte	0
 8785 008b 00000000 		.4byte	0
 8786              	.LLST4:
 8787 008f 00000000 		.4byte	.LVL8
 8788 0093 02000000 		.4byte	.LVL9
 8789 0097 0100     		.2byte	0x1
 8790 0099 51       		.byte	0x51
 8791 009a 02000000 		.4byte	.LVL9
 8792 009e 30000000 		.4byte	.LFE449
 8793 00a2 0400     		.2byte	0x4
 8794 00a4 F3       		.byte	0xf3
 8795 00a5 01       		.uleb128 0x1
 8796 00a6 51       		.byte	0x51
 8797 00a7 9F       		.byte	0x9f
ARM GAS  C:\Users\strap\AppData\Local\Temp\cci64Z2T.s 			page 182


 8798 00a8 00000000 		.4byte	0
 8799 00ac 00000000 		.4byte	0
 8800              	.LLST5:
 8801 00b0 12000000 		.4byte	.LVL11
 8802 00b4 15000000 		.4byte	.LVL12-1
 8803 00b8 0100     		.2byte	0x1
 8804 00ba 50       		.byte	0x50
 8805 00bb 00000000 		.4byte	0
 8806 00bf 00000000 		.4byte	0
 8807              	.LLST6:
 8808 00c3 1E000000 		.4byte	.LVL13
 8809 00c7 20000000 		.4byte	.LVL14
 8810 00cb 0100     		.2byte	0x1
 8811 00cd 50       		.byte	0x50
 8812 00ce 00000000 		.4byte	0
 8813 00d2 00000000 		.4byte	0
 8814              	.LLST7:
 8815 00d6 00000000 		.4byte	.LVL17
 8816 00da 0A000000 		.4byte	.LVL19
 8817 00de 0100     		.2byte	0x1
 8818 00e0 50       		.byte	0x50
 8819 00e1 0A000000 		.4byte	.LVL19
 8820 00e5 34000000 		.4byte	.LVL25
 8821 00e9 0400     		.2byte	0x4
 8822 00eb F3       		.byte	0xf3
 8823 00ec 01       		.uleb128 0x1
 8824 00ed 50       		.byte	0x50
 8825 00ee 9F       		.byte	0x9f
 8826 00ef 34000000 		.4byte	.LVL25
 8827 00f3 4C000000 		.4byte	.LFE451
 8828 00f7 0100     		.2byte	0x1
 8829 00f9 50       		.byte	0x50
 8830 00fa 00000000 		.4byte	0
 8831 00fe 00000000 		.4byte	0
 8832              	.LLST8:
 8833 0102 00000000 		.4byte	.LVL17
 8834 0106 06000000 		.4byte	.LVL18
 8835 010a 0100     		.2byte	0x1
 8836 010c 51       		.byte	0x51
 8837 010d 06000000 		.4byte	.LVL18
 8838 0111 34000000 		.4byte	.LVL25
 8839 0115 0400     		.2byte	0x4
 8840 0117 F3       		.byte	0xf3
 8841 0118 01       		.uleb128 0x1
 8842 0119 51       		.byte	0x51
 8843 011a 9F       		.byte	0x9f
 8844 011b 34000000 		.4byte	.LVL25
 8845 011f 4C000000 		.4byte	.LFE451
 8846 0123 0100     		.2byte	0x1
 8847 0125 51       		.byte	0x51
 8848 0126 00000000 		.4byte	0
 8849 012a 00000000 		.4byte	0
 8850              	.LLST9:
 8851 012e 00000000 		.4byte	.LVL26
 8852 0132 0A000000 		.4byte	.LVL28
 8853 0136 0100     		.2byte	0x1
 8854 0138 50       		.byte	0x50
ARM GAS  C:\Users\strap\AppData\Local\Temp\cci64Z2T.s 			page 183


 8855 0139 0A000000 		.4byte	.LVL28
 8856 013d 24000000 		.4byte	.LVL32
 8857 0141 0400     		.2byte	0x4
 8858 0143 F3       		.byte	0xf3
 8859 0144 01       		.uleb128 0x1
 8860 0145 50       		.byte	0x50
 8861 0146 9F       		.byte	0x9f
 8862 0147 24000000 		.4byte	.LVL32
 8863 014b 34000000 		.4byte	.LFE455
 8864 014f 0100     		.2byte	0x1
 8865 0151 50       		.byte	0x50
 8866 0152 00000000 		.4byte	0
 8867 0156 00000000 		.4byte	0
 8868              	.LLST10:
 8869 015a 00000000 		.4byte	.LVL26
 8870 015e 06000000 		.4byte	.LVL27
 8871 0162 0100     		.2byte	0x1
 8872 0164 51       		.byte	0x51
 8873 0165 06000000 		.4byte	.LVL27
 8874 0169 24000000 		.4byte	.LVL32
 8875 016d 0400     		.2byte	0x4
 8876 016f F3       		.byte	0xf3
 8877 0170 01       		.uleb128 0x1
 8878 0171 51       		.byte	0x51
 8879 0172 9F       		.byte	0x9f
 8880 0173 24000000 		.4byte	.LVL32
 8881 0177 34000000 		.4byte	.LFE455
 8882 017b 0100     		.2byte	0x1
 8883 017d 51       		.byte	0x51
 8884 017e 00000000 		.4byte	0
 8885 0182 00000000 		.4byte	0
 8886              	.LLST11:
 8887 0186 00000000 		.4byte	.LVL33
 8888 018a 0A000000 		.4byte	.LVL35
 8889 018e 0100     		.2byte	0x1
 8890 0190 50       		.byte	0x50
 8891 0191 0A000000 		.4byte	.LVL35
 8892 0195 32000000 		.4byte	.LVL41
 8893 0199 0400     		.2byte	0x4
 8894 019b F3       		.byte	0xf3
 8895 019c 01       		.uleb128 0x1
 8896 019d 50       		.byte	0x50
 8897 019e 9F       		.byte	0x9f
 8898 019f 32000000 		.4byte	.LVL41
 8899 01a3 40000000 		.4byte	.LFE458
 8900 01a7 0100     		.2byte	0x1
 8901 01a9 50       		.byte	0x50
 8902 01aa 00000000 		.4byte	0
 8903 01ae 00000000 		.4byte	0
 8904              	.LLST12:
 8905 01b2 00000000 		.4byte	.LVL33
 8906 01b6 06000000 		.4byte	.LVL34
 8907 01ba 0100     		.2byte	0x1
 8908 01bc 51       		.byte	0x51
 8909 01bd 06000000 		.4byte	.LVL34
 8910 01c1 32000000 		.4byte	.LVL41
 8911 01c5 0400     		.2byte	0x4
ARM GAS  C:\Users\strap\AppData\Local\Temp\cci64Z2T.s 			page 184


 8912 01c7 F3       		.byte	0xf3
 8913 01c8 01       		.uleb128 0x1
 8914 01c9 51       		.byte	0x51
 8915 01ca 9F       		.byte	0x9f
 8916 01cb 32000000 		.4byte	.LVL41
 8917 01cf 40000000 		.4byte	.LFE458
 8918 01d3 0100     		.2byte	0x1
 8919 01d5 51       		.byte	0x51
 8920 01d6 00000000 		.4byte	0
 8921 01da 00000000 		.4byte	0
 8922              	.LLST13:
 8923 01de 00000000 		.4byte	.LVL42
 8924 01e2 08000000 		.4byte	.LVL43
 8925 01e6 0100     		.2byte	0x1
 8926 01e8 50       		.byte	0x50
 8927 01e9 08000000 		.4byte	.LVL43
 8928 01ed FC000000 		.4byte	.LVL75
 8929 01f1 0100     		.2byte	0x1
 8930 01f3 55       		.byte	0x55
 8931 01f4 FC000000 		.4byte	.LVL75
 8932 01f8 24010000 		.4byte	.LFE448
 8933 01fc 0400     		.2byte	0x4
 8934 01fe F3       		.byte	0xf3
 8935 01ff 01       		.uleb128 0x1
 8936 0200 50       		.byte	0x50
 8937 0201 9F       		.byte	0x9f
 8938 0202 00000000 		.4byte	0
 8939 0206 00000000 		.4byte	0
 8940              	.LLST14:
 8941 020a 00000000 		.4byte	.LVL42
 8942 020e 0B000000 		.4byte	.LVL44-1
 8943 0212 0100     		.2byte	0x1
 8944 0214 51       		.byte	0x51
 8945 0215 0B000000 		.4byte	.LVL44-1
 8946 0219 24010000 		.4byte	.LFE448
 8947 021d 0400     		.2byte	0x4
 8948 021f F3       		.byte	0xf3
 8949 0220 01       		.uleb128 0x1
 8950 0221 51       		.byte	0x51
 8951 0222 9F       		.byte	0x9f
 8952 0223 00000000 		.4byte	0
 8953 0227 00000000 		.4byte	0
 8954              	.LLST15:
 8955 022b 22000000 		.4byte	.LVL47
 8956 022f 28000000 		.4byte	.LVL48
 8957 0233 0100     		.2byte	0x1
 8958 0235 55       		.byte	0x55
 8959 0236 00000000 		.4byte	0
 8960 023a 00000000 		.4byte	0
 8961              	.LLST16:
 8962 023e 72000000 		.4byte	.LVL57
 8963 0242 78000000 		.4byte	.LVL58
 8964 0246 0100     		.2byte	0x1
 8965 0248 55       		.byte	0x55
 8966 0249 00000000 		.4byte	0
 8967 024d 00000000 		.4byte	0
 8968              	.LLST17:
ARM GAS  C:\Users\strap\AppData\Local\Temp\cci64Z2T.s 			page 185


 8969 0251 BE000000 		.4byte	.LVL67
 8970 0255 C4000000 		.4byte	.LVL68
 8971 0259 0100     		.2byte	0x1
 8972 025b 55       		.byte	0x55
 8973 025c 00000000 		.4byte	0
 8974 0260 00000000 		.4byte	0
 8975              	.LLST18:
 8976 0264 00000000 		.4byte	.LVL76
 8977 0268 0B000000 		.4byte	.LVL77-1
 8978 026c 0100     		.2byte	0x1
 8979 026e 50       		.byte	0x50
 8980 026f 0B000000 		.4byte	.LVL77-1
 8981 0273 1A000000 		.4byte	.LVL79
 8982 0277 0100     		.2byte	0x1
 8983 0279 54       		.byte	0x54
 8984 027a 1A000000 		.4byte	.LVL79
 8985 027e 90000000 		.4byte	.LFE457
 8986 0282 0400     		.2byte	0x4
 8987 0284 F3       		.byte	0xf3
 8988 0285 01       		.uleb128 0x1
 8989 0286 50       		.byte	0x50
 8990 0287 9F       		.byte	0x9f
 8991 0288 00000000 		.4byte	0
 8992 028c 00000000 		.4byte	0
 8993              	.LLST19:
 8994 0290 36000000 		.4byte	.LVL82
 8995 0294 42000000 		.4byte	.LVL83
 8996 0298 0600     		.2byte	0x6
 8997 029a 03       		.byte	0x3
 8998 029b 44000000 		.4byte	.LC4
 8999 029f 9F       		.byte	0x9f
 9000 02a0 00000000 		.4byte	0
 9001 02a4 00000000 		.4byte	0
 9002              	.LLST20:
 9003 02a8 36000000 		.4byte	.LVL82
 9004 02ac 42000000 		.4byte	.LVL83
 9005 02b0 0200     		.2byte	0x2
 9006 02b2 30       		.byte	0x30
 9007 02b3 9F       		.byte	0x9f
 9008 02b4 00000000 		.4byte	0
 9009 02b8 00000000 		.4byte	0
 9010              	.LLST22:
 9011 02bc 36000000 		.4byte	.LVL82
 9012 02c0 41000000 		.4byte	.LVL83-1
 9013 02c4 0500     		.2byte	0x5
 9014 02c6 03       		.byte	0x3
 9015 02c7 00000000 		.4byte	voltage_ok_btn
 9016 02cb 00000000 		.4byte	0
 9017 02cf 00000000 		.4byte	0
 9018              	.LLST23:
 9019 02d3 42000000 		.4byte	.LVL83
 9020 02d7 50000000 		.4byte	.LVL84
 9021 02db 0200     		.2byte	0x2
 9022 02dd 30       		.byte	0x30
 9023 02de 9F       		.byte	0x9f
 9024 02df 00000000 		.4byte	0
 9025 02e3 00000000 		.4byte	0
ARM GAS  C:\Users\strap\AppData\Local\Temp\cci64Z2T.s 			page 186


 9026              	.LLST24:
 9027 02e7 42000000 		.4byte	.LVL83
 9028 02eb 50000000 		.4byte	.LVL84
 9029 02ef 0200     		.2byte	0x2
 9030 02f1 32       		.byte	0x32
 9031 02f2 9F       		.byte	0x9f
 9032 02f3 00000000 		.4byte	0
 9033 02f7 00000000 		.4byte	0
 9034              	.LLST25:
 9035 02fb 42000000 		.4byte	.LVL83
 9036 02ff 4F000000 		.4byte	.LVL84-1
 9037 0303 0500     		.2byte	0x5
 9038 0305 03       		.byte	0x3
 9039 0306 00000000 		.4byte	voltage_ok_btn
 9040 030a 00000000 		.4byte	0
 9041 030e 00000000 		.4byte	0
 9042              	.LLST29:
 9043 0312 00000000 		.4byte	.LVL89
 9044 0316 0B000000 		.4byte	.LVL90-1
 9045 031a 0100     		.2byte	0x1
 9046 031c 50       		.byte	0x50
 9047 031d 0B000000 		.4byte	.LVL90-1
 9048 0321 64000000 		.4byte	.LVL100
 9049 0325 0100     		.2byte	0x1
 9050 0327 57       		.byte	0x57
 9051 0328 64000000 		.4byte	.LVL100
 9052 032c 0C010000 		.4byte	.LFE453
 9053 0330 0400     		.2byte	0x4
 9054 0332 F3       		.byte	0xf3
 9055 0333 01       		.uleb128 0x1
 9056 0334 50       		.byte	0x50
 9057 0335 9F       		.byte	0x9f
 9058 0336 00000000 		.4byte	0
 9059 033a 00000000 		.4byte	0
 9060              	.LLST30:
 9061 033e 62000000 		.4byte	.LVL99
 9062 0342 6A000000 		.4byte	.LVL101
 9063 0346 0100     		.2byte	0x1
 9064 0348 50       		.byte	0x50
 9065 0349 6A000000 		.4byte	.LVL101
 9066 034d 88000000 		.4byte	.LVL105
 9067 0351 0100     		.2byte	0x1
 9068 0353 57       		.byte	0x57
 9069 0354 00000000 		.4byte	0
 9070 0358 00000000 		.4byte	0
 9071              	.LLST31:
 9072 035c 7A000000 		.4byte	.LVL103
 9073 0360 86000000 		.4byte	.LVL104
 9074 0364 0600     		.2byte	0x6
 9075 0366 03       		.byte	0x3
 9076 0367 44000000 		.4byte	.LC4
 9077 036b 9F       		.byte	0x9f
 9078 036c 00000000 		.4byte	0
 9079 0370 00000000 		.4byte	0
 9080              	.LLST32:
 9081 0374 7A000000 		.4byte	.LVL103
 9082 0378 86000000 		.4byte	.LVL104
ARM GAS  C:\Users\strap\AppData\Local\Temp\cci64Z2T.s 			page 187


 9083 037c 0200     		.2byte	0x2
 9084 037e 30       		.byte	0x30
 9085 037f 9F       		.byte	0x9f
 9086 0380 00000000 		.4byte	0
 9087 0384 00000000 		.4byte	0
 9088              	.LLST34:
 9089 0388 7A000000 		.4byte	.LVL103
 9090 038c 85000000 		.4byte	.LVL104-1
 9091 0390 0500     		.2byte	0x5
 9092 0392 03       		.byte	0x3
 9093 0393 00000000 		.4byte	type_param_ok_btn
 9094 0397 00000000 		.4byte	0
 9095 039b 00000000 		.4byte	0
 9096              	.LLST35:
 9097 039f 86000000 		.4byte	.LVL104
 9098 03a3 96000000 		.4byte	.LVL106
 9099 03a7 0200     		.2byte	0x2
 9100 03a9 30       		.byte	0x30
 9101 03aa 9F       		.byte	0x9f
 9102 03ab 00000000 		.4byte	0
 9103 03af 00000000 		.4byte	0
 9104              	.LLST36:
 9105 03b3 86000000 		.4byte	.LVL104
 9106 03b7 96000000 		.4byte	.LVL106
 9107 03bb 0200     		.2byte	0x2
 9108 03bd 32       		.byte	0x32
 9109 03be 9F       		.byte	0x9f
 9110 03bf 00000000 		.4byte	0
 9111 03c3 00000000 		.4byte	0
 9112              	.LLST37:
 9113 03c7 86000000 		.4byte	.LVL104
 9114 03cb 95000000 		.4byte	.LVL106-1
 9115 03cf 0500     		.2byte	0x5
 9116 03d1 03       		.byte	0x3
 9117 03d2 00000000 		.4byte	type_param_ok_btn
 9118 03d6 00000000 		.4byte	0
 9119 03da 00000000 		.4byte	0
 9120              	.LLST41:
 9121 03de 00000000 		.4byte	.LVL116
 9122 03e2 0B000000 		.4byte	.LVL117-1
 9123 03e6 0100     		.2byte	0x1
 9124 03e8 50       		.byte	0x50
 9125 03e9 0B000000 		.4byte	.LVL117-1
 9126 03ed 5E000000 		.4byte	.LVL127
 9127 03f1 0100     		.2byte	0x1
 9128 03f3 56       		.byte	0x56
 9129 03f4 5E000000 		.4byte	.LVL127
 9130 03f8 B0000000 		.4byte	.LFE459
 9131 03fc 0400     		.2byte	0x4
 9132 03fe F3       		.byte	0xf3
 9133 03ff 01       		.uleb128 0x1
 9134 0400 50       		.byte	0x50
 9135 0401 9F       		.byte	0x9f
 9136 0402 00000000 		.4byte	0
 9137 0406 00000000 		.4byte	0
 9138              	.LLST42:
 9139 040a 44000000 		.4byte	.LVL123
ARM GAS  C:\Users\strap\AppData\Local\Temp\cci64Z2T.s 			page 188


 9140 040e 4C000000 		.4byte	.LVL124
 9141 0412 0100     		.2byte	0x1
 9142 0414 50       		.byte	0x50
 9143 0415 00000000 		.4byte	0
 9144 0419 00000000 		.4byte	0
 9145              	.LLST43:
 9146 041d 50000000 		.4byte	.LVL125
 9147 0421 5C000000 		.4byte	.LVL126
 9148 0425 0600     		.2byte	0x6
 9149 0427 03       		.byte	0x3
 9150 0428 44000000 		.4byte	.LC4
 9151 042c 9F       		.byte	0x9f
 9152 042d 00000000 		.4byte	0
 9153 0431 00000000 		.4byte	0
 9154              	.LLST44:
 9155 0435 50000000 		.4byte	.LVL125
 9156 0439 5C000000 		.4byte	.LVL126
 9157 043d 0200     		.2byte	0x2
 9158 043f 30       		.byte	0x30
 9159 0440 9F       		.byte	0x9f
 9160 0441 00000000 		.4byte	0
 9161 0445 00000000 		.4byte	0
 9162              	.LLST46:
 9163 0449 50000000 		.4byte	.LVL125
 9164 044d 5B000000 		.4byte	.LVL126-1
 9165 0451 0500     		.2byte	0x5
 9166 0453 03       		.byte	0x3
 9167 0454 00000000 		.4byte	pulses_ok_btn
 9168 0458 00000000 		.4byte	0
 9169 045c 00000000 		.4byte	0
 9170              	.LLST47:
 9171 0460 5C000000 		.4byte	.LVL126
 9172 0464 6C000000 		.4byte	.LVL128
 9173 0468 0200     		.2byte	0x2
 9174 046a 30       		.byte	0x30
 9175 046b 9F       		.byte	0x9f
 9176 046c 00000000 		.4byte	0
 9177 0470 00000000 		.4byte	0
 9178              	.LLST48:
 9179 0474 5C000000 		.4byte	.LVL126
 9180 0478 6C000000 		.4byte	.LVL128
 9181 047c 0200     		.2byte	0x2
 9182 047e 32       		.byte	0x32
 9183 047f 9F       		.byte	0x9f
 9184 0480 00000000 		.4byte	0
 9185 0484 00000000 		.4byte	0
 9186              	.LLST49:
 9187 0488 5C000000 		.4byte	.LVL126
 9188 048c 6B000000 		.4byte	.LVL128-1
 9189 0490 0500     		.2byte	0x5
 9190 0492 03       		.byte	0x3
 9191 0493 00000000 		.4byte	pulses_ok_btn
 9192 0497 00000000 		.4byte	0
 9193 049b 00000000 		.4byte	0
 9194              	.LLST53:
 9195 049f 00000000 		.4byte	.LVL134
 9196 04a3 0A000000 		.4byte	.LVL135
ARM GAS  C:\Users\strap\AppData\Local\Temp\cci64Z2T.s 			page 189


 9197 04a7 0100     		.2byte	0x1
 9198 04a9 50       		.byte	0x50
 9199 04aa 0A000000 		.4byte	.LVL135
 9200 04ae 6E010000 		.4byte	.LVL181
 9201 04b2 0100     		.2byte	0x1
 9202 04b4 57       		.byte	0x57
 9203 04b5 6E010000 		.4byte	.LVL181
 9204 04b9 98010000 		.4byte	.LFE447
 9205 04bd 0400     		.2byte	0x4
 9206 04bf F3       		.byte	0xf3
 9207 04c0 01       		.uleb128 0x1
 9208 04c1 50       		.byte	0x50
 9209 04c2 9F       		.byte	0x9f
 9210 04c3 00000000 		.4byte	0
 9211 04c7 00000000 		.4byte	0
 9212              	.LLST54:
 9213 04cb 0E000000 		.4byte	.LVL136
 9214 04cf 10000000 		.4byte	.LVL137
 9215 04d3 0100     		.2byte	0x1
 9216 04d5 50       		.byte	0x50
 9217 04d6 00000000 		.4byte	0
 9218 04da 00000000 		.4byte	0
 9219              	.LLST55:
 9220 04de 14000000 		.4byte	.LVL138
 9221 04e2 6E010000 		.4byte	.LVL181
 9222 04e6 0100     		.2byte	0x1
 9223 04e8 58       		.byte	0x58
 9224 04e9 00000000 		.4byte	0
 9225 04ed 00000000 		.4byte	0
 9226              	.LLST56:
 9227 04f1 1A000000 		.4byte	.LVL139
 9228 04f5 1E000000 		.4byte	.LVL140
 9229 04f9 0100     		.2byte	0x1
 9230 04fb 50       		.byte	0x50
 9231 04fc 00000000 		.4byte	0
 9232 0500 00000000 		.4byte	0
 9233              	.LLST57:
 9234 0504 22000000 		.4byte	.LVL141
 9235 0508 A6000000 		.4byte	.LVL155
 9236 050c 0300     		.2byte	0x3
 9237 050e 76       		.byte	0x76
 9238 050f 6C       		.sleb128 -20
 9239 0510 9F       		.byte	0x9f
 9240 0511 00000000 		.4byte	0
 9241 0515 00000000 		.4byte	0
 9242              	.LLST58:
 9243 0519 5A000000 		.4byte	.LVL147
 9244 051d 5F000000 		.4byte	.LVL148-1
 9245 0521 0100     		.2byte	0x1
 9246 0523 50       		.byte	0x50
 9247 0524 5F000000 		.4byte	.LVL148-1
 9248 0528 6E010000 		.4byte	.LVL181
 9249 052c 0100     		.2byte	0x1
 9250 052e 59       		.byte	0x59
 9251 052f 00000000 		.4byte	0
 9252 0533 00000000 		.4byte	0
 9253              	.LLST59:
ARM GAS  C:\Users\strap\AppData\Local\Temp\cci64Z2T.s 			page 190


 9254 0537 A6000000 		.4byte	.LVL155
 9255 053b AB000000 		.4byte	.LVL156-1
 9256 053f 0100     		.2byte	0x1
 9257 0541 50       		.byte	0x50
 9258 0542 AB000000 		.4byte	.LVL156-1
 9259 0546 CC000000 		.4byte	.LVL160
 9260 054a 0100     		.2byte	0x1
 9261 054c 56       		.byte	0x56
 9262 054d 00000000 		.4byte	0
 9263 0551 00000000 		.4byte	0
 9264              	.LLST60:
 9265 0555 10010000 		.4byte	.LVL169
 9266 0559 1C010000 		.4byte	.LVL170
 9267 055d 0200     		.2byte	0x2
 9268 055f 30       		.byte	0x30
 9269 0560 9F       		.byte	0x9f
 9270 0561 00000000 		.4byte	0
 9271 0565 00000000 		.4byte	0
 9272              	.LLST61:
 9273 0569 10010000 		.4byte	.LVL169
 9274 056d 1C010000 		.4byte	.LVL170
 9275 0571 0200     		.2byte	0x2
 9276 0573 32       		.byte	0x32
 9277 0574 9F       		.byte	0x9f
 9278 0575 00000000 		.4byte	0
 9279 0579 00000000 		.4byte	0
 9280              	.LLST62:
 9281 057d 10010000 		.4byte	.LVL169
 9282 0581 1B010000 		.4byte	.LVL170-1
 9283 0585 0100     		.2byte	0x1
 9284 0587 50       		.byte	0x50
 9285 0588 00000000 		.4byte	0
 9286 058c 00000000 		.4byte	0
 9287              	.LLST66:
 9288 0590 1C010000 		.4byte	.LVL170
 9289 0594 28010000 		.4byte	.LVL171
 9290 0598 0600     		.2byte	0x6
 9291 059a 03       		.byte	0x3
 9292 059b A8000000 		.4byte	.LC11
 9293 059f 9F       		.byte	0x9f
 9294 05a0 00000000 		.4byte	0
 9295 05a4 00000000 		.4byte	0
 9296              	.LLST67:
 9297 05a8 1C010000 		.4byte	.LVL170
 9298 05ac 28010000 		.4byte	.LVL171
 9299 05b0 0200     		.2byte	0x2
 9300 05b2 30       		.byte	0x30
 9301 05b3 9F       		.byte	0x9f
 9302 05b4 00000000 		.4byte	0
 9303 05b8 00000000 		.4byte	0
 9304              	.LLST69:
 9305 05bc 1C010000 		.4byte	.LVL170
 9306 05c0 27010000 		.4byte	.LVL171-1
 9307 05c4 0500     		.2byte	0x5
 9308 05c6 03       		.byte	0x3
 9309 05c7 00000000 		.4byte	shoot_btn
 9310 05cb 00000000 		.4byte	0
ARM GAS  C:\Users\strap\AppData\Local\Temp\cci64Z2T.s 			page 191


 9311 05cf 00000000 		.4byte	0
 9312              	.LLST70:
 9313 05d3 00000000 		.4byte	.LVL182
 9314 05d7 0A000000 		.4byte	.LVL183
 9315 05db 0100     		.2byte	0x1
 9316 05dd 50       		.byte	0x50
 9317 05de 0A000000 		.4byte	.LVL183
 9318 05e2 50000000 		.4byte	.LVL196
 9319 05e6 0400     		.2byte	0x4
 9320 05e8 F3       		.byte	0xf3
 9321 05e9 01       		.uleb128 0x1
 9322 05ea 50       		.byte	0x50
 9323 05eb 9F       		.byte	0x9f
 9324 05ec 50000000 		.4byte	.LVL196
 9325 05f0 60000000 		.4byte	.LFE454
 9326 05f4 0100     		.2byte	0x1
 9327 05f6 50       		.byte	0x50
 9328 05f7 00000000 		.4byte	0
 9329 05fb 00000000 		.4byte	0
 9330              	.LLST71:
 9331 05ff 00000000 		.4byte	.LVL182
 9332 0603 0D000000 		.4byte	.LVL184-1
 9333 0607 0100     		.2byte	0x1
 9334 0609 51       		.byte	0x51
 9335 060a 0D000000 		.4byte	.LVL184-1
 9336 060e 50000000 		.4byte	.LVL196
 9337 0612 0400     		.2byte	0x4
 9338 0614 F3       		.byte	0xf3
 9339 0615 01       		.uleb128 0x1
 9340 0616 51       		.byte	0x51
 9341 0617 9F       		.byte	0x9f
 9342 0618 50000000 		.4byte	.LVL196
 9343 061c 60000000 		.4byte	.LFE454
 9344 0620 0100     		.2byte	0x1
 9345 0622 51       		.byte	0x51
 9346 0623 00000000 		.4byte	0
 9347 0627 00000000 		.4byte	0
 9348              	.LLST72:
 9349 062b 10000000 		.4byte	.LVL185
 9350 062f 1A000000 		.4byte	.LVL187
 9351 0633 0100     		.2byte	0x1
 9352 0635 54       		.byte	0x54
 9353 0636 3C000000 		.4byte	.LVL192
 9354 063a 3E000000 		.4byte	.LVL193
 9355 063e 0100     		.2byte	0x1
 9356 0640 54       		.byte	0x54
 9357 0641 00000000 		.4byte	0
 9358 0645 00000000 		.4byte	0
 9359              	.LLST73:
 9360 0649 B8000000 		.4byte	.LVL230
 9361 064d BD000000 		.4byte	.LVL231-1
 9362 0651 0500     		.2byte	0x5
 9363 0653 03       		.byte	0x3
 9364 0654 00000000 		.4byte	app_screen
 9365 0658 00000000 		.4byte	0
 9366 065c 00000000 		.4byte	0
 9367              		.section	.debug_aranges,"",%progbits
ARM GAS  C:\Users\strap\AppData\Local\Temp\cci64Z2T.s 			page 192


 9368 0000 9C000000 		.4byte	0x9c
 9369 0004 0200     		.2byte	0x2
 9370 0006 00000000 		.4byte	.Ldebug_info0
 9371 000a 04       		.byte	0x4
 9372 000b 00       		.byte	0
 9373 000c 0000     		.2byte	0
 9374 000e 0000     		.2byte	0
 9375 0010 00000000 		.4byte	.LFB456
 9376 0014 02000000 		.4byte	.LFE456-.LFB456
 9377 0018 00000000 		.4byte	.LFB445
 9378 001c 18000000 		.4byte	.LFE445-.LFB445
 9379 0020 00000000 		.4byte	.LFB446
 9380 0024 1E000000 		.4byte	.LFE446-.LFB446
 9381 0028 00000000 		.4byte	.LFB449
 9382 002c 30000000 		.4byte	.LFE449-.LFB449
 9383 0030 00000000 		.4byte	.LFB451
 9384 0034 4C000000 		.4byte	.LFE451-.LFB451
 9385 0038 00000000 		.4byte	.LFB455
 9386 003c 34000000 		.4byte	.LFE455-.LFB455
 9387 0040 00000000 		.4byte	.LFB458
 9388 0044 40000000 		.4byte	.LFE458-.LFB458
 9389 0048 00000000 		.4byte	.LFB448
 9390 004c 24010000 		.4byte	.LFE448-.LFB448
 9391 0050 00000000 		.4byte	.LFB457
 9392 0054 90000000 		.4byte	.LFE457-.LFB457
 9393 0058 00000000 		.4byte	.LFB453
 9394 005c 0C010000 		.4byte	.LFE453-.LFB453
 9395 0060 00000000 		.4byte	.LFB459
 9396 0064 B0000000 		.4byte	.LFE459-.LFB459
 9397 0068 00000000 		.4byte	.LFB447
 9398 006c 98010000 		.4byte	.LFE447-.LFB447
 9399 0070 00000000 		.4byte	.LFB454
 9400 0074 60000000 		.4byte	.LFE454-.LFB454
 9401 0078 00000000 		.4byte	.LFB442
 9402 007c 0A000000 		.4byte	.LFE442-.LFB442
 9403 0080 00000000 		.4byte	.LFB443
 9404 0084 10000000 		.4byte	.LFE443-.LFB443
 9405 0088 00000000 		.4byte	.LFB444
 9406 008c 36000000 		.4byte	.LFE444-.LFB444
 9407 0090 00000000 		.4byte	.LFB441
 9408 0094 F4000000 		.4byte	.LFE441-.LFB441
 9409 0098 00000000 		.4byte	0
 9410 009c 00000000 		.4byte	0
 9411              		.section	.debug_ranges,"",%progbits
 9412              	.Ldebug_ranges0:
 9413 0000 00000000 		.4byte	.LFB456
 9414 0004 02000000 		.4byte	.LFE456
 9415 0008 00000000 		.4byte	.LFB445
 9416 000c 18000000 		.4byte	.LFE445
 9417 0010 00000000 		.4byte	.LFB446
 9418 0014 1E000000 		.4byte	.LFE446
 9419 0018 00000000 		.4byte	.LFB449
 9420 001c 30000000 		.4byte	.LFE449
 9421 0020 00000000 		.4byte	.LFB451
 9422 0024 4C000000 		.4byte	.LFE451
 9423 0028 00000000 		.4byte	.LFB455
 9424 002c 34000000 		.4byte	.LFE455
ARM GAS  C:\Users\strap\AppData\Local\Temp\cci64Z2T.s 			page 193


 9425 0030 00000000 		.4byte	.LFB458
 9426 0034 40000000 		.4byte	.LFE458
 9427 0038 00000000 		.4byte	.LFB448
 9428 003c 24010000 		.4byte	.LFE448
 9429 0040 00000000 		.4byte	.LFB457
 9430 0044 90000000 		.4byte	.LFE457
 9431 0048 00000000 		.4byte	.LFB453
 9432 004c 0C010000 		.4byte	.LFE453
 9433 0050 00000000 		.4byte	.LFB459
 9434 0054 B0000000 		.4byte	.LFE459
 9435 0058 00000000 		.4byte	.LFB447
 9436 005c 98010000 		.4byte	.LFE447
 9437 0060 00000000 		.4byte	.LFB454
 9438 0064 60000000 		.4byte	.LFE454
 9439 0068 00000000 		.4byte	.LFB442
 9440 006c 0A000000 		.4byte	.LFE442
 9441 0070 00000000 		.4byte	.LFB443
 9442 0074 10000000 		.4byte	.LFE443
 9443 0078 00000000 		.4byte	.LFB444
 9444 007c 36000000 		.4byte	.LFE444
 9445 0080 00000000 		.4byte	.LFB441
 9446 0084 F4000000 		.4byte	.LFE441
 9447 0088 00000000 		.4byte	0
 9448 008c 00000000 		.4byte	0
 9449              		.section	.debug_line,"",%progbits
 9450              	.Ldebug_line0:
 9451 0000 D0060000 		.section	.debug_str,"MS",%progbits,1
 9451      02007E04 
 9451      00000201 
 9451      FB0E0D00 
 9451      01010101 
 9452              	.LASF368:
 9453 0000 786F6673 		.ascii	"xofs\000"
 9453      00
 9454              	.LASF113:
 9455 0005 62675F6F 		.ascii	"bg_opa\000"
 9455      706100
 9456              	.LASF60:
 9457 000c 4C565F41 		.ascii	"LV_ALIGN_IN_BOTTOM_RIGHT\000"
 9457      4C49474E 
 9457      5F494E5F 
 9457      424F5454 
 9457      4F4D5F52 
 9458              	.LASF138:
 9459 0025 666F6375 		.ascii	"focus_parent\000"
 9459      735F7061 
 9459      72656E74 
 9459      00
 9460              	.LASF471:
 9461 0032 766F6C74 		.ascii	"voltage_ddlist_handler\000"
 9461      6167655F 
 9461      64646C69 
 9461      73745F68 
 9461      616E646C 
 9462              	.LASF31:
 9463 0049 6C765F72 		.ascii	"lv_res_t\000"
 9463      65735F74 
ARM GAS  C:\Users\strap\AppData\Local\Temp\cci64Z2T.s 			page 194


 9463      00
 9464              	.LASF437:
 9465 0052 5F4C565F 		.ascii	"_LV_TEXTAREA_PART_REAL_LAST\000"
 9465      54455854 
 9465      41524541 
 9465      5F504152 
 9465      545F5245 
 9466              	.LASF356:
 9467 006e 4C565F45 		.ascii	"LV_EVENT_VALUE_CHANGED\000"
 9467      56454E54 
 9467      5F56414C 
 9467      55455F43 
 9467      48414E47 
 9468              	.LASF64:
 9469 0085 4C565F41 		.ascii	"LV_ALIGN_OUT_TOP_MID\000"
 9469      4C49474E 
 9469      5F4F5554 
 9469      5F544F50 
 9469      5F4D4944 
 9470              	.LASF599:
 9471 009a 43794465 		.ascii	"CyDelay\000"
 9471      6C617900 
 9472              	.LASF175:
 9473 00a2 76656374 		.ascii	"vect\000"
 9473      00
 9474              	.LASF89:
 9475 00a7 7665725F 		.ascii	"ver_res\000"
 9475      72657300 
 9476              	.LASF169:
 9477 00af 6C6F6E67 		.ascii	"long_press_time\000"
 9477      5F707265 
 9477      73735F74 
 9477      696D6500 
 9478              	.LASF236:
 9479 00bf 4C565F53 		.ascii	"LV_STYLE_BG_GRAD_COLOR\000"
 9479      54594C45 
 9479      5F42475F 
 9479      47524144 
 9479      5F434F4C 
 9480              	.LASF2:
 9481 00d6 5F5F7569 		.ascii	"__uint8_t\000"
 9481      6E74385F 
 9481      7400
 9482              	.LASF204:
 9483 00e0 5F6C765F 		.ascii	"_lv_group_t\000"
 9483      67726F75 
 9483      705F7400 
 9484              	.LASF449:
 9485 00ec 68775F72 		.ascii	"hw_reset\000"
 9485      65736574 
 9485      00
 9486              	.LASF549:
 9487 00f5 6C765F64 		.ascii	"lv_dropdown_set_options\000"
 9487      726F7064 
 9487      6F776E5F 
 9487      7365745F 
 9487      6F707469 
ARM GAS  C:\Users\strap\AppData\Local\Temp\cci64Z2T.s 			page 195


 9488              	.LASF123:
 9489 010d 7369676E 		.ascii	"signal_cb\000"
 9489      616C5F63 
 9489      6200
 9490              	.LASF171:
 9491 0117 5F426F6F 		.ascii	"_Bool\000"
 9491      6C00
 9492              	.LASF120:
 9493 011d 6368696C 		.ascii	"child_ll\000"
 9493      645F6C6C 
 9493      00
 9494              	.LASF585:
 9495 0126 7370695F 		.ascii	"spi_initialize_dma\000"
 9495      696E6974 
 9495      69616C69 
 9495      7A655F64 
 9495      6D6100
 9496              	.LASF389:
 9497 0139 4C565F4C 		.ascii	"LV_LAYOUT_OFF\000"
 9497      41594F55 
 9497      545F4F46 
 9497      4600
 9498              	.LASF230:
 9499 0147 4C565F53 		.ascii	"LV_STYLE_MARGIN_RIGHT\000"
 9499      54594C45 
 9499      5F4D4152 
 9499      47494E5F 
 9499      52494748 
 9500              	.LASF44:
 9501 015d 7072696F 		.ascii	"prio\000"
 9501      00
 9502              	.LASF338:
 9503 0162 6C765F64 		.ascii	"lv_design_res_t\000"
 9503      65736967 
 9503      6E5F7265 
 9503      735F7400 
 9504              	.LASF27:
 9505 0172 6C765F67 		.ascii	"lv_group_user_data_t\000"
 9505      726F7570 
 9505      5F757365 
 9505      725F6461 
 9505      74615F74 
 9506              	.LASF354:
 9507 0187 4C565F45 		.ascii	"LV_EVENT_DEFOCUSED\000"
 9507      56454E54 
 9507      5F444546 
 9507      4F435553 
 9507      454400
 9508              	.LASF232:
 9509 019a 4C565F53 		.ascii	"LV_STYLE_BG_MAIN_STOP\000"
 9509      54594C45 
 9509      5F42475F 
 9509      4D41494E 
 9509      5F53544F 
 9510              	.LASF475:
 9511 01b0 7370696E 		.ascii	"spinbox_value\000"
 9511      626F785F 
ARM GAS  C:\Users\strap\AppData\Local\Temp\cci64Z2T.s 			page 196


 9511      76616C75 
 9511      6500
 9512              	.LASF480:
 9513 01be 63726561 		.ascii	"create_voltage_container_widgets\000"
 9513      74655F76 
 9513      6F6C7461 
 9513      67655F63 
 9513      6F6E7461 
 9514              	.LASF117:
 9515 01df 6C617374 		.ascii	"last_activity_time\000"
 9515      5F616374 
 9515      69766974 
 9515      795F7469 
 9515      6D6500
 9516              	.LASF406:
 9517 01f2 5F4C565F 		.ascii	"_LV_FIT_LAST\000"
 9517      4649545F 
 9517      4C415354 
 9517      00
 9518              	.LASF58:
 9519 01ff 4C565F41 		.ascii	"LV_ALIGN_IN_BOTTOM_LEFT\000"
 9519      4C49474E 
 9519      5F494E5F 
 9519      424F5454 
 9519      4F4D5F4C 
 9520              	.LASF397:
 9521 0217 4C565F4C 		.ascii	"LV_LAYOUT_PRETTY_TOP\000"
 9521      41594F55 
 9521      545F5052 
 9521      45545459 
 9521      5F544F50 
 9522              	.LASF218:
 9523 022c 4C565F53 		.ascii	"LV_STYLE_TRANSFORM_HEIGHT\000"
 9523      54594C45 
 9523      5F545241 
 9523      4E53464F 
 9523      524D5F48 
 9524              	.LASF569:
 9525 0246 6C765F63 		.ascii	"lv_checkbox_set_text\000"
 9525      6865636B 
 9525      626F785F 
 9525      7365745F 
 9525      74657874 
 9526              	.LASF401:
 9527 025b 5F4C565F 		.ascii	"_LV_LAYOUT_LAST\000"
 9527      4C41594F 
 9527      55545F4C 
 9527      41535400 
 9528              	.LASF558:
 9529 026b 6C765F6F 		.ascii	"lv_obj_get_width\000"
 9529      626A5F67 
 9529      65745F77 
 9529      69647468 
 9529      00
 9530              	.LASF16:
 9531 027c 75696E74 		.ascii	"uint16_t\000"
 9531      31365F74 
ARM GAS  C:\Users\strap\AppData\Local\Temp\cci64Z2T.s 			page 197


 9531      00
 9532              	.LASF183:
 9533 0285 64726167 		.ascii	"drag_limit_out\000"
 9533      5F6C696D 
 9533      69745F6F 
 9533      757400
 9534              	.LASF554:
 9535 0294 6C765F73 		.ascii	"lv_spinbox_set_digit_format\000"
 9535      70696E62 
 9535      6F785F73 
 9535      65745F64 
 9535      69676974 
 9536              	.LASF484:
 9537 02b0 63726561 		.ascii	"create_application_screen\000"
 9537      74655F61 
 9537      70706C69 
 9537      63617469 
 9537      6F6E5F73 
 9538              	.LASF163:
 9539 02ca 66656564 		.ascii	"feedback_cb\000"
 9539      6261636B 
 9539      5F636200 
 9540              	.LASF448:
 9541 02d6 77726974 		.ascii	"write_async\000"
 9541      655F6173 
 9541      796E6300 
 9542              	.LASF197:
 9543 02e2 77616974 		.ascii	"wait_until_release\000"
 9543      5F756E74 
 9543      696C5F72 
 9543      656C6561 
 9543      736500
 9544              	.LASF331:
 9545 02f5 696D675F 		.ascii	"img_recolor_opa_transp\000"
 9545      7265636F 
 9545      6C6F725F 
 9545      6F70615F 
 9545      7472616E 
 9546              	.LASF426:
 9547 030c 4C565F50 		.ascii	"LV_PAGE_PART_SCROLLBAR\000"
 9547      4147455F 
 9547      50415254 
 9547      5F534352 
 9547      4F4C4C42 
 9548              	.LASF365:
 9549 0323 6C765F73 		.ascii	"lv_signal_t\000"
 9549      69676E61 
 9549      6C5F7400 
 9550              	.LASF490:
 9551 032f 70617261 		.ascii	"parameter_options_container_lbl\000"
 9551      6D657465 
 9551      725F6F70 
 9551      74696F6E 
 9551      735F636F 
 9552              	.LASF460:
 9553 034f 70617261 		.ascii	"parameter\000"
 9553      6D657465 
ARM GAS  C:\Users\strap\AppData\Local\Temp\cci64Z2T.s 			page 198


 9553      7200
 9554              	.LASF228:
 9555 0359 4C565F53 		.ascii	"LV_STYLE_MARGIN_BOTTOM\000"
 9555      54594C45 
 9555      5F4D4152 
 9555      47494E5F 
 9555      424F5454 
 9556              	.LASF68:
 9557 0370 4C565F41 		.ascii	"LV_ALIGN_OUT_BOTTOM_RIGHT\000"
 9557      4C49474E 
 9557      5F4F5554 
 9557      5F424F54 
 9557      544F4D5F 
 9558              	.LASF195:
 9559 038a 72657365 		.ascii	"reset_query\000"
 9559      745F7175 
 9559      65727900 
 9560              	.LASF317:
 9561 0396 636C6970 		.ascii	"clip_corner_off\000"
 9561      5F636F72 
 9561      6E65725F 
 9561      6F666600 
 9562              	.LASF262:
 9563 03a6 4C565F53 		.ascii	"LV_STYLE_VALUE_LETTER_SPACE\000"
 9563      54594C45 
 9563      5F56414C 
 9563      55455F4C 
 9563      45545445 
 9564              	.LASF280:
 9565 03c2 4C565F53 		.ascii	"LV_STYLE_TEXT_FONT\000"
 9565      54594C45 
 9565      5F544558 
 9565      545F464F 
 9565      4E5400
 9566              	.LASF361:
 9567 03d5 4C565F45 		.ascii	"LV_EVENT_DELETE\000"
 9567      56454E54 
 9567      5F44454C 
 9567      45544500 
 9568              	.LASF140:
 9569 03e5 62617365 		.ascii	"base_dir\000"
 9569      5F646972 
 9569      00
 9570              	.LASF503:
 9571 03ee 70617261 		.ascii	"parameter_list_g\000"
 9571      6D657465 
 9571      725F6C69 
 9571      73745F67 
 9571      00
 9572              	.LASF214:
 9573 03ff 4C565F53 		.ascii	"LV_STYLE_RADIUS\000"
 9573      54594C45 
 9573      5F524144 
 9573      49555300 
 9574              	.LASF217:
 9575 040f 4C565F53 		.ascii	"LV_STYLE_TRANSFORM_WIDTH\000"
 9575      54594C45 
ARM GAS  C:\Users\strap\AppData\Local\Temp\cci64Z2T.s 			page 199


 9575      5F545241 
 9575      4E53464F 
 9575      524D5F57 
 9576              	.LASF458:
 9577 0428 70617261 		.ascii	"parameter_list_s\000"
 9577      6D657465 
 9577      725F6C69 
 9577      73745F73 
 9577      00
 9578              	.LASF293:
 9579 0439 4C565F53 		.ascii	"LV_STYLE_TRANSITION_DELAY\000"
 9579      54594C45 
 9579      5F545241 
 9579      4E534954 
 9579      494F4E5F 
 9580              	.LASF281:
 9581 0453 4C565F53 		.ascii	"LV_STYLE_LINE_WIDTH\000"
 9581      54594C45 
 9581      5F4C494E 
 9581      455F5749 
 9581      44544800 
 9582              	.LASF285:
 9583 0467 4C565F53 		.ascii	"LV_STYLE_LINE_ROUNDED\000"
 9583      54594C45 
 9583      5F4C494E 
 9583      455F524F 
 9583      554E4445 
 9584              	.LASF563:
 9585 047d 6C765F63 		.ascii	"lv_cont_create\000"
 9585      6F6E745F 
 9585      63726561 
 9585      746500
 9586              	.LASF564:
 9587 048c 6C765F6F 		.ascii	"lv_obj_set_size\000"
 9587      626A5F73 
 9587      65745F73 
 9587      697A6500 
 9588              	.LASF355:
 9589 049c 4C565F45 		.ascii	"LV_EVENT_LEAVE\000"
 9589      56454E54 
 9589      5F4C4541 
 9589      564500
 9590              	.LASF17:
 9591 04ab 696E7433 		.ascii	"int32_t\000"
 9591      325F7400 
 9592              	.LASF99:
 9593 04b3 6770755F 		.ascii	"gpu_wait_cb\000"
 9593      77616974 
 9593      5F636200 
 9594              	.LASF83:
 9595 04bf 6C617374 		.ascii	"last_area\000"
 9595      5F617265 
 9595      6100
 9596              	.LASF126:
 9597 04c9 7374796C 		.ascii	"style_list\000"
 9597      655F6C69 
 9597      737400
ARM GAS  C:\Users\strap\AppData\Local\Temp\cci64Z2T.s 			page 200


 9598              	.LASF92:
 9599 04d4 726F7461 		.ascii	"rotated\000"
 9599      74656400 
 9600              	.LASF385:
 9601 04dc 5F4C565F 		.ascii	"_LV_OBJ_PART_REAL_LAST\000"
 9601      4F424A5F 
 9601      50415254 
 9601      5F524541 
 9601      4C5F4C41 
 9602              	.LASF37:
 9603 04f3 6C765F74 		.ascii	"lv_task_cb_t\000"
 9603      61736B5F 
 9603      63625F74 
 9603      00
 9604              	.LASF72:
 9605 0500 4C565F41 		.ascii	"LV_ALIGN_OUT_RIGHT_TOP\000"
 9605      4C49474E 
 9605      5F4F5554 
 9605      5F524947 
 9605      48545F54 
 9606              	.LASF540:
 9607 0517 6C765F67 		.ascii	"lv_group_focus_obj\000"
 9607      726F7570 
 9607      5F666F63 
 9607      75735F6F 
 9607      626A00
 9608              	.LASF552:
 9609 052a 6C765F73 		.ascii	"lv_spinbox_create\000"
 9609      70696E62 
 9609      6F785F63 
 9609      72656174 
 9609      6500
 9610              	.LASF131:
 9611 053c 64726167 		.ascii	"drag\000"
 9611      00
 9612              	.LASF412:
 9613 0541 4C565F42 		.ascii	"LV_BTN_STATE_PRESSED\000"
 9613      544E5F53 
 9613      54415445 
 9613      5F505245 
 9613      53534544 
 9614              	.LASF366:
 9615 0556 6C765F73 		.ascii	"lv_signal_cb_t\000"
 9615      69676E61 
 9615      6C5F6362 
 9615      5F7400
 9616              	.LASF593:
 9617 0565 6C765F64 		.ascii	"lv_disp_drv_register\000"
 9617      6973705F 
 9617      6472765F 
 9617      72656769 
 9617      73746572 
 9618              	.LASF486:
 9619 057a 636F6E74 		.ascii	"container_height\000"
 9619      61696E65 
 9619      725F6865 
 9619      69676874 
ARM GAS  C:\Users\strap\AppData\Local\Temp\cci64Z2T.s 			page 201


 9619      00
 9620              	.LASF291:
 9621 058b 4C565F53 		.ascii	"LV_STYLE_IMAGE_RECOLOR_OPA\000"
 9621      54594C45 
 9621      5F494D41 
 9621      47455F52 
 9621      45434F4C 
 9622              	.LASF19:
 9623 05a6 75696E74 		.ascii	"uint8\000"
 9623      3800
 9624              	.LASF395:
 9625 05ac 4C565F4C 		.ascii	"LV_LAYOUT_ROW_MID\000"
 9625      41594F55 
 9625      545F524F 
 9625      575F4D49 
 9625      4400
 9626              	.LASF200:
 9627 05be 70726F63 		.ascii	"proc\000"
 9627      00
 9628              	.LASF270:
 9629 05c3 4C565F53 		.ascii	"LV_STYLE_VALUE_FONT\000"
 9629      54594C45 
 9629      5F56414C 
 9629      55455F46 
 9629      4F4E5400 
 9630              	.LASF137:
 9631 05d7 67657374 		.ascii	"gesture_parent\000"
 9631      7572655F 
 9631      70617265 
 9631      6E7400
 9632              	.LASF207:
 9633 05e6 666F6375 		.ascii	"focus_cb\000"
 9633      735F6362 
 9633      00
 9634              	.LASF231:
 9635 05ef 4C565F53 		.ascii	"LV_STYLE_BG_BLEND_MODE\000"
 9635      54594C45 
 9635      5F42475F 
 9635      424C454E 
 9635      445F4D4F 
 9636              	.LASF380:
 9637 0606 4C565F53 		.ascii	"LV_STATE_DISABLED\000"
 9637      54415445 
 9637      5F444953 
 9637      41424C45 
 9637      4400
 9638              	.LASF345:
 9639 0618 4C565F45 		.ascii	"LV_EVENT_LONG_PRESSED_REPEAT\000"
 9639      56454E54 
 9639      5F4C4F4E 
 9639      475F5052 
 9639      45535345 
 9640              	.LASF258:
 9641 0635 4C565F53 		.ascii	"LV_STYLE_PATTERN_RECOLOR\000"
 9641      54594C45 
 9641      5F504154 
 9641      5445524E 
ARM GAS  C:\Users\strap\AppData\Local\Temp\cci64Z2T.s 			page 202


 9641      5F524543 
 9642              	.LASF30:
 9643 064e 6C765F6F 		.ascii	"lv_obj_user_data_t\000"
 9643      626A5F75 
 9643      7365725F 
 9643      64617461 
 9643      5F7400
 9644              	.LASF453:
 9645 0661 5350495F 		.ascii	"SPI_XFER_ONGOING\000"
 9645      58464552 
 9645      5F4F4E47 
 9645      4F494E47 
 9645      00
 9646              	.LASF444:
 9647 0672 64697370 		.ascii	"display_backlight_control\000"
 9647      6C61795F 
 9647      6261636B 
 9647      6C696768 
 9647      745F636F 
 9648              	.LASF596:
 9649 068c 6C765F67 		.ascii	"lv_group_create\000"
 9649      726F7570 
 9649      5F637265 
 9649      61746500 
 9650              	.LASF155:
 9651 069c 6C765F67 		.ascii	"lv_gesture_dir_t\000"
 9651      65737475 
 9651      72655F64 
 9651      69725F74 
 9651      00
 9652              	.LASF536:
 9653 06ad 6C765F73 		.ascii	"lv_spinbox_get_value\000"
 9653      70696E62 
 9653      6F785F67 
 9653      65745F76 
 9653      616C7565 
 9654              	.LASF315:
 9655 06c2 72616469 		.ascii	"radius_zero\000"
 9655      75735F7A 
 9655      65726F00 
 9656              	.LASF388:
 9657 06ce 6C765F67 		.ascii	"lv_group_t\000"
 9657      726F7570 
 9657      5F7400
 9658              	.LASF57:
 9659 06d9 4C565F41 		.ascii	"LV_ALIGN_IN_TOP_RIGHT\000"
 9659      4C49474E 
 9659      5F494E5F 
 9659      544F505F 
 9659      52494748 
 9660              	.LASF127:
 9661 06ef 6578745F 		.ascii	"ext_click_pad_hor\000"
 9661      636C6963 
 9661      6B5F7061 
 9661      645F686F 
 9661      7200
 9662              	.LASF196:
ARM GAS  C:\Users\strap\AppData\Local\Temp\cci64Z2T.s 			page 203


 9663 0701 64697361 		.ascii	"disabled\000"
 9663      626C6564 
 9663      00
 9664              	.LASF65:
 9665 070a 4C565F41 		.ascii	"LV_ALIGN_OUT_TOP_RIGHT\000"
 9665      4C49474E 
 9665      5F4F5554 
 9665      5F544F50 
 9665      5F524947 
 9666              	.LASF478:
 9667 0721 70756C73 		.ascii	"pulses_ok_btn_handler\000"
 9667      65735F6F 
 9667      6B5F6274 
 9667      6E5F6861 
 9667      6E646C65 
 9668              	.LASF431:
 9669 0737 4C565F54 		.ascii	"LV_TEXTAREA_PART_BG\000"
 9669      45585441 
 9669      5245415F 
 9669      50415254 
 9669      5F424700 
 9670              	.LASF495:
 9671 074b 7370695F 		.ascii	"spi_tx_sts\000"
 9671      74785F73 
 9671      747300
 9672              	.LASF526:
 9673 0756 7634385F 		.ascii	"v48_checkbox\000"
 9673      63686563 
 9673      6B626F78 
 9673      00
 9674              	.LASF153:
 9675 0763 6C765F69 		.ascii	"lv_indev_state_t\000"
 9675      6E646576 
 9675      5F737461 
 9675      74655F74 
 9675      00
 9676              	.LASF203:
 9677 0774 62746E5F 		.ascii	"btn_points\000"
 9677      706F696E 
 9677      747300
 9678              	.LASF234:
 9679 077f 4C565F53 		.ascii	"LV_STYLE_BG_GRAD_DIR\000"
 9679      54594C45 
 9679      5F42475F 
 9679      47524144 
 9679      5F444952 
 9680              	.LASF152:
 9681 0794 4C565F49 		.ascii	"LV_INDEV_STATE_PR\000"
 9681      4E444556 
 9681      5F535441 
 9681      54455F50 
 9681      5200
 9682              	.LASF393:
 9683 07a6 4C565F4C 		.ascii	"LV_LAYOUT_COLUMN_RIGHT\000"
 9683      41594F55 
 9683      545F434F 
 9683      4C554D4E 
ARM GAS  C:\Users\strap\AppData\Local\Temp\cci64Z2T.s 			page 204


 9683      5F524947 
 9684              	.LASF597:
 9685 07bd 696C6939 		.ascii	"ili9341_init\000"
 9685      3334315F 
 9685      696E6974 
 9685      00
 9686              	.LASF161:
 9687 07ca 74797065 		.ascii	"type\000"
 9687      00
 9688              	.LASF142:
 9689 07cf 70726F74 		.ascii	"protect\000"
 9689      65637400 
 9690              	.LASF339:
 9691 07d7 6C765F64 		.ascii	"lv_design_cb_t\000"
 9691      65736967 
 9691      6E5F6362 
 9691      5F7400
 9692              	.LASF3:
 9693 07e6 5F5F696E 		.ascii	"__int16_t\000"
 9693      7431365F 
 9693      7400
 9694              	.LASF5:
 9695 07f0 5F5F7569 		.ascii	"__uint16_t\000"
 9695      6E743136 
 9695      5F7400
 9696              	.LASF541:
 9697 07fb 6C765F63 		.ascii	"lv_checkbox_set_checked\000"
 9697      6865636B 
 9697      626F785F 
 9697      7365745F 
 9697      63686563 
 9698              	.LASF528:
 9699 0813 71645F63 		.ascii	"qd_current_cnt\000"
 9699      75727265 
 9699      6E745F63 
 9699      6E7400
 9700              	.LASF151:
 9701 0822 4C565F49 		.ascii	"LV_INDEV_STATE_REL\000"
 9701      4E444556 
 9701      5F535441 
 9701      54455F52 
 9701      454C00
 9702              	.LASF561:
 9703 0835 6C765F64 		.ascii	"lv_disp_get_ver_res\000"
 9703      6973705F 
 9703      6765745F 
 9703      7665725F 
 9703      72657300 
 9704              	.LASF216:
 9705 0849 4C565F53 		.ascii	"LV_STYLE_SIZE\000"
 9705      54594C45 
 9705      5F53495A 
 9705      4500
 9706              	.LASF511:
 9707 0857 73686F6F 		.ascii	"shoot_btn_label\000"
 9707      745F6274 
 9707      6E5F6C61 
ARM GAS  C:\Users\strap\AppData\Local\Temp\cci64Z2T.s 			page 205


 9707      62656C00 
 9708              	.LASF542:
 9709 0867 6C765F62 		.ascii	"lv_btn_get_state\000"
 9709      746E5F67 
 9709      65745F73 
 9709      74617465 
 9709      00
 9710              	.LASF67:
 9711 0878 4C565F41 		.ascii	"LV_ALIGN_OUT_BOTTOM_MID\000"
 9711      4C49474E 
 9711      5F4F5554 
 9711      5F424F54 
 9711      544F4D5F 
 9712              	.LASF206:
 9713 0890 6F626A5F 		.ascii	"obj_focus\000"
 9713      666F6375 
 9713      7300
 9714              	.LASF292:
 9715 089a 4C565F53 		.ascii	"LV_STYLE_TRANSITION_TIME\000"
 9715      54594C45 
 9715      5F545241 
 9715      4E534954 
 9715      494F4E5F 
 9716              	.LASF167:
 9717 08b3 67657374 		.ascii	"gesture_min_velocity\000"
 9717      7572655F 
 9717      6D696E5F 
 9717      76656C6F 
 9717      63697479 
 9718              	.LASF145:
 9719 08c8 4C565F49 		.ascii	"LV_INDEV_TYPE_NONE\000"
 9719      4E444556 
 9719      5F545950 
 9719      455F4E4F 
 9719      4E4500
 9720              	.LASF246:
 9721 08db 4C565F53 		.ascii	"LV_STYLE_OUTLINE_BLEND_MODE\000"
 9721      54594C45 
 9721      5F4F5554 
 9721      4C494E45 
 9721      5F424C45 
 9722              	.LASF455:
 9723 08f7 50415241 		.ascii	"PARAMETER_LIST_BURST_PULSES\000"
 9723      4D455445 
 9723      525F4C49 
 9723      53545F42 
 9723      55525354 
 9724              	.LASF1:
 9725 0913 756E7369 		.ascii	"unsigned char\000"
 9725      676E6564 
 9725      20636861 
 9725      7200
 9726              	.LASF61:
 9727 0921 4C565F41 		.ascii	"LV_ALIGN_IN_LEFT_MID\000"
 9727      4C49474E 
 9727      5F494E5F 
 9727      4C454654 
ARM GAS  C:\Users\strap\AppData\Local\Temp\cci64Z2T.s 			page 206


 9727      5F4D4944 
 9728              	.LASF105:
 9729 0936 7363725F 		.ascii	"scr_ll\000"
 9729      6C6C00
 9730              	.LASF573:
 9731 093d 5350495F 		.ascii	"SPI_SetTxInterruptMode\000"
 9731      53657454 
 9731      78496E74 
 9731      65727275 
 9731      70744D6F 
 9732              	.LASF321:
 9733 0954 626C656E 		.ascii	"blend_mode_all_normal\000"
 9733      645F6D6F 
 9733      64655F61 
 9733      6C6C5F6E 
 9733      6F726D61 
 9734              	.LASF20:
 9735 096a 666C6F61 		.ascii	"float\000"
 9735      7400
 9736              	.LASF377:
 9737 0970 4C565F53 		.ascii	"LV_STATE_EDITED\000"
 9737      54415445 
 9737      5F454449 
 9737      54454400 
 9738              	.LASF559:
 9739 0980 6C765F6F 		.ascii	"lv_obj_set_width_fit\000"
 9739      626A5F73 
 9739      65745F77 
 9739      69647468 
 9739      5F666974 
 9740              	.LASF513:
 9741 0995 63757374 		.ascii	"custom_shoot_cb\000"
 9741      6F6D5F73 
 9741      686F6F74 
 9741      5F636200 
 9742              	.LASF411:
 9743 09a5 4C565F42 		.ascii	"LV_BTN_STATE_RELEASED\000"
 9743      544E5F53 
 9743      54415445 
 9743      5F52454C 
 9743      45415345 
 9744              	.LASF190:
 9745 09bb 5F6C765F 		.ascii	"_lv_indev_proc_t\000"
 9745      696E6465 
 9745      765F7072 
 9745      6F635F74 
 9745      00
 9746              	.LASF110:
 9747 09cc 64656C5F 		.ascii	"del_prev\000"
 9747      70726576 
 9747      00
 9748              	.LASF52:
 9749 09d5 6C765F70 		.ascii	"lv_point_t\000"
 9749      6F696E74 
 9749      5F7400
 9750              	.LASF598:
 9751 09e0 6C765F6F 		.ascii	"lv_obj_create\000"
ARM GAS  C:\Users\strap\AppData\Local\Temp\cci64Z2T.s 			page 207


 9751      626A5F63 
 9751      72656174 
 9751      6500
 9752              	.LASF82:
 9753 09ee 666C7573 		.ascii	"flushing_last\000"
 9753      68696E67 
 9753      5F6C6173 
 9753      7400
 9754              	.LASF491:
 9755 09fc 62757273 		.ascii	"burst_type_list_handler\000"
 9755      745F7479 
 9755      70655F6C 
 9755      6973745F 
 9755      68616E64 
 9756              	.LASF420:
 9757 0a14 5F4C565F 		.ascii	"_LV_BTN_PART_REAL_LAST\000"
 9757      42544E5F 
 9757      50415254 
 9757      5F524541 
 9757      4C5F4C41 
 9758              	.LASF32:
 9759 0a2b 6C765F6C 		.ascii	"lv_ll_node_t\000"
 9759      6C5F6E6F 
 9759      64655F74 
 9759      00
 9760              	.LASF359:
 9761 0a38 4C565F45 		.ascii	"LV_EVENT_APPLY\000"
 9761      56454E54 
 9761      5F415050 
 9761      4C5900
 9762              	.LASF146:
 9763 0a47 4C565F49 		.ascii	"LV_INDEV_TYPE_POINTER\000"
 9763      4E444556 
 9763      5F545950 
 9763      455F504F 
 9763      494E5445 
 9764              	.LASF442:
 9765 0a5d 44495350 		.ascii	"DISPLAY_BACKLIGHT_CONTROL_ENABLE\000"
 9765      4C41595F 
 9765      4241434B 
 9765      4C494748 
 9765      545F434F 
 9766              	.LASF289:
 9767 0a7e 4C565F53 		.ascii	"LV_STYLE_IMAGE_RECOLOR\000"
 9767      54594C45 
 9767      5F494D41 
 9767      47455F52 
 9767      45434F4C 
 9768              	.LASF479:
 9769 0a95 70617261 		.ascii	"parameter_list_container_event_handler\000"
 9769      6D657465 
 9769      725F6C69 
 9769      73745F63 
 9769      6F6E7461 
 9770              	.LASF75:
 9771 0abc 6C765F61 		.ascii	"lv_align_t\000"
 9771      6C69676E 
ARM GAS  C:\Users\strap\AppData\Local\Temp\cci64Z2T.s 			page 208


 9771      5F7400
 9772              	.LASF591:
 9773 0ac7 6C765F64 		.ascii	"lv_disp_buf_init\000"
 9773      6973705F 
 9773      6275665F 
 9773      696E6974 
 9773      00
 9774              	.LASF268:
 9775 0ad8 4C565F53 		.ascii	"LV_STYLE_VALUE_COLOR\000"
 9775      54594C45 
 9775      5F56414C 
 9775      55455F43 
 9775      4F4C4F52 
 9776              	.LASF290:
 9777 0aed 4C565F53 		.ascii	"LV_STYLE_IMAGE_OPA\000"
 9777      54594C45 
 9777      5F494D41 
 9777      47455F4F 
 9777      504100
 9778              	.LASF144:
 9779 0b00 7265616C 		.ascii	"realign\000"
 9779      69676E00 
 9780              	.LASF182:
 9781 0b08 67657374 		.ascii	"gesture_sum\000"
 9781      7572655F 
 9781      73756D00 
 9782              	.LASF399:
 9783 0b14 4C565F4C 		.ascii	"LV_LAYOUT_PRETTY_BOTTOM\000"
 9783      41594F55 
 9783      545F5052 
 9783      45545459 
 9783      5F424F54 
 9784              	.LASF50:
 9785 0b2c 6C765F63 		.ascii	"lv_color_t\000"
 9785      6F6C6F72 
 9785      5F7400
 9786              	.LASF452:
 9787 0b37 5350495F 		.ascii	"SPI_XFER_DONE\000"
 9787      58464552 
 9787      5F444F4E 
 9787      4500
 9788              	.LASF347:
 9789 0b45 4C565F45 		.ascii	"LV_EVENT_RELEASED\000"
 9789      56454E54 
 9789      5F52454C 
 9789      45415345 
 9789      4400
 9790              	.LASF407:
 9791 0b57 6C765F66 		.ascii	"lv_fit_t\000"
 9791      69745F74 
 9791      00
 9792              	.LASF170:
 9793 0b60 6C6F6E67 		.ascii	"long_press_rep_time\000"
 9793      5F707265 
 9793      73735F72 
 9793      65705F74 
 9793      696D6500 
ARM GAS  C:\Users\strap\AppData\Local\Temp\cci64Z2T.s 			page 209


 9794              	.LASF45:
 9795 0b74 67726565 		.ascii	"green_h\000"
 9795      6E5F6800 
 9796              	.LASF47:
 9797 0b7c 67726565 		.ascii	"green_l\000"
 9797      6E5F6C00 
 9798              	.LASF136:
 9799 0b84 6164765F 		.ascii	"adv_hittest\000"
 9799      68697474 
 9799      65737400 
 9800              	.LASF198:
 9801 0b90 6C765F69 		.ascii	"lv_indev_proc_t\000"
 9801      6E646576 
 9801      5F70726F 
 9801      635F7400 
 9802              	.LASF500:
 9803 0ba0 70617261 		.ascii	"parameter_options_container\000"
 9803      6D657465 
 9803      725F6F70 
 9803      74696F6E 
 9803      735F636F 
 9804              	.LASF97:
 9805 0bbc 77616974 		.ascii	"wait_cb\000"
 9805      5F636200 
 9806              	.LASF185:
 9807 0bc4 67657374 		.ascii	"gesture_sent\000"
 9807      7572655F 
 9807      73656E74 
 9807      00
 9808              	.LASF537:
 9809 0bd1 6C765F6F 		.ascii	"lv_obj_set_hidden\000"
 9809      626A5F73 
 9809      65745F68 
 9809      69646465 
 9809      6E00
 9810              	.LASF154:
 9811 0be3 6C765F64 		.ascii	"lv_drag_dir_t\000"
 9811      7261675F 
 9811      6469725F 
 9811      7400
 9812              	.LASF578:
 9813 0bf1 64697370 		.ascii	"display_colors_sent_notification\000"
 9813      6C61795F 
 9813      636F6C6F 
 9813      72735F73 
 9813      656E745F 
 9814              	.LASF418:
 9815 0c12 4C565F42 		.ascii	"LV_BTN_PART_MAIN\000"
 9815      544E5F50 
 9815      4152545F 
 9815      4D41494E 
 9815      00
 9816              	.LASF49:
 9817 0c23 6C765F63 		.ascii	"lv_color16_t\000"
 9817      6F6C6F72 
 9817      31365F74 
 9817      00
ARM GAS  C:\Users\strap\AppData\Local\Temp\cci64Z2T.s 			page 210


 9818              	.LASF337:
 9819 0c30 6C765F64 		.ascii	"lv_design_mode_t\000"
 9819      65736967 
 9819      6E5F6D6F 
 9819      64655F74 
 9819      00
 9820              	.LASF468:
 9821 0c41 6765745F 		.ascii	"get_encoder_diff\000"
 9821      656E636F 
 9821      6465725F 
 9821      64696666 
 9821      00
 9822              	.LASF527:
 9823 0c52 7637325F 		.ascii	"v72_checkbox\000"
 9823      63686563 
 9823      6B626F78 
 9823      00
 9824              	.LASF43:
 9825 0c5f 6C765F74 		.ascii	"lv_task_t\000"
 9825      61736B5F 
 9825      7400
 9826              	.LASF529:
 9827 0c69 71645F6F 		.ascii	"qd_old_cnt\000"
 9827      6C645F63 
 9827      6E7400
 9828              	.LASF279:
 9829 0c74 4C565F53 		.ascii	"LV_STYLE_TEXT_OPA\000"
 9829      54594C45 
 9829      5F544558 
 9829      545F4F50 
 9829      4100
 9830              	.LASF91:
 9831 0c86 616E7469 		.ascii	"antialiasing\000"
 9831      616C6961 
 9831      73696E67 
 9831      00
 9832              	.LASF494:
 9833 0c93 7370695F 		.ascii	"spi_tx_isr_handler\000"
 9833      74785F69 
 9833      73725F68 
 9833      616E646C 
 9833      657200
 9834              	.LASF121:
 9835 0ca6 636F6F72 		.ascii	"coords\000"
 9835      647300
 9836              	.LASF254:
 9837 0cad 4C565F53 		.ascii	"LV_STYLE_SHADOW_COLOR\000"
 9837      54594C45 
 9837      5F534841 
 9837      444F575F 
 9837      434F4C4F 
 9838              	.LASF26:
 9839 0cc3 6C765F63 		.ascii	"lv_coord_t\000"
 9839      6F6F7264 
 9839      5F7400
 9840              	.LASF306:
 9841 0cce 4C565F53 		.ascii	"LV_STYLE_SCALE_END_COLOR\000"
ARM GAS  C:\Users\strap\AppData\Local\Temp\cci64Z2T.s 			page 211


 9841      54594C45 
 9841      5F534341 
 9841      4C455F45 
 9841      4E445F43 
 9842              	.LASF122:
 9843 0ce7 6576656E 		.ascii	"event_cb\000"
 9843      745F6362 
 9843      00
 9844              	.LASF476:
 9845 0cf0 74797065 		.ascii	"type_param_ok_callback\000"
 9845      5F706172 
 9845      616D5F6F 
 9845      6B5F6361 
 9845      6C6C6261 
 9846              	.LASF239:
 9847 0d07 4C565F53 		.ascii	"LV_STYLE_BORDER_SIDE\000"
 9847      54594C45 
 9847      5F424F52 
 9847      4445525F 
 9847      53494445 
 9848              	.LASF274:
 9849 0d1c 4C565F53 		.ascii	"LV_STYLE_TEXT_DECOR\000"
 9849      54594C45 
 9849      5F544558 
 9849      545F4445 
 9849      434F5200 
 9850              	.LASF522:
 9851 0d30 70617261 		.ascii	"parameter_list_ssss\000"
 9851      6D657465 
 9851      725F6C69 
 9851      73745F73 
 9851      73737300 
 9852              	.LASF141:
 9853 0d44 67726F75 		.ascii	"group_p\000"
 9853      705F7000 
 9854              	.LASF79:
 9855 0d4c 73697A65 		.ascii	"size\000"
 9855      00
 9856              	.LASF62:
 9857 0d51 4C565F41 		.ascii	"LV_ALIGN_IN_RIGHT_MID\000"
 9857      4C49474E 
 9857      5F494E5F 
 9857      52494748 
 9857      545F4D49 
 9858              	.LASF473:
 9859 0d67 64696666 		.ascii	"diff\000"
 9859      00
 9860              	.LASF184:
 9861 0d6c 64726167 		.ascii	"drag_in_prog\000"
 9861      5F696E5F 
 9861      70726F67 
 9861      00
 9862              	.LASF96:
 9863 0d79 6D6F6E69 		.ascii	"monitor_cb\000"
 9863      746F725F 
 9863      636200
 9864              	.LASF73:
ARM GAS  C:\Users\strap\AppData\Local\Temp\cci64Z2T.s 			page 212


 9865 0d84 4C565F41 		.ascii	"LV_ALIGN_OUT_RIGHT_MID\000"
 9865      4C49474E 
 9865      5F4F5554 
 9865      5F524947 
 9865      48545F4D 
 9866              	.LASF264:
 9867 0d9b 4C565F53 		.ascii	"LV_STYLE_VALUE_BLEND_MODE\000"
 9867      54594C45 
 9867      5F56414C 
 9867      55455F42 
 9867      4C454E44 
 9868              	.LASF424:
 9869 0db5 4C565F4C 		.ascii	"LV_LABEL_ALIGN_AUTO\000"
 9869      4142454C 
 9869      5F414C49 
 9869      474E5F41 
 9869      55544F00 
 9870              	.LASF23:
 9871 0dc9 73697A65 		.ascii	"size_t\000"
 9871      5F7400
 9872              	.LASF14:
 9873 0dd0 75696E74 		.ascii	"uint8_t\000"
 9873      385F7400 
 9874              	.LASF404:
 9875 0dd8 4C565F46 		.ascii	"LV_FIT_PARENT\000"
 9875      49545F50 
 9875      4152454E 
 9875      5400
 9876              	.LASF128:
 9877 0de6 6578745F 		.ascii	"ext_click_pad_ver\000"
 9877      636C6963 
 9877      6B5F7061 
 9877      645F7665 
 9877      7200
 9878              	.LASF283:
 9879 0df8 4C565F53 		.ascii	"LV_STYLE_LINE_DASH_WIDTH\000"
 9879      54594C45 
 9879      5F4C494E 
 9879      455F4441 
 9879      53485F57 
 9880              	.LASF492:
 9881 0e11 74696D65 		.ascii	"timer_tick_handler\000"
 9881      725F7469 
 9881      636B5F68 
 9881      616E646C 
 9881      657200
 9882              	.LASF158:
 9883 0e24 656E635F 		.ascii	"enc_diff\000"
 9883      64696666 
 9883      00
 9884              	.LASF334:
 9885 0e2d 74657874 		.ascii	"text_font_normal\000"
 9885      5F666F6E 
 9885      745F6E6F 
 9885      726D616C 
 9885      00
 9886              	.LASF390:
ARM GAS  C:\Users\strap\AppData\Local\Temp\cci64Z2T.s 			page 213


 9887 0e3e 4C565F4C 		.ascii	"LV_LAYOUT_CENTER\000"
 9887      41594F55 
 9887      545F4345 
 9887      4E544552 
 9887      00
 9888              	.LASF360:
 9889 0e4f 4C565F45 		.ascii	"LV_EVENT_CANCEL\000"
 9889      56454E54 
 9889      5F43414E 
 9889      43454C00 
 9890              	.LASF112:
 9891 0e5f 62675F69 		.ascii	"bg_img\000"
 9891      6D6700
 9892              	.LASF534:
 9893 0e66 6C765F64 		.ascii	"lv_dropdown_get_selected\000"
 9893      726F7064 
 9893      6F776E5F 
 9893      6765745F 
 9893      73656C65 
 9894              	.LASF71:
 9895 0e7f 4C565F41 		.ascii	"LV_ALIGN_OUT_LEFT_BOTTOM\000"
 9895      4C49474E 
 9895      5F4F5554 
 9895      5F4C4546 
 9895      545F424F 
 9896              	.LASF162:
 9897 0e98 72656164 		.ascii	"read_cb\000"
 9897      5F636200 
 9898              	.LASF443:
 9899 0ea0 64697370 		.ascii	"display_backlight_control_t\000"
 9899      6C61795F 
 9899      6261636B 
 9899      6C696768 
 9899      745F636F 
 9900              	.LASF590:
 9901 0ebc 6C765F69 		.ascii	"lv_init\000"
 9901      6E697400 
 9902              	.LASF186:
 9903 0ec4 6C617374 		.ascii	"last_state\000"
 9903      5F737461 
 9903      746500
 9904              	.LASF408:
 9905 0ecf 4C565F43 		.ascii	"LV_CONT_PART_MAIN\000"
 9905      4F4E545F 
 9905      50415254 
 9905      5F4D4149 
 9905      4E00
 9906              	.LASF510:
 9907 0ee1 73686F6F 		.ascii	"shoot_btn\000"
 9907      745F6274 
 9907      6E00
 9908              	.LASF271:
 9909 0eeb 4C565F53 		.ascii	"LV_STYLE_VALUE_STR\000"
 9909      54594C45 
 9909      5F56414C 
 9909      55455F53 
 9909      545200
ARM GAS  C:\Users\strap\AppData\Local\Temp\cci64Z2T.s 			page 214


 9910              	.LASF577:
 9911 0efe 7370695F 		.ascii	"spi_xfer_on_completion\000"
 9911      78666572 
 9911      5F6F6E5F 
 9911      636F6D70 
 9911      6C657469 
 9912              	.LASF414:
 9913 0f15 4C565F42 		.ascii	"LV_BTN_STATE_CHECKED_RELEASED\000"
 9913      544E5F53 
 9913      54415445 
 9913      5F434845 
 9913      434B4544 
 9914              	.LASF106:
 9915 0f33 6163745F 		.ascii	"act_scr\000"
 9915      73637200 
 9916              	.LASF419:
 9917 0f3b 5F4C565F 		.ascii	"_LV_BTN_PART_VIRTUAL_LAST\000"
 9917      42544E5F 
 9917      50415254 
 9917      5F564952 
 9917      5455414C 
 9918              	.LASF543:
 9919 0f55 55415254 		.ascii	"UART_PutHexByte\000"
 9919      5F507574 
 9919      48657842 
 9919      79746500 
 9920              	.LASF439:
 9921 0f65 44415441 		.ascii	"DATA_MODE_DATA\000"
 9921      5F4D4F44 
 9921      455F4441 
 9921      544100
 9922              	.LASF375:
 9923 0f74 4C565F53 		.ascii	"LV_STATE_CHECKED\000"
 9923      54415445 
 9923      5F434845 
 9923      434B4544 
 9923      00
 9924              	.LASF260:
 9925 0f85 4C565F53 		.ascii	"LV_STYLE_PATTERN_RECOLOR_OPA\000"
 9925      54594C45 
 9925      5F504154 
 9925      5445524E 
 9925      5F524543 
 9926              	.LASF523:
 9927 0fa2 6F6E655F 		.ascii	"one_shot_checkbox\000"
 9927      73686F74 
 9927      5F636865 
 9927      636B626F 
 9927      7800
 9928              	.LASF272:
 9929 0fb4 4C565F53 		.ascii	"LV_STYLE_TEXT_LETTER_SPACE\000"
 9929      54594C45 
 9929      5F544558 
 9929      545F4C45 
 9929      54544552 
 9930              	.LASF435:
 9931 0fcf 4C565F54 		.ascii	"LV_TEXTAREA_PART_PLACEHOLDER\000"
ARM GAS  C:\Users\strap\AppData\Local\Temp\cci64Z2T.s 			page 215


 9931      45585441 
 9931      5245415F 
 9931      50415254 
 9931      5F504C41 
 9932              	.LASF562:
 9933 0fec 6C765F64 		.ascii	"lv_disp_get_hor_res\000"
 9933      6973705F 
 9933      6765745F 
 9933      686F725F 
 9933      72657300 
 9934              	.LASF472:
 9935 1000 62757474 		.ascii	"button_callback\000"
 9935      6F6E5F63 
 9935      616C6C62 
 9935      61636B00 
 9936              	.LASF493:
 9937 1010 7370695F 		.ascii	"spi_tx_dma_done\000"
 9937      74785F64 
 9937      6D615F64 
 9937      6F6E6500 
 9938              	.LASF469:
 9939 1020 656E636F 		.ascii	"encoder_read\000"
 9939      6465725F 
 9939      72656164 
 9939      00
 9940              	.LASF322:
 9941 102d 62675F6F 		.ascii	"bg_opa_transp\000"
 9941      70615F74 
 9941      72616E73 
 9941      7000
 9942              	.LASF560:
 9943 103b 6C765F6F 		.ascii	"lv_obj_align\000"
 9943      626A5F61 
 9943      6C69676E 
 9943      00
 9944              	.LASF261:
 9945 1048 4C565F53 		.ascii	"LV_STYLE_PATTERN_IMAGE\000"
 9945      54594C45 
 9945      5F504154 
 9945      5445524E 
 9945      5F494D41 
 9946              	.LASF56:
 9947 105f 4C565F41 		.ascii	"LV_ALIGN_IN_TOP_MID\000"
 9947      4C49474E 
 9947      5F494E5F 
 9947      544F505F 
 9947      4D494400 
 9948              	.LASF233:
 9949 1073 4C565F53 		.ascii	"LV_STYLE_BG_GRAD_STOP\000"
 9949      54594C45 
 9949      5F42475F 
 9949      47524144 
 9949      5F53544F 
 9950              	.LASF343:
 9951 1089 4C565F45 		.ascii	"LV_EVENT_SHORT_CLICKED\000"
 9951      56454E54 
 9951      5F53484F 
ARM GAS  C:\Users\strap\AppData\Local\Temp\cci64Z2T.s 			page 216


 9951      52545F43 
 9951      4C49434B 
 9952              	.LASF286:
 9953 10a0 4C565F53 		.ascii	"LV_STYLE_LINE_COLOR\000"
 9953      54594C45 
 9953      5F4C494E 
 9953      455F434F 
 9953      4C4F5200 
 9954              	.LASF177:
 9955 10b4 64726167 		.ascii	"drag_throw_vect\000"
 9955      5F746872 
 9955      6F775F76 
 9955      65637400 
 9956              	.LASF275:
 9957 10c4 4C565F53 		.ascii	"LV_STYLE_TEXT_BLEND_MODE\000"
 9957      54594C45 
 9957      5F544558 
 9957      545F424C 
 9957      454E445F 
 9958              	.LASF566:
 9959 10dd 6C765F6C 		.ascii	"lv_label_create\000"
 9959      6162656C 
 9959      5F637265 
 9959      61746500 
 9960              	.LASF466:
 9961 10ed 76616C75 		.ascii	"value\000"
 9961      6500
 9962              	.LASF374:
 9963 10f3 4C565F53 		.ascii	"LV_STATE_DEFAULT\000"
 9963      54415445 
 9963      5F444546 
 9963      41554C54 
 9963      00
 9964              	.LASF303:
 9965 1104 4C565F53 		.ascii	"LV_STYLE_SCALE_END_BORDER_WIDTH\000"
 9965      54594C45 
 9965      5F534341 
 9965      4C455F45 
 9965      4E445F42 
 9966              	.LASF208:
 9967 1124 66726F7A 		.ascii	"frozen\000"
 9967      656E00
 9968              	.LASF39:
 9969 112b 6C617374 		.ascii	"last_run\000"
 9969      5F72756E 
 9969      00
 9970              	.LASF423:
 9971 1134 4C565F4C 		.ascii	"LV_LABEL_ALIGN_RIGHT\000"
 9971      4142454C 
 9971      5F414C49 
 9971      474E5F52 
 9971      49474854 
 9972              	.LASF363:
 9973 1149 6C765F65 		.ascii	"lv_event_t\000"
 9973      76656E74 
 9973      5F7400
 9974              	.LASF445:
ARM GAS  C:\Users\strap\AppData\Local\Temp\cci64Z2T.s 			page 217


 9975 1154 64617461 		.ascii	"data_mode\000"
 9975      5F6D6F64 
 9975      6500
 9976              	.LASF372:
 9977 115e 6D69645F 		.ascii	"mid_align\000"
 9977      616C6967 
 9977      6E00
 9978              	.LASF40:
 9979 1168 7461736B 		.ascii	"task_cb\000"
 9979      5F636200 
 9980              	.LASF69:
 9981 1170 4C565F41 		.ascii	"LV_ALIGN_OUT_LEFT_TOP\000"
 9981      4C49474E 
 9981      5F4F5554 
 9981      5F4C4546 
 9981      545F544F 
 9982              	.LASF244:
 9983 1186 4C565F53 		.ascii	"LV_STYLE_OUTLINE_WIDTH\000"
 9983      54594C45 
 9983      5F4F5554 
 9983      4C494E45 
 9983      5F574944 
 9984              	.LASF302:
 9985 119d 4C565F53 		.ascii	"LV_STYLE_SCALE_BORDER_WIDTH\000"
 9985      54594C45 
 9985      5F534341 
 9985      4C455F42 
 9985      4F524445 
 9986              	.LASF477:
 9987 11b9 766F6C74 		.ascii	"voltage_ok_btn_handler\000"
 9987      6167655F 
 9987      6F6B5F62 
 9987      746E5F68 
 9987      616E646C 
 9988              	.LASF314:
 9989 11d0 69676E6F 		.ascii	"ignore_cache\000"
 9989      72655F63 
 9989      61636865 
 9989      00
 9990              	.LASF156:
 9991 11dd 706F696E 		.ascii	"point\000"
 9991      7400
 9992              	.LASF547:
 9993 11e3 6C765F64 		.ascii	"lv_dropdown_create\000"
 9993      726F7064 
 9993      6F776E5F 
 9993      63726561 
 9993      746500
 9994              	.LASF107:
 9995 11f6 70726576 		.ascii	"prev_scr\000"
 9995      5F736372 
 9995      00
 9996              	.LASF329:
 9997 11ff 73686164 		.ascii	"shadow_width_zero\000"
 9997      6F775F77 
 9997      69647468 
 9997      5F7A6572 
ARM GAS  C:\Users\strap\AppData\Local\Temp\cci64Z2T.s 			page 218


 9997      6F00
 9998              	.LASF464:
 9999 1211 6C765F6F 		.ascii	"lv_obj_set_style_local_value_str\000"
 9999      626A5F73 
 9999      65745F73 
 9999      74796C65 
 9999      5F6C6F63 
 10000              	.LASF36:
 10001 1232 6C765F6C 		.ascii	"lv_ll_t\000"
 10001      6C5F7400 
 10002              	.LASF325:
 10003 123a 626F7264 		.ascii	"border_side_full\000"
 10003      65725F73 
 10003      6964655F 
 10003      66756C6C 
 10003      00
 10004              	.LASF319:
 10005 124b 7061645F 		.ascii	"pad_all_zero\000"
 10005      616C6C5F 
 10005      7A65726F 
 10005      00
 10006              	.LASF341:
 10007 1258 4C565F45 		.ascii	"LV_EVENT_PRESSING\000"
 10007      56454E54 
 10007      5F505245 
 10007      5353494E 
 10007      4700
 10008              	.LASF533:
 10009 126a 51756164 		.ascii	"QuadDec_SW_Read\000"
 10009      4465635F 
 10009      53575F52 
 10009      65616400 
 10010              	.LASF514:
 10011 127a 6F6E655F 		.ascii	"one_shoot_cb\000"
 10011      73686F6F 
 10011      745F6362 
 10011      00
 10012              	.LASF457:
 10013 1287 50415241 		.ascii	"PARAMETER_LIST_COUNT\000"
 10013      4D455445 
 10013      525F4C49 
 10013      53545F43 
 10013      4F554E54 
 10014              	.LASF369:
 10015 129c 796F6673 		.ascii	"yofs\000"
 10015      00
 10016              	.LASF63:
 10017 12a1 4C565F41 		.ascii	"LV_ALIGN_OUT_TOP_LEFT\000"
 10017      4C49474E 
 10017      5F4F5554 
 10017      5F544F50 
 10017      5F4C4546 
 10018              	.LASF38:
 10019 12b7 70657269 		.ascii	"period\000"
 10019      6F6400
 10020              	.LASF199:
 10021 12be 5F6C765F 		.ascii	"_lv_indev_t\000"
ARM GAS  C:\Users\strap\AppData\Local\Temp\cci64Z2T.s 			page 219


 10021      696E6465 
 10021      765F7400 
 10022              	.LASF86:
 10023 12ca 5F6C765F 		.ascii	"_lv_task_t\000"
 10023      7461736B 
 10023      5F7400
 10024              	.LASF187:
 10025 12d5 6C617374 		.ascii	"last_key\000"
 10025      5F6B6579 
 10025      00
 10026              	.LASF225:
 10027 12de 4C565F53 		.ascii	"LV_STYLE_PAD_RIGHT\000"
 10027      54594C45 
 10027      5F504144 
 10027      5F524947 
 10027      485400
 10028              	.LASF93:
 10029 12f1 666C7573 		.ascii	"flush_cb\000"
 10029      685F6362 
 10029      00
 10030              	.LASF581:
 10031 12fa 6973725F 		.ascii	"isr_SPI_TX_StartEx\000"
 10031      5350495F 
 10031      54585F53 
 10031      74617274 
 10031      457800
 10032              	.LASF191:
 10033 130d 74797065 		.ascii	"types\000"
 10033      7300
 10034              	.LASF332:
 10035 1313 74657874 		.ascii	"text_space_zero\000"
 10035      5F737061 
 10035      63655F7A 
 10035      65726F00 
 10036              	.LASF572:
 10037 1323 7370695F 		.ascii	"spi_xfer_set_status\000"
 10037      78666572 
 10037      5F736574 
 10037      5F737461 
 10037      74757300 
 10038              	.LASF446:
 10039 1337 64656C61 		.ascii	"delay_ms\000"
 10039      795F6D73 
 10039      00
 10040              	.LASF392:
 10041 1340 4C565F4C 		.ascii	"LV_LAYOUT_COLUMN_MID\000"
 10041      41594F55 
 10041      545F434F 
 10041      4C554D4E 
 10041      5F4D4944 
 10042              	.LASF100:
 10043 1355 636F6C6F 		.ascii	"color_chroma_key\000"
 10043      725F6368 
 10043      726F6D61 
 10043      5F6B6579 
 10043      00
 10044              	.LASF583:
ARM GAS  C:\Users\strap\AppData\Local\Temp\cci64Z2T.s 			page 220


 10045 1366 55415254 		.ascii	"UART_Start\000"
 10045      5F537461 
 10045      727400
 10046              	.LASF76:
 10047 1371 62756631 		.ascii	"buf1\000"
 10047      00
 10048              	.LASF77:
 10049 1376 62756632 		.ascii	"buf2\000"
 10049      00
 10050              	.LASF462:
 10051 137b 6C765F63 		.ascii	"lv_cont_set_fit2\000"
 10051      6F6E745F 
 10051      7365745F 
 10051      66697432 
 10051      00
 10052              	.LASF546:
 10053 138c 6C765F63 		.ascii	"lv_cont_set_fit4\000"
 10053      6F6E745F 
 10053      7365745F 
 10053      66697434 
 10053      00
 10054              	.LASF25:
 10055 139d 73697A65 		.ascii	"sizetype\000"
 10055      74797065 
 10055      00
 10056              	.LASF288:
 10057 13a6 4C565F53 		.ascii	"LV_STYLE_IMAGE_BLEND_MODE\000"
 10057      54594C45 
 10057      5F494D41 
 10057      47455F42 
 10057      4C454E44 
 10058              	.LASF237:
 10059 13c0 4C565F53 		.ascii	"LV_STYLE_BG_OPA\000"
 10059      54594C45 
 10059      5F42475F 
 10059      4F504100 
 10060              	.LASF594:
 10061 13d0 6C765F69 		.ascii	"lv_indev_drv_init\000"
 10061      6E646576 
 10061      5F647276 
 10061      5F696E69 
 10061      7400
 10062              	.LASF328:
 10063 13e2 70617474 		.ascii	"pattern_img_null\000"
 10063      65726E5F 
 10063      696D675F 
 10063      6E756C6C 
 10063      00
 10064              	.LASF15:
 10065 13f3 696E7431 		.ascii	"int16_t\000"
 10065      365F7400 
 10066              	.LASF150:
 10067 13fb 6C765F69 		.ascii	"lv_indev_type_t\000"
 10067      6E646576 
 10067      5F747970 
 10067      655F7400 
 10068              	.LASF6:
ARM GAS  C:\Users\strap\AppData\Local\Temp\cci64Z2T.s 			page 221


 10069 140b 73686F72 		.ascii	"short unsigned int\000"
 10069      7420756E 
 10069      7369676E 
 10069      65642069 
 10069      6E7400
 10070              	.LASF574:
 10071 141e 5350495F 		.ascii	"SPI_ReadTxStatus\000"
 10071      52656164 
 10071      54785374 
 10071      61747573 
 10071      00
 10072              	.LASF0:
 10073 142f 7369676E 		.ascii	"signed char\000"
 10073      65642063 
 10073      68617200 
 10074              	.LASF176:
 10075 143b 64726167 		.ascii	"drag_sum\000"
 10075      5F73756D 
 10075      00
 10076              	.LASF425:
 10077 1444 4C565F50 		.ascii	"LV_PAGE_PART_BG\000"
 10077      4147455F 
 10077      50415254 
 10077      5F424700 
 10078              	.LASF168:
 10079 1454 67657374 		.ascii	"gesture_limit\000"
 10079      7572655F 
 10079      6C696D69 
 10079      7400
 10080              	.LASF519:
 10081 1462 766F6C74 		.ascii	"voltage_ok_btn\000"
 10081      6167655F 
 10081      6F6B5F62 
 10081      746E00
 10082              	.LASF42:
 10083 1471 72657065 		.ascii	"repeat_count\000"
 10083      61745F63 
 10083      6F756E74 
 10083      00
 10084              	.LASF243:
 10085 147e 4C565F53 		.ascii	"LV_STYLE_BORDER_OPA\000"
 10085      54594C45 
 10085      5F424F52 
 10085      4445525F 
 10085      4F504100 
 10086              	.LASF386:
 10087 1492 4C565F4F 		.ascii	"LV_OBJ_PART_ALL\000"
 10087      424A5F50 
 10087      4152545F 
 10087      414C4C00 
 10088              	.LASF434:
 10089 14a2 4C565F54 		.ascii	"LV_TEXTAREA_PART_CURSOR\000"
 10089      45585441 
 10089      5245415F 
 10089      50415254 
 10089      5F435552 
 10090              	.LASF545:
ARM GAS  C:\Users\strap\AppData\Local\Temp\cci64Z2T.s 			page 222


 10091 14ba 5F6C765F 		.ascii	"_lv_obj_set_style_local_ptr\000"
 10091      6F626A5F 
 10091      7365745F 
 10091      7374796C 
 10091      655F6C6F 
 10092              	.LASF465:
 10093 14d6 70617274 		.ascii	"part\000"
 10093      00
 10094              	.LASF133:
 10095 14db 64726167 		.ascii	"drag_parent\000"
 10095      5F706172 
 10095      656E7400 
 10096              	.LASF351:
 10097 14e7 4C565F45 		.ascii	"LV_EVENT_GESTURE\000"
 10097      56454E54 
 10097      5F474553 
 10097      54555245 
 10097      00
 10098              	.LASF164:
 10099 14f8 64697370 		.ascii	"disp\000"
 10099      00
 10100              	.LASF506:
 10101 14fd 70756C73 		.ascii	"pulses_params_g\000"
 10101      65735F70 
 10101      6172616D 
 10101      735F6700 
 10102              	.LASF238:
 10103 150d 4C565F53 		.ascii	"LV_STYLE_BORDER_WIDTH\000"
 10103      54594C45 
 10103      5F424F52 
 10103      4445525F 
 10103      57494454 
 10104              	.LASF149:
 10105 1523 4C565F49 		.ascii	"LV_INDEV_TYPE_ENCODER\000"
 10105      4E444556 
 10105      5F545950 
 10105      455F454E 
 10105      434F4445 
 10106              	.LASF53:
 10107 1539 6C765F61 		.ascii	"lv_area_t\000"
 10107      7265615F 
 10107      7400
 10108              	.LASF441:
 10109 1543 44495350 		.ascii	"DISPLAY_BACKLIGHT_CONTROL_DISABLE\000"
 10109      4C41595F 
 10109      4241434B 
 10109      4C494748 
 10109      545F434F 
 10110              	.LASF576:
 10111 1565 53535F57 		.ascii	"SS_Write\000"
 10111      72697465 
 10111      00
 10112              	.LASF209:
 10113 156e 65646974 		.ascii	"editing\000"
 10113      696E6700 
 10114              	.LASF48:
 10115 1576 66756C6C 		.ascii	"full\000"
ARM GAS  C:\Users\strap\AppData\Local\Temp\cci64Z2T.s 			page 223


 10115      00
 10116              	.LASF603:
 10117 157b 433A5C55 		.ascii	"C:\\Users\\strap\\Documents\\Creator\\test_lvgl\\il"
 10117      73657273 
 10117      5C737472 
 10117      61705C44 
 10117      6F63756D 
 10118 15a8 69393334 		.ascii	"i9341_master.cydsn\000"
 10118      315F6D61 
 10118      73746572 
 10118      2E637964 
 10118      736E00
 10119              	.LASF432:
 10120 15bb 4C565F54 		.ascii	"LV_TEXTAREA_PART_SCROLLBAR\000"
 10120      45585441 
 10120      5245415F 
 10120      50415254 
 10120      5F534352 
 10121              	.LASF461:
 10122 15d6 636F6E74 		.ascii	"cont\000"
 10122      00
 10123              	.LASF481:
 10124 15db 63726561 		.ascii	"create_type_container_widgets\000"
 10124      74655F74 
 10124      7970655F 
 10124      636F6E74 
 10124      61696E65 
 10125              	.LASF308:
 10126 15f9 7374796C 		.ascii	"style_cnt\000"
 10126      655F636E 
 10126      7400
 10127              	.LASF353:
 10128 1603 4C565F45 		.ascii	"LV_EVENT_FOCUSED\000"
 10128      56454E54 
 10128      5F464F43 
 10128      55534544 
 10128      00
 10129              	.LASF87:
 10130 1614 5F646973 		.ascii	"_disp_drv_t\000"
 10130      705F6472 
 10130      765F7400 
 10131              	.LASF143:
 10132 1620 73746174 		.ascii	"state\000"
 10132      6500
 10133              	.LASF54:
 10134 1626 4C565F41 		.ascii	"LV_ALIGN_CENTER\000"
 10134      4C49474E 
 10134      5F43454E 
 10134      54455200 
 10135              	.LASF525:
 10136 1636 7632345F 		.ascii	"v24_checkbox\000"
 10136      63686563 
 10136      6B626F78 
 10136      00
 10137              	.LASF373:
 10138 1643 6C765F72 		.ascii	"lv_realign_t\000"
 10138      65616C69 
ARM GAS  C:\Users\strap\AppData\Local\Temp\cci64Z2T.s 			page 224


 10138      676E5F74 
 10138      00
 10139              	.LASF447:
 10140 1650 77726974 		.ascii	"write_blocking\000"
 10140      655F626C 
 10140      6F636B69 
 10140      6E6700
 10141              	.LASF327:
 10142 165f 6F75746C 		.ascii	"outline_width_zero\000"
 10142      696E655F 
 10142      77696474 
 10142      685F7A65 
 10142      726F00
 10143              	.LASF98:
 10144 1672 636C6561 		.ascii	"clean_dcache_cb\000"
 10144      6E5F6463 
 10144      61636865 
 10144      5F636200 
 10145              	.LASF531:
 10146 1682 696C6939 		.ascii	"ili9341_driver\000"
 10146      3334315F 
 10146      64726976 
 10146      657200
 10147              	.LASF29:
 10148 1691 6C765F69 		.ascii	"lv_indev_drv_user_data_t\000"
 10148      6E646576 
 10148      5F647276 
 10148      5F757365 
 10148      725F6461 
 10149              	.LASF211:
 10150 16aa 7265666F 		.ascii	"refocus_policy\000"
 10150      6375735F 
 10150      706F6C69 
 10150      637900
 10151              	.LASF520:
 10152 16b9 70756C73 		.ascii	"pulses_ok_btn\000"
 10152      65735F6F 
 10152      6B5F6274 
 10152      6E00
 10153              	.LASF294:
 10154 16c7 4C565F53 		.ascii	"LV_STYLE_TRANSITION_PROP_1\000"
 10154      54594C45 
 10154      5F545241 
 10154      4E534954 
 10154      494F4E5F 
 10155              	.LASF295:
 10156 16e2 4C565F53 		.ascii	"LV_STYLE_TRANSITION_PROP_2\000"
 10156      54594C45 
 10156      5F545241 
 10156      4E534954 
 10156      494F4E5F 
 10157              	.LASF296:
 10158 16fd 4C565F53 		.ascii	"LV_STYLE_TRANSITION_PROP_3\000"
 10158      54594C45 
 10158      5F545241 
 10158      4E534954 
 10158      494F4E5F 
ARM GAS  C:\Users\strap\AppData\Local\Temp\cci64Z2T.s 			page 225


 10159              	.LASF297:
 10160 1718 4C565F53 		.ascii	"LV_STYLE_TRANSITION_PROP_4\000"
 10160      54594C45 
 10160      5F545241 
 10160      4E534954 
 10160      494F4E5F 
 10161              	.LASF298:
 10162 1733 4C565F53 		.ascii	"LV_STYLE_TRANSITION_PROP_5\000"
 10162      54594C45 
 10162      5F545241 
 10162      4E534954 
 10162      494F4E5F 
 10163              	.LASF299:
 10164 174e 4C565F53 		.ascii	"LV_STYLE_TRANSITION_PROP_6\000"
 10164      54594C45 
 10164      5F545241 
 10164      4E534954 
 10164      494F4E5F 
 10165              	.LASF134:
 10166 1769 68696464 		.ascii	"hidden\000"
 10166      656E00
 10167              	.LASF410:
 10168 1770 5F4C565F 		.ascii	"_LV_CONT_PART_REAL_LAST\000"
 10168      434F4E54 
 10168      5F504152 
 10168      545F5245 
 10168      414C5F4C 
 10169              	.LASF556:
 10170 1788 6C765F74 		.ascii	"lv_textarea_set_text_align\000"
 10170      65787461 
 10170      7265615F 
 10170      7365745F 
 10170      74657874 
 10171              	.LASF451:
 10172 17a3 5350495F 		.ascii	"SPI_XFER_IDLE\000"
 10172      58464552 
 10172      5F49444C 
 10172      4500
 10173              	.LASF349:
 10174 17b1 4C565F45 		.ascii	"LV_EVENT_DRAG_END\000"
 10174      56454E54 
 10174      5F445241 
 10174      475F454E 
 10174      4400
 10175              	.LASF132:
 10176 17c3 64726167 		.ascii	"drag_throw\000"
 10176      5F746872 
 10176      6F7700
 10177              	.LASF376:
 10178 17ce 4C565F53 		.ascii	"LV_STATE_FOCUSED\000"
 10178      54415445 
 10178      5F464F43 
 10178      55534544 
 10178      00
 10179              	.LASF159:
 10180 17df 6C765F69 		.ascii	"lv_indev_data_t\000"
 10180      6E646576 
ARM GAS  C:\Users\strap\AppData\Local\Temp\cci64Z2T.s 			page 226


 10180      5F646174 
 10180      615F7400 
 10181              	.LASF8:
 10182 17ef 6C6F6E67 		.ascii	"long int\000"
 10182      20696E74 
 10182      00
 10183              	.LASF387:
 10184 17f8 6C765F67 		.ascii	"lv_group_focus_cb_t\000"
 10184      726F7570 
 10184      5F666F63 
 10184      75735F63 
 10184      625F7400 
 10185              	.LASF188:
 10186 180c 706F696E 		.ascii	"pointer\000"
 10186      74657200 
 10187              	.LASF357:
 10188 1814 4C565F45 		.ascii	"LV_EVENT_INSERT\000"
 10188      56454E54 
 10188      5F494E53 
 10188      45525400 
 10189              	.LASF586:
 10190 1824 43795379 		.ascii	"CySysTickStart\000"
 10190      73546963 
 10190      6B537461 
 10190      727400
 10191              	.LASF348:
 10192 1833 4C565F45 		.ascii	"LV_EVENT_DRAG_BEGIN\000"
 10192      56454E54 
 10192      5F445241 
 10192      475F4245 
 10192      47494E00 
 10193              	.LASF210:
 10194 1847 636C6963 		.ascii	"click_focus\000"
 10194      6B5F666F 
 10194      63757300 
 10195              	.LASF570:
 10196 1853 6C765F67 		.ascii	"lv_group_set_editing\000"
 10196      726F7570 
 10196      5F736574 
 10196      5F656469 
 10196      74696E67 
 10197              	.LASF165:
 10198 1868 72656164 		.ascii	"read_task\000"
 10198      5F746173 
 10198      6B00
 10199              	.LASF255:
 10200 1872 4C565F53 		.ascii	"LV_STYLE_SHADOW_OPA\000"
 10200      54594C45 
 10200      5F534841 
 10200      444F575F 
 10200      4F504100 
 10201              	.LASF101:
 10202 1886 6C765F64 		.ascii	"lv_disp_drv_t\000"
 10202      6973705F 
 10202      6472765F 
 10202      7400
 10203              	.LASF213:
ARM GAS  C:\Users\strap\AppData\Local\Temp\cci64Z2T.s 			page 227


 10204 1894 6C765F69 		.ascii	"lv_indev_t\000"
 10204      6E646576 
 10204      5F7400
 10205              	.LASF181:
 10206 189f 67657374 		.ascii	"gesture_dir\000"
 10206      7572655F 
 10206      64697200 
 10207              	.LASF310:
 10208 18ab 6861735F 		.ascii	"has_trans\000"
 10208      7472616E 
 10208      7300
 10209              	.LASF587:
 10210 18b5 43795379 		.ascii	"CySysTickSetCallback\000"
 10210      73546963 
 10210      6B536574 
 10210      43616C6C 
 10210      6261636B 
 10211              	.LASF350:
 10212 18ca 4C565F45 		.ascii	"LV_EVENT_DRAG_THROW_BEGIN\000"
 10212      56454E54 
 10212      5F445241 
 10212      475F5448 
 10212      524F575F 
 10213              	.LASF265:
 10214 18e4 4C565F53 		.ascii	"LV_STYLE_VALUE_OFS_X\000"
 10214      54594C45 
 10214      5F56414C 
 10214      55455F4F 
 10214      46535F58 
 10215              	.LASF266:
 10216 18f9 4C565F53 		.ascii	"LV_STYLE_VALUE_OFS_Y\000"
 10216      54594C45 
 10216      5F56414C 
 10216      55455F4F 
 10216      46535F59 
 10217              	.LASF592:
 10218 190e 6C765F64 		.ascii	"lv_disp_drv_init\000"
 10218      6973705F 
 10218      6472765F 
 10218      696E6974 
 10218      00
 10219              	.LASF381:
 10220 191f 6C765F73 		.ascii	"lv_state_t\000"
 10220      74617465 
 10220      5F7400
 10221              	.LASF532:
 10222 192a 51756164 		.ascii	"QuadDec_GetCounter\000"
 10222      4465635F 
 10222      47657443 
 10222      6F756E74 
 10222      657200
 10223              	.LASF41:
 10224 193d 75736572 		.ascii	"user_data\000"
 10224      5F646174 
 10224      6100
 10225              	.LASF51:
 10226 1947 6C765F6F 		.ascii	"lv_opa_t\000"
ARM GAS  C:\Users\strap\AppData\Local\Temp\cci64Z2T.s 			page 228


 10226      70615F74 
 10226      00
 10227              	.LASF378:
 10228 1950 4C565F53 		.ascii	"LV_STATE_HOVERED\000"
 10228      54415445 
 10228      5F484F56 
 10228      45524544 
 10228      00
 10229              	.LASF18:
 10230 1961 75696E74 		.ascii	"uint32_t\000"
 10230      33325F74 
 10230      00
 10231              	.LASF300:
 10232 196a 4C565F53 		.ascii	"LV_STYLE_TRANSITION_PATH\000"
 10232      54594C45 
 10232      5F545241 
 10232      4E534954 
 10232      494F4E5F 
 10233              	.LASF565:
 10234 1983 6C765F63 		.ascii	"lv_cont_set_layout\000"
 10234      6F6E745F 
 10234      7365745F 
 10234      6C61796F 
 10234      757400
 10235              	.LASF157:
 10236 1996 62746E5F 		.ascii	"btn_id\000"
 10236      696400
 10237              	.LASF160:
 10238 199d 5F6C765F 		.ascii	"_lv_indev_drv_t\000"
 10238      696E6465 
 10238      765F6472 
 10238      765F7400 
 10239              	.LASF24:
 10240 19ad 6C6F6E67 		.ascii	"long double\000"
 10240      20646F75 
 10240      626C6500 
 10241              	.LASF371:
 10242 19b9 6175746F 		.ascii	"auto_realign\000"
 10242      5F726561 
 10242      6C69676E 
 10242      00
 10243              	.LASF358:
 10244 19c6 4C565F45 		.ascii	"LV_EVENT_REFRESH\000"
 10244      56454E54 
 10244      5F524546 
 10244      52455348 
 10244      00
 10245              	.LASF55:
 10246 19d7 4C565F41 		.ascii	"LV_ALIGN_IN_TOP_LEFT\000"
 10246      4C49474E 
 10246      5F494E5F 
 10246      544F505F 
 10246      4C454654 
 10247              	.LASF81:
 10248 19ec 666C7573 		.ascii	"flushing\000"
 10248      68696E67 
 10248      00
ARM GAS  C:\Users\strap\AppData\Local\Temp\cci64Z2T.s 			page 229


 10249              	.LASF259:
 10250 19f5 4C565F53 		.ascii	"LV_STYLE_PATTERN_OPA\000"
 10250      54594C45 
 10250      5F504154 
 10250      5445524E 
 10250      5F4F5041 
 10251              	.LASF400:
 10252 1a0a 4C565F4C 		.ascii	"LV_LAYOUT_GRID\000"
 10252      41594F55 
 10252      545F4752 
 10252      494400
 10253              	.LASF485:
 10254 1a19 74625F63 		.ascii	"tb_content_height\000"
 10254      6F6E7465 
 10254      6E745F68 
 10254      65696768 
 10254      7400
 10255              	.LASF309:
 10256 1a2b 6861735F 		.ascii	"has_local\000"
 10256      6C6F6361 
 10256      6C00
 10257              	.LASF10:
 10258 1a35 6C6F6E67 		.ascii	"long unsigned int\000"
 10258      20756E73 
 10258      69676E65 
 10258      6420696E 
 10258      7400
 10259              	.LASF114:
 10260 1a47 696E765F 		.ascii	"inv_areas\000"
 10260      61726561 
 10260      7300
 10261              	.LASF509:
 10262 1a51 73656C65 		.ascii	"selected_option\000"
 10262      63746564 
 10262      5F6F7074 
 10262      696F6E00 
 10263              	.LASF512:
 10264 1a61 636F6E74 		.ascii	"continuous_cb\000"
 10264      696E756F 
 10264      75735F63 
 10264      6200
 10265              	.LASF95:
 10266 1a6f 7365745F 		.ascii	"set_px_cb\000"
 10266      70785F63 
 10266      6200
 10267              	.LASF229:
 10268 1a79 4C565F53 		.ascii	"LV_STYLE_MARGIN_LEFT\000"
 10268      54594C45 
 10268      5F4D4152 
 10268      47494E5F 
 10268      4C454654 
 10269              	.LASF396:
 10270 1a8e 4C565F4C 		.ascii	"LV_LAYOUT_ROW_BOTTOM\000"
 10270      41594F55 
 10270      545F524F 
 10270      575F424F 
 10270      54544F4D 
ARM GAS  C:\Users\strap\AppData\Local\Temp\cci64Z2T.s 			page 230


 10271              	.LASF483:
 10272 1aa3 63726561 		.ascii	"create_pulses_container_widgets\000"
 10272      74655F70 
 10272      756C7365 
 10272      735F636F 
 10272      6E746169 
 10273              	.LASF250:
 10274 1ac3 4C565F53 		.ascii	"LV_STYLE_SHADOW_OFS_X\000"
 10274      54594C45 
 10274      5F534841 
 10274      444F575F 
 10274      4F46535F 
 10275              	.LASF251:
 10276 1ad9 4C565F53 		.ascii	"LV_STYLE_SHADOW_OFS_Y\000"
 10276      54594C45 
 10276      5F534841 
 10276      444F575F 
 10276      4F46535F 
 10277              	.LASF595:
 10278 1aef 6C765F69 		.ascii	"lv_indev_drv_register\000"
 10278      6E646576 
 10278      5F647276 
 10278      5F726567 
 10278      69737465 
 10279              	.LASF287:
 10280 1b05 4C565F53 		.ascii	"LV_STYLE_LINE_OPA\000"
 10280      54594C45 
 10280      5F4C494E 
 10280      455F4F50 
 10280      4100
 10281              	.LASF70:
 10282 1b17 4C565F41 		.ascii	"LV_ALIGN_OUT_LEFT_MID\000"
 10282      4C49474E 
 10282      5F4F5554 
 10282      5F4C4546 
 10282      545F4D49 
 10283              	.LASF22:
 10284 1b2d 63686172 		.ascii	"char\000"
 10284      00
 10285              	.LASF405:
 10286 1b32 4C565F46 		.ascii	"LV_FIT_MAX\000"
 10286      49545F4D 
 10286      415800
 10287              	.LASF413:
 10288 1b3d 4C565F42 		.ascii	"LV_BTN_STATE_DISABLED\000"
 10288      544E5F53 
 10288      54415445 
 10288      5F444953 
 10288      41424C45 
 10289              	.LASF108:
 10290 1b53 746F705F 		.ascii	"top_layer\000"
 10290      6C617965 
 10290      7200
 10291              	.LASF342:
 10292 1b5d 4C565F45 		.ascii	"LV_EVENT_PRESS_LOST\000"
 10292      56454E54 
 10292      5F505245 
ARM GAS  C:\Users\strap\AppData\Local\Temp\cci64Z2T.s 			page 231


 10292      53535F4C 
 10292      4F535400 
 10293              	.LASF282:
 10294 1b71 4C565F53 		.ascii	"LV_STYLE_LINE_BLEND_MODE\000"
 10294      54594C45 
 10294      5F4C494E 
 10294      455F424C 
 10294      454E445F 
 10295              	.LASF205:
 10296 1b8a 6F626A5F 		.ascii	"obj_ll\000"
 10296      6C6C00
 10297              	.LASF600:
 10298 1b91 6C765F74 		.ascii	"lv_task_handler\000"
 10298      61736B5F 
 10298      68616E64 
 10298      6C657200 
 10299              	.LASF252:
 10300 1ba1 4C565F53 		.ascii	"LV_STYLE_SHADOW_SPREAD\000"
 10300      54594C45 
 10300      5F534841 
 10300      444F575F 
 10300      53505245 
 10301              	.LASF307:
 10302 1bb8 6C765F73 		.ascii	"lv_style_t\000"
 10302      74796C65 
 10302      5F7400
 10303              	.LASF428:
 10304 1bc3 5F4C565F 		.ascii	"_LV_PAGE_PART_VIRTUAL_LAST\000"
 10304      50414745 
 10304      5F504152 
 10304      545F5649 
 10304      52545541 
 10305              	.LASF320:
 10306 1bde 6D617267 		.ascii	"margin_all_zero\000"
 10306      696E5F61 
 10306      6C6C5F7A 
 10306      65726F00 
 10307              	.LASF276:
 10308 1bee 4C565F53 		.ascii	"LV_STYLE_TEXT_COLOR\000"
 10308      54594C45 
 10308      5F544558 
 10308      545F434F 
 10308      4C4F5200 
 10309              	.LASF118:
 10310 1c02 5F6C765F 		.ascii	"_lv_obj_t\000"
 10310      6F626A5F 
 10310      7400
 10311              	.LASF370:
 10312 1c0c 616C6967 		.ascii	"align\000"
 10312      6E00
 10313              	.LASF174:
 10314 1c12 6C617374 		.ascii	"last_point\000"
 10314      5F706F69 
 10314      6E7400
 10315              	.LASF220:
 10316 1c1d 4C565F53 		.ascii	"LV_STYLE_TRANSFORM_ZOOM\000"
 10316      54594C45 
ARM GAS  C:\Users\strap\AppData\Local\Temp\cci64Z2T.s 			page 232


 10316      5F545241 
 10316      4E53464F 
 10316      524D5F5A 
 10317              	.LASF222:
 10318 1c35 4C565F53 		.ascii	"LV_STYLE_PAD_TOP\000"
 10318      54594C45 
 10318      5F504144 
 10318      5F544F50 
 10318      00
 10319              	.LASF496:
 10320 1c46 64697370 		.ascii	"disp_buf\000"
 10320      5F627566 
 10320      00
 10321              	.LASF90:
 10322 1c4f 62756666 		.ascii	"buffer\000"
 10322      657200
 10323              	.LASF588:
 10324 1c56 43795379 		.ascii	"CySysTickStop\000"
 10324      73546963 
 10324      6B53746F 
 10324      7000
 10325              	.LASF544:
 10326 1c64 55415254 		.ascii	"UART_PutCRLF\000"
 10326      5F507574 
 10326      43524C46 
 10326      00
 10327              	.LASF226:
 10328 1c71 4C565F53 		.ascii	"LV_STYLE_PAD_INNER\000"
 10328      54594C45 
 10328      5F504144 
 10328      5F494E4E 
 10328      455200
 10329              	.LASF192:
 10330 1c84 70725F74 		.ascii	"pr_timestamp\000"
 10330      696D6573 
 10330      74616D70 
 10330      00
 10331              	.LASF227:
 10332 1c91 4C565F53 		.ascii	"LV_STYLE_MARGIN_TOP\000"
 10332      54594C45 
 10332      5F4D4152 
 10332      47494E5F 
 10332      544F5000 
 10333              	.LASF516:
 10334 1ca5 74797065 		.ascii	"type_param_ok_btn\000"
 10334      5F706172 
 10334      616D5F6F 
 10334      6B5F6274 
 10334      6E00
 10335              	.LASF125:
 10336 1cb7 6578745F 		.ascii	"ext_attr\000"
 10336      61747472 
 10336      00
 10337              	.LASF212:
 10338 1cc0 77726170 		.ascii	"wrap\000"
 10338      00
 10339              	.LASF335:
ARM GAS  C:\Users\strap\AppData\Local\Temp\cci64Z2T.s 			page 233


 10340 1cc5 6C765F73 		.ascii	"lv_style_list_t\000"
 10340      74796C65 
 10340      5F6C6973 
 10340      745F7400 
 10341              	.LASF518:
 10342 1cd5 766F6C74 		.ascii	"voltage_ddlist\000"
 10342      6167655F 
 10342      64646C69 
 10342      737400
 10343              	.LASF398:
 10344 1ce4 4C565F4C 		.ascii	"LV_LAYOUT_PRETTY_MID\000"
 10344      41594F55 
 10344      545F5052 
 10344      45545459 
 10344      5F4D4944 
 10345              	.LASF172:
 10346 1cf9 6C765F69 		.ascii	"lv_indev_drv_t\000"
 10346      6E646576 
 10346      5F647276 
 10346      5F7400
 10347              	.LASF80:
 10348 1d08 61726561 		.ascii	"area\000"
 10348      00
 10349              	.LASF74:
 10350 1d0d 4C565F41 		.ascii	"LV_ALIGN_OUT_RIGHT_BOTTOM\000"
 10350      4C49474E 
 10350      5F4F5554 
 10350      5F524947 
 10350      48545F42 
 10351              	.LASF103:
 10352 1d27 64726976 		.ascii	"driver\000"
 10352      657200
 10353              	.LASF224:
 10354 1d2e 4C565F53 		.ascii	"LV_STYLE_PAD_LEFT\000"
 10354      54594C45 
 10354      5F504144 
 10354      5F4C4546 
 10354      5400
 10355              	.LASF194:
 10356 1d40 6C6F6E67 		.ascii	"long_pr_sent\000"
 10356      5F70725F 
 10356      73656E74 
 10356      00
 10357              	.LASF521:
 10358 1d4d 70756C73 		.ascii	"pulses_spinbox\000"
 10358      65735F73 
 10358      70696E62 
 10358      6F7800
 10359              	.LASF284:
 10360 1d5c 4C565F53 		.ascii	"LV_STYLE_LINE_DASH_GAP\000"
 10360      54594C45 
 10360      5F4C494E 
 10360      455F4441 
 10360      53485F47 
 10361              	.LASF584:
 10362 1d73 5350495F 		.ascii	"SPI_Start\000"
 10362      53746172 
ARM GAS  C:\Users\strap\AppData\Local\Temp\cci64Z2T.s 			page 234


 10362      7400
 10363              	.LASF422:
 10364 1d7d 4C565F4C 		.ascii	"LV_LABEL_ALIGN_CENTER\000"
 10364      4142454C 
 10364      5F414C49 
 10364      474E5F43 
 10364      454E5445 
 10365              	.LASF409:
 10366 1d93 5F4C565F 		.ascii	"_LV_CONT_PART_VIRTUAL_LAST\000"
 10366      434F4E54 
 10366      5F504152 
 10366      545F5649 
 10366      52545541 
 10367              	.LASF340:
 10368 1dae 4C565F45 		.ascii	"LV_EVENT_PRESSED\000"
 10368      56454E54 
 10368      5F505245 
 10368      53534544 
 10368      00
 10369              	.LASF382:
 10370 1dbf 6C765F6F 		.ascii	"lv_obj_t\000"
 10370      626A5F74 
 10370      00
 10371              	.LASF304:
 10372 1dc8 4C565F53 		.ascii	"LV_STYLE_SCALE_END_LINE_WIDTH\000"
 10372      54594C45 
 10372      5F534341 
 10372      4C455F45 
 10372      4E445F4C 
 10373              	.LASF571:
 10374 1de6 6C765F74 		.ascii	"lv_tick_inc\000"
 10374      69636B5F 
 10374      696E6300 
 10375              	.LASF130:
 10376 1df2 636C6963 		.ascii	"click\000"
 10376      6B00
 10377              	.LASF456:
 10378 1df8 50415241 		.ascii	"PARAMETER_LIST_PULSE_VOLTAGE\000"
 10378      4D455445 
 10378      525F4C49 
 10378      53545F50 
 10378      554C5345 
 10379              	.LASF535:
 10380 1e15 55415254 		.ascii	"UART_PutHexInt\000"
 10380      5F507574 
 10380      48657849 
 10380      6E7400
 10381              	.LASF505:
 10382 1e24 766F6C74 		.ascii	"voltage_params_g\000"
 10382      6167655F 
 10382      70617261 
 10382      6D735F67 
 10382      00
 10383              	.LASF502:
 10384 1e35 51554144 		.ascii	"QUAD_DEC_SW_PRESSED\000"
 10384      5F444543 
 10384      5F53575F 
ARM GAS  C:\Users\strap\AppData\Local\Temp\cci64Z2T.s 			page 235


 10384      50524553 
 10384      53454400 
 10385              	.LASF35:
 10386 1e49 7461696C 		.ascii	"tail\000"
 10386      00
 10387              	.LASF21:
 10388 1e4e 646F7562 		.ascii	"double\000"
 10388      6C6500
 10389              	.LASF219:
 10390 1e55 4C565F53 		.ascii	"LV_STYLE_TRANSFORM_ANGLE\000"
 10390      54594C45 
 10390      5F545241 
 10390      4E53464F 
 10390      524D5F41 
 10391              	.LASF88:
 10392 1e6e 686F725F 		.ascii	"hor_res\000"
 10392      72657300 
 10393              	.LASF326:
 10394 1e76 626F7264 		.ascii	"border_post_off\000"
 10394      65725F70 
 10394      6F73745F 
 10394      6F666600 
 10395              	.LASF257:
 10396 1e86 4C565F53 		.ascii	"LV_STYLE_PATTERN_REPEAT\000"
 10396      54594C45 
 10396      5F504154 
 10396      5445524E 
 10396      5F524550 
 10397              	.LASF135:
 10398 1e9e 70617265 		.ascii	"parent_event\000"
 10398      6E745F65 
 10398      76656E74 
 10398      00
 10399              	.LASF498:
 10400 1eab 696E6465 		.ascii	"indev_drv\000"
 10400      765F6472 
 10400      7600
 10401              	.LASF147:
 10402 1eb5 4C565F49 		.ascii	"LV_INDEV_TYPE_KEYPAD\000"
 10402      4E444556 
 10402      5F545950 
 10402      455F4B45 
 10402      59504144 
 10403              	.LASF267:
 10404 1eca 4C565F53 		.ascii	"LV_STYLE_VALUE_ALIGN\000"
 10404      54594C45 
 10404      5F56414C 
 10404      55455F41 
 10404      4C49474E 
 10405              	.LASF247:
 10406 1edf 4C565F53 		.ascii	"LV_STYLE_OUTLINE_COLOR\000"
 10406      54594C45 
 10406      5F4F5554 
 10406      4C494E45 
 10406      5F434F4C 
 10407              	.LASF202:
 10408 1ef6 67726F75 		.ascii	"group\000"
ARM GAS  C:\Users\strap\AppData\Local\Temp\cci64Z2T.s 			page 236


 10408      7000
 10409              	.LASF379:
 10410 1efc 4C565F53 		.ascii	"LV_STATE_PRESSED\000"
 10410      54415445 
 10410      5F505245 
 10410      53534544 
 10410      00
 10411              	.LASF7:
 10412 1f0d 5F5F696E 		.ascii	"__int32_t\000"
 10412      7433325F 
 10412      7400
 10413              	.LASF9:
 10414 1f17 5F5F7569 		.ascii	"__uint32_t\000"
 10414      6E743332 
 10414      5F7400
 10415              	.LASF470:
 10416 1f22 64617461 		.ascii	"data\000"
 10416      00
 10417              	.LASF504:
 10418 1f27 62757273 		.ascii	"burst_type_params_g\000"
 10418      745F7479 
 10418      70655F70 
 10418      6172616D 
 10418      735F6700 
 10419              	.LASF104:
 10420 1f3b 72656672 		.ascii	"refr_task\000"
 10420      5F746173 
 10420      6B00
 10421              	.LASF240:
 10422 1f45 4C565F53 		.ascii	"LV_STYLE_BORDER_BLEND_MODE\000"
 10422      54594C45 
 10422      5F424F52 
 10422      4445525F 
 10422      424C454E 
 10423              	.LASF417:
 10424 1f60 5F4C565F 		.ascii	"_LV_BTN_STATE_LAST\000"
 10424      42544E5F 
 10424      53544154 
 10424      455F4C41 
 10424      535400
 10425              	.LASF567:
 10426 1f73 6C765F6C 		.ascii	"lv_label_set_text\000"
 10426      6162656C 
 10426      5F736574 
 10426      5F746578 
 10426      7400
 10427              	.LASF34:
 10428 1f85 68656164 		.ascii	"head\000"
 10428      00
 10429              	.LASF499:
 10430 1f8a 70617261 		.ascii	"parameter_list_container\000"
 10430      6D657465 
 10430      725F6C69 
 10430      73745F63 
 10430      6F6E7461 
 10431              	.LASF102:
 10432 1fa3 5F646973 		.ascii	"_disp_t\000"
ARM GAS  C:\Users\strap\AppData\Local\Temp\cci64Z2T.s 			page 237


 10432      705F7400 
 10433              	.LASF116:
 10434 1fab 696E765F 		.ascii	"inv_p\000"
 10434      7000
 10435              	.LASF427:
 10436 1fb1 4C565F50 		.ascii	"LV_PAGE_PART_EDGE_FLASH\000"
 10436      4147455F 
 10436      50415254 
 10436      5F454447 
 10436      455F464C 
 10437              	.LASF215:
 10438 1fc9 4C565F53 		.ascii	"LV_STYLE_CLIP_CORNER\000"
 10438      54594C45 
 10438      5F434C49 
 10438      505F434F 
 10438      524E4552 
 10439              	.LASF367:
 10440 1fde 62617365 		.ascii	"base\000"
 10440      00
 10441              	.LASF364:
 10442 1fe3 6C765F65 		.ascii	"lv_event_cb_t\000"
 10442      76656E74 
 10442      5F63625F 
 10442      7400
 10443              	.LASF539:
 10444 1ff1 55415254 		.ascii	"UART_PutString\000"
 10444      5F507574 
 10444      53747269 
 10444      6E6700
 10445              	.LASF94:
 10446 2000 726F756E 		.ascii	"rounder_cb\000"
 10446      6465725F 
 10446      636200
 10447              	.LASF450:
 10448 200b 64726976 		.ascii	"driver_generic_t\000"
 10448      65725F67 
 10448      656E6572 
 10448      69635F74 
 10448      00
 10449              	.LASF148:
 10450 201c 4C565F49 		.ascii	"LV_INDEV_TYPE_BUTTON\000"
 10450      4E444556 
 10450      5F545950 
 10450      455F4255 
 10450      54544F4E 
 10451              	.LASF436:
 10452 2031 5F4C565F 		.ascii	"_LV_TEXTAREA_PART_VIRTUAL_LAST\000"
 10452      54455854 
 10452      41524541 
 10452      5F504152 
 10452      545F5649 
 10453              	.LASF463:
 10454 2050 6C765F62 		.ascii	"lv_btn_set_fit2\000"
 10454      746E5F73 
 10454      65745F66 
 10454      69743200 
 10455              	.LASF416:
ARM GAS  C:\Users\strap\AppData\Local\Temp\cci64Z2T.s 			page 238


 10456 2060 4C565F42 		.ascii	"LV_BTN_STATE_CHECKED_DISABLED\000"
 10456      544E5F53 
 10456      54415445 
 10456      5F434845 
 10456      434B4544 
 10457              	.LASF430:
 10458 207e 5F4C565F 		.ascii	"_LV_PAGE_PART_REAL_LAST\000"
 10458      50414745 
 10458      5F504152 
 10458      545F5245 
 10458      414C5F4C 
 10459              	.LASF277:
 10460 2096 4C565F53 		.ascii	"LV_STYLE_TEXT_SEL_COLOR\000"
 10460      54594C45 
 10460      5F544558 
 10460      545F5345 
 10460      4C5F434F 
 10461              	.LASF524:
 10462 20ae 636F6E74 		.ascii	"continous_checkbox\000"
 10462      696E6F75 
 10462      735F6368 
 10462      65636B62 
 10462      6F7800
 10463              	.LASF550:
 10464 20c1 6C765F67 		.ascii	"lv_group_add_obj\000"
 10464      726F7570 
 10464      5F616464 
 10464      5F6F626A 
 10464      00
 10465              	.LASF384:
 10466 20d2 5F4C565F 		.ascii	"_LV_OBJ_PART_VIRTUAL_LAST\000"
 10466      4F424A5F 
 10466      50415254 
 10466      5F564952 
 10466      5455414C 
 10467              	.LASF316:
 10468 20ec 6F70615F 		.ascii	"opa_scale_cover\000"
 10468      7363616C 
 10468      655F636F 
 10468      76657200 
 10469              	.LASF245:
 10470 20fc 4C565F53 		.ascii	"LV_STYLE_OUTLINE_PAD\000"
 10470      54594C45 
 10470      5F4F5554 
 10470      4C494E45 
 10470      5F504144 
 10471              	.LASF193:
 10472 2111 6C6F6E67 		.ascii	"longpr_rep_timestamp\000"
 10472      70725F72 
 10472      65705F74 
 10472      696D6573 
 10472      74616D70 
 10473              	.LASF474:
 10474 2126 73656C65 		.ascii	"selected\000"
 10474      63746564 
 10474      00
 10475              	.LASF179:
ARM GAS  C:\Users\strap\AppData\Local\Temp\cci64Z2T.s 			page 239


 10476 212f 6C617374 		.ascii	"last_obj\000"
 10476      5F6F626A 
 10476      00
 10477              	.LASF313:
 10478 2138 76616C69 		.ascii	"valid_cache\000"
 10478      645F6361 
 10478      63686500 
 10479              	.LASF508:
 10480 2144 49544D5F 		.ascii	"ITM_RxBuffer\000"
 10480      52784275 
 10480      66666572 
 10480      00
 10481              	.LASF324:
 10482 2151 626F7264 		.ascii	"border_width_zero\000"
 10482      65725F77 
 10482      69647468 
 10482      5F7A6572 
 10482      6F00
 10483              	.LASF440:
 10484 2163 64617461 		.ascii	"data_mode_t\000"
 10484      5F6D6F64 
 10484      655F7400 
 10485              	.LASF568:
 10486 216f 6C765F63 		.ascii	"lv_checkbox_create\000"
 10486      6865636B 
 10486      626F785F 
 10486      63726561 
 10486      746500
 10487              	.LASF12:
 10488 2182 6C6F6E67 		.ascii	"long long unsigned int\000"
 10488      206C6F6E 
 10488      6720756E 
 10488      7369676E 
 10488      65642069 
 10489              	.LASF336:
 10490 2199 6C765F62 		.ascii	"lv_bidi_dir_t\000"
 10490      6964695F 
 10490      6469725F 
 10490      7400
 10491              	.LASF119:
 10492 21a7 70617265 		.ascii	"parent\000"
 10492      6E7400
 10493              	.LASF78:
 10494 21ae 6275665F 		.ascii	"buf_act\000"
 10494      61637400 
 10495              	.LASF263:
 10496 21b6 4C565F53 		.ascii	"LV_STYLE_VALUE_LINE_SPACE\000"
 10496      54594C45 
 10496      5F56414C 
 10496      55455F4C 
 10496      494E455F 
 10497              	.LASF601:
 10498 21d0 474E5520 		.ascii	"GNU C11 5.4.1 20160609 (release) [ARM/embedded-5-br"
 10498      43313120 
 10498      352E342E 
 10498      31203230 
 10498      31363036 
ARM GAS  C:\Users\strap\AppData\Local\Temp\cci64Z2T.s 			page 240


 10499 2203 616E6368 		.ascii	"anch revision 237715] -mcpu=cortex-m3 -mthumb -g -O"
 10499      20726576 
 10499      6973696F 
 10499      6E203233 
 10499      37373135 
 10500 2236 67202D66 		.ascii	"g -ffunction-sections -ffat-lto-objects\000"
 10500      66756E63 
 10500      74696F6E 
 10500      2D736563 
 10500      74696F6E 
 10501              	.LASF589:
 10502 225e 43795379 		.ascii	"CySysTickClear\000"
 10502      73546963 
 10502      6B436C65 
 10502      617200
 10503              	.LASF557:
 10504 226d 6C765F6F 		.ascii	"lv_obj_set_state\000"
 10504      626A5F73 
 10504      65745F73 
 10504      74617465 
 10504      00
 10505              	.LASF323:
 10506 227e 62675F6F 		.ascii	"bg_opa_cover\000"
 10506      70615F63 
 10506      6F766572 
 10506      00
 10507              	.LASF253:
 10508 228b 4C565F53 		.ascii	"LV_STYLE_SHADOW_BLEND_MODE\000"
 10508      54594C45 
 10508      5F534841 
 10508      444F575F 
 10508      424C454E 
 10509              	.LASF223:
 10510 22a6 4C565F53 		.ascii	"LV_STYLE_PAD_BOTTOM\000"
 10510      54594C45 
 10510      5F504144 
 10510      5F424F54 
 10510      544F4D00 
 10511              	.LASF415:
 10512 22ba 4C565F42 		.ascii	"LV_BTN_STATE_CHECKED_PRESSED\000"
 10512      544E5F53 
 10512      54415445 
 10512      5F434845 
 10512      434B4544 
 10513              	.LASF488:
 10514 22d7 636F6E74 		.ascii	"container_width\000"
 10514      61696E65 
 10514      725F7769 
 10514      64746800 
 10515              	.LASF497:
 10516 22e7 64697370 		.ascii	"disp_drv\000"
 10516      5F647276 
 10516      00
 10517              	.LASF33:
 10518 22f0 6E5F7369 		.ascii	"n_size\000"
 10518      7A6500
 10519              	.LASF403:
ARM GAS  C:\Users\strap\AppData\Local\Temp\cci64Z2T.s 			page 241


 10520 22f7 4C565F46 		.ascii	"LV_FIT_TIGHT\000"
 10520      49545F54 
 10520      49474854 
 10520      00
 10521              	.LASF467:
 10522 2304 6C765F73 		.ascii	"lv_scr_load\000"
 10522      63725F6C 
 10522      6F616400 
 10523              	.LASF256:
 10524 2310 4C565F53 		.ascii	"LV_STYLE_PATTERN_BLEND_MODE\000"
 10524      54594C45 
 10524      5F504154 
 10524      5445524E 
 10524      5F424C45 
 10525              	.LASF421:
 10526 232c 4C565F4C 		.ascii	"LV_LABEL_ALIGN_LEFT\000"
 10526      4142454C 
 10526      5F414C49 
 10526      474E5F4C 
 10526      45465400 
 10527              	.LASF242:
 10528 2340 4C565F53 		.ascii	"LV_STYLE_BORDER_COLOR\000"
 10528      54594C45 
 10528      5F424F52 
 10528      4445525F 
 10528      434F4C4F 
 10529              	.LASF459:
 10530 2356 636F6E74 		.ascii	"container\000"
 10530      61696E65 
 10530      7200
 10531              	.LASF507:
 10532 2360 656E636F 		.ascii	"encoder_indev\000"
 10532      6465725F 
 10532      696E6465 
 10532      7600
 10533              	.LASF301:
 10534 236e 4C565F53 		.ascii	"LV_STYLE_SCALE_WIDTH\000"
 10534      54594C45 
 10534      5F534341 
 10534      4C455F57 
 10534      49445448 
 10535              	.LASF454:
 10536 2383 50415241 		.ascii	"PARAMETER_LIST_BURST_TYPE\000"
 10536      4D455445 
 10536      525F4C49 
 10536      53545F42 
 10536      55525354 
 10537              	.LASF235:
 10538 239d 4C565F53 		.ascii	"LV_STYLE_BG_COLOR\000"
 10538      54594C45 
 10538      5F42475F 
 10538      434F4C4F 
 10538      5200
 10539              	.LASF383:
 10540 23af 4C565F4F 		.ascii	"LV_OBJ_PART_MAIN\000"
 10540      424A5F50 
 10540      4152545F 
ARM GAS  C:\Users\strap\AppData\Local\Temp\cci64Z2T.s 			page 242


 10540      4D41494E 
 10540      00
 10541              	.LASF139:
 10542 23c0 64726167 		.ascii	"drag_dir\000"
 10542      5F646972 
 10542      00
 10543              	.LASF318:
 10544 23c9 7472616E 		.ascii	"transform_all_zero\000"
 10544      73666F72 
 10544      6D5F616C 
 10544      6C5F7A65 
 10544      726F00
 10545              	.LASF312:
 10546 23dc 69676E6F 		.ascii	"ignore_trans\000"
 10546      72655F74 
 10546      72616E73 
 10546      00
 10547              	.LASF551:
 10548 23e9 6C765F6F 		.ascii	"lv_obj_set_event_cb\000"
 10548      626A5F73 
 10548      65745F65 
 10548      76656E74 
 10548      5F636200 
 10549              	.LASF278:
 10550 23fd 4C565F53 		.ascii	"LV_STYLE_TEXT_SEL_BG_COLOR\000"
 10550      54594C45 
 10550      5F544558 
 10550      545F5345 
 10550      4C5F4247 
 10551              	.LASF85:
 10552 2418 6C765F64 		.ascii	"lv_disp_buf_t\000"
 10552      6973705F 
 10552      6275665F 
 10552      7400
 10553              	.LASF429:
 10554 2426 4C565F50 		.ascii	"LV_PAGE_PART_SCROLLABLE\000"
 10554      4147455F 
 10554      50415254 
 10554      5F534352 
 10554      4F4C4C41 
 10555              	.LASF538:
 10556 243e 6C765F69 		.ascii	"lv_indev_set_group\000"
 10556      6E646576 
 10556      5F736574 
 10556      5F67726F 
 10556      757000
 10557              	.LASF11:
 10558 2451 6C6F6E67 		.ascii	"long long int\000"
 10558      206C6F6E 
 10558      6720696E 
 10558      7400
 10559              	.LASF553:
 10560 245f 6C765F73 		.ascii	"lv_spinbox_set_range\000"
 10560      70696E62 
 10560      6F785F73 
 10560      65745F72 
 10560      616E6765 
ARM GAS  C:\Users\strap\AppData\Local\Temp\cci64Z2T.s 			page 243


 10561              	.LASF362:
 10562 2474 5F4C565F 		.ascii	"_LV_EVENT_LAST\000"
 10562      4556454E 
 10562      545F4C41 
 10562      535400
 10563              	.LASF46:
 10564 2483 626C7565 		.ascii	"blue\000"
 10564      00
 10565              	.LASF482:
 10566 2488 70617265 		.ascii	"parent_w\000"
 10566      6E745F77 
 10566      00
 10567              	.LASF489:
 10568 2491 70617261 		.ascii	"parameter_list_container_lbl\000"
 10568      6D657465 
 10568      725F6C69 
 10568      73745F63 
 10568      6F6E7461 
 10569              	.LASF201:
 10570 24ae 63757273 		.ascii	"cursor\000"
 10570      6F7200
 10571              	.LASF59:
 10572 24b5 4C565F41 		.ascii	"LV_ALIGN_IN_BOTTOM_MID\000"
 10572      4C49474E 
 10572      5F494E5F 
 10572      424F5454 
 10572      4F4D5F4D 
 10573              	.LASF66:
 10574 24cc 4C565F41 		.ascii	"LV_ALIGN_OUT_BOTTOM_LEFT\000"
 10574      4C49474E 
 10574      5F4F5554 
 10574      5F424F54 
 10574      544F4D5F 
 10575              	.LASF575:
 10576 24e5 7370695F 		.ascii	"spi_xfer_get_status\000"
 10576      78666572 
 10576      5F676574 
 10576      5F737461 
 10576      74757300 
 10577              	.LASF394:
 10578 24f9 4C565F4C 		.ascii	"LV_LAYOUT_ROW_TOP\000"
 10578      41594F55 
 10578      545F524F 
 10578      575F544F 
 10578      5000
 10579              	.LASF402:
 10580 250b 4C565F46 		.ascii	"LV_FIT_NONE\000"
 10580      49545F4E 
 10580      4F4E4500 
 10581              	.LASF84:
 10582 2517 6C617374 		.ascii	"last_part\000"
 10582      5F706172 
 10582      7400
 10583              	.LASF602:
 10584 2521 6D61696E 		.ascii	"main.c\000"
 10584      2E6300
 10585              	.LASF333:
ARM GAS  C:\Users\strap\AppData\Local\Temp\cci64Z2T.s 			page 244


 10586 2528 74657874 		.ascii	"text_decor_none\000"
 10586      5F646563 
 10586      6F725F6E 
 10586      6F6E6500 
 10587              	.LASF487:
 10588 2538 74625F63 		.ascii	"tb_content_width\000"
 10588      6F6E7465 
 10588      6E745F77 
 10588      69647468 
 10588      00
 10589              	.LASF273:
 10590 2549 4C565F53 		.ascii	"LV_STYLE_TEXT_LINE_SPACE\000"
 10590      54594C45 
 10590      5F544558 
 10590      545F4C49 
 10590      4E455F53 
 10591              	.LASF604:
 10592 2562 6C765F63 		.ascii	"lv_checkbox_is_checked\000"
 10592      6865636B 
 10592      626F785F 
 10592      69735F63 
 10592      6865636B 
 10593              	.LASF548:
 10594 2579 6C765F62 		.ascii	"lv_btn_create\000"
 10594      746E5F63 
 10594      72656174 
 10594      6500
 10595              	.LASF269:
 10596 2587 4C565F53 		.ascii	"LV_STYLE_VALUE_OPA\000"
 10596      54594C45 
 10596      5F56414C 
 10596      55455F4F 
 10596      504100
 10597              	.LASF124:
 10598 259a 64657369 		.ascii	"design_cb\000"
 10598      676E5F63 
 10598      6200
 10599              	.LASF115:
 10600 25a4 696E765F 		.ascii	"inv_area_joined\000"
 10600      61726561 
 10600      5F6A6F69 
 10600      6E656400 
 10601              	.LASF438:
 10602 25b4 44415441 		.ascii	"DATA_MODE_CMD\000"
 10602      5F4D4F44 
 10602      455F434D 
 10602      4400
 10603              	.LASF173:
 10604 25c2 6163745F 		.ascii	"act_point\000"
 10604      706F696E 
 10604      7400
 10605              	.LASF501:
 10606 25cc 70617261 		.ascii	"parameter_list\000"
 10606      6D657465 
 10606      725F6C69 
 10606      737400
 10607              	.LASF582:
ARM GAS  C:\Users\strap\AppData\Local\Temp\cci64Z2T.s 			page 245


 10608 25db 51756164 		.ascii	"QuadDec_Start\000"
 10608      4465635F 
 10608      53746172 
 10608      7400
 10609              	.LASF517:
 10610 25e9 62757273 		.ascii	"burst_type_list\000"
 10610      745F7479 
 10610      70655F6C 
 10610      69737400 
 10611              	.LASF189:
 10612 25f9 6B657970 		.ascii	"keypad\000"
 10612      616400
 10613              	.LASF605:
 10614 2600 6D61696E 		.ascii	"main\000"
 10614      00
 10615              	.LASF346:
 10616 2605 4C565F45 		.ascii	"LV_EVENT_CLICKED\000"
 10616      56454E54 
 10616      5F434C49 
 10616      434B4544 
 10616      00
 10617              	.LASF515:
 10618 2616 63757374 		.ascii	"custom_spinbox\000"
 10618      6F6D5F73 
 10618      70696E62 
 10618      6F7800
 10619              	.LASF344:
 10620 2625 4C565F45 		.ascii	"LV_EVENT_LONG_PRESSED\000"
 10620      56454E54 
 10620      5F4C4F4E 
 10620      475F5052 
 10620      45535345 
 10621              	.LASF129:
 10622 263b 6578745F 		.ascii	"ext_draw_pad\000"
 10622      64726177 
 10622      5F706164 
 10622      00
 10623              	.LASF580:
 10624 2648 6973725F 		.ascii	"isr_SPI_TX_DMA_StartEx\000"
 10624      5350495F 
 10624      54585F44 
 10624      4D415F53 
 10624      74617274 
 10625              	.LASF13:
 10626 265f 756E7369 		.ascii	"unsigned int\000"
 10626      676E6564 
 10626      20696E74 
 10626      00
 10627              	.LASF555:
 10628 266c 6C765F74 		.ascii	"lv_textarea_set_cursor_hidden\000"
 10628      65787461 
 10628      7265615F 
 10628      7365745F 
 10628      63757273 
 10629              	.LASF305:
 10630 268a 4C565F53 		.ascii	"LV_STYLE_SCALE_GRAD_COLOR\000"
 10630      54594C45 
ARM GAS  C:\Users\strap\AppData\Local\Temp\cci64Z2T.s 			page 246


 10630      5F534341 
 10630      4C455F47 
 10630      5241445F 
 10631              	.LASF530:
 10632 26a4 6170705F 		.ascii	"app_screen\000"
 10632      73637265 
 10632      656E00
 10633              	.LASF330:
 10634 26af 76616C75 		.ascii	"value_txt_str\000"
 10634      655F7478 
 10634      745F7374 
 10634      7200
 10635              	.LASF221:
 10636 26bd 4C565F53 		.ascii	"LV_STYLE_OPA_SCALE\000"
 10636      54594C45 
 10636      5F4F5041 
 10636      5F534341 
 10636      4C4500
 10637              	.LASF352:
 10638 26d0 4C565F45 		.ascii	"LV_EVENT_KEY\000"
 10638      56454E54 
 10638      5F4B4559 
 10638      00
 10639              	.LASF248:
 10640 26dd 4C565F53 		.ascii	"LV_STYLE_OUTLINE_OPA\000"
 10640      54594C45 
 10640      5F4F5554 
 10640      4C494E45 
 10640      5F4F5041 
 10641              	.LASF311:
 10642 26f2 736B6970 		.ascii	"skip_trans\000"
 10642      5F747261 
 10642      6E7300
 10643              	.LASF180:
 10644 26fd 6C617374 		.ascii	"last_pressed\000"
 10644      5F707265 
 10644      73736564 
 10644      00
 10645              	.LASF4:
 10646 270a 73686F72 		.ascii	"short int\000"
 10646      7420696E 
 10646      7400
 10647              	.LASF109:
 10648 2714 7379735F 		.ascii	"sys_layer\000"
 10648      6C617965 
 10648      7200
 10649              	.LASF579:
 10650 271e 6C765F64 		.ascii	"lv_disp_load_scr\000"
 10650      6973705F 
 10650      6C6F6164 
 10650      5F736372 
 10650      00
 10651              	.LASF241:
 10652 272f 4C565F53 		.ascii	"LV_STYLE_BORDER_POST\000"
 10652      54594C45 
 10652      5F424F52 
 10652      4445525F 
ARM GAS  C:\Users\strap\AppData\Local\Temp\cci64Z2T.s 			page 247


 10652      504F5354 
 10653              	.LASF249:
 10654 2744 4C565F53 		.ascii	"LV_STYLE_SHADOW_WIDTH\000"
 10654      54594C45 
 10654      5F534841 
 10654      444F575F 
 10654      57494454 
 10655              	.LASF178:
 10656 275a 6163745F 		.ascii	"act_obj\000"
 10656      6F626A00 
 10657              	.LASF28:
 10658 2762 6C765F64 		.ascii	"lv_disp_drv_user_data_t\000"
 10658      6973705F 
 10658      6472765F 
 10658      75736572 
 10658      5F646174 
 10659              	.LASF391:
 10660 277a 4C565F4C 		.ascii	"LV_LAYOUT_COLUMN_LEFT\000"
 10660      41594F55 
 10660      545F434F 
 10660      4C554D4E 
 10660      5F4C4546 
 10661              	.LASF111:
 10662 2790 62675F63 		.ascii	"bg_color\000"
 10662      6F6C6F72 
 10662      00
 10663              	.LASF166:
 10664 2799 64726167 		.ascii	"drag_limit\000"
 10664      5F6C696D 
 10664      697400
 10665              	.LASF433:
 10666 27a4 4C565F54 		.ascii	"LV_TEXTAREA_PART_EDGE_FLASH\000"
 10666      45585441 
 10666      5245415F 
 10666      50415254 
 10666      5F454447 
 10667              		.ident	"GCC: (GNU Tools for ARM Embedded Processors) 5.4.1 20160609 (release) [ARM/embedded-5-bran
