ARM GAS  C:\Users\strap\AppData\Local\Temp\ccMbGlxf.s 			page 1


   1              		.syntax unified
   2              		.cpu cortex-m3
   3              		.fpu softvfp
   4              		.eabi_attribute 20, 1
   5              		.eabi_attribute 21, 1
   6              		.eabi_attribute 23, 3
   7              		.eabi_attribute 24, 1
   8              		.eabi_attribute 25, 1
   9              		.eabi_attribute 26, 1
  10              		.eabi_attribute 30, 1
  11              		.eabi_attribute 34, 1
  12              		.eabi_attribute 18, 4
  13              		.thumb
  14              		.syntax unified
  15              		.file	"psoc_platform.c"
  16              		.text
  17              	.Ltext0:
  18              		.cfi_sections	.debug_frame
  19              		.section	.text.psoc_display_backlight_control,"ax",%progbits
  20              		.align	2
  21              		.global	psoc_display_backlight_control
  22              		.thumb
  23              		.thumb_func
  24              		.type	psoc_display_backlight_control, %function
  25              	psoc_display_backlight_control:
  26              	.LFB375:
  27              		.file 1 "psoc_platform.c"
   1:psoc_platform.c **** #include "driver_generic.h"
   2:psoc_platform.c **** 
   3:psoc_platform.c **** #include "DISP_DC.h"
   4:psoc_platform.c **** #include "DISP_RST.h"
   5:psoc_platform.c **** #include "DISP_BCKL.h"
   6:psoc_platform.c **** #include "UART.h"
   7:psoc_platform.c **** #include "CyLib.h"
   8:psoc_platform.c **** 
   9:psoc_platform.c **** void psoc_display_backlight_control(lv_disp_drv_t *drv, display_backlight_control_t backlight_contr
  10:psoc_platform.c **** {
  28              		.loc 1 10 0
  29              		.cfi_startproc
  30              		@ args = 0, pretend = 0, frame = 0
  31              		@ frame_needed = 0, uses_anonymous_args = 0
  32              	.LVL0:
  33 0000 08B5     		push	{r3, lr}
  34              		.cfi_def_cfa_offset 8
  35              		.cfi_offset 3, -8
  36              		.cfi_offset 14, -4
  11:psoc_platform.c ****     (void) drv;
  12:psoc_platform.c ****     
  13:psoc_platform.c ****     DISP_BCKL_Write(DISPLAY_BACKLIGHT_CONTROL_ENABLE == backlight_control ? 1 : 0);
  37              		.loc 1 13 0
  38 0002 0129     		cmp	r1, #1
  39 0004 14BF     		ite	ne
  40 0006 0020     		movne	r0, #0
  41              	.LVL1:
  42 0008 0120     		moveq	r0, #1
  43 000a FFF7FEFF 		bl	DISP_BCKL_Write
  44              	.LVL2:
ARM GAS  C:\Users\strap\AppData\Local\Temp\ccMbGlxf.s 			page 2


  45 000e 08BD     		pop	{r3, pc}
  46              		.cfi_endproc
  47              	.LFE375:
  48              		.size	psoc_display_backlight_control, .-psoc_display_backlight_control
  49              		.section	.text.psoc_data_mode,"ax",%progbits
  50              		.align	2
  51              		.global	psoc_data_mode
  52              		.thumb
  53              		.thumb_func
  54              		.type	psoc_data_mode, %function
  55              	psoc_data_mode:
  56              	.LFB376:
  14:psoc_platform.c **** }
  15:psoc_platform.c **** 
  16:psoc_platform.c **** void psoc_data_mode(lv_disp_drv_t *drv, data_mode_t mode)
  17:psoc_platform.c **** {
  57              		.loc 1 17 0
  58              		.cfi_startproc
  59              		@ args = 0, pretend = 0, frame = 0
  60              		@ frame_needed = 0, uses_anonymous_args = 0
  61              	.LVL3:
  62 0000 08B5     		push	{r3, lr}
  63              		.cfi_def_cfa_offset 8
  64              		.cfi_offset 3, -8
  65              		.cfi_offset 14, -4
  18:psoc_platform.c ****     (void) drv;
  19:psoc_platform.c ****     
  20:psoc_platform.c ****     if (DATA_MODE_CMD == mode) {
  66              		.loc 1 20 0
  67 0002 19B9     		cbnz	r1, .L4
  21:psoc_platform.c ****         DISP_DC_Write(0);
  68              		.loc 1 21 0
  69 0004 0020     		movs	r0, #0
  70              	.LVL4:
  71 0006 FFF7FEFF 		bl	DISP_DC_Write
  72              	.LVL5:
  73 000a 08BD     		pop	{r3, pc}
  74              	.LVL6:
  75              	.L4:
  22:psoc_platform.c ****     } else {
  23:psoc_platform.c ****         DISP_DC_Write(1);
  76              		.loc 1 23 0
  77 000c 0120     		movs	r0, #1
  78              	.LVL7:
  79 000e FFF7FEFF 		bl	DISP_DC_Write
  80              	.LVL8:
  81 0012 08BD     		pop	{r3, pc}
  82              		.cfi_endproc
  83              	.LFE376:
  84              		.size	psoc_data_mode, .-psoc_data_mode
  85              		.section	.text.psoc_delay_ms,"ax",%progbits
  86              		.align	2
  87              		.global	psoc_delay_ms
  88              		.thumb
  89              		.thumb_func
  90              		.type	psoc_delay_ms, %function
  91              	psoc_delay_ms:
ARM GAS  C:\Users\strap\AppData\Local\Temp\ccMbGlxf.s 			page 3


  92              	.LFB377:
  24:psoc_platform.c ****     }
  25:psoc_platform.c **** }
  26:psoc_platform.c **** 
  27:psoc_platform.c **** void psoc_delay_ms(lv_disp_drv_t *drv, uint32_t ms)
  28:psoc_platform.c **** {
  93              		.loc 1 28 0
  94              		.cfi_startproc
  95              		@ args = 0, pretend = 0, frame = 0
  96              		@ frame_needed = 0, uses_anonymous_args = 0
  97              	.LVL9:
  98 0000 08B5     		push	{r3, lr}
  99              		.cfi_def_cfa_offset 8
 100              		.cfi_offset 3, -8
 101              		.cfi_offset 14, -4
  29:psoc_platform.c ****     (void) drv;
  30:psoc_platform.c ****     
  31:psoc_platform.c ****     CyDelay(ms);
 102              		.loc 1 31 0
 103 0002 0846     		mov	r0, r1
 104              	.LVL10:
 105 0004 FFF7FEFF 		bl	CyDelay
 106              	.LVL11:
 107 0008 08BD     		pop	{r3, pc}
 108              		.cfi_endproc
 109              	.LFE377:
 110              		.size	psoc_delay_ms, .-psoc_delay_ms
 111              		.section	.text.psoc_write_blocking,"ax",%progbits
 112              		.align	2
 113              		.global	psoc_write_blocking
 114              		.thumb
 115              		.thumb_func
 116              		.type	psoc_write_blocking, %function
 117              	psoc_write_blocking:
 118              	.LFB378:
  32:psoc_platform.c **** }
  33:psoc_platform.c **** 
  34:psoc_platform.c **** void psoc_write_blocking(const uint8_t *tx_data, const size_t size)
  35:psoc_platform.c **** {
 119              		.loc 1 35 0
 120              		.cfi_startproc
 121              		@ args = 0, pretend = 0, frame = 0
 122              		@ frame_needed = 0, uses_anonymous_args = 0
 123              		@ link register save eliminated.
 124              	.LVL12:
 125 0000 7047     		bx	lr
 126              		.cfi_endproc
 127              	.LFE378:
 128              		.size	psoc_write_blocking, .-psoc_write_blocking
 129 0002 00BF     		.section	.text.psoc_write_async,"ax",%progbits
 130              		.align	2
 131              		.global	psoc_write_async
 132              		.thumb
 133              		.thumb_func
 134              		.type	psoc_write_async, %function
 135              	psoc_write_async:
 136              	.LFB379:
ARM GAS  C:\Users\strap\AppData\Local\Temp\ccMbGlxf.s 			page 4


  36:psoc_platform.c ****     
  37:psoc_platform.c **** }
  38:psoc_platform.c **** 
  39:psoc_platform.c **** void psoc_write_async(const uint8_t *tx_data, uint8_t *rx_data, const size_t size)
  40:psoc_platform.c **** {
 137              		.loc 1 40 0
 138              		.cfi_startproc
 139              		@ args = 0, pretend = 0, frame = 0
 140              		@ frame_needed = 0, uses_anonymous_args = 0
 141              		@ link register save eliminated.
 142              	.LVL13:
 143 0000 7047     		bx	lr
 144              		.cfi_endproc
 145              	.LFE379:
 146              		.size	psoc_write_async, .-psoc_write_async
 147 0002 00BF     		.section	.text.psoc_hw_reset,"ax",%progbits
 148              		.align	2
 149              		.global	psoc_hw_reset
 150              		.thumb
 151              		.thumb_func
 152              		.type	psoc_hw_reset, %function
 153              	psoc_hw_reset:
 154              	.LFB380:
  41:psoc_platform.c ****     
  42:psoc_platform.c **** }
  43:psoc_platform.c **** 
  44:psoc_platform.c **** void psoc_hw_reset(lv_disp_drv_t *drv)
  45:psoc_platform.c **** {
 155              		.loc 1 45 0
 156              		.cfi_startproc
 157              		@ args = 0, pretend = 0, frame = 0
 158              		@ frame_needed = 0, uses_anonymous_args = 0
 159              	.LVL14:
 160              		.loc 1 45 0
 161 0000 08B5     		push	{r3, lr}
 162              		.cfi_def_cfa_offset 8
 163              		.cfi_offset 3, -8
 164              		.cfi_offset 14, -4
  46:psoc_platform.c ****     (void) drv;
  47:psoc_platform.c ****     
  48:psoc_platform.c ****     DISP_RST_Write(0);
 165              		.loc 1 48 0
 166 0002 0020     		movs	r0, #0
 167              	.LVL15:
 168 0004 FFF7FEFF 		bl	DISP_RST_Write
 169              	.LVL16:
  49:psoc_platform.c ****     CyDelay(100);
 170              		.loc 1 49 0
 171 0008 6420     		movs	r0, #100
 172 000a FFF7FEFF 		bl	CyDelay
 173              	.LVL17:
  50:psoc_platform.c ****     DISP_RST_Write(1);
 174              		.loc 1 50 0
 175 000e 0120     		movs	r0, #1
 176 0010 FFF7FEFF 		bl	DISP_RST_Write
 177              	.LVL18:
  51:psoc_platform.c ****     CyDelay(100);
ARM GAS  C:\Users\strap\AppData\Local\Temp\ccMbGlxf.s 			page 5


 178              		.loc 1 51 0
 179 0014 6420     		movs	r0, #100
 180 0016 FFF7FEFF 		bl	CyDelay
 181              	.LVL19:
 182 001a 08BD     		pop	{r3, pc}
 183              		.cfi_endproc
 184              	.LFE380:
 185              		.size	psoc_hw_reset, .-psoc_hw_reset
 186              		.text
 187              	.Letext0:
 188              		.file 2 "c:\\program files (x86)\\cypress\\psoc creator\\4.4\\psoc creator\\import\\gnu\\arm\\5.4.
 189              		.file 3 "c:\\program files (x86)\\cypress\\psoc creator\\4.4\\psoc creator\\import\\gnu\\arm\\5.4.
 190              		.file 4 "c:\\program files (x86)\\cypress\\psoc creator\\4.4\\psoc creator\\import\\gnu\\arm\\5.4.
 191              		.file 5 "lvgl/src/lv_misc/../../../lv_conf.h"
 192              		.file 6 "lvgl/src/lv_hal/../lv_misc/lv_color.h"
 193              		.file 7 "lvgl/src/lv_hal/../lv_misc/lv_area.h"
 194              		.file 8 "lvgl/src/lv_hal/lv_hal_disp.h"
 195              		.file 9 "driver_generic.h"
 196              		.file 10 "Generated_Source\\PSoC5/DISP_BCKL.h"
 197              		.file 11 "Generated_Source\\PSoC5/DISP_DC.h"
 198              		.file 12 "Generated_Source\\PSoC5/CyLib.h"
 199              		.file 13 "Generated_Source\\PSoC5/DISP_RST.h"