ARM GAS  C:\Users\strap\AppData\Local\Temp\ccTt4dNF.s 			page 1


   1              		.syntax unified
   2              		.cpu cortex-m3
   3              		.fpu softvfp
   4              		.eabi_attribute 20, 1
   5              		.eabi_attribute 21, 1
   6              		.eabi_attribute 23, 3
   7              		.eabi_attribute 24, 1
   8              		.eabi_attribute 25, 1
   9              		.eabi_attribute 26, 1
  10              		.eabi_attribute 30, 1
  11              		.eabi_attribute 34, 1
  12              		.eabi_attribute 18, 4
  13              		.thumb
  14              		.syntax unified
  15              		.file	"spi_dma.c"
  16              		.text
  17              	.Ltext0:
  18              		.cfi_sections	.debug_frame
  19              		.section	.text.calculate_needed_tds,"ax",%progbits
  20              		.align	2
  21              		.thumb
  22              		.thumb_func
  23              		.type	calculate_needed_tds, %function
  24              	calculate_needed_tds:
  25              	.LFB69:
  26              		.file 1 "spi_dma.c"
   1:spi_dma.c     **** #include "project.h"
   2:spi_dma.c     **** #include "spi_dma.h"
   3:spi_dma.c     **** 
   4:spi_dma.c     **** #define TD_POOL_SIZE    (10U)
   5:spi_dma.c     **** // #define DBG_SPI_DMA
   6:spi_dma.c     **** 
   7:spi_dma.c     **** static const uint8_t DMA_REQUEST_PER_BURST = 1;
   8:spi_dma.c     **** static const uint8_t DMA_BYTES_PER_BURST = 1;
   9:spi_dma.c     **** static const size_t MAX_BYTES_PER_TD = 4095;
  10:spi_dma.c     **** 
  11:spi_dma.c     **** static uint8_t DMA_Tx_TD_pool[TD_POOL_SIZE] = {0};
  12:spi_dma.c     **** static uint8_t DMA_Tx_Chan = 0;
  13:spi_dma.c     **** 
  14:spi_dma.c     **** static volatile spi_xfer_status_t spi_xfer_status = SPI_XFER_IDLE;
  15:spi_dma.c     **** 
  16:spi_dma.c     **** /* Keep track of the number of allocated TDs */
  17:spi_dma.c     **** static volatile size_t g_tds_needed = 0;
  18:spi_dma.c     **** 
  19:spi_dma.c     **** void spi_initialize_dma(void)
  20:spi_dma.c     **** {
  21:spi_dma.c     ****     DMA_Tx_Chan = DMA_Tx_DmaInitialize(DMA_BYTES_PER_BURST, DMA_REQUEST_PER_BURST,
  22:spi_dma.c     ****         HI16(CYDEV_SRAM_BASE), HI16(CYDEV_PERIPH_BASE));
  23:spi_dma.c     **** }
  24:spi_dma.c     **** 
  25:spi_dma.c     **** /* Transfer data in blocking mode */
  26:spi_dma.c     **** void send_spi(const uint8_t *tx_data, const size_t size)
  27:spi_dma.c     **** {
  28:spi_dma.c     ****     uint8_t dummy = 0;
  29:spi_dma.c     ****     
  30:spi_dma.c     ****     spi_xfer_status = SPI_XFER_ONGOING;
  31:spi_dma.c     ****     
ARM GAS  C:\Users\strap\AppData\Local\Temp\ccTt4dNF.s 			page 2


  32:spi_dma.c     ****     SS_Write(0);
  33:spi_dma.c     ****     
  34:spi_dma.c     ****     for (size_t idx = 0; idx < size; idx++) {
  35:spi_dma.c     ****         SPI_WriteTxData(tx_data[idx]);
  36:spi_dma.c     ****         
  37:spi_dma.c     ****         while(!(SPI_ReadTxStatus() & SPI_STS_BYTE_COMPLETE)) {
  38:spi_dma.c     ****         }
  39:spi_dma.c     ****         
  40:spi_dma.c     ****         /* Read the data available on the Rx FIFO so it doesn't trigger an
  41:spi_dma.c     ****          * overrun interrupt */
  42:spi_dma.c     ****         dummy = SPI_ReadRxData();
  43:spi_dma.c     ****     }
  44:spi_dma.c     ****     
  45:spi_dma.c     ****     SS_Write(1);
  46:spi_dma.c     ****     
  47:spi_dma.c     ****     spi_xfer_status = SPI_XFER_IDLE;
  48:spi_dma.c     **** }
  49:spi_dma.c     **** 
  50:spi_dma.c     **** /* Called when the data transfer is done.
  51:spi_dma.c     ****  * We need to disable the DMA channel and free the allocated TDs.
  52:spi_dma.c     ****  *
  53:spi_dma.c     ****  * Interesting links:
  54:spi_dma.c     ****  * https://community.cypress.com/thread/31826
  55:spi_dma.c     ****  * https://community.cypress.com/thread/14232 */
  56:spi_dma.c     **** void spi_xfer_on_completion(void)
  57:spi_dma.c     **** {
  58:spi_dma.c     ****     spi_xfer_set_status(SPI_XFER_IDLE);
  59:spi_dma.c     ****     
  60:spi_dma.c     ****     cystatus ch_disable_sts = CyDmaChDisable(DMA_Tx_Chan);
  61:spi_dma.c     ****     if (CYRET_SUCCESS != ch_disable_sts) {
  62:spi_dma.c     ****         UART_PutString("Error trying to disable the DMA channel");
  63:spi_dma.c     ****         
  64:spi_dma.c     ****         while (1) {
  65:spi_dma.c     ****             
  66:spi_dma.c     ****         }
  67:spi_dma.c     ****     }
  68:spi_dma.c     **** 
  69:spi_dma.c     **** #ifdef DBG_SPI_DMA
  70:spi_dma.c     ****     UART_PutString("TDs used: ");
  71:spi_dma.c     ****     UART_PutHexByte(g_tds_needed);
  72:spi_dma.c     ****     UART_PutCRLF();
  73:spi_dma.c     ****     uint8_t free_tds = CyDmaTdFreeCount();
  74:spi_dma.c     ****     UART_PutString("Free TDs: ");
  75:spi_dma.c     ****     UART_PutHexByte(free_tds);
  76:spi_dma.c     **** #endif
  77:spi_dma.c     **** 
  78:spi_dma.c     ****     /* Free all used TDs */
  79:spi_dma.c     ****     for (size_t idx = 0; idx < g_tds_needed; idx++) {
  80:spi_dma.c     **** #ifdef DBG_SPI_DMA
  81:spi_dma.c     ****         UART_PutCRLF();
  82:spi_dma.c     ****         UART_PutString("Freeing TD handle ");
  83:spi_dma.c     ****         UART_PutHexByte(DMA_Tx_TD_pool[idx]);
  84:spi_dma.c     ****         UART_PutCRLF();
  85:spi_dma.c     **** #endif
  86:spi_dma.c     ****         CyDmaTdFree(DMA_Tx_TD_pool[idx]);
  87:spi_dma.c     ****     }
  88:spi_dma.c     **** 
ARM GAS  C:\Users\strap\AppData\Local\Temp\ccTt4dNF.s 			page 3


  89:spi_dma.c     **** #ifdef DBG_SPI_DMA
  90:spi_dma.c     ****     free_tds = CyDmaTdFreeCount();
  91:spi_dma.c     ****     UART_PutChar('.');
  92:spi_dma.c     ****     UART_PutHexByte(free_tds);
  93:spi_dma.c     ****     UART_PutCRLF();
  94:spi_dma.c     **** #endif
  95:spi_dma.c     **** }
  96:spi_dma.c     **** 
  97:spi_dma.c     **** uint8_t spi_xfer_is_ongoing(void)
  98:spi_dma.c     **** {
  99:spi_dma.c     ****     return (uint8_t) SPI_XFER_IDLE != spi_xfer_status;
 100:spi_dma.c     **** }
 101:spi_dma.c     **** 
 102:spi_dma.c     **** void spi_xfer_set_status(spi_xfer_status_t status)
 103:spi_dma.c     **** {
 104:spi_dma.c     ****     spi_xfer_status = status;
 105:spi_dma.c     **** }
 106:spi_dma.c     **** 
 107:spi_dma.c     **** spi_xfer_status_t spi_xfer_get_status(void)
 108:spi_dma.c     **** {
 109:spi_dma.c     ****     return spi_xfer_status;
 110:spi_dma.c     **** }
 111:spi_dma.c     **** 
 112:spi_dma.c     **** static size_t calculate_needed_tds(size_t bytes_to_transfer)
 113:spi_dma.c     **** {
  27              		.loc 1 113 0
  28              		.cfi_startproc
  29              		@ args = 0, pretend = 0, frame = 0
  30              		@ frame_needed = 0, uses_anonymous_args = 0
  31              		@ link register save eliminated.
  32              	.LVL0:
 114:spi_dma.c     ****     /* We only need one td for transfers <= MAX_BYTES_PER_TD (4096) bytes */
 115:spi_dma.c     ****     size_t retval = 1;
 116:spi_dma.c     ****     
 117:spi_dma.c     ****     /* Keep track of the needed TDs to transfer bytes_to_transfer bytes */
 118:spi_dma.c     ****     if (MAX_BYTES_PER_TD < bytes_to_transfer) {
  33              		.loc 1 118 0
  34 0000 B0F5805F 		cmp	r0, #4096
  35 0004 09D3     		bcc	.L3
 119:spi_dma.c     ****         retval = (bytes_to_transfer + MAX_BYTES_PER_TD) / MAX_BYTES_PER_TD;
  36              		.loc 1 119 0
  37 0006 00F6FF70 		addw	r0, r0, #4095
  38              	.LVL1:
  39 000a 054B     		ldr	r3, .L4
  40 000c A3FB0023 		umull	r2, r3, r3, r0
  41 0010 C01A     		subs	r0, r0, r3
  42              	.LVL2:
  43 0012 03EB5000 		add	r0, r3, r0, lsr #1
  44 0016 C00A     		lsrs	r0, r0, #11
  45              	.LVL3:
  46 0018 7047     		bx	lr
  47              	.LVL4:
  48              	.L3:
 115:spi_dma.c     ****     
  49              		.loc 1 115 0
  50 001a 0120     		movs	r0, #1
  51              	.LVL5:
ARM GAS  C:\Users\strap\AppData\Local\Temp\ccTt4dNF.s 			page 4


 120:spi_dma.c     ****     }
 121:spi_dma.c     **** 
 122:spi_dma.c     **** #ifdef DBG_SPI_DMA
 123:spi_dma.c     ****     UART_PutString("Needed TDs: ");
 124:spi_dma.c     ****     UART_PutHexInt((uint16_t) retval);
 125:spi_dma.c     ****     UART_PutCRLF();
 126:spi_dma.c     **** #endif
 127:spi_dma.c     **** 
 128:spi_dma.c     ****     return retval;
 129:spi_dma.c     **** }
  52              		.loc 1 129 0
  53 001c 7047     		bx	lr
  54              	.L5:
  55 001e 00BF     		.align	2
  56              	.L4:
  57 0020 01011000 		.word	1048833
  58              		.cfi_endproc
  59              	.LFE69:
  60              		.size	calculate_needed_tds, .-calculate_needed_tds
  61              		.section	.text.spi_initialize_dma,"ax",%progbits
  62              		.align	2
  63              		.global	spi_initialize_dma
  64              		.thumb
  65              		.thumb_func
  66              		.type	spi_initialize_dma, %function
  67              	spi_initialize_dma:
  68              	.LFB63:
  20:spi_dma.c     ****     DMA_Tx_Chan = DMA_Tx_DmaInitialize(DMA_BYTES_PER_BURST, DMA_REQUEST_PER_BURST,
  69              		.loc 1 20 0
  70              		.cfi_startproc
  71              		@ args = 0, pretend = 0, frame = 0
  72              		@ frame_needed = 0, uses_anonymous_args = 0
  73 0000 08B5     		push	{r3, lr}
  74              		.cfi_def_cfa_offset 8
  75              		.cfi_offset 3, -8
  76              		.cfi_offset 14, -4
  21:spi_dma.c     ****         HI16(CYDEV_SRAM_BASE), HI16(CYDEV_PERIPH_BASE));
  77              		.loc 1 21 0
  78 0002 4FF48043 		mov	r3, #16384
  79 0006 41F6FF72 		movw	r2, #8191
  80 000a 0121     		movs	r1, #1
  81 000c 0846     		mov	r0, r1
  82 000e FFF7FEFF 		bl	DMA_Tx_DmaInitialize
  83              	.LVL6:
  84 0012 014B     		ldr	r3, .L8
  85 0014 1870     		strb	r0, [r3]
  86 0016 08BD     		pop	{r3, pc}
  87              	.L9:
  88              		.align	2
  89              	.L8:
  90 0018 00000000 		.word	.LANCHOR0
  91              		.cfi_endproc
  92              	.LFE63:
  93              		.size	spi_initialize_dma, .-spi_initialize_dma
  94              		.section	.text.send_spi,"ax",%progbits
  95              		.align	2
  96              		.global	send_spi
ARM GAS  C:\Users\strap\AppData\Local\Temp\ccTt4dNF.s 			page 5


  97              		.thumb
  98              		.thumb_func
  99              		.type	send_spi, %function
 100              	send_spi:
 101              	.LFB64:
  27:spi_dma.c     ****     uint8_t dummy = 0;
 102              		.loc 1 27 0
 103              		.cfi_startproc
 104              		@ args = 0, pretend = 0, frame = 0
 105              		@ frame_needed = 0, uses_anonymous_args = 0
 106              	.LVL7:
 107 0000 70B5     		push	{r4, r5, r6, lr}
 108              		.cfi_def_cfa_offset 16
 109              		.cfi_offset 4, -16
 110              		.cfi_offset 5, -12
 111              		.cfi_offset 6, -8
 112              		.cfi_offset 14, -4
 113 0002 0646     		mov	r6, r0
 114 0004 0D46     		mov	r5, r1
 115              	.LVL8:
  30:spi_dma.c     ****     
 116              		.loc 1 30 0
 117 0006 0222     		movs	r2, #2
 118 0008 0D4B     		ldr	r3, .L15
 119 000a 5A70     		strb	r2, [r3, #1]
  32:spi_dma.c     ****     
 120              		.loc 1 32 0
 121 000c 0020     		movs	r0, #0
 122              	.LVL9:
 123 000e FFF7FEFF 		bl	SS_Write
 124              	.LVL10:
 125              	.LBB2:
  34:spi_dma.c     ****         SPI_WriteTxData(tx_data[idx]);
 126              		.loc 1 34 0
 127 0012 0024     		movs	r4, #0
 128 0014 0AE0     		b	.L11
 129              	.LVL11:
 130              	.L13:
  35:spi_dma.c     ****         
 131              		.loc 1 35 0
 132 0016 305D     		ldrb	r0, [r6, r4]	@ zero_extendqisi2
 133 0018 FFF7FEFF 		bl	SPI_WriteTxData
 134              	.LVL12:
 135              	.L12:
  37:spi_dma.c     ****         }
 136              		.loc 1 37 0 discriminator 1
 137 001c FFF7FEFF 		bl	SPI_ReadTxStatus
 138              	.LVL13:
 139 0020 10F0080F 		tst	r0, #8
 140 0024 FAD0     		beq	.L12
  42:spi_dma.c     ****     }
 141              		.loc 1 42 0 discriminator 2
 142 0026 FFF7FEFF 		bl	SPI_ReadRxData
 143              	.LVL14:
  34:spi_dma.c     ****         SPI_WriteTxData(tx_data[idx]);
 144              		.loc 1 34 0 discriminator 2
 145 002a 0134     		adds	r4, r4, #1
ARM GAS  C:\Users\strap\AppData\Local\Temp\ccTt4dNF.s 			page 6


 146              	.LVL15:
 147              	.L11:
  34:spi_dma.c     ****         SPI_WriteTxData(tx_data[idx]);
 148              		.loc 1 34 0 is_stmt 0 discriminator 1
 149 002c AC42     		cmp	r4, r5
 150 002e F2D3     		bcc	.L13
 151              	.LBE2:
  45:spi_dma.c     ****     
 152              		.loc 1 45 0 is_stmt 1
 153 0030 0120     		movs	r0, #1
 154 0032 FFF7FEFF 		bl	SS_Write
 155              	.LVL16:
  47:spi_dma.c     **** }
 156              		.loc 1 47 0
 157 0036 0022     		movs	r2, #0
 158 0038 014B     		ldr	r3, .L15
 159 003a 5A70     		strb	r2, [r3, #1]
 160 003c 70BD     		pop	{r4, r5, r6, pc}
 161              	.LVL17:
 162              	.L16:
 163 003e 00BF     		.align	2
 164              	.L15:
 165 0040 00000000 		.word	.LANCHOR0
 166              		.cfi_endproc
 167              	.LFE64:
 168              		.size	send_spi, .-send_spi
 169              		.section	.text.spi_xfer_is_ongoing,"ax",%progbits
 170              		.align	2
 171              		.global	spi_xfer_is_ongoing
 172              		.thumb
 173              		.thumb_func
 174              		.type	spi_xfer_is_ongoing, %function
 175              	spi_xfer_is_ongoing:
 176              	.LFB66:
  98:spi_dma.c     ****     return (uint8_t) SPI_XFER_IDLE != spi_xfer_status;
 177              		.loc 1 98 0
 178              		.cfi_startproc
 179              		@ args = 0, pretend = 0, frame = 0
 180              		@ frame_needed = 0, uses_anonymous_args = 0
 181              		@ link register save eliminated.
  99:spi_dma.c     **** }
 182              		.loc 1 99 0
 183 0000 034B     		ldr	r3, .L18
 184 0002 5B78     		ldrb	r3, [r3, #1]	@ zero_extendqisi2
 185 0004 13F0FF0F 		tst	r3, #255
 100:spi_dma.c     **** 
 186              		.loc 1 100 0
 187 0008 14BF     		ite	ne
 188 000a 0120     		movne	r0, #1
 189 000c 0020     		moveq	r0, #0
 190 000e 7047     		bx	lr
 191              	.L19:
 192              		.align	2
 193              	.L18:
 194 0010 00000000 		.word	.LANCHOR0
 195              		.cfi_endproc
 196              	.LFE66:
ARM GAS  C:\Users\strap\AppData\Local\Temp\ccTt4dNF.s 			page 7


 197              		.size	spi_xfer_is_ongoing, .-spi_xfer_is_ongoing
 198              		.section	.text.spi_xfer_set_status,"ax",%progbits
 199              		.align	2
 200              		.global	spi_xfer_set_status
 201              		.thumb
 202              		.thumb_func
 203              		.type	spi_xfer_set_status, %function
 204              	spi_xfer_set_status:
 205              	.LFB67:
 103:spi_dma.c     ****     spi_xfer_status = status;
 206              		.loc 1 103 0
 207              		.cfi_startproc
 208              		@ args = 0, pretend = 0, frame = 0
 209              		@ frame_needed = 0, uses_anonymous_args = 0
 210              		@ link register save eliminated.
 211              	.LVL18:
 104:spi_dma.c     **** }
 212              		.loc 1 104 0
 213 0000 014B     		ldr	r3, .L21
 214 0002 5870     		strb	r0, [r3, #1]
 215 0004 7047     		bx	lr
 216              	.L22:
 217 0006 00BF     		.align	2
 218              	.L21:
 219 0008 00000000 		.word	.LANCHOR0
 220              		.cfi_endproc
 221              	.LFE67:
 222              		.size	spi_xfer_set_status, .-spi_xfer_set_status
 223              		.section	.text.spi_xfer_on_completion,"ax",%progbits
 224              		.align	2
 225              		.global	spi_xfer_on_completion
 226              		.thumb
 227              		.thumb_func
 228              		.type	spi_xfer_on_completion, %function
 229              	spi_xfer_on_completion:
 230              	.LFB65:
  57:spi_dma.c     ****     spi_xfer_set_status(SPI_XFER_IDLE);
 231              		.loc 1 57 0
 232              		.cfi_startproc
 233              		@ args = 0, pretend = 0, frame = 0
 234              		@ frame_needed = 0, uses_anonymous_args = 0
 235 0000 10B5     		push	{r4, lr}
 236              		.cfi_def_cfa_offset 8
 237              		.cfi_offset 4, -8
 238              		.cfi_offset 14, -4
  58:spi_dma.c     ****     
 239              		.loc 1 58 0
 240 0002 0020     		movs	r0, #0
 241 0004 FFF7FEFF 		bl	spi_xfer_set_status
 242              	.LVL19:
  60:spi_dma.c     ****     if (CYRET_SUCCESS != ch_disable_sts) {
 243              		.loc 1 60 0
 244 0008 0A4B     		ldr	r3, .L29
 245 000a 1878     		ldrb	r0, [r3]	@ zero_extendqisi2
 246 000c FFF7FEFF 		bl	CyDmaChDisable
 247              	.LVL20:
  61:spi_dma.c     ****         UART_PutString("Error trying to disable the DMA channel");
ARM GAS  C:\Users\strap\AppData\Local\Temp\ccTt4dNF.s 			page 8


 248              		.loc 1 61 0
 249 0010 50B1     		cbz	r0, .L27
  62:spi_dma.c     ****         
 250              		.loc 1 62 0
 251 0012 0948     		ldr	r0, .L29+4
 252              	.LVL21:
 253 0014 FFF7FEFF 		bl	UART_PutString
 254              	.LVL22:
 255              	.L25:
 256 0018 FEE7     		b	.L25
 257              	.LVL23:
 258              	.L26:
 259              	.LBB3:
  86:spi_dma.c     ****     }
 260              		.loc 1 86 0 discriminator 3
 261 001a 064B     		ldr	r3, .L29
 262 001c 2344     		add	r3, r3, r4
 263 001e 1879     		ldrb	r0, [r3, #4]	@ zero_extendqisi2
 264 0020 FFF7FEFF 		bl	CyDmaTdFree
 265              	.LVL24:
  79:spi_dma.c     **** #ifdef DBG_SPI_DMA
 266              		.loc 1 79 0 discriminator 3
 267 0024 0134     		adds	r4, r4, #1
 268              	.LVL25:
 269 0026 00E0     		b	.L24
 270              	.LVL26:
 271              	.L27:
 272              	.LBE3:
 273 0028 0024     		movs	r4, #0
 274              	.LVL27:
 275              	.L24:
 276              	.LBB4:
  79:spi_dma.c     **** #ifdef DBG_SPI_DMA
 277              		.loc 1 79 0 is_stmt 0 discriminator 1
 278 002a 024B     		ldr	r3, .L29
 279 002c 1B69     		ldr	r3, [r3, #16]
 280 002e 9C42     		cmp	r4, r3
 281 0030 F3D3     		bcc	.L26
 282              	.LBE4:
  95:spi_dma.c     **** 
 283              		.loc 1 95 0 is_stmt 1
 284 0032 10BD     		pop	{r4, pc}
 285              	.LVL28:
 286              	.L30:
 287              		.align	2
 288              	.L29:
 289 0034 00000000 		.word	.LANCHOR0
 290 0038 00000000 		.word	.LC0
 291              		.cfi_endproc
 292              	.LFE65:
 293              		.size	spi_xfer_on_completion, .-spi_xfer_on_completion
 294              		.section	.text.spi_xfer_get_status,"ax",%progbits
 295              		.align	2
 296              		.global	spi_xfer_get_status
 297              		.thumb
 298              		.thumb_func
 299              		.type	spi_xfer_get_status, %function
ARM GAS  C:\Users\strap\AppData\Local\Temp\ccTt4dNF.s 			page 9


 300              	spi_xfer_get_status:
 301              	.LFB68:
 108:spi_dma.c     ****     return spi_xfer_status;
 302              		.loc 1 108 0
 303              		.cfi_startproc
 304              		@ args = 0, pretend = 0, frame = 0
 305              		@ frame_needed = 0, uses_anonymous_args = 0
 306              		@ link register save eliminated.
 109:spi_dma.c     **** }
 307              		.loc 1 109 0
 308 0000 014B     		ldr	r3, .L32
 309 0002 5878     		ldrb	r0, [r3, #1]	@ zero_extendqisi2
 110:spi_dma.c     **** 
 310              		.loc 1 110 0
 311 0004 7047     		bx	lr
 312              	.L33:
 313 0006 00BF     		.align	2
 314              	.L32:
 315 0008 00000000 		.word	.LANCHOR0
 316              		.cfi_endproc
 317              	.LFE68:
 318              		.size	spi_xfer_get_status, .-spi_xfer_get_status
 319              		.section	.text.send_spi_dma,"ax",%progbits
 320              		.align	2
 321              		.global	send_spi_dma
 322              		.thumb
 323              		.thumb_func
 324              		.type	send_spi_dma, %function
 325              	send_spi_dma:
 326              	.LFB70:
 130:spi_dma.c     **** 
 131:spi_dma.c     **** // transfer_count parameter is limited to 4095 bytes.
 132:spi_dma.c     **** void send_spi_dma(const uint8_t *tx_data, uint8_t *rx_data, const size_t size)
 133:spi_dma.c     **** {    
 327              		.loc 1 133 0
 328              		.cfi_startproc
 329              		@ args = 0, pretend = 0, frame = 0
 330              		@ frame_needed = 0, uses_anonymous_args = 0
 331              	.LVL29:
 134:spi_dma.c     ****     (void) rx_data;
 135:spi_dma.c     ****     
 136:spi_dma.c     ****     if (0 == size) {
 332              		.loc 1 136 0
 333 0000 002A     		cmp	r2, #0
 334 0002 00F09080 		beq	.L54
 133:spi_dma.c     ****     (void) rx_data;
 335              		.loc 1 133 0
 336 0006 2DE9F041 		push	{r4, r5, r6, r7, r8, lr}
 337              		.cfi_def_cfa_offset 24
 338              		.cfi_offset 4, -24
 339              		.cfi_offset 5, -20
 340              		.cfi_offset 6, -16
 341              		.cfi_offset 7, -12
 342              		.cfi_offset 8, -8
 343              		.cfi_offset 14, -4
 344 000a 1446     		mov	r4, r2
 345 000c 0546     		mov	r5, r0
ARM GAS  C:\Users\strap\AppData\Local\Temp\ccTt4dNF.s 			page 10


 346              	.LVL30:
 137:spi_dma.c     ****         return;
 138:spi_dma.c     ****     }
 139:spi_dma.c     ****     
 140:spi_dma.c     ****     cystatus tx_td_sts;
 141:spi_dma.c     ****     size_t tx_addr_offset = 0;
 142:spi_dma.c     ****     
 143:spi_dma.c     ****     SPI_ClearTxBuffer();
 347              		.loc 1 143 0
 348 000e FFF7FEFF 		bl	SPI_ClearTxBuffer
 349              	.LVL31:
 144:spi_dma.c     ****     
 145:spi_dma.c     ****     /* Calculate neccesary TDs */
 146:spi_dma.c     ****     g_tds_needed = calculate_needed_tds(size);
 350              		.loc 1 146 0
 351 0012 2046     		mov	r0, r4
 352 0014 FFF7FEFF 		bl	calculate_needed_tds
 353              	.LVL32:
 354 0018 434B     		ldr	r3, .L55
 355 001a 1861     		str	r0, [r3, #16]
 356              	.LVL33:
 357              	.LBB5:
 147:spi_dma.c     ****     
 148:spi_dma.c     **** #ifdef DBG_SPI_DMA
 149:spi_dma.c     ****     UART_PutString("Allocating ");
 150:spi_dma.c     ****     UART_PutHexByte(g_tds_needed);
 151:spi_dma.c     ****     UART_PutString(" TDs\r\n");
 152:spi_dma.c     **** #endif
 153:spi_dma.c     ****     
 154:spi_dma.c     ****     /* Allocate a pool of TD handles */
 155:spi_dma.c     ****     for (size_t idx = 0; idx < g_tds_needed; idx++) {
 358              		.loc 1 155 0
 359 001c 0026     		movs	r6, #0
 360 001e 0CE0     		b	.L36
 361              	.LVL34:
 362              	.L39:
 363              	.LBB6:
 156:spi_dma.c     ****         uint8_t td_idx = CyDmaTdAllocate();
 364              		.loc 1 156 0
 365 0020 FFF7FEFF 		bl	CyDmaTdAllocate
 366              	.LVL35:
 157:spi_dma.c     ****         
 158:spi_dma.c     ****         if (CY_DMA_INVALID_TD != td_idx) {
 367              		.loc 1 158 0
 368 0024 FF28     		cmp	r0, #255
 369 0026 04D0     		beq	.L37
 159:spi_dma.c     **** #ifdef DBG_SPI_DMA
 160:spi_dma.c     ****             UART_PutString("Allocated\r\n");
 161:spi_dma.c     **** #endif
 162:spi_dma.c     ****             DMA_Tx_TD_pool[idx] = td_idx;
 370              		.loc 1 162 0
 371 0028 3F4B     		ldr	r3, .L55
 372 002a 3344     		add	r3, r3, r6
 373 002c 1871     		strb	r0, [r3, #4]
 374              	.LBE6:
 155:spi_dma.c     ****         uint8_t td_idx = CyDmaTdAllocate();
 375              		.loc 1 155 0
ARM GAS  C:\Users\strap\AppData\Local\Temp\ccTt4dNF.s 			page 11


 376 002e 0136     		adds	r6, r6, #1
 377              	.LVL36:
 378 0030 03E0     		b	.L36
 379              	.L37:
 380              	.LBB7:
 163:spi_dma.c     ****         } else {
 164:spi_dma.c     ****             UART_PutString("No free TDs available");
 381              		.loc 1 164 0
 382 0032 3E48     		ldr	r0, .L55+4
 383              	.LVL37:
 384 0034 FFF7FEFF 		bl	UART_PutString
 385              	.LVL38:
 386              	.L38:
 387 0038 FEE7     		b	.L38
 388              	.LVL39:
 389              	.L36:
 390              	.LBE7:
 155:spi_dma.c     ****         uint8_t td_idx = CyDmaTdAllocate();
 391              		.loc 1 155 0 discriminator 1
 392 003a 3B4B     		ldr	r3, .L55
 393 003c 1B69     		ldr	r3, [r3, #16]
 394 003e 9E42     		cmp	r6, r3
 395 0040 EED3     		bcc	.L39
 396              	.LBE5:
 165:spi_dma.c     ****             
 166:spi_dma.c     ****             while (1) {
 167:spi_dma.c     ****             
 168:spi_dma.c     ****             }
 169:spi_dma.c     ****         }
 170:spi_dma.c     ****     }
 171:spi_dma.c     ****     
 172:spi_dma.c     ****     /* First TD on the pool is always the initial TD of the DMA channel */
 173:spi_dma.c     ****     cystatus td_sts = CyDmaChSetInitialTd(DMA_Tx_Chan, DMA_Tx_TD_pool[0]);
 397              		.loc 1 173 0
 398 0042 394B     		ldr	r3, .L55
 399 0044 1979     		ldrb	r1, [r3, #4]	@ zero_extendqisi2
 400 0046 1878     		ldrb	r0, [r3]	@ zero_extendqisi2
 401 0048 FFF7FEFF 		bl	CyDmaChSetInitialTd
 402              	.LVL40:
 174:spi_dma.c     ****     if (CYRET_SUCCESS != td_sts) {
 403              		.loc 1 174 0
 404 004c 18B1     		cbz	r0, .L40
 175:spi_dma.c     ****         UART_PutString("Invalid first TD");
 405              		.loc 1 175 0
 406 004e 3848     		ldr	r0, .L55+8
 407              	.LVL41:
 408 0050 FFF7FEFF 		bl	UART_PutString
 409              	.LVL42:
 410              	.L41:
 411 0054 FEE7     		b	.L41
 412              	.LVL43:
 413              	.L40:
 176:spi_dma.c     ****         
 177:spi_dma.c     ****         while (1) {
 178:spi_dma.c     ****             
 179:spi_dma.c     ****         }
 180:spi_dma.c     ****     }
ARM GAS  C:\Users\strap\AppData\Local\Temp\ccTt4dNF.s 			page 12


 181:spi_dma.c     ****     
 182:spi_dma.c     ****     /* Number of TDs with MAX_BYTES_PE_TD bytes to send */
 183:spi_dma.c     ****     size_t td_max_bytes = size / MAX_BYTES_PER_TD;
 414              		.loc 1 183 0
 415 0056 374B     		ldr	r3, .L55+12
 416 0058 A3FB0423 		umull	r2, r3, r3, r4
 417 005c E21A     		subs	r2, r4, r3
 418 005e 03EB5203 		add	r3, r3, r2, lsr #1
 419 0062 DB0A     		lsrs	r3, r3, #11
 420              	.LVL44:
 184:spi_dma.c     ****     
 185:spi_dma.c     ****     /* Los bytes a enviar por el ultimo TD se calculan restandole los bytes
 186:spi_dma.c     ****      * enviados por los TDs previos, en caso de usar mas de 1 TD todos los TDs
 187:spi_dma.c     ****      * excepto el ultimo envian MAX_BYTES_PER_TD. */
 188:spi_dma.c     ****     uint16_t bytes_for_last_td = size - (td_max_bytes * MAX_BYTES_PER_TD);;
 421              		.loc 1 188 0
 422 0064 C3EB0333 		rsb	r3, r3, r3, lsl #12
 423              	.LVL45:
 424 0068 E31A     		subs	r3, r4, r3
 425 006a 9EB2     		uxth	r6, r3
 426              	.LVL46:
 427              	.LBB8:
 189:spi_dma.c     **** 
 190:spi_dma.c     **** #ifdef DBG_SPI_DMA
 191:spi_dma.c     ****     UART_PutString("TDs with MAX_BYTES_PER_TD: ");
 192:spi_dma.c     ****     UART_PutHexInt((uint16_t) td_max_bytes);
 193:spi_dma.c     ****     UART_PutCRLF();
 194:spi_dma.c     ****     UART_PutString("Bytes for last TD: ");
 195:spi_dma.c     ****     UART_PutHexInt((uint16_t) bytes_for_last_td);
 196:spi_dma.c     ****     UART_PutCRLF();
 197:spi_dma.c     **** #endif
 198:spi_dma.c     **** 
 199:spi_dma.c     ****     /* Configure all needed TDs */    
 200:spi_dma.c     ****     for (size_t td_idx = 0; td_idx < g_tds_needed; td_idx++) {
 428              		.loc 1 200 0
 429 006c 0024     		movs	r4, #0
 430              	.LVL47:
 431              	.LBE8:
 141:spi_dma.c     ****     
 432              		.loc 1 141 0
 433 006e 2746     		mov	r7, r4
 434              	.LBB10:
 435              		.loc 1 200 0
 436 0070 46E0     		b	.L42
 437              	.LVL48:
 438              	.L52:
 439              	.LBB9:
 201:spi_dma.c     ****         
 202:spi_dma.c     ****         uint8_t is_last_td_to_configure = td_idx == (g_tds_needed - 1);
 440              		.loc 1 202 0
 441 0072 2D4B     		ldr	r3, .L55
 442 0074 1B69     		ldr	r3, [r3, #16]
 443 0076 013B     		subs	r3, r3, #1
 444              	.LVL49:
 203:spi_dma.c     ****         
 204:spi_dma.c     ****         if (is_last_td_to_configure) {
 445              		.loc 1 204 0
ARM GAS  C:\Users\strap\AppData\Local\Temp\ccTt4dNF.s 			page 13


 446 0078 9C42     		cmp	r4, r3
 447 007a 1ED1     		bne	.L43
 205:spi_dma.c     **** #ifdef DBG_SPI_DMA
 206:spi_dma.c     ****             UART_PutString("Configuring last TD...\r\nTD idx: ");
 207:spi_dma.c     ****             UART_PutHexByte(td_idx);
 208:spi_dma.c     ****             UART_PutString(" - TD handle: ");
 209:spi_dma.c     ****             UART_PutHexByte(DMA_Tx_TD_pool[td_idx]);
 210:spi_dma.c     ****             UART_PutCRLF();
 211:spi_dma.c     **** #endif
 212:spi_dma.c     **** 
 213:spi_dma.c     ****             /* The last TD should generate a pulse on the nrq signal to let us know it
 214:spi_dma.c     ****              * is done transfering data */
 215:spi_dma.c     ****             tx_td_sts = CyDmaTdSetConfiguration(DMA_Tx_TD_pool[td_idx],
 448              		.loc 1 215 0
 449 007c 2A48     		ldr	r0, .L55
 450 007e 2044     		add	r0, r0, r4
 451 0080 0523     		movs	r3, #5
 452              	.LVL50:
 453 0082 FE22     		movs	r2, #254
 454 0084 3146     		mov	r1, r6
 455 0086 0079     		ldrb	r0, [r0, #4]	@ zero_extendqisi2
 456 0088 FFF7FEFF 		bl	CyDmaTdSetConfiguration
 457              	.LVL51:
 216:spi_dma.c     ****                 bytes_for_last_td,
 217:spi_dma.c     ****                 CY_DMA_DISABLE_TD, /* Disable this DMA channel after this TD is done */
 218:spi_dma.c     ****                 CY_DMA_TD_INC_SRC_ADR | DMA_Tx__TD_TERMOUT_EN);
 219:spi_dma.c     ****             
 220:spi_dma.c     ****             if (CYRET_SUCCESS != tx_td_sts) {
 458              		.loc 1 220 0
 459 008c 18B1     		cbz	r0, .L44
 221:spi_dma.c     ****                 UART_PutString("Invalid TD configuration");
 460              		.loc 1 221 0
 461 008e 2A48     		ldr	r0, .L55+16
 462              	.LVL52:
 463 0090 FFF7FEFF 		bl	UART_PutString
 464              	.LVL53:
 465              	.L45:
 466 0094 FEE7     		b	.L45
 467              	.LVL54:
 468              	.L44:
 222:spi_dma.c     ****                 
 223:spi_dma.c     ****                 while (1) {
 224:spi_dma.c     ****             
 225:spi_dma.c     ****                 }
 226:spi_dma.c     ****             }
 227:spi_dma.c     **** 
 228:spi_dma.c     **** #ifdef DBG_SPI_DMA
 229:spi_dma.c     ****             UART_PutString("source array offset: ");
 230:spi_dma.c     ****             UART_PutHexInt(tx_addr_offset);
 231:spi_dma.c     ****             UART_PutCRLF();
 232:spi_dma.c     ****             
 233:spi_dma.c     ****             UART_PutString("Configuring TD addresses\r\n");
 234:spi_dma.c     **** #endif
 235:spi_dma.c     **** 
 236:spi_dma.c     ****             tx_td_sts = CyDmaTdSetAddress(DMA_Tx_TD_pool[td_idx],
 469              		.loc 1 236 0
 470 0096 244B     		ldr	r3, .L55
ARM GAS  C:\Users\strap\AppData\Local\Temp\ccTt4dNF.s 			page 14


 471 0098 1C44     		add	r4, r4, r3
 472              	.LVL55:
 237:spi_dma.c     ****                 LO16((uint32_t) &tx_data[tx_addr_offset]),
 473              		.loc 1 237 0
 474 009a E919     		adds	r1, r5, r7
 236:spi_dma.c     ****                 LO16((uint32_t) &tx_data[tx_addr_offset]),
 475              		.loc 1 236 0
 476 009c 46F24552 		movw	r2, #25925
 477 00a0 89B2     		uxth	r1, r1
 478 00a2 2079     		ldrb	r0, [r4, #4]	@ zero_extendqisi2
 479              	.LVL56:
 480 00a4 FFF7FEFF 		bl	CyDmaTdSetAddress
 481              	.LVL57:
 238:spi_dma.c     ****                 LO16((uint32_t) SPI_TXDATA_PTR));
 239:spi_dma.c     ****             
 240:spi_dma.c     ****             if (CYRET_SUCCESS != tx_td_sts) {
 482              		.loc 1 240 0
 483 00a8 0446     		mov	r4, r0
 484              	.LVL58:
 485 00aa 68B3     		cbz	r0, .L46
 241:spi_dma.c     ****                 UART_PutString("Invalid TD address");
 486              		.loc 1 241 0
 487 00ac 2348     		ldr	r0, .L55+20
 488              	.LVL59:
 489 00ae FFF7FEFF 		bl	UART_PutString
 490              	.LVL60:
 242:spi_dma.c     ****                 UART_PutHexByte(tx_td_sts);
 491              		.loc 1 242 0
 492 00b2 E0B2     		uxtb	r0, r4
 493 00b4 FFF7FEFF 		bl	UART_PutHexByte
 494              	.LVL61:
 495              	.L47:
 496 00b8 FEE7     		b	.L47
 497              	.LVL62:
 498              	.L43:
 243:spi_dma.c     ****                 
 244:spi_dma.c     ****                 while (1) {
 245:spi_dma.c     ****             
 246:spi_dma.c     ****                 }
 247:spi_dma.c     ****             }
 248:spi_dma.c     ****             
 249:spi_dma.c     ****             break;
 250:spi_dma.c     ****         } else {
 251:spi_dma.c     **** #ifdef DBG_SPI_DMA
 252:spi_dma.c     ****             UART_PutString("Configuring TD...\r\nTD idx: ");
 253:spi_dma.c     ****             UART_PutHexByte(td_idx);
 254:spi_dma.c     ****             UART_PutCRLF();
 255:spi_dma.c     **** #endif
 256:spi_dma.c     **** 
 257:spi_dma.c     ****             tx_td_sts = CyDmaTdSetConfiguration(DMA_Tx_TD_pool[td_idx],
 499              		.loc 1 257 0
 500 00ba 1B4B     		ldr	r3, .L55
 501              	.LVL63:
 502 00bc 1819     		adds	r0, r3, r4
 258:spi_dma.c     ****                 (uint16_t) MAX_BYTES_PER_TD,
 259:spi_dma.c     ****                 DMA_Tx_TD_pool[td_idx + 1] /* Next TD */,
 503              		.loc 1 259 0
ARM GAS  C:\Users\strap\AppData\Local\Temp\ccTt4dNF.s 			page 15


 504 00be 04F10108 		add	r8, r4, #1
 257:spi_dma.c     ****                 (uint16_t) MAX_BYTES_PER_TD,
 505              		.loc 1 257 0
 506 00c2 03EB0802 		add	r2, r3, r8
 507 00c6 0123     		movs	r3, #1
 508 00c8 1279     		ldrb	r2, [r2, #4]	@ zero_extendqisi2
 509 00ca 40F6FF71 		movw	r1, #4095
 510 00ce 0079     		ldrb	r0, [r0, #4]	@ zero_extendqisi2
 511 00d0 FFF7FEFF 		bl	CyDmaTdSetConfiguration
 512              	.LVL64:
 260:spi_dma.c     ****                 CY_DMA_TD_INC_SRC_ADR);
 261:spi_dma.c     ****             
 262:spi_dma.c     ****             if (CYRET_SUCCESS != tx_td_sts) {
 513              		.loc 1 262 0
 514 00d4 18B1     		cbz	r0, .L48
 263:spi_dma.c     ****                 UART_PutString("Invalid TD configuration");
 515              		.loc 1 263 0
 516 00d6 1848     		ldr	r0, .L55+16
 517              	.LVL65:
 518 00d8 FFF7FEFF 		bl	UART_PutString
 519              	.LVL66:
 520              	.L49:
 521 00dc FEE7     		b	.L49
 522              	.LVL67:
 523              	.L48:
 264:spi_dma.c     ****                 while (1) {
 265:spi_dma.c     ****             
 266:spi_dma.c     ****                 }
 267:spi_dma.c     ****             }
 268:spi_dma.c     **** 
 269:spi_dma.c     **** #ifdef DBG_SPI_DMA
 270:spi_dma.c     ****             UART_PutString("source array offset:");
 271:spi_dma.c     ****             UART_PutHexInt(tx_addr_offset);
 272:spi_dma.c     ****             UART_PutCRLF();
 273:spi_dma.c     **** #endif
 274:spi_dma.c     **** 
 275:spi_dma.c     ****             tx_td_sts = CyDmaTdSetAddress(DMA_Tx_TD_pool[td_idx],
 524              		.loc 1 275 0
 525 00de 124B     		ldr	r3, .L55
 526 00e0 1C44     		add	r4, r4, r3
 527              	.LVL68:
 276:spi_dma.c     ****                 LO16((uint32_t) &tx_data[tx_addr_offset]),
 528              		.loc 1 276 0
 529 00e2 E919     		adds	r1, r5, r7
 275:spi_dma.c     ****                 LO16((uint32_t) &tx_data[tx_addr_offset]),
 530              		.loc 1 275 0
 531 00e4 46F24552 		movw	r2, #25925
 532 00e8 89B2     		uxth	r1, r1
 533 00ea 2079     		ldrb	r0, [r4, #4]	@ zero_extendqisi2
 534              	.LVL69:
 535 00ec FFF7FEFF 		bl	CyDmaTdSetAddress
 536              	.LVL70:
 277:spi_dma.c     ****                 LO16((uint32_t) SPI_TXDATA_PTR));
 278:spi_dma.c     ****             
 279:spi_dma.c     ****             if (CYRET_SUCCESS != tx_td_sts) {
 537              		.loc 1 279 0
 538 00f0 18B1     		cbz	r0, .L50
ARM GAS  C:\Users\strap\AppData\Local\Temp\ccTt4dNF.s 			page 16


 280:spi_dma.c     ****                 UART_PutString("Invalid TD address");
 539              		.loc 1 280 0
 540 00f2 1248     		ldr	r0, .L55+20
 541              	.LVL71:
 542 00f4 FFF7FEFF 		bl	UART_PutString
 543              	.LVL72:
 544              	.L51:
 545 00f8 FEE7     		b	.L51
 546              	.LVL73:
 547              	.L50:
 281:spi_dma.c     ****                 
 282:spi_dma.c     ****                 while (1) {
 283:spi_dma.c     ****             
 284:spi_dma.c     ****                 }
 285:spi_dma.c     ****             }
 286:spi_dma.c     ****             
 287:spi_dma.c     ****             tx_addr_offset += MAX_BYTES_PER_TD;
 548              		.loc 1 287 0 discriminator 2
 549 00fa 07F6FF77 		addw	r7, r7, #4095
 550              	.LVL74:
 551              	.LBE9:
 200:spi_dma.c     ****         
 552              		.loc 1 200 0 discriminator 2
 553 00fe 4446     		mov	r4, r8
 554              	.LVL75:
 555              	.L42:
 200:spi_dma.c     ****         
 556              		.loc 1 200 0 is_stmt 0 discriminator 1
 557 0100 094B     		ldr	r3, .L55
 558 0102 1B69     		ldr	r3, [r3, #16]
 559 0104 9C42     		cmp	r4, r3
 560 0106 B4D3     		bcc	.L52
 561              	.LVL76:
 562              	.L46:
 563              	.LBE10:
 288:spi_dma.c     ****         }
 289:spi_dma.c     ****     }
 290:spi_dma.c     ****     
 291:spi_dma.c     **** #ifdef DBG_SPI_DMA
 292:spi_dma.c     ****     UART_PutString("Done configuring\r\n");
 293:spi_dma.c     **** #endif
 294:spi_dma.c     **** 
 295:spi_dma.c     ****     spi_xfer_status = SPI_XFER_ONGOING;
 564              		.loc 1 295 0 is_stmt 1
 565 0108 074B     		ldr	r3, .L55
 566 010a 0222     		movs	r2, #2
 567 010c 5A70     		strb	r2, [r3, #1]
 296:spi_dma.c     ****     CyDmaChEnable(DMA_Tx_Chan, 1 /* Restore TDs configuration when done */);
 568              		.loc 1 296 0
 569 010e 0121     		movs	r1, #1
 570 0110 1878     		ldrb	r0, [r3]	@ zero_extendqisi2
 571 0112 FFF7FEFF 		bl	CyDmaChEnable
 572              	.LVL77:
 297:spi_dma.c     ****     
 298:spi_dma.c     ****     SS_Write(0);
 573              		.loc 1 298 0
 574 0116 0020     		movs	r0, #0
ARM GAS  C:\Users\strap\AppData\Local\Temp\ccTt4dNF.s 			page 17


 575 0118 FFF7FEFF 		bl	SS_Write
 576              	.LVL78:
 299:spi_dma.c     ****     
 300:spi_dma.c     ****     /* let the spi interrupt tx fifo not full trigger the dma request */
 301:spi_dma.c     ****     SPI_SetTxInterruptMode(1u << SPI_STS_TX_FIFO_NOT_FULL_SHIFT);
 577              		.loc 1 301 0
 578 011c 0420     		movs	r0, #4
 579 011e FFF7FEFF 		bl	SPI_SetTxInterruptMode
 580              	.LVL79:
 581 0122 BDE8F081 		pop	{r4, r5, r6, r7, r8, pc}
 582              	.LVL80:
 583              	.L54:
 584              		.cfi_def_cfa_offset 0
 585              		.cfi_restore 4
 586              		.cfi_restore 5
 587              		.cfi_restore 6
 588              		.cfi_restore 7
 589              		.cfi_restore 8
 590              		.cfi_restore 14
 591 0126 7047     		bx	lr
 592              	.L56:
 593              		.align	2
 594              	.L55:
 595 0128 00000000 		.word	.LANCHOR0
 596 012c 28000000 		.word	.LC1
 597 0130 40000000 		.word	.LC2
 598 0134 01011000 		.word	1048833
 599 0138 54000000 		.word	.LC3
 600 013c 70000000 		.word	.LC4
 601              		.cfi_endproc
 602              	.LFE70:
 603              		.size	send_spi_dma, .-send_spi_dma
 604              		.section	.rodata.str1.4,"aMS",%progbits,1
 605              		.align	2
 606              	.LC0:
 607 0000 4572726F 		.ascii	"Error trying to disable the DMA channel\000"
 607      72207472 
 607      79696E67 
 607      20746F20 
 607      64697361 
 608              	.LC1:
 609 0028 4E6F2066 		.ascii	"No free TDs available\000"
 609      72656520 
 609      54447320 
 609      61766169 
 609      6C61626C 
 610 003e 0000     		.space	2
 611              	.LC2:
 612 0040 496E7661 		.ascii	"Invalid first TD\000"
 612      6C696420 
 612      66697273 
 612      74205444 
 612      00
 613 0051 000000   		.space	3
 614              	.LC3:
 615 0054 496E7661 		.ascii	"Invalid TD configuration\000"
 615      6C696420 
ARM GAS  C:\Users\strap\AppData\Local\Temp\ccTt4dNF.s 			page 18


 615      54442063 
 615      6F6E6669 
 615      67757261 
 616 006d 000000   		.space	3
 617              	.LC4:
 618 0070 496E7661 		.ascii	"Invalid TD address\000"
 618      6C696420 
 618      54442061 
 618      64647265 
 618      737300
 619              		.bss
 620              		.align	2
 621              		.set	.LANCHOR0,. + 0
 622              		.type	DMA_Tx_Chan, %object
 623              		.size	DMA_Tx_Chan, 1
 624              	DMA_Tx_Chan:
 625 0000 00       		.space	1
 626              		.type	spi_xfer_status, %object
 627              		.size	spi_xfer_status, 1
 628              	spi_xfer_status:
 629 0001 00       		.space	1
 630 0002 0000     		.space	2
 631              		.type	DMA_Tx_TD_pool, %object
 632              		.size	DMA_Tx_TD_pool, 10
 633              	DMA_Tx_TD_pool:
 634 0004 00000000 		.space	10
 634      00000000 
 634      0000
 635 000e 0000     		.space	2
 636              		.type	g_tds_needed, %object
 637              		.size	g_tds_needed, 4
 638              	g_tds_needed:
 639 0010 00000000 		.space	4
 640              		.text
 641              	.Letext0:
 642              		.file 2 "c:\\program files (x86)\\cypress\\psoc creator\\4.4\\psoc creator\\import\\gnu\\arm\\5.4.
 643              		.file 3 "c:\\program files (x86)\\cypress\\psoc creator\\4.4\\psoc creator\\import\\gnu\\arm\\5.4.
 644              		.file 4 "Generated_Source\\PSoC5/cytypes.h"
 645              		.file 5 "c:\\program files (x86)\\cypress\\psoc creator\\4.4\\psoc creator\\import\\gnu\\arm\\5.4.
 646              		.file 6 "spi_dma.h"
 647              		.file 7 "Generated_Source\\PSoC5/DMA_Tx_dma.h"
 648              		.file 8 "Generated_Source\\PSoC5/SPI.h"
 649              		.file 9 "Generated_Source\\PSoC5/SS.h"
 650              		.file 10 "Generated_Source\\PSoC5/CYDMAC.H"
 651              		.file 11 "Generated_Source\\PSoC5/UART.h"
 652              		.file 12 "Generated_Source\\PSoC5/core_cm3.h"